$ fq -d wasm dv address-1.wasm
     |00 01 02 03 04 05 06 07 08 09 0a 0b 0c 0d 0e 0f|0123456789abcdef|.{}: address-1.wasm (wasm) 0x0-0x3ba.7 (955)
0x000|00 61 73 6d                                    |.asm            |  magic: raw bits (valid) 0x0-0x3.7 (4)
0x000|            01 00 00 00                        |    ....        |  version: 1 0x4-0x7.7 (4)
     |                                               |                |  sections[0:6]: 0x8-0x3ba.7 (947)
     |                                               |                |    [0]{}: section 0x8-0x13.7 (12)
0x000|                        01                     |        .       |      id: "type section" (1) 0x8-0x8.7 (1)
0x000|                           0a                  |         .      |      size: 10 0x9-0x9.7 (1)
     |                                               |                |      content{}: 0xa-0x13.7 (10)
0x000|                              02               |          .     |        n: 2 0xa-0xa.7 (1)
     |                                               |                |        items[0:2]: 0xb-0x13.7 (9)
     |                                               |                |          [0]{}: functype 0xb-0xf.7 (5)
0x000|                                 60            |           `    |            tag: 0x60 (valid) 0xb-0xb.7 (1)
     |                                               |                |            rt1{}: 0xc-0xd.7 (2)
0x000|                                    01         |            .   |              n: 1 0xc-0xc.7 (1)
     |                                               |                |              items[0:1]: 0xd-0xd.7 (1)
0x000|                                       7f      |             .  |                [0]: "i32" (127) valtype 0xd-0xd.7 (1)
     |                                               |                |            rt2{}: 0xe-0xf.7 (2)
0x000|                                          01   |              . |              n: 1 0xe-0xe.7 (1)
     |                                               |                |              items[0:1]: 0xf-0xf.7 (1)
0x000|                                             7e|               ~|                [0]: "i64" (126) valtype 0xf-0xf.7 (1)
     |                                               |                |          [1]{}: functype 0x10-0x13.7 (4)
0x010|60                                             |`               |            tag: 0x60 (valid) 0x10-0x10.7 (1)
     |                                               |                |            rt1{}: 0x11-0x12.7 (2)
0x010|   01                                          | .              |              n: 1 0x11-0x11.7 (1)
     |                                               |                |              items[0:1]: 0x12-0x12.7 (1)
0x010|      7f                                       |  .             |                [0]: "i32" (127) valtype 0x12-0x12.7 (1)
     |                                               |                |            rt2{}: 0x13-0x13.7 (1)
0x010|         00                                    |   .            |              n: 0 0x13-0x13.7 (1)
     |                                               |                |              items[0:0]: 0x14-NA (0)
     |                                               |                |    [1]{}: section 0x14-0x40.7 (45)
0x010|            03                                 |    .           |      id: "function section" (3) 0x14-0x14.7 (1)
0x010|               2b                              |     +          |      size: 43 0x15-0x15.7 (1)
     |                                               |                |      content{}: 0x16-0x40.7 (43)
0x010|                  2a                           |      *         |        n: 42 0x16-0x16.7 (1)
     |                                               |                |        items[0:42]: 0x17-0x40.7 (42)
0x010|                     00                        |       .        |          [0]: 0 x 0x17-0x17.7 (1)
0x010|                        00                     |        .       |          [1]: 0 x 0x18-0x18.7 (1)
0x010|                           00                  |         .      |          [2]: 0 x 0x19-0x19.7 (1)
0x010|                              00               |          .     |          [3]: 0 x 0x1a-0x1a.7 (1)
0x010|                                 00            |           .    |          [4]: 0 x 0x1b-0x1b.7 (1)
0x010|                                    00         |            .   |          [5]: 0 x 0x1c-0x1c.7 (1)
0x010|                                       00      |             .  |          [6]: 0 x 0x1d-0x1d.7 (1)
0x010|                                          00   |              . |          [7]: 0 x 0x1e-0x1e.7 (1)
0x010|                                             00|               .|          [8]: 0 x 0x1f-0x1f.7 (1)
0x020|00                                             |.               |          [9]: 0 x 0x20-0x20.7 (1)
0x020|   00                                          | .              |          [10]: 0 x 0x21-0x21.7 (1)
0x020|      00                                       |  .             |          [11]: 0 x 0x22-0x22.7 (1)
0x020|         00                                    |   .            |          [12]: 0 x 0x23-0x23.7 (1)
0x020|            00                                 |    .           |          [13]: 0 x 0x24-0x24.7 (1)
0x020|               00                              |     .          |          [14]: 0 x 0x25-0x25.7 (1)
0x020|                  00                           |      .         |          [15]: 0 x 0x26-0x26.7 (1)
0x020|                     00                        |       .        |          [16]: 0 x 0x27-0x27.7 (1)
0x020|                        00                     |        .       |          [17]: 0 x 0x28-0x28.7 (1)
0x020|                           00                  |         .      |          [18]: 0 x 0x29-0x29.7 (1)
0x020|                              00               |          .     |          [19]: 0 x 0x2a-0x2a.7 (1)
0x020|                                 00            |           .    |          [20]: 0 x 0x2b-0x2b.7 (1)
0x020|                                    00         |            .   |          [21]: 0 x 0x2c-0x2c.7 (1)
0x020|                                       00      |             .  |          [22]: 0 x 0x2d-0x2d.7 (1)
0x020|                                          00   |              . |          [23]: 0 x 0x2e-0x2e.7 (1)
0x020|                                             00|               .|          [24]: 0 x 0x2f-0x2f.7 (1)
0x030|00                                             |.               |          [25]: 0 x 0x30-0x30.7 (1)
0x030|   00                                          | .              |          [26]: 0 x 0x31-0x31.7 (1)
0x030|      00                                       |  .             |          [27]: 0 x 0x32-0x32.7 (1)
0x030|         00                                    |   .            |          [28]: 0 x 0x33-0x33.7 (1)
0x030|            00                                 |    .           |          [29]: 0 x 0x34-0x34.7 (1)
0x030|               00                              |     .          |          [30]: 0 x 0x35-0x35.7 (1)
0x030|                  00                           |      .         |          [31]: 0 x 0x36-0x36.7 (1)
0x030|                     00                        |       .        |          [32]: 0 x 0x37-0x37.7 (1)
0x030|                        00                     |        .       |          [33]: 0 x 0x38-0x38.7 (1)
0x030|                           00                  |         .      |          [34]: 0 x 0x39-0x39.7 (1)
0x030|                              01               |          .     |          [35]: 1 x 0x3a-0x3a.7 (1)
0x030|                                 01            |           .    |          [36]: 1 x 0x3b-0x3b.7 (1)
0x030|                                    01         |            .   |          [37]: 1 x 0x3c-0x3c.7 (1)
0x030|                                       01      |             .  |          [38]: 1 x 0x3d-0x3d.7 (1)
0x030|                                          01   |              . |          [39]: 1 x 0x3e-0x3e.7 (1)
0x030|                                             01|               .|          [40]: 1 x 0x3f-0x3f.7 (1)
0x040|01                                             |.               |          [41]: 1 x 0x40-0x40.7 (1)
     |                                               |                |    [2]{}: section 0x41-0x45.7 (5)
0x040|   05                                          | .              |      id: "memory section" (5) 0x41-0x41.7 (1)
0x040|      03                                       |  .             |      size: 3 0x42-0x42.7 (1)
     |                                               |                |      content{}: 0x43-0x45.7 (3)
0x040|         01                                    |   .            |        n: 1 0x43-0x43.7 (1)
     |                                               |                |        items[0:1]: 0x44-0x45.7 (2)
     |                                               |                |          [0]{}: mem 0x44-0x45.7 (2)
     |                                               |                |            limits{}: 0x44-0x45.7 (2)
0x040|            00                                 |    .           |              tag: 0x0 0x44-0x44.7 (1)
0x040|               01                              |     .          |              min: 1 0x45-0x45.7 (1)
     |                                               |                |    [3]{}: section 0x46-0x221.7 (476)
0x040|                  07                           |      .         |      id: "export section" (7) 0x46-0x46.7 (1)
0x040|                     d9 03                     |       ..       |      size: 473 0x47-0x48.7 (2)
     |                                               |                |      content{}: 0x49-0x221.7 (473)
0x040|                           2a                  |         *      |        n: 42 0x49-0x49.7 (1)
     |                                               |                |        items[0:42]: 0x4a-0x221.7 (472)
     |                                               |                |          [0]{}: export 0x4a-0x54.7 (11)
     |                                               |                |            name{}: 0x4a-0x52.7 (9)
0x040|                              08               |          .     |              len: 8 0x4a-0x4a.7 (1)
0x040|                                 38 75 5f 67 6f|           8u_go|              utf8bytes: "8u_good1" 0x4b-0x52.7 (8)
0x050|6f 64 31                                       |od1             |
     |                                               |                |            expr{}: 0x53-0x54.7 (2)
0x050|         00                                    |   .            |              tag: "funcidx" (0x0) 0x53-0x53.7 (1)
0x050|            00                                 |    .           |              x: 0 0x54-0x54.7 (1)
     |                                               |                |          [1]{}: export 0x55-0x5f.7 (11)
     |                                               |                |            name{}: 0x55-0x5d.7 (9)
0x050|               08                              |     .          |              len: 8 0x55-0x55.7 (1)
0x050|                  38 75 5f 67 6f 6f 64 32      |      8u_good2  |              utf8bytes: "8u_good2" 0x56-0x5d.7 (8)
     |                                               |                |            expr{}: 0x5e-0x5f.7 (2)
0x050|                                          00   |              . |              tag: "funcidx" (0x0) 0x5e-0x5e.7 (1)
0x050|                                             01|               .|              x: 1 0x5f-0x5f.7 (1)
     |                                               |                |          [2]{}: export 0x60-0x6a.7 (11)
     |                                               |                |            name{}: 0x60-0x68.7 (9)
0x060|08                                             |.               |              len: 8 0x60-0x60.7 (1)
0x060|   38 75 5f 67 6f 6f 64 33                     | 8u_good3       |              utf8bytes: "8u_good3" 0x61-0x68.7 (8)
     |                                               |                |            expr{}: 0x69-0x6a.7 (2)
0x060|                           00                  |         .      |              tag: "funcidx" (0x0) 0x69-0x69.7 (1)
0x060|                              02               |          .     |              x: 2 0x6a-0x6a.7 (1)
     |                                               |                |          [3]{}: export 0x6b-0x75.7 (11)
     |                                               |                |            name{}: 0x6b-0x73.7 (9)
0x060|                                 08            |           .    |              len: 8 0x6b-0x6b.7 (1)
0x060|                                    38 75 5f 67|            8u_g|              utf8bytes: "8u_good4" 0x6c-0x73.7 (8)
0x070|6f 6f 64 34                                    |ood4            |
     |                                               |                |            expr{}: 0x74-0x75.7 (2)
0x070|            00                                 |    .           |              tag: "funcidx" (0x0) 0x74-0x74.7 (1)
0x070|               03                              |     .          |              x: 3 0x75-0x75.7 (1)
     |                                               |                |          [4]{}: export 0x76-0x80.7 (11)
     |                                               |                |            name{}: 0x76-0x7e.7 (9)
0x070|                  08                           |      .         |              len: 8 0x76-0x76.7 (1)
0x070|                     38 75 5f 67 6f 6f 64 35   |       8u_good5 |              utf8bytes: "8u_good5" 0x77-0x7e.7 (8)
     |                                               |                |            expr{}: 0x7f-0x80.7 (2)
0x070|                                             00|               .|              tag: "funcidx" (0x0) 0x7f-0x7f.7 (1)
0x080|04                                             |.               |              x: 4 0x80-0x80.7 (1)
     |                                               |                |          [5]{}: export 0x81-0x8b.7 (11)
     |                                               |                |            name{}: 0x81-0x89.7 (9)
0x080|   08                                          | .              |              len: 8 0x81-0x81.7 (1)
0x080|      38 73 5f 67 6f 6f 64 31                  |  8s_good1      |              utf8bytes: "8s_good1" 0x82-0x89.7 (8)
     |                                               |                |            expr{}: 0x8a-0x8b.7 (2)
0x080|                              00               |          .     |              tag: "funcidx" (0x0) 0x8a-0x8a.7 (1)
0x080|                                 05            |           .    |              x: 5 0x8b-0x8b.7 (1)
     |                                               |                |          [6]{}: export 0x8c-0x96.7 (11)
     |                                               |                |            name{}: 0x8c-0x94.7 (9)
0x080|                                    08         |            .   |              len: 8 0x8c-0x8c.7 (1)
0x080|                                       38 73 5f|             8s_|              utf8bytes: "8s_good2" 0x8d-0x94.7 (8)
0x090|67 6f 6f 64 32                                 |good2           |
     |                                               |                |            expr{}: 0x95-0x96.7 (2)
0x090|               00                              |     .          |              tag: "funcidx" (0x0) 0x95-0x95.7 (1)
0x090|                  06                           |      .         |              x: 6 0x96-0x96.7 (1)
     |                                               |                |          [7]{}: export 0x97-0xa1.7 (11)
     |                                               |                |            name{}: 0x97-0x9f.7 (9)
0x090|                     08                        |       .        |              len: 8 0x97-0x97.7 (1)
0x090|                        38 73 5f 67 6f 6f 64 33|        8s_good3|              utf8bytes: "8s_good3" 0x98-0x9f.7 (8)
     |                                               |                |            expr{}: 0xa0-0xa1.7 (2)
0x0a0|00                                             |.               |              tag: "funcidx" (0x0) 0xa0-0xa0.7 (1)
0x0a0|   07                                          | .              |              x: 7 0xa1-0xa1.7 (1)
     |                                               |                |          [8]{}: export 0xa2-0xac.7 (11)
     |                                               |                |            name{}: 0xa2-0xaa.7 (9)
0x0a0|      08                                       |  .             |              len: 8 0xa2-0xa2.7 (1)
0x0a0|         38 73 5f 67 6f 6f 64 34               |   8s_good4     |              utf8bytes: "8s_good4" 0xa3-0xaa.7 (8)
     |                                               |                |            expr{}: 0xab-0xac.7 (2)
0x0a0|                                 00            |           .    |              tag: "funcidx" (0x0) 0xab-0xab.7 (1)
0x0a0|                                    08         |            .   |              x: 8 0xac-0xac.7 (1)
     |                                               |                |          [9]{}: export 0xad-0xb7.7 (11)
     |                                               |                |            name{}: 0xad-0xb5.7 (9)
0x0a0|                                       08      |             .  |              len: 8 0xad-0xad.7 (1)
0x0a0|                                          38 73|              8s|              utf8bytes: "8s_good5" 0xae-0xb5.7 (8)
0x0b0|5f 67 6f 6f 64 35                              |_good5          |
     |                                               |                |            expr{}: 0xb6-0xb7.7 (2)
0x0b0|                  00                           |      .         |              tag: "funcidx" (0x0) 0xb6-0xb6.7 (1)
0x0b0|                     09                        |       .        |              x: 9 0xb7-0xb7.7 (1)
     |                                               |                |          [10]{}: export 0xb8-0xc3.7 (12)
     |                                               |                |            name{}: 0xb8-0xc1.7 (10)
0x0b0|                        09                     |        .       |              len: 9 0xb8-0xb8.7 (1)
0x0b0|                           31 36 75 5f 67 6f 6f|         16u_goo|              utf8bytes: "16u_good1" 0xb9-0xc1.7 (9)
0x0c0|64 31                                          |d1              |
     |                                               |                |            expr{}: 0xc2-0xc3.7 (2)
0x0c0|      00                                       |  .             |              tag: "funcidx" (0x0) 0xc2-0xc2.7 (1)
0x0c0|         0a                                    |   .            |              x: 10 0xc3-0xc3.7 (1)
     |                                               |                |          [11]{}: export 0xc4-0xcf.7 (12)
     |                                               |                |            name{}: 0xc4-0xcd.7 (10)
0x0c0|            09                                 |    .           |              len: 9 0xc4-0xc4.7 (1)
0x0c0|               31 36 75 5f 67 6f 6f 64 32      |     16u_good2  |              utf8bytes: "16u_good2" 0xc5-0xcd.7 (9)
     |                                               |                |            expr{}: 0xce-0xcf.7 (2)
0x0c0|                                          00   |              . |              tag: "funcidx" (0x0) 0xce-0xce.7 (1)
0x0c0|                                             0b|               .|              x: 11 0xcf-0xcf.7 (1)
     |                                               |                |          [12]{}: export 0xd0-0xdb.7 (12)
     |                                               |                |            name{}: 0xd0-0xd9.7 (10)
0x0d0|09                                             |.               |              len: 9 0xd0-0xd0.7 (1)
0x0d0|   31 36 75 5f 67 6f 6f 64 33                  | 16u_good3      |              utf8bytes: "16u_good3" 0xd1-0xd9.7 (9)
     |                                               |                |            expr{}: 0xda-0xdb.7 (2)
0x0d0|                              00               |          .     |              tag: "funcidx" (0x0) 0xda-0xda.7 (1)
0x0d0|                                 0c            |           .    |              x: 12 0xdb-0xdb.7 (1)
     |                                               |                |          [13]{}: export 0xdc-0xe7.7 (12)
     |                                               |                |            name{}: 0xdc-0xe5.7 (10)
0x0d0|                                    09         |            .   |              len: 9 0xdc-0xdc.7 (1)
0x0d0|                                       31 36 75|             16u|              utf8bytes: "16u_good4" 0xdd-0xe5.7 (9)
0x0e0|5f 67 6f 6f 64 34                              |_good4          |
     |                                               |                |            expr{}: 0xe6-0xe7.7 (2)
0x0e0|                  00                           |      .         |              tag: "funcidx" (0x0) 0xe6-0xe6.7 (1)
0x0e0|                     0d                        |       .        |              x: 13 0xe7-0xe7.7 (1)
     |                                               |                |          [14]{}: export 0xe8-0xf3.7 (12)
     |                                               |                |            name{}: 0xe8-0xf1.7 (10)
0x0e0|                        09                     |        .       |              len: 9 0xe8-0xe8.7 (1)
0x0e0|                           31 36 75 5f 67 6f 6f|         16u_goo|              utf8bytes: "16u_good5" 0xe9-0xf1.7 (9)
0x0f0|64 35                                          |d5              |
     |                                               |                |            expr{}: 0xf2-0xf3.7 (2)
0x0f0|      00                                       |  .             |              tag: "funcidx" (0x0) 0xf2-0xf2.7 (1)
0x0f0|         0e                                    |   .            |              x: 14 0xf3-0xf3.7 (1)
     |                                               |                |          [15]{}: export 0xf4-0xff.7 (12)
     |                                               |                |            name{}: 0xf4-0xfd.7 (10)
0x0f0|            09                                 |    .           |              len: 9 0xf4-0xf4.7 (1)
0x0f0|               31 36 73 5f 67 6f 6f 64 31      |     16s_good1  |              utf8bytes: "16s_good1" 0xf5-0xfd.7 (9)
     |                                               |                |            expr{}: 0xfe-0xff.7 (2)
0x0f0|                                          00   |              . |              tag: "funcidx" (0x0) 0xfe-0xfe.7 (1)
0x0f0|                                             0f|               .|              x: 15 0xff-0xff.7 (1)
     |                                               |                |          [16]{}: export 0x100-0x10b.7 (12)
     |                                               |                |            name{}: 0x100-0x109.7 (10)
0x100|09                                             |.               |              len: 9 0x100-0x100.7 (1)
0x100|   31 36 73 5f 67 6f 6f 64 32                  | 16s_good2      |              utf8bytes: "16s_good2" 0x101-0x109.7 (9)
     |                                               |                |            expr{}: 0x10a-0x10b.7 (2)
0x100|                              00               |          .     |              tag: "funcidx" (0x0) 0x10a-0x10a.7 (1)
0x100|                                 10            |           .    |              x: 16 0x10b-0x10b.7 (1)
     |                                               |                |          [17]{}: export 0x10c-0x117.7 (12)
     |                                               |                |            name{}: 0x10c-0x115.7 (10)
0x100|                                    09         |            .   |              len: 9 0x10c-0x10c.7 (1)
0x100|                                       31 36 73|             16s|              utf8bytes: "16s_good3" 0x10d-0x115.7 (9)
0x110|5f 67 6f 6f 64 33                              |_good3          |
     |                                               |                |            expr{}: 0x116-0x117.7 (2)
0x110|                  00                           |      .         |              tag: "funcidx" (0x0) 0x116-0x116.7 (1)
0x110|                     11                        |       .        |              x: 17 0x117-0x117.7 (1)
     |                                               |                |          [18]{}: export 0x118-0x123.7 (12)
     |                                               |                |            name{}: 0x118-0x121.7 (10)
0x110|                        09                     |        .       |              len: 9 0x118-0x118.7 (1)
0x110|                           31 36 73 5f 67 6f 6f|         16s_goo|              utf8bytes: "16s_good4" 0x119-0x121.7 (9)
0x120|64 34                                          |d4              |
     |                                               |                |            expr{}: 0x122-0x123.7 (2)
0x120|      00                                       |  .             |              tag: "funcidx" (0x0) 0x122-0x122.7 (1)
0x120|         12                                    |   .            |              x: 18 0x123-0x123.7 (1)
     |                                               |                |          [19]{}: export 0x124-0x12f.7 (12)
     |                                               |                |            name{}: 0x124-0x12d.7 (10)
0x120|            09                                 |    .           |              len: 9 0x124-0x124.7 (1)
0x120|               31 36 73 5f 67 6f 6f 64 35      |     16s_good5  |              utf8bytes: "16s_good5" 0x125-0x12d.7 (9)
     |                                               |                |            expr{}: 0x12e-0x12f.7 (2)
0x120|                                          00   |              . |              tag: "funcidx" (0x0) 0x12e-0x12e.7 (1)
0x120|                                             13|               .|              x: 19 0x12f-0x12f.7 (1)
     |                                               |                |          [20]{}: export 0x130-0x13b.7 (12)
     |                                               |                |            name{}: 0x130-0x139.7 (10)
0x130|09                                             |.               |              len: 9 0x130-0x130.7 (1)
0x130|   33 32 75 5f 67 6f 6f 64 31                  | 32u_good1      |              utf8bytes: "32u_good1" 0x131-0x139.7 (9)
     |                                               |                |            expr{}: 0x13a-0x13b.7 (2)
0x130|                              00               |          .     |              tag: "funcidx" (0x0) 0x13a-0x13a.7 (1)
0x130|                                 14            |           .    |              x: 20 0x13b-0x13b.7 (1)
     |                                               |                |          [21]{}: export 0x13c-0x147.7 (12)
     |                                               |                |            name{}: 0x13c-0x145.7 (10)
0x130|                                    09         |            .   |              len: 9 0x13c-0x13c.7 (1)
0x130|                                       33 32 75|             32u|              utf8bytes: "32u_good2" 0x13d-0x145.7 (9)
0x140|5f 67 6f 6f 64 32                              |_good2          |
     |                                               |                |            expr{}: 0x146-0x147.7 (2)
0x140|                  00                           |      .         |              tag: "funcidx" (0x0) 0x146-0x146.7 (1)
0x140|                     15                        |       .        |              x: 21 0x147-0x147.7 (1)
     |                                               |                |          [22]{}: export 0x148-0x153.7 (12)
     |                                               |                |            name{}: 0x148-0x151.7 (10)
0x140|                        09                     |        .       |              len: 9 0x148-0x148.7 (1)
0x140|                           33 32 75 5f 67 6f 6f|         32u_goo|              utf8bytes: "32u_good3" 0x149-0x151.7 (9)
0x150|64 33                                          |d3              |
     |                                               |                |            expr{}: 0x152-0x153.7 (2)
0x150|      00                                       |  .             |              tag: "funcidx" (0x0) 0x152-0x152.7 (1)
0x150|         16                                    |   .            |              x: 22 0x153-0x153.7 (1)
     |                                               |                |          [23]{}: export 0x154-0x15f.7 (12)
     |                                               |                |            name{}: 0x154-0x15d.7 (10)
0x150|            09                                 |    .           |              len: 9 0x154-0x154.7 (1)
0x150|               33 32 75 5f 67 6f 6f 64 34      |     32u_good4  |              utf8bytes: "32u_good4" 0x155-0x15d.7 (9)
     |                                               |                |            expr{}: 0x15e-0x15f.7 (2)
0x150|                                          00   |              . |              tag: "funcidx" (0x0) 0x15e-0x15e.7 (1)
0x150|                                             17|               .|              x: 23 0x15f-0x15f.7 (1)
     |                                               |                |          [24]{}: export 0x160-0x16b.7 (12)
     |                                               |                |            name{}: 0x160-0x169.7 (10)
0x160|09                                             |.               |              len: 9 0x160-0x160.7 (1)
0x160|   33 32 75 5f 67 6f 6f 64 35                  | 32u_good5      |              utf8bytes: "32u_good5" 0x161-0x169.7 (9)
     |                                               |                |            expr{}: 0x16a-0x16b.7 (2)
0x160|                              00               |          .     |              tag: "funcidx" (0x0) 0x16a-0x16a.7 (1)
0x160|                                 18            |           .    |              x: 24 0x16b-0x16b.7 (1)
     |                                               |                |          [25]{}: export 0x16c-0x177.7 (12)
     |                                               |                |            name{}: 0x16c-0x175.7 (10)
0x160|                                    09         |            .   |              len: 9 0x16c-0x16c.7 (1)
0x160|                                       33 32 73|             32s|              utf8bytes: "32s_good1" 0x16d-0x175.7 (9)
0x170|5f 67 6f 6f 64 31                              |_good1          |
     |                                               |                |            expr{}: 0x176-0x177.7 (2)
0x170|                  00                           |      .         |              tag: "funcidx" (0x0) 0x176-0x176.7 (1)
0x170|                     19                        |       .        |              x: 25 0x177-0x177.7 (1)
     |                                               |                |          [26]{}: export 0x178-0x183.7 (12)
     |                                               |                |            name{}: 0x178-0x181.7 (10)
0x170|                        09                     |        .       |              len: 9 0x178-0x178.7 (1)
0x170|                           33 32 73 5f 67 6f 6f|         32s_goo|              utf8bytes: "32s_good2" 0x179-0x181.7 (9)
0x180|64 32                                          |d2              |
     |                                               |                |            expr{}: 0x182-0x183.7 (2)
0x180|      00                                       |  .             |              tag: "funcidx" (0x0) 0x182-0x182.7 (1)
0x180|         1a                                    |   .            |              x: 26 0x183-0x183.7 (1)
     |                                               |                |          [27]{}: export 0x184-0x18f.7 (12)
     |                                               |                |            name{}: 0x184-0x18d.7 (10)
0x180|            09                                 |    .           |              len: 9 0x184-0x184.7 (1)
0x180|               33 32 73 5f 67 6f 6f 64 33      |     32s_good3  |              utf8bytes: "32s_good3" 0x185-0x18d.7 (9)
     |                                               |                |            expr{}: 0x18e-0x18f.7 (2)
0x180|                                          00   |              . |              tag: "funcidx" (0x0) 0x18e-0x18e.7 (1)
0x180|                                             1b|               .|              x: 27 0x18f-0x18f.7 (1)
     |                                               |                |          [28]{}: export 0x190-0x19b.7 (12)
     |                                               |                |            name{}: 0x190-0x199.7 (10)
0x190|09                                             |.               |              len: 9 0x190-0x190.7 (1)
0x190|   33 32 73 5f 67 6f 6f 64 34                  | 32s_good4      |              utf8bytes: "32s_good4" 0x191-0x199.7 (9)
     |                                               |                |            expr{}: 0x19a-0x19b.7 (2)
0x190|                              00               |          .     |              tag: "funcidx" (0x0) 0x19a-0x19a.7 (1)
0x190|                                 1c            |           .    |              x: 28 0x19b-0x19b.7 (1)
     |                                               |                |          [29]{}: export 0x19c-0x1a7.7 (12)
     |                                               |                |            name{}: 0x19c-0x1a5.7 (10)
0x190|                                    09         |            .   |              len: 9 0x19c-0x19c.7 (1)
0x190|                                       33 32 73|             32s|              utf8bytes: "32s_good5" 0x19d-0x1a5.7 (9)
0x1a0|5f 67 6f 6f 64 35                              |_good5          |
     |                                               |                |            expr{}: 0x1a6-0x1a7.7 (2)
0x1a0|                  00                           |      .         |              tag: "funcidx" (0x0) 0x1a6-0x1a6.7 (1)
0x1a0|                     1d                        |       .        |              x: 29 0x1a7-0x1a7.7 (1)
     |                                               |                |          [30]{}: export 0x1a8-0x1b2.7 (11)
     |                                               |                |            name{}: 0x1a8-0x1b0.7 (9)
0x1a0|                        08                     |        .       |              len: 8 0x1a8-0x1a8.7 (1)
0x1a0|                           36 34 5f 67 6f 6f 64|         64_good|              utf8bytes: "64_good1" 0x1a9-0x1b0.7 (8)
0x1b0|31                                             |1               |
     |                                               |                |            expr{}: 0x1b1-0x1b2.7 (2)
0x1b0|   00                                          | .              |              tag: "funcidx" (0x0) 0x1b1-0x1b1.7 (1)
0x1b0|      1e                                       |  .             |              x: 30 0x1b2-0x1b2.7 (1)
     |                                               |                |          [31]{}: export 0x1b3-0x1bd.7 (11)
     |                                               |                |            name{}: 0x1b3-0x1bb.7 (9)
0x1b0|         08                                    |   .            |              len: 8 0x1b3-0x1b3.7 (1)
0x1b0|            36 34 5f 67 6f 6f 64 32            |    64_good2    |              utf8bytes: "64_good2" 0x1b4-0x1bb.7 (8)
     |                                               |                |            expr{}: 0x1bc-0x1bd.7 (2)
0x1b0|                                    00         |            .   |              tag: "funcidx" (0x0) 0x1bc-0x1bc.7 (1)
0x1b0|                                       1f      |             .  |              x: 31 0x1bd-0x1bd.7 (1)
     |                                               |                |          [32]{}: export 0x1be-0x1c8.7 (11)
     |                                               |                |            name{}: 0x1be-0x1c6.7 (9)
0x1b0|                                          08   |              . |              len: 8 0x1be-0x1be.7 (1)
0x1b0|                                             36|               6|              utf8bytes: "64_good3" 0x1bf-0x1c6.7 (8)
0x1c0|34 5f 67 6f 6f 64 33                           |4_good3         |
     |                                               |                |            expr{}: 0x1c7-0x1c8.7 (2)
0x1c0|                     00                        |       .        |              tag: "funcidx" (0x0) 0x1c7-0x1c7.7 (1)
0x1c0|                        20                     |                |              x: 32 0x1c8-0x1c8.7 (1)
     |                                               |                |          [33]{}: export 0x1c9-0x1d3.7 (11)
     |                                               |                |            name{}: 0x1c9-0x1d1.7 (9)
0x1c0|                           08                  |         .      |              len: 8 0x1c9-0x1c9.7 (1)
0x1c0|                              36 34 5f 67 6f 6f|          64_goo|              utf8bytes: "64_good4" 0x1ca-0x1d1.7 (8)
0x1d0|64 34                                          |d4              |
     |                                               |                |            expr{}: 0x1d2-0x1d3.7 (2)
0x1d0|      00                                       |  .             |              tag: "funcidx" (0x0) 0x1d2-0x1d2.7 (1)
0x1d0|         21                                    |   !            |              x: 33 0x1d3-0x1d3.7 (1)
     |                                               |                |          [34]{}: export 0x1d4-0x1de.7 (11)
     |                                               |                |            name{}: 0x1d4-0x1dc.7 (9)
0x1d0|            08                                 |    .           |              len: 8 0x1d4-0x1d4.7 (1)
0x1d0|               36 34 5f 67 6f 6f 64 35         |     64_good5   |              utf8bytes: "64_good5" 0x1d5-0x1dc.7 (8)
     |                                               |                |            expr{}: 0x1dd-0x1de.7 (2)
0x1d0|                                       00      |             .  |              tag: "funcidx" (0x0) 0x1dd-0x1dd.7 (1)
0x1d0|                                          22   |              " |              x: 34 0x1de-0x1de.7 (1)
     |                                               |                |          [35]{}: export 0x1df-0x1e7.7 (9)
     |                                               |                |            name{}: 0x1df-0x1e5.7 (7)
0x1d0|                                             06|               .|              len: 6 0x1df-0x1df.7 (1)
0x1e0|38 75 5f 62 61 64                              |8u_bad          |              utf8bytes: "8u_bad" 0x1e0-0x1e5.7 (6)
     |                                               |                |            expr{}: 0x1e6-0x1e7.7 (2)
0x1e0|                  00                           |      .         |              tag: "funcidx" (0x0) 0x1e6-0x1e6.7 (1)
0x1e0|                     23                        |       #        |              x: 35 0x1e7-0x1e7.7 (1)
     |                                               |                |          [36]{}: export 0x1e8-0x1f0.7 (9)
     |                                               |                |            name{}: 0x1e8-0x1ee.7 (7)
0x1e0|                        06                     |        .       |              len: 6 0x1e8-0x1e8.7 (1)
0x1e0|                           38 73 5f 62 61 64   |         8s_bad |              utf8bytes: "8s_bad" 0x1e9-0x1ee.7 (6)
     |                                               |                |            expr{}: 0x1ef-0x1f0.7 (2)
0x1e0|                                             00|               .|              tag: "funcidx" (0x0) 0x1ef-0x1ef.7 (1)
0x1f0|24                                             |$               |              x: 36 0x1f0-0x1f0.7 (1)
     |                                               |                |          [37]{}: export 0x1f1-0x1fa.7 (10)
     |                                               |                |            name{}: 0x1f1-0x1f8.7 (8)
0x1f0|   07                                          | .              |              len: 7 0x1f1-0x1f1.7 (1)
0x1f0|      31 36 75 5f 62 61 64                     |  16u_bad       |              utf8bytes: "16u_bad" 0x1f2-0x1f8.7 (7)
     |                                               |                |            expr{}: 0x1f9-0x1fa.7 (2)
0x1f0|                           00                  |         .      |              tag: "funcidx" (0x0) 0x1f9-0x1f9.7 (1)
0x1f0|                              25               |          %     |              x: 37 0x1fa-0x1fa.7 (1)
     |                                               |                |          [38]{}: export 0x1fb-0x204.7 (10)
     |                                               |                |            name{}: 0x1fb-0x202.7 (8)
0x1f0|                                 07            |           .    |              len: 7 0x1fb-0x1fb.7 (1)
0x1f0|                                    31 36 73 5f|            16s_|              utf8bytes: "16s_bad" 0x1fc-0x202.7 (7)
0x200|62 61 64                                       |bad             |
     |                                               |                |            expr{}: 0x203-0x204.7 (2)
0x200|         00                                    |   .            |              tag: "funcidx" (0x0) 0x203-0x203.7 (1)
0x200|            26                                 |    &           |              x: 38 0x204-0x204.7 (1)
     |                                               |                |          [39]{}: export 0x205-0x20e.7 (10)
     |                                               |                |            name{}: 0x205-0x20c.7 (8)
0x200|               07                              |     .          |              len: 7 0x205-0x205.7 (1)
0x200|                  33 32 75 5f 62 61 64         |      32u_bad   |              utf8bytes: "32u_bad" 0x206-0x20c.7 (7)
     |                                               |                |            expr{}: 0x20d-0x20e.7 (2)
0x200|                                       00      |             .  |              tag: "funcidx" (0x0) 0x20d-0x20d.7 (1)
0x200|                                          27   |              ' |              x: 39 0x20e-0x20e.7 (1)
     |                                               |                |          [40]{}: export 0x20f-0x218.7 (10)
     |                                               |                |            name{}: 0x20f-0x216.7 (8)
0x200|                                             07|               .|              len: 7 0x20f-0x20f.7 (1)
0x210|33 32 73 5f 62 61 64                           |32s_bad         |              utf8bytes: "32s_bad" 0x210-0x216.7 (7)
     |                                               |                |            expr{}: 0x217-0x218.7 (2)
0x210|                     00                        |       .        |              tag: "funcidx" (0x0) 0x217-0x217.7 (1)
0x210|                        28                     |        (       |              x: 40 0x218-0x218.7 (1)
     |                                               |                |          [41]{}: export 0x219-0x221.7 (9)
     |                                               |                |            name{}: 0x219-0x21f.7 (7)
0x210|                           06                  |         .      |              len: 6 0x219-0x219.7 (1)
0x210|                              36 34 5f 62 61 64|          64_bad|              utf8bytes: "64_bad" 0x21a-0x21f.7 (6)
     |                                               |                |            expr{}: 0x220-0x221.7 (2)
0x220|00                                             |.               |              tag: "funcidx" (0x0) 0x220-0x220.7 (1)
0x220|   29                                          | )              |              x: 41 0x221-0x221.7 (1)
     |                                               |                |    [4]{}: section 0x222-0x398.7 (375)
0x220|      0a                                       |  .             |      id: "code section" (10) 0x222-0x222.7 (1)
0x220|         f4 02                                 |   ..           |      size: 372 0x223-0x224.7 (2)
     |                                               |                |      content{}: 0x225-0x398.7 (372)
0x220|               2a                              |     *          |        n: 42 0x225-0x225.7 (1)
     |                                               |                |        items[0:42]: 0x226-0x398.7 (371)
     |                                               |                |          [0]{}: code 0x226-0x22d.7 (8)
0x220|                  07                           |      .         |            size: 7 0x226-0x226.7 (1)
     |                                               |                |            code{}: 0x227-0x22d.7 (7)
     |                                               |                |              locals{}: 0x227-0x227.7 (1)
0x220|                     00                        |       .        |                n: 0 0x227-0x227.7 (1)
     |                                               |                |                items[0:0]: 0x228-NA (0)
     |                                               |                |              expr{}: 0x228-0x22d.7 (6)
     |                                               |                |                instructions[0:3]: 0x228-0x22d.7 (6)
     |                                               |                |                  [0]{}: instr 0x228-0x229.7 (2)
0x220|                        20                     |                |                    local.get: 0x20 (valid) 0x228-0x228.7 (1)
0x220|                           00                  |         .      |                    x: 0 0x229-0x229.7 (1)
     |                                               |                |                  [1]{}: instr 0x22a-0x22c.7 (3)
0x220|                              31               |          1     |                    i64.load8_u: 0x31 (valid) 0x22a-0x22a.7 (1)
0x220|                                 00            |           .    |                    align: 0 0x22b-0x22b.7 (1)
0x220|                                    00         |            .   |                    offset: 0 0x22c-0x22c.7 (1)
     |                                               |                |                  [2]{}: instr 0x22d-0x22d.7 (1)
0x220|                                       0b      |             .  |                    end: 0xb (valid) 0x22d-0x22d.7 (1)
     |                                               |                |          [1]{}: code 0x22e-0x235.7 (8)
0x220|                                          07   |              . |            size: 7 0x22e-0x22e.7 (1)
     |                                               |                |            code{}: 0x22f-0x235.7 (7)
     |                                               |                |              locals{}: 0x22f-0x22f.7 (1)
0x220|                                             00|               .|                n: 0 0x22f-0x22f.7 (1)
     |                                               |                |                items[0:0]: 0x230-NA (0)
     |                                               |                |              expr{}: 0x230-0x235.7 (6)
     |                                               |                |                instructions[0:3]: 0x230-0x235.7 (6)
     |                                               |                |                  [0]{}: instr 0x230-0x231.7 (2)
0x230|20                                             |                |                    local.get: 0x20 (valid) 0x230-0x230.7 (1)
0x230|   00                                          | .              |                    x: 0 0x231-0x231.7 (1)
     |                                               |                |                  [1]{}: instr 0x232-0x234.7 (3)
0x230|      31                                       |  1             |                    i64.load8_u: 0x31 (valid) 0x232-0x232.7 (1)
0x230|         00                                    |   .            |                    align: 0 0x233-0x233.7 (1)
0x230|            00                                 |    .           |                    offset: 0 0x234-0x234.7 (1)
     |                                               |                |                  [2]{}: instr 0x235-0x235.7 (1)
0x230|               0b                              |     .          |                    end: 0xb (valid) 0x235-0x235.7 (1)
     |                                               |                |          [2]{}: code 0x236-0x23d.7 (8)
0x230|                  07                           |      .         |            size: 7 0x236-0x236.7 (1)
     |                                               |                |            code{}: 0x237-0x23d.7 (7)
     |                                               |                |              locals{}: 0x237-0x237.7 (1)
0x230|                     00                        |       .        |                n: 0 0x237-0x237.7 (1)
     |                                               |                |                items[0:0]: 0x238-NA (0)
     |                                               |                |              expr{}: 0x238-0x23d.7 (6)
     |                                               |                |                instructions[0:3]: 0x238-0x23d.7 (6)
     |                                               |                |                  [0]{}: instr 0x238-0x239.7 (2)
0x230|                        20                     |                |                    local.get: 0x20 (valid) 0x238-0x238.7 (1)
0x230|                           00                  |         .      |                    x: 0 0x239-0x239.7 (1)
     |                                               |                |                  [1]{}: instr 0x23a-0x23c.7 (3)
0x230|                              31               |          1     |                    i64.load8_u: 0x31 (valid) 0x23a-0x23a.7 (1)
0x230|                                 00            |           .    |                    align: 0 0x23b-0x23b.7 (1)
0x230|                                    01         |            .   |                    offset: 1 0x23c-0x23c.7 (1)
     |                                               |                |                  [2]{}: instr 0x23d-0x23d.7 (1)
0x230|                                       0b      |             .  |                    end: 0xb (valid) 0x23d-0x23d.7 (1)
     |                                               |                |          [3]{}: code 0x23e-0x245.7 (8)
0x230|                                          07   |              . |            size: 7 0x23e-0x23e.7 (1)
     |                                               |                |            code{}: 0x23f-0x245.7 (7)
     |                                               |                |              locals{}: 0x23f-0x23f.7 (1)
0x230|                                             00|               .|                n: 0 0x23f-0x23f.7 (1)
     |                                               |                |                items[0:0]: 0x240-NA (0)
     |                                               |                |              expr{}: 0x240-0x245.7 (6)
     |                                               |                |                instructions[0:3]: 0x240-0x245.7 (6)
     |                                               |                |                  [0]{}: instr 0x240-0x241.7 (2)
0x240|20                                             |                |                    local.get: 0x20 (valid) 0x240-0x240.7 (1)
0x240|   00                                          | .              |                    x: 0 0x241-0x241.7 (1)
     |                                               |                |                  [1]{}: instr 0x242-0x244.7 (3)
0x240|      31                                       |  1             |                    i64.load8_u: 0x31 (valid) 0x242-0x242.7 (1)
0x240|         00                                    |   .            |                    align: 0 0x243-0x243.7 (1)
0x240|            02                                 |    .           |                    offset: 2 0x244-0x244.7 (1)
     |                                               |                |                  [2]{}: instr 0x245-0x245.7 (1)
0x240|               0b                              |     .          |                    end: 0xb (valid) 0x245-0x245.7 (1)
     |                                               |                |          [4]{}: code 0x246-0x24d.7 (8)
0x240|                  07                           |      .         |            size: 7 0x246-0x246.7 (1)
     |                                               |                |            code{}: 0x247-0x24d.7 (7)
     |                                               |                |              locals{}: 0x247-0x247.7 (1)
0x240|                     00                        |       .        |                n: 0 0x247-0x247.7 (1)
     |                                               |                |                items[0:0]: 0x248-NA (0)
     |                                               |                |              expr{}: 0x248-0x24d.7 (6)
     |                                               |                |                instructions[0:3]: 0x248-0x24d.7 (6)
     |                                               |                |                  [0]{}: instr 0x248-0x249.7 (2)
0x240|                        20                     |                |                    local.get: 0x20 (valid) 0x248-0x248.7 (1)
0x240|                           00                  |         .      |                    x: 0 0x249-0x249.7 (1)
     |                                               |                |                  [1]{}: instr 0x24a-0x24c.7 (3)
0x240|                              31               |          1     |                    i64.load8_u: 0x31 (valid) 0x24a-0x24a.7 (1)
0x240|                                 00            |           .    |                    align: 0 0x24b-0x24b.7 (1)
0x240|                                    19         |            .   |                    offset: 25 0x24c-0x24c.7 (1)
     |                                               |                |                  [2]{}: instr 0x24d-0x24d.7 (1)
0x240|                                       0b      |             .  |                    end: 0xb (valid) 0x24d-0x24d.7 (1)
     |                                               |                |          [5]{}: code 0x24e-0x255.7 (8)
0x240|                                          07   |              . |            size: 7 0x24e-0x24e.7 (1)
     |                                               |                |            code{}: 0x24f-0x255.7 (7)
     |                                               |                |              locals{}: 0x24f-0x24f.7 (1)
0x240|                                             00|               .|                n: 0 0x24f-0x24f.7 (1)
     |                                               |                |                items[0:0]: 0x250-NA (0)
     |                                               |                |              expr{}: 0x250-0x255.7 (6)
     |                                               |                |                instructions[0:3]: 0x250-0x255.7 (6)
     |                                               |                |                  [0]{}: instr 0x250-0x251.7 (2)
0x250|20                                             |                |                    local.get: 0x20 (valid) 0x250-0x250.7 (1)
0x250|   00                                          | .              |                    x: 0 0x251-0x251.7 (1)
     |                                               |                |                  [1]{}: instr 0x252-0x254.7 (3)
0x250|      30                                       |  0             |                    i64.load8_s: 0x30 (valid) 0x252-0x252.7 (1)
0x250|         00                                    |   .            |                    align: 0 0x253-0x253.7 (1)
0x250|            00                                 |    .           |                    offset: 0 0x254-0x254.7 (1)
     |                                               |                |                  [2]{}: instr 0x255-0x255.7 (1)
0x250|               0b                              |     .          |                    end: 0xb (valid) 0x255-0x255.7 (1)
     |                                               |                |          [6]{}: code 0x256-0x25d.7 (8)
0x250|                  07                           |      .         |            size: 7 0x256-0x256.7 (1)
     |                                               |                |            code{}: 0x257-0x25d.7 (7)
     |                                               |                |              locals{}: 0x257-0x257.7 (1)
0x250|                     00                        |       .        |                n: 0 0x257-0x257.7 (1)
     |                                               |                |                items[0:0]: 0x258-NA (0)
     |                                               |                |              expr{}: 0x258-0x25d.7 (6)
     |                                               |                |                instructions[0:3]: 0x258-0x25d.7 (6)
     |                                               |                |                  [0]{}: instr 0x258-0x259.7 (2)
0x250|                        20                     |                |                    local.get: 0x20 (valid) 0x258-0x258.7 (1)
0x250|                           00                  |         .      |                    x: 0 0x259-0x259.7 (1)
     |                                               |                |                  [1]{}: instr 0x25a-0x25c.7 (3)
0x250|                              30               |          0     |                    i64.load8_s: 0x30 (valid) 0x25a-0x25a.7 (1)
0x250|                                 00            |           .    |                    align: 0 0x25b-0x25b.7 (1)
0x250|                                    00         |            .   |                    offset: 0 0x25c-0x25c.7 (1)
     |                                               |                |                  [2]{}: instr 0x25d-0x25d.7 (1)
0x250|                                       0b      |             .  |                    end: 0xb (valid) 0x25d-0x25d.7 (1)
     |                                               |                |          [7]{}: code 0x25e-0x265.7 (8)
0x250|                                          07   |              . |            size: 7 0x25e-0x25e.7 (1)
     |                                               |                |            code{}: 0x25f-0x265.7 (7)
     |                                               |                |              locals{}: 0x25f-0x25f.7 (1)
0x250|                                             00|               .|                n: 0 0x25f-0x25f.7 (1)
     |                                               |                |                items[0:0]: 0x260-NA (0)
     |                                               |                |              expr{}: 0x260-0x265.7 (6)
     |                                               |                |                instructions[0:3]: 0x260-0x265.7 (6)
     |                                               |                |                  [0]{}: instr 0x260-0x261.7 (2)
0x260|20                                             |                |                    local.get: 0x20 (valid) 0x260-0x260.7 (1)
0x260|   00                                          | .              |                    x: 0 0x261-0x261.7 (1)
     |                                               |                |                  [1]{}: instr 0x262-0x264.7 (3)
0x260|      30                                       |  0             |                    i64.load8_s: 0x30 (valid) 0x262-0x262.7 (1)
0x260|         00                                    |   .            |                    align: 0 0x263-0x263.7 (1)
0x260|            01                                 |    .           |                    offset: 1 0x264-0x264.7 (1)
     |                                               |                |                  [2]{}: instr 0x265-0x265.7 (1)
0x260|               0b                              |     .          |                    end: 0xb (valid) 0x265-0x265.7 (1)
     |                                               |                |          [8]{}: code 0x266-0x26d.7 (8)
0x260|                  07                           |      .         |            size: 7 0x266-0x266.7 (1)
     |                                               |                |            code{}: 0x267-0x26d.7 (7)
     |                                               |                |              locals{}: 0x267-0x267.7 (1)
0x260|                     00                        |       .        |                n: 0 0x267-0x267.7 (1)
     |                                               |                |                items[0:0]: 0x268-NA (0)
     |                                               |                |              expr{}: 0x268-0x26d.7 (6)
     |                                               |                |                instructions[0:3]: 0x268-0x26d.7 (6)
     |                                               |                |                  [0]{}: instr 0x268-0x269.7 (2)
0x260|                        20                     |                |                    local.get: 0x20 (valid) 0x268-0x268.7 (1)
0x260|                           00                  |         .      |                    x: 0 0x269-0x269.7 (1)
     |                                               |                |                  [1]{}: instr 0x26a-0x26c.7 (3)
0x260|                              30               |          0     |                    i64.load8_s: 0x30 (valid) 0x26a-0x26a.7 (1)
0x260|                                 00            |           .    |                    align: 0 0x26b-0x26b.7 (1)
0x260|                                    02         |            .   |                    offset: 2 0x26c-0x26c.7 (1)
     |                                               |                |                  [2]{}: instr 0x26d-0x26d.7 (1)
0x260|                                       0b      |             .  |                    end: 0xb (valid) 0x26d-0x26d.7 (1)
     |                                               |                |          [9]{}: code 0x26e-0x275.7 (8)
0x260|                                          07   |              . |            size: 7 0x26e-0x26e.7 (1)
     |                                               |                |            code{}: 0x26f-0x275.7 (7)
     |                                               |                |              locals{}: 0x26f-0x26f.7 (1)
0x260|                                             00|               .|                n: 0 0x26f-0x26f.7 (1)
     |                                               |                |                items[0:0]: 0x270-NA (0)
     |                                               |                |              expr{}: 0x270-0x275.7 (6)
     |                                               |                |                instructions[0:3]: 0x270-0x275.7 (6)
     |                                               |                |                  [0]{}: instr 0x270-0x271.7 (2)
0x270|20                                             |                |                    local.get: 0x20 (valid) 0x270-0x270.7 (1)
0x270|   00                                          | .              |                    x: 0 0x271-0x271.7 (1)
     |                                               |                |                  [1]{}: instr 0x272-0x274.7 (3)
0x270|      30                                       |  0             |                    i64.load8_s: 0x30 (valid) 0x272-0x272.7 (1)
0x270|         00                                    |   .            |                    align: 0 0x273-0x273.7 (1)
0x270|            19                                 |    .           |                    offset: 25 0x274-0x274.7 (1)
     |                                               |                |                  [2]{}: instr 0x275-0x275.7 (1)
0x270|               0b                              |     .          |                    end: 0xb (valid) 0x275-0x275.7 (1)
     |                                               |                |          [10]{}: code 0x276-0x27d.7 (8)
0x270|                  07                           |      .         |            size: 7 0x276-0x276.7 (1)
     |                                               |                |            code{}: 0x277-0x27d.7 (7)
     |                                               |                |              locals{}: 0x277-0x277.7 (1)
0x270|                     00                        |       .        |                n: 0 0x277-0x277.7 (1)
     |                                               |                |                items[0:0]: 0x278-NA (0)
     |                                               |                |              expr{}: 0x278-0x27d.7 (6)
     |                                               |                |                instructions[0:3]: 0x278-0x27d.7 (6)
     |                                               |                |                  [0]{}: instr 0x278-0x279.7 (2)
0x270|                        20                     |                |                    local.get: 0x20 (valid) 0x278-0x278.7 (1)
0x270|                           00                  |         .      |                    x: 0 0x279-0x279.7 (1)
     |                                               |                |                  [1]{}: instr 0x27a-0x27c.7 (3)
0x270|                              33               |          3     |                    i64.load16_u: 0x33 (valid) 0x27a-0x27a.7 (1)
0x270|                                 01            |           .    |                    align: 1 0x27b-0x27b.7 (1)
0x270|                                    00         |            .   |                    offset: 0 0x27c-0x27c.7 (1)
     |                                               |                |                  [2]{}: instr 0x27d-0x27d.7 (1)
0x270|                                       0b      |             .  |                    end: 0xb (valid) 0x27d-0x27d.7 (1)
     |                                               |                |          [11]{}: code 0x27e-0x285.7 (8)
0x270|                                          07   |              . |            size: 7 0x27e-0x27e.7 (1)
     |                                               |                |            code{}: 0x27f-0x285.7 (7)
     |                                               |                |              locals{}: 0x27f-0x27f.7 (1)
0x270|                                             00|               .|                n: 0 0x27f-0x27f.7 (1)
     |                                               |                |                items[0:0]: 0x280-NA (0)
     |                                               |                |              expr{}: 0x280-0x285.7 (6)
     |                                               |                |                instructions[0:3]: 0x280-0x285.7 (6)
     |                                               |                |                  [0]{}: instr 0x280-0x281.7 (2)
0x280|20                                             |                |                    local.get: 0x20 (valid) 0x280-0x280.7 (1)
0x280|   00                                          | .              |                    x: 0 0x281-0x281.7 (1)
     |                                               |                |                  [1]{}: instr 0x282-0x284.7 (3)
0x280|      33                                       |  3             |                    i64.load16_u: 0x33 (valid) 0x282-0x282.7 (1)
0x280|         00                                    |   .            |                    align: 0 0x283-0x283.7 (1)
0x280|            00                                 |    .           |                    offset: 0 0x284-0x284.7 (1)
     |                                               |                |                  [2]{}: instr 0x285-0x285.7 (1)
0x280|               0b                              |     .          |                    end: 0xb (valid) 0x285-0x285.7 (1)
     |                                               |                |          [12]{}: code 0x286-0x28d.7 (8)
0x280|                  07                           |      .         |            size: 7 0x286-0x286.7 (1)
     |                                               |                |            code{}: 0x287-0x28d.7 (7)
     |                                               |                |              locals{}: 0x287-0x287.7 (1)
0x280|                     00                        |       .        |                n: 0 0x287-0x287.7 (1)
     |                                               |                |                items[0:0]: 0x288-NA (0)
     |                                               |                |              expr{}: 0x288-0x28d.7 (6)
     |                                               |                |                instructions[0:3]: 0x288-0x28d.7 (6)
     |                                               |                |                  [0]{}: instr 0x288-0x289.7 (2)
0x280|                        20                     |                |                    local.get: 0x20 (valid) 0x288-0x288.7 (1)
0x280|                           00                  |         .      |                    x: 0 0x289-0x289.7 (1)
     |                                               |                |                  [1]{}: instr 0x28a-0x28c.7 (3)
0x280|                              33               |          3     |                    i64.load16_u: 0x33 (valid) 0x28a-0x28a.7 (1)
0x280|                                 00            |           .    |                    align: 0 0x28b-0x28b.7 (1)
0x280|                                    01         |            .   |                    offset: 1 0x28c-0x28c.7 (1)
     |                                               |                |                  [2]{}: instr 0x28d-0x28d.7 (1)
0x280|                                       0b      |             .  |                    end: 0xb (valid) 0x28d-0x28d.7 (1)
     |                                               |                |          [13]{}: code 0x28e-0x295.7 (8)
0x280|                                          07   |              . |            size: 7 0x28e-0x28e.7 (1)
     |                                               |                |            code{}: 0x28f-0x295.7 (7)
     |                                               |                |              locals{}: 0x28f-0x28f.7 (1)
0x280|                                             00|               .|                n: 0 0x28f-0x28f.7 (1)
     |                                               |                |                items[0:0]: 0x290-NA (0)
     |                                               |                |              expr{}: 0x290-0x295.7 (6)
     |                                               |                |                instructions[0:3]: 0x290-0x295.7 (6)
     |                                               |                |                  [0]{}: instr 0x290-0x291.7 (2)
0x290|20                                             |                |                    local.get: 0x20 (valid) 0x290-0x290.7 (1)
0x290|   00                                          | .              |                    x: 0 0x291-0x291.7 (1)
     |                                               |                |                  [1]{}: instr 0x292-0x294.7 (3)
0x290|      33                                       |  3             |                    i64.load16_u: 0x33 (valid) 0x292-0x292.7 (1)
0x290|         01                                    |   .            |                    align: 1 0x293-0x293.7 (1)
0x290|            02                                 |    .           |                    offset: 2 0x294-0x294.7 (1)
     |                                               |                |                  [2]{}: instr 0x295-0x295.7 (1)
0x290|               0b                              |     .          |                    end: 0xb (valid) 0x295-0x295.7 (1)
     |                                               |                |          [14]{}: code 0x296-0x29d.7 (8)
0x290|                  07                           |      .         |            size: 7 0x296-0x296.7 (1)
     |                                               |                |            code{}: 0x297-0x29d.7 (7)
     |                                               |                |              locals{}: 0x297-0x297.7 (1)
0x290|                     00                        |       .        |                n: 0 0x297-0x297.7 (1)
     |                                               |                |                items[0:0]: 0x298-NA (0)
     |                                               |                |              expr{}: 0x298-0x29d.7 (6)
     |                                               |                |                instructions[0:3]: 0x298-0x29d.7 (6)
     |                                               |                |                  [0]{}: instr 0x298-0x299.7 (2)
0x290|                        20                     |                |                    local.get: 0x20 (valid) 0x298-0x298.7 (1)
0x290|                           00                  |         .      |                    x: 0 0x299-0x299.7 (1)
     |                                               |                |                  [1]{}: instr 0x29a-0x29c.7 (3)
0x290|                              33               |          3     |                    i64.load16_u: 0x33 (valid) 0x29a-0x29a.7 (1)
0x290|                                 01            |           .    |                    align: 1 0x29b-0x29b.7 (1)
0x290|                                    19         |            .   |                    offset: 25 0x29c-0x29c.7 (1)
     |                                               |                |                  [2]{}: instr 0x29d-0x29d.7 (1)
0x290|                                       0b      |             .  |                    end: 0xb (valid) 0x29d-0x29d.7 (1)
     |                                               |                |          [15]{}: code 0x29e-0x2a5.7 (8)
0x290|                                          07   |              . |            size: 7 0x29e-0x29e.7 (1)
     |                                               |                |            code{}: 0x29f-0x2a5.7 (7)
     |                                               |                |              locals{}: 0x29f-0x29f.7 (1)
0x290|                                             00|               .|                n: 0 0x29f-0x29f.7 (1)
     |                                               |                |                items[0:0]: 0x2a0-NA (0)
     |                                               |                |              expr{}: 0x2a0-0x2a5.7 (6)
     |                                               |                |                instructions[0:3]: 0x2a0-0x2a5.7 (6)
     |                                               |                |                  [0]{}: instr 0x2a0-0x2a1.7 (2)
0x2a0|20                                             |                |                    local.get: 0x20 (valid) 0x2a0-0x2a0.7 (1)
0x2a0|   00                                          | .              |                    x: 0 0x2a1-0x2a1.7 (1)
     |                                               |                |                  [1]{}: instr 0x2a2-0x2a4.7 (3)
0x2a0|      32                                       |  2             |                    i64.load16_s: 0x32 (valid) 0x2a2-0x2a2.7 (1)
0x2a0|         01                                    |   .            |                    align: 1 0x2a3-0x2a3.7 (1)
0x2a0|            00                                 |    .           |                    offset: 0 0x2a4-0x2a4.7 (1)
     |                                               |                |                  [2]{}: instr 0x2a5-0x2a5.7 (1)
0x2a0|               0b                              |     .          |                    end: 0xb (valid) 0x2a5-0x2a5.7 (1)
     |                                               |                |          [16]{}: code 0x2a6-0x2ad.7 (8)
0x2a0|                  07                           |      .         |            size: 7 0x2a6-0x2a6.7 (1)
     |                                               |                |            code{}: 0x2a7-0x2ad.7 (7)
     |                                               |                |              locals{}: 0x2a7-0x2a7.7 (1)
0x2a0|                     00                        |       .        |                n: 0 0x2a7-0x2a7.7 (1)
     |                                               |                |                items[0:0]: 0x2a8-NA (0)
     |                                               |                |              expr{}: 0x2a8-0x2ad.7 (6)
     |                                               |                |                instructions[0:3]: 0x2a8-0x2ad.7 (6)
     |                                               |                |                  [0]{}: instr 0x2a8-0x2a9.7 (2)
0x2a0|                        20                     |                |                    local.get: 0x20 (valid) 0x2a8-0x2a8.7 (1)
0x2a0|                           00                  |         .      |                    x: 0 0x2a9-0x2a9.7 (1)
     |                                               |                |                  [1]{}: instr 0x2aa-0x2ac.7 (3)
0x2a0|                              32               |          2     |                    i64.load16_s: 0x32 (valid) 0x2aa-0x2aa.7 (1)
0x2a0|                                 00            |           .    |                    align: 0 0x2ab-0x2ab.7 (1)
0x2a0|                                    00         |            .   |                    offset: 0 0x2ac-0x2ac.7 (1)
     |                                               |                |                  [2]{}: instr 0x2ad-0x2ad.7 (1)
0x2a0|                                       0b      |             .  |                    end: 0xb (valid) 0x2ad-0x2ad.7 (1)
     |                                               |                |          [17]{}: code 0x2ae-0x2b5.7 (8)
0x2a0|                                          07   |              . |            size: 7 0x2ae-0x2ae.7 (1)
     |                                               |                |            code{}: 0x2af-0x2b5.7 (7)
     |                                               |                |              locals{}: 0x2af-0x2af.7 (1)
0x2a0|                                             00|               .|                n: 0 0x2af-0x2af.7 (1)
     |                                               |                |                items[0:0]: 0x2b0-NA (0)
     |                                               |                |              expr{}: 0x2b0-0x2b5.7 (6)
     |                                               |                |                instructions[0:3]: 0x2b0-0x2b5.7 (6)
     |                                               |                |                  [0]{}: instr 0x2b0-0x2b1.7 (2)
0x2b0|20                                             |                |                    local.get: 0x20 (valid) 0x2b0-0x2b0.7 (1)
0x2b0|   00                                          | .              |                    x: 0 0x2b1-0x2b1.7 (1)
     |                                               |                |                  [1]{}: instr 0x2b2-0x2b4.7 (3)
0x2b0|      32                                       |  2             |                    i64.load16_s: 0x32 (valid) 0x2b2-0x2b2.7 (1)
0x2b0|         00                                    |   .            |                    align: 0 0x2b3-0x2b3.7 (1)
0x2b0|            01                                 |    .           |                    offset: 1 0x2b4-0x2b4.7 (1)
     |                                               |                |                  [2]{}: instr 0x2b5-0x2b5.7 (1)
0x2b0|               0b                              |     .          |                    end: 0xb (valid) 0x2b5-0x2b5.7 (1)
     |                                               |                |          [18]{}: code 0x2b6-0x2bd.7 (8)
0x2b0|                  07                           |      .         |            size: 7 0x2b6-0x2b6.7 (1)
     |                                               |                |            code{}: 0x2b7-0x2bd.7 (7)
     |                                               |                |              locals{}: 0x2b7-0x2b7.7 (1)
0x2b0|                     00                        |       .        |                n: 0 0x2b7-0x2b7.7 (1)
     |                                               |                |                items[0:0]: 0x2b8-NA (0)
     |                                               |                |              expr{}: 0x2b8-0x2bd.7 (6)
     |                                               |                |                instructions[0:3]: 0x2b8-0x2bd.7 (6)
     |                                               |                |                  [0]{}: instr 0x2b8-0x2b9.7 (2)
0x2b0|                        20                     |                |                    local.get: 0x20 (valid) 0x2b8-0x2b8.7 (1)
0x2b0|                           00                  |         .      |                    x: 0 0x2b9-0x2b9.7 (1)
     |                                               |                |                  [1]{}: instr 0x2ba-0x2bc.7 (3)
0x2b0|                              32               |          2     |                    i64.load16_s: 0x32 (valid) 0x2ba-0x2ba.7 (1)
0x2b0|                                 01            |           .    |                    align: 1 0x2bb-0x2bb.7 (1)
0x2b0|                                    02         |            .   |                    offset: 2 0x2bc-0x2bc.7 (1)
     |                                               |                |                  [2]{}: instr 0x2bd-0x2bd.7 (1)
0x2b0|                                       0b      |             .  |                    end: 0xb (valid) 0x2bd-0x2bd.7 (1)
     |                                               |                |          [19]{}: code 0x2be-0x2c5.7 (8)
0x2b0|                                          07   |              . |            size: 7 0x2be-0x2be.7 (1)
     |                                               |                |            code{}: 0x2bf-0x2c5.7 (7)
     |                                               |                |              locals{}: 0x2bf-0x2bf.7 (1)
0x2b0|                                             00|               .|                n: 0 0x2bf-0x2bf.7 (1)
     |                                               |                |                items[0:0]: 0x2c0-NA (0)
     |                                               |                |              expr{}: 0x2c0-0x2c5.7 (6)
     |                                               |                |                instructions[0:3]: 0x2c0-0x2c5.7 (6)
     |                                               |                |                  [0]{}: instr 0x2c0-0x2c1.7 (2)
0x2c0|20                                             |                |                    local.get: 0x20 (valid) 0x2c0-0x2c0.7 (1)
0x2c0|   00                                          | .              |                    x: 0 0x2c1-0x2c1.7 (1)
     |                                               |                |                  [1]{}: instr 0x2c2-0x2c4.7 (3)
0x2c0|      32                                       |  2             |                    i64.load16_s: 0x32 (valid) 0x2c2-0x2c2.7 (1)
0x2c0|         01                                    |   .            |                    align: 1 0x2c3-0x2c3.7 (1)
0x2c0|            19                                 |    .           |                    offset: 25 0x2c4-0x2c4.7 (1)
     |                                               |                |                  [2]{}: instr 0x2c5-0x2c5.7 (1)
0x2c0|               0b                              |     .          |                    end: 0xb (valid) 0x2c5-0x2c5.7 (1)
     |                                               |                |          [20]{}: code 0x2c6-0x2cd.7 (8)
0x2c0|                  07                           |      .         |            size: 7 0x2c6-0x2c6.7 (1)
     |                                               |                |            code{}: 0x2c7-0x2cd.7 (7)
     |                                               |                |              locals{}: 0x2c7-0x2c7.7 (1)
0x2c0|                     00                        |       .        |                n: 0 0x2c7-0x2c7.7 (1)
     |                                               |                |                items[0:0]: 0x2c8-NA (0)
     |                                               |                |              expr{}: 0x2c8-0x2cd.7 (6)
     |                                               |                |                instructions[0:3]: 0x2c8-0x2cd.7 (6)
     |                                               |                |                  [0]{}: instr 0x2c8-0x2c9.7 (2)
0x2c0|                        20                     |                |                    local.get: 0x20 (valid) 0x2c8-0x2c8.7 (1)
0x2c0|                           00                  |         .      |                    x: 0 0x2c9-0x2c9.7 (1)
     |                                               |                |                  [1]{}: instr 0x2ca-0x2cc.7 (3)
0x2c0|                              35               |          5     |                    i64.load32_u: 0x35 (valid) 0x2ca-0x2ca.7 (1)
0x2c0|                                 02            |           .    |                    align: 2 0x2cb-0x2cb.7 (1)
0x2c0|                                    00         |            .   |                    offset: 0 0x2cc-0x2cc.7 (1)
     |                                               |                |                  [2]{}: instr 0x2cd-0x2cd.7 (1)
0x2c0|                                       0b      |             .  |                    end: 0xb (valid) 0x2cd-0x2cd.7 (1)
     |                                               |                |          [21]{}: code 0x2ce-0x2d5.7 (8)
0x2c0|                                          07   |              . |            size: 7 0x2ce-0x2ce.7 (1)
     |                                               |                |            code{}: 0x2cf-0x2d5.7 (7)
     |                                               |                |              locals{}: 0x2cf-0x2cf.7 (1)
0x2c0|                                             00|               .|                n: 0 0x2cf-0x2cf.7 (1)
     |                                               |                |                items[0:0]: 0x2d0-NA (0)
     |                                               |                |              expr{}: 0x2d0-0x2d5.7 (6)
     |                                               |                |                instructions[0:3]: 0x2d0-0x2d5.7 (6)
     |                                               |                |                  [0]{}: instr 0x2d0-0x2d1.7 (2)
0x2d0|20                                             |                |                    local.get: 0x20 (valid) 0x2d0-0x2d0.7 (1)
0x2d0|   00                                          | .              |                    x: 0 0x2d1-0x2d1.7 (1)
     |                                               |                |                  [1]{}: instr 0x2d2-0x2d4.7 (3)
0x2d0|      35                                       |  5             |                    i64.load32_u: 0x35 (valid) 0x2d2-0x2d2.7 (1)
0x2d0|         00                                    |   .            |                    align: 0 0x2d3-0x2d3.7 (1)
0x2d0|            00                                 |    .           |                    offset: 0 0x2d4-0x2d4.7 (1)
     |                                               |                |                  [2]{}: instr 0x2d5-0x2d5.7 (1)
0x2d0|               0b                              |     .          |                    end: 0xb (valid) 0x2d5-0x2d5.7 (1)
     |                                               |                |          [22]{}: code 0x2d6-0x2dd.7 (8)
0x2d0|                  07                           |      .         |            size: 7 0x2d6-0x2d6.7 (1)
     |                                               |                |            code{}: 0x2d7-0x2dd.7 (7)
     |                                               |                |              locals{}: 0x2d7-0x2d7.7 (1)
0x2d0|                     00                        |       .        |                n: 0 0x2d7-0x2d7.7 (1)
     |                                               |                |                items[0:0]: 0x2d8-NA (0)
     |                                               |                |              expr{}: 0x2d8-0x2dd.7 (6)
     |                                               |                |                instructions[0:3]: 0x2d8-0x2dd.7 (6)
     |                                               |                |                  [0]{}: instr 0x2d8-0x2d9.7 (2)
0x2d0|                        20                     |                |                    local.get: 0x20 (valid) 0x2d8-0x2d8.7 (1)
0x2d0|                           00                  |         .      |                    x: 0 0x2d9-0x2d9.7 (1)
     |                                               |                |                  [1]{}: instr 0x2da-0x2dc.7 (3)
0x2d0|                              35               |          5     |                    i64.load32_u: 0x35 (valid) 0x2da-0x2da.7 (1)
0x2d0|                                 00            |           .    |                    align: 0 0x2db-0x2db.7 (1)
0x2d0|                                    01         |            .   |                    offset: 1 0x2dc-0x2dc.7 (1)
     |                                               |                |                  [2]{}: instr 0x2dd-0x2dd.7 (1)
0x2d0|                                       0b      |             .  |                    end: 0xb (valid) 0x2dd-0x2dd.7 (1)
     |                                               |                |          [23]{}: code 0x2de-0x2e5.7 (8)
0x2d0|                                          07   |              . |            size: 7 0x2de-0x2de.7 (1)
     |                                               |                |            code{}: 0x2df-0x2e5.7 (7)
     |                                               |                |              locals{}: 0x2df-0x2df.7 (1)
0x2d0|                                             00|               .|                n: 0 0x2df-0x2df.7 (1)
     |                                               |                |                items[0:0]: 0x2e0-NA (0)
     |                                               |                |              expr{}: 0x2e0-0x2e5.7 (6)
     |                                               |                |                instructions[0:3]: 0x2e0-0x2e5.7 (6)
     |                                               |                |                  [0]{}: instr 0x2e0-0x2e1.7 (2)
0x2e0|20                                             |                |                    local.get: 0x20 (valid) 0x2e0-0x2e0.7 (1)
0x2e0|   00                                          | .              |                    x: 0 0x2e1-0x2e1.7 (1)
     |                                               |                |                  [1]{}: instr 0x2e2-0x2e4.7 (3)
0x2e0|      35                                       |  5             |                    i64.load32_u: 0x35 (valid) 0x2e2-0x2e2.7 (1)
0x2e0|         01                                    |   .            |                    align: 1 0x2e3-0x2e3.7 (1)
0x2e0|            02                                 |    .           |                    offset: 2 0x2e4-0x2e4.7 (1)
     |                                               |                |                  [2]{}: instr 0x2e5-0x2e5.7 (1)
0x2e0|               0b                              |     .          |                    end: 0xb (valid) 0x2e5-0x2e5.7 (1)
     |                                               |                |          [24]{}: code 0x2e6-0x2ed.7 (8)
0x2e0|                  07                           |      .         |            size: 7 0x2e6-0x2e6.7 (1)
     |                                               |                |            code{}: 0x2e7-0x2ed.7 (7)
     |                                               |                |              locals{}: 0x2e7-0x2e7.7 (1)
0x2e0|                     00                        |       .        |                n: 0 0x2e7-0x2e7.7 (1)
     |                                               |                |                items[0:0]: 0x2e8-NA (0)
     |                                               |                |              expr{}: 0x2e8-0x2ed.7 (6)
     |                                               |                |                instructions[0:3]: 0x2e8-0x2ed.7 (6)
     |                                               |                |                  [0]{}: instr 0x2e8-0x2e9.7 (2)
0x2e0|                        20                     |                |                    local.get: 0x20 (valid) 0x2e8-0x2e8.7 (1)
0x2e0|                           00                  |         .      |                    x: 0 0x2e9-0x2e9.7 (1)
     |                                               |                |                  [1]{}: instr 0x2ea-0x2ec.7 (3)
0x2e0|                              35               |          5     |                    i64.load32_u: 0x35 (valid) 0x2ea-0x2ea.7 (1)
0x2e0|                                 02            |           .    |                    align: 2 0x2eb-0x2eb.7 (1)
0x2e0|                                    19         |            .   |                    offset: 25 0x2ec-0x2ec.7 (1)
     |                                               |                |                  [2]{}: instr 0x2ed-0x2ed.7 (1)
0x2e0|                                       0b      |             .  |                    end: 0xb (valid) 0x2ed-0x2ed.7 (1)
     |                                               |                |          [25]{}: code 0x2ee-0x2f5.7 (8)
0x2e0|                                          07   |              . |            size: 7 0x2ee-0x2ee.7 (1)
     |                                               |                |            code{}: 0x2ef-0x2f5.7 (7)
     |                                               |                |              locals{}: 0x2ef-0x2ef.7 (1)
0x2e0|                                             00|               .|                n: 0 0x2ef-0x2ef.7 (1)
     |                                               |                |                items[0:0]: 0x2f0-NA (0)
     |                                               |                |              expr{}: 0x2f0-0x2f5.7 (6)
     |                                               |                |                instructions[0:3]: 0x2f0-0x2f5.7 (6)
     |                                               |                |                  [0]{}: instr 0x2f0-0x2f1.7 (2)
0x2f0|20                                             |                |                    local.get: 0x20 (valid) 0x2f0-0x2f0.7 (1)
0x2f0|   00                                          | .              |                    x: 0 0x2f1-0x2f1.7 (1)
     |                                               |                |                  [1]{}: instr 0x2f2-0x2f4.7 (3)
0x2f0|      34                                       |  4             |                    i64.load32_s: 0x34 (valid) 0x2f2-0x2f2.7 (1)
0x2f0|         02                                    |   .            |                    align: 2 0x2f3-0x2f3.7 (1)
0x2f0|            00                                 |    .           |                    offset: 0 0x2f4-0x2f4.7 (1)
     |                                               |                |                  [2]{}: instr 0x2f5-0x2f5.7 (1)
0x2f0|               0b                              |     .          |                    end: 0xb (valid) 0x2f5-0x2f5.7 (1)
     |                                               |                |          [26]{}: code 0x2f6-0x2fd.7 (8)
0x2f0|                  07                           |      .         |            size: 7 0x2f6-0x2f6.7 (1)
     |                                               |                |            code{}: 0x2f7-0x2fd.7 (7)
     |                                               |                |              locals{}: 0x2f7-0x2f7.7 (1)
0x2f0|                     00                        |       .        |                n: 0 0x2f7-0x2f7.7 (1)
     |                                               |                |                items[0:0]: 0x2f8-NA (0)
     |                                               |                |              expr{}: 0x2f8-0x2fd.7 (6)
     |                                               |                |                instructions[0:3]: 0x2f8-0x2fd.7 (6)
     |                                               |                |                  [0]{}: instr 0x2f8-0x2f9.7 (2)
0x2f0|                        20                     |                |                    local.get: 0x20 (valid) 0x2f8-0x2f8.7 (1)
0x2f0|                           00                  |         .      |                    x: 0 0x2f9-0x2f9.7 (1)
     |                                               |                |                  [1]{}: instr 0x2fa-0x2fc.7 (3)
0x2f0|                              34               |          4     |                    i64.load32_s: 0x34 (valid) 0x2fa-0x2fa.7 (1)
0x2f0|                                 00            |           .    |                    align: 0 0x2fb-0x2fb.7 (1)
0x2f0|                                    00         |            .   |                    offset: 0 0x2fc-0x2fc.7 (1)
     |                                               |                |                  [2]{}: instr 0x2fd-0x2fd.7 (1)
0x2f0|                                       0b      |             .  |                    end: 0xb (valid) 0x2fd-0x2fd.7 (1)
     |                                               |                |          [27]{}: code 0x2fe-0x305.7 (8)
0x2f0|                                          07   |              . |            size: 7 0x2fe-0x2fe.7 (1)
     |                                               |                |            code{}: 0x2ff-0x305.7 (7)
     |                                               |                |              locals{}: 0x2ff-0x2ff.7 (1)
0x2f0|                                             00|               .|                n: 0 0x2ff-0x2ff.7 (1)
     |                                               |                |                items[0:0]: 0x300-NA (0)
     |                                               |                |              expr{}: 0x300-0x305.7 (6)
     |                                               |                |                instructions[0:3]: 0x300-0x305.7 (6)
     |                                               |                |                  [0]{}: instr 0x300-0x301.7 (2)
0x300|20                                             |                |                    local.get: 0x20 (valid) 0x300-0x300.7 (1)
0x300|   00                                          | .              |                    x: 0 0x301-0x301.7 (1)
     |                                               |                |                  [1]{}: instr 0x302-0x304.7 (3)
0x300|      34                                       |  4             |                    i64.load32_s: 0x34 (valid) 0x302-0x302.7 (1)
0x300|         00                                    |   .            |                    align: 0 0x303-0x303.7 (1)
0x300|            01                                 |    .           |                    offset: 1 0x304-0x304.7 (1)
     |                                               |                |                  [2]{}: instr 0x305-0x305.7 (1)
0x300|               0b                              |     .          |                    end: 0xb (valid) 0x305-0x305.7 (1)
     |                                               |                |          [28]{}: code 0x306-0x30d.7 (8)
0x300|                  07                           |      .         |            size: 7 0x306-0x306.7 (1)
     |                                               |                |            code{}: 0x307-0x30d.7 (7)
     |                                               |                |              locals{}: 0x307-0x307.7 (1)
0x300|                     00                        |       .        |                n: 0 0x307-0x307.7 (1)
     |                                               |                |                items[0:0]: 0x308-NA (0)
     |                                               |                |              expr{}: 0x308-0x30d.7 (6)
     |                                               |                |                instructions[0:3]: 0x308-0x30d.7 (6)
     |                                               |                |                  [0]{}: instr 0x308-0x309.7 (2)
0x300|                        20                     |                |                    local.get: 0x20 (valid) 0x308-0x308.7 (1)
0x300|                           00                  |         .      |                    x: 0 0x309-0x309.7 (1)
     |                                               |                |                  [1]{}: instr 0x30a-0x30c.7 (3)
0x300|                              34               |          4     |                    i64.load32_s: 0x34 (valid) 0x30a-0x30a.7 (1)
0x300|                                 01            |           .    |                    align: 1 0x30b-0x30b.7 (1)
0x300|                                    02         |            .   |                    offset: 2 0x30c-0x30c.7 (1)
     |                                               |                |                  [2]{}: instr 0x30d-0x30d.7 (1)
0x300|                                       0b      |             .  |                    end: 0xb (valid) 0x30d-0x30d.7 (1)
     |                                               |                |          [29]{}: code 0x30e-0x315.7 (8)
0x300|                                          07   |              . |            size: 7 0x30e-0x30e.7 (1)
     |                                               |                |            code{}: 0x30f-0x315.7 (7)
     |                                               |                |              locals{}: 0x30f-0x30f.7 (1)
0x300|                                             00|               .|                n: 0 0x30f-0x30f.7 (1)
     |                                               |                |                items[0:0]: 0x310-NA (0)
     |                                               |                |              expr{}: 0x310-0x315.7 (6)
     |                                               |                |                instructions[0:3]: 0x310-0x315.7 (6)
     |                                               |                |                  [0]{}: instr 0x310-0x311.7 (2)
0x310|20                                             |                |                    local.get: 0x20 (valid) 0x310-0x310.7 (1)
0x310|   00                                          | .              |                    x: 0 0x311-0x311.7 (1)
     |                                               |                |                  [1]{}: instr 0x312-0x314.7 (3)
0x310|      34                                       |  4             |                    i64.load32_s: 0x34 (valid) 0x312-0x312.7 (1)
0x310|         02                                    |   .            |                    align: 2 0x313-0x313.7 (1)
0x310|            19                                 |    .           |                    offset: 25 0x314-0x314.7 (1)
     |                                               |                |                  [2]{}: instr 0x315-0x315.7 (1)
0x310|               0b                              |     .          |                    end: 0xb (valid) 0x315-0x315.7 (1)
     |                                               |                |          [30]{}: code 0x316-0x31d.7 (8)
0x310|                  07                           |      .         |            size: 7 0x316-0x316.7 (1)
     |                                               |                |            code{}: 0x317-0x31d.7 (7)
     |                                               |                |              locals{}: 0x317-0x317.7 (1)
0x310|                     00                        |       .        |                n: 0 0x317-0x317.7 (1)
     |                                               |                |                items[0:0]: 0x318-NA (0)
     |                                               |                |              expr{}: 0x318-0x31d.7 (6)
     |                                               |                |                instructions[0:3]: 0x318-0x31d.7 (6)
     |                                               |                |                  [0]{}: instr 0x318-0x319.7 (2)
0x310|                        20                     |                |                    local.get: 0x20 (valid) 0x318-0x318.7 (1)
0x310|                           00                  |         .      |                    x: 0 0x319-0x319.7 (1)
     |                                               |                |                  [1]{}: instr 0x31a-0x31c.7 (3)
0x310|                              29               |          )     |                    i64.load: 0x29 (valid) 0x31a-0x31a.7 (1)
0x310|                                 03            |           .    |                    align: 3 0x31b-0x31b.7 (1)
0x310|                                    00         |            .   |                    offset: 0 0x31c-0x31c.7 (1)
     |                                               |                |                  [2]{}: instr 0x31d-0x31d.7 (1)
0x310|                                       0b      |             .  |                    end: 0xb (valid) 0x31d-0x31d.7 (1)
     |                                               |                |          [31]{}: code 0x31e-0x325.7 (8)
0x310|                                          07   |              . |            size: 7 0x31e-0x31e.7 (1)
     |                                               |                |            code{}: 0x31f-0x325.7 (7)
     |                                               |                |              locals{}: 0x31f-0x31f.7 (1)
0x310|                                             00|               .|                n: 0 0x31f-0x31f.7 (1)
     |                                               |                |                items[0:0]: 0x320-NA (0)
     |                                               |                |              expr{}: 0x320-0x325.7 (6)
     |                                               |                |                instructions[0:3]: 0x320-0x325.7 (6)
     |                                               |                |                  [0]{}: instr 0x320-0x321.7 (2)
0x320|20                                             |                |                    local.get: 0x20 (valid) 0x320-0x320.7 (1)
0x320|   00                                          | .              |                    x: 0 0x321-0x321.7 (1)
     |                                               |                |                  [1]{}: instr 0x322-0x324.7 (3)
0x320|      29                                       |  )             |                    i64.load: 0x29 (valid) 0x322-0x322.7 (1)
0x320|         00                                    |   .            |                    align: 0 0x323-0x323.7 (1)
0x320|            00                                 |    .           |                    offset: 0 0x324-0x324.7 (1)
     |                                               |                |                  [2]{}: instr 0x325-0x325.7 (1)
0x320|               0b                              |     .          |                    end: 0xb (valid) 0x325-0x325.7 (1)
     |                                               |                |          [32]{}: code 0x326-0x32d.7 (8)
0x320|                  07                           |      .         |            size: 7 0x326-0x326.7 (1)
     |                                               |                |            code{}: 0x327-0x32d.7 (7)
     |                                               |                |              locals{}: 0x327-0x327.7 (1)
0x320|                     00                        |       .        |                n: 0 0x327-0x327.7 (1)
     |                                               |                |                items[0:0]: 0x328-NA (0)
     |                                               |                |              expr{}: 0x328-0x32d.7 (6)
     |                                               |                |                instructions[0:3]: 0x328-0x32d.7 (6)
     |                                               |                |                  [0]{}: instr 0x328-0x329.7 (2)
0x320|                        20                     |                |                    local.get: 0x20 (valid) 0x328-0x328.7 (1)
0x320|                           00                  |         .      |                    x: 0 0x329-0x329.7 (1)
     |                                               |                |                  [1]{}: instr 0x32a-0x32c.7 (3)
0x320|                              29               |          )     |                    i64.load: 0x29 (valid) 0x32a-0x32a.7 (1)
0x320|                                 00            |           .    |                    align: 0 0x32b-0x32b.7 (1)
0x320|                                    01         |            .   |                    offset: 1 0x32c-0x32c.7 (1)
     |                                               |                |                  [2]{}: instr 0x32d-0x32d.7 (1)
0x320|                                       0b      |             .  |                    end: 0xb (valid) 0x32d-0x32d.7 (1)
     |                                               |                |          [33]{}: code 0x32e-0x335.7 (8)
0x320|                                          07   |              . |            size: 7 0x32e-0x32e.7 (1)
     |                                               |                |            code{}: 0x32f-0x335.7 (7)
     |                                               |                |              locals{}: 0x32f-0x32f.7 (1)
0x320|                                             00|               .|                n: 0 0x32f-0x32f.7 (1)
     |                                               |                |                items[0:0]: 0x330-NA (0)
     |                                               |                |              expr{}: 0x330-0x335.7 (6)
     |                                               |                |                instructions[0:3]: 0x330-0x335.7 (6)
     |                                               |                |                  [0]{}: instr 0x330-0x331.7 (2)
0x330|20                                             |                |                    local.get: 0x20 (valid) 0x330-0x330.7 (1)
0x330|   00                                          | .              |                    x: 0 0x331-0x331.7 (1)
     |                                               |                |                  [1]{}: instr 0x332-0x334.7 (3)
0x330|      29                                       |  )             |                    i64.load: 0x29 (valid) 0x332-0x332.7 (1)
0x330|         01                                    |   .            |                    align: 1 0x333-0x333.7 (1)
0x330|            02                                 |    .           |                    offset: 2 0x334-0x334.7 (1)
     |                                               |                |                  [2]{}: instr 0x335-0x335.7 (1)
0x330|               0b                              |     .          |                    end: 0xb (valid) 0x335-0x335.7 (1)
     |                                               |                |          [34]{}: code 0x336-0x33d.7 (8)
0x330|                  07                           |      .         |            size: 7 0x336-0x336.7 (1)
     |                                               |                |            code{}: 0x337-0x33d.7 (7)
     |                                               |                |              locals{}: 0x337-0x337.7 (1)
0x330|                     00                        |       .        |                n: 0 0x337-0x337.7 (1)
     |                                               |                |                items[0:0]: 0x338-NA (0)
     |                                               |                |              expr{}: 0x338-0x33d.7 (6)
     |                                               |                |                instructions[0:3]: 0x338-0x33d.7 (6)
     |                                               |                |                  [0]{}: instr 0x338-0x339.7 (2)
0x330|                        20                     |                |                    local.get: 0x20 (valid) 0x338-0x338.7 (1)
0x330|                           00                  |         .      |                    x: 0 0x339-0x339.7 (1)
     |                                               |                |                  [1]{}: instr 0x33a-0x33c.7 (3)
0x330|                              29               |          )     |                    i64.load: 0x29 (valid) 0x33a-0x33a.7 (1)
0x330|                                 03            |           .    |                    align: 3 0x33b-0x33b.7 (1)
0x330|                                    19         |            .   |                    offset: 25 0x33c-0x33c.7 (1)
     |                                               |                |                  [2]{}: instr 0x33d-0x33d.7 (1)
0x330|                                       0b      |             .  |                    end: 0xb (valid) 0x33d-0x33d.7 (1)
     |                                               |                |          [35]{}: code 0x33e-0x34a.7 (13)
0x330|                                          0c   |              . |            size: 12 0x33e-0x33e.7 (1)
     |                                               |                |            code{}: 0x33f-0x34a.7 (12)
     |                                               |                |              locals{}: 0x33f-0x33f.7 (1)
0x330|                                             00|               .|                n: 0 0x33f-0x33f.7 (1)
     |                                               |                |                items[0:0]: 0x340-NA (0)
     |                                               |                |              expr{}: 0x340-0x34a.7 (11)
     |                                               |                |                instructions[0:4]: 0x340-0x34a.7 (11)
     |                                               |                |                  [0]{}: instr 0x340-0x341.7 (2)
0x340|20                                             |                |                    local.get: 0x20 (valid) 0x340-0x340.7 (1)
0x340|   00                                          | .              |                    x: 0 0x341-0x341.7 (1)
     |                                               |                |                  [1]{}: instr 0x342-0x348.7 (7)
0x340|      31                                       |  1             |                    i64.load8_u: 0x31 (valid) 0x342-0x342.7 (1)
0x340|         00                                    |   .            |                    align: 0 0x343-0x343.7 (1)
0x340|            ff ff ff ff 0f                     |    .....       |                    offset: 4294967295 0x344-0x348.7 (5)
     |                                               |                |                  [2]{}: instr 0x349-0x349.7 (1)
0x340|                           1a                  |         .      |                    drop: 0x1a (valid) 0x349-0x349.7 (1)
     |                                               |                |                  [3]{}: instr 0x34a-0x34a.7 (1)
0x340|                              0b               |          .     |                    end: 0xb (valid) 0x34a-0x34a.7 (1)
     |                                               |                |          [36]{}: code 0x34b-0x357.7 (13)
0x340|                                 0c            |           .    |            size: 12 0x34b-0x34b.7 (1)
     |                                               |                |            code{}: 0x34c-0x357.7 (12)
     |                                               |                |              locals{}: 0x34c-0x34c.7 (1)
0x340|                                    00         |            .   |                n: 0 0x34c-0x34c.7 (1)
     |                                               |                |                items[0:0]: 0x34d-NA (0)
     |                                               |                |              expr{}: 0x34d-0x357.7 (11)
     |                                               |                |                instructions[0:4]: 0x34d-0x357.7 (11)
     |                                               |                |                  [0]{}: instr 0x34d-0x34e.7 (2)
0x340|                                       20      |                |                    local.get: 0x20 (valid) 0x34d-0x34d.7 (1)
0x340|                                          00   |              . |                    x: 0 0x34e-0x34e.7 (1)
     |                                               |                |                  [1]{}: instr 0x34f-0x355.7 (7)
0x340|                                             30|               0|                    i64.load8_s: 0x30 (valid) 0x34f-0x34f.7 (1)
0x350|00                                             |.               |                    align: 0 0x350-0x350.7 (1)
0x350|   ff ff ff ff 0f                              | .....          |                    offset: 4294967295 0x351-0x355.7 (5)
     |                                               |                |                  [2]{}: instr 0x356-0x356.7 (1)
0x350|                  1a                           |      .         |                    drop: 0x1a (valid) 0x356-0x356.7 (1)
     |                                               |                |                  [3]{}: instr 0x357-0x357.7 (1)
0x350|                     0b                        |       .        |                    end: 0xb (valid) 0x357-0x357.7 (1)
     |                                               |                |          [37]{}: code 0x358-0x364.7 (13)
0x350|                        0c                     |        .       |            size: 12 0x358-0x358.7 (1)
     |                                               |                |            code{}: 0x359-0x364.7 (12)
     |                                               |                |              locals{}: 0x359-0x359.7 (1)
0x350|                           00                  |         .      |                n: 0 0x359-0x359.7 (1)
     |                                               |                |                items[0:0]: 0x35a-NA (0)
     |                                               |                |              expr{}: 0x35a-0x364.7 (11)
     |                                               |                |                instructions[0:4]: 0x35a-0x364.7 (11)
     |                                               |                |                  [0]{}: instr 0x35a-0x35b.7 (2)
0x350|                              20               |                |                    local.get: 0x20 (valid) 0x35a-0x35a.7 (1)
0x350|                                 00            |           .    |                    x: 0 0x35b-0x35b.7 (1)
     |                                               |                |                  [1]{}: instr 0x35c-0x362.7 (7)
0x350|                                    33         |            3   |                    i64.load16_u: 0x33 (valid) 0x35c-0x35c.7 (1)
0x350|                                       01      |             .  |                    align: 1 0x35d-0x35d.7 (1)
0x350|                                          ff ff|              ..|                    offset: 4294967295 0x35e-0x362.7 (5)
0x360|ff ff 0f                                       |...             |
     |                                               |                |                  [2]{}: instr 0x363-0x363.7 (1)
0x360|         1a                                    |   .            |                    drop: 0x1a (valid) 0x363-0x363.7 (1)
     |                                               |                |                  [3]{}: instr 0x364-0x364.7 (1)
0x360|            0b                                 |    .           |                    end: 0xb (valid) 0x364-0x364.7 (1)
     |                                               |                |          [38]{}: code 0x365-0x371.7 (13)
0x360|               0c                              |     .          |            size: 12 0x365-0x365.7 (1)
     |                                               |                |            code{}: 0x366-0x371.7 (12)
     |                                               |                |              locals{}: 0x366-0x366.7 (1)
0x360|                  00                           |      .         |                n: 0 0x366-0x366.7 (1)
     |                                               |                |                items[0:0]: 0x367-NA (0)
     |                                               |                |              expr{}: 0x367-0x371.7 (11)
     |                                               |                |                instructions[0:4]: 0x367-0x371.7 (11)
     |                                               |                |                  [0]{}: instr 0x367-0x368.7 (2)
0x360|                     20                        |                |                    local.get: 0x20 (valid) 0x367-0x367.7 (1)
0x360|                        00                     |        .       |                    x: 0 0x368-0x368.7 (1)
     |                                               |                |                  [1]{}: instr 0x369-0x36f.7 (7)
0x360|                           32                  |         2      |                    i64.load16_s: 0x32 (valid) 0x369-0x369.7 (1)
0x360|                              01               |          .     |                    align: 1 0x36a-0x36a.7 (1)
0x360|                                 ff ff ff ff 0f|           .....|                    offset: 4294967295 0x36b-0x36f.7 (5)
     |                                               |                |                  [2]{}: instr 0x370-0x370.7 (1)
0x370|1a                                             |.               |                    drop: 0x1a (valid) 0x370-0x370.7 (1)
     |                                               |                |                  [3]{}: instr 0x371-0x371.7 (1)
0x370|   0b                                          | .              |                    end: 0xb (valid) 0x371-0x371.7 (1)
     |                                               |                |          [39]{}: code 0x372-0x37e.7 (13)
0x370|      0c                                       |  .             |            size: 12 0x372-0x372.7 (1)
     |                                               |                |            code{}: 0x373-0x37e.7 (12)
     |                                               |                |              locals{}: 0x373-0x373.7 (1)
0x370|         00                                    |   .            |                n: 0 0x373-0x373.7 (1)
     |                                               |                |                items[0:0]: 0x374-NA (0)
     |                                               |                |              expr{}: 0x374-0x37e.7 (11)
     |                                               |                |                instructions[0:4]: 0x374-0x37e.7 (11)
     |                                               |                |                  [0]{}: instr 0x374-0x375.7 (2)
0x370|            20                                 |                |                    local.get: 0x20 (valid) 0x374-0x374.7 (1)
0x370|               00                              |     .          |                    x: 0 0x375-0x375.7 (1)
     |                                               |                |                  [1]{}: instr 0x376-0x37c.7 (7)
0x370|                  35                           |      5         |                    i64.load32_u: 0x35 (valid) 0x376-0x376.7 (1)
0x370|                     02                        |       .        |                    align: 2 0x377-0x377.7 (1)
0x370|                        ff ff ff ff 0f         |        .....   |                    offset: 4294967295 0x378-0x37c.7 (5)
     |                                               |                |                  [2]{}: instr 0x37d-0x37d.7 (1)
0x370|                                       1a      |             .  |                    drop: 0x1a (valid) 0x37d-0x37d.7 (1)
     |                                               |                |                  [3]{}: instr 0x37e-0x37e.7 (1)
0x370|                                          0b   |              . |                    end: 0xb (valid) 0x37e-0x37e.7 (1)
     |                                               |                |          [40]{}: code 0x37f-0x38b.7 (13)
0x370|                                             0c|               .|            size: 12 0x37f-0x37f.7 (1)
     |                                               |                |            code{}: 0x380-0x38b.7 (12)
     |                                               |                |              locals{}: 0x380-0x380.7 (1)
0x380|00                                             |.               |                n: 0 0x380-0x380.7 (1)
     |                                               |                |                items[0:0]: 0x381-NA (0)
     |                                               |                |              expr{}: 0x381-0x38b.7 (11)
     |                                               |                |                instructions[0:4]: 0x381-0x38b.7 (11)
     |                                               |                |                  [0]{}: instr 0x381-0x382.7 (2)
0x380|   20                                          |                |                    local.get: 0x20 (valid) 0x381-0x381.7 (1)
0x380|      00                                       |  .             |                    x: 0 0x382-0x382.7 (1)
     |                                               |                |                  [1]{}: instr 0x383-0x389.7 (7)
0x380|         34                                    |   4            |                    i64.load32_s: 0x34 (valid) 0x383-0x383.7 (1)
0x380|            02                                 |    .           |                    align: 2 0x384-0x384.7 (1)
0x380|               ff ff ff ff 0f                  |     .....      |                    offset: 4294967295 0x385-0x389.7 (5)
     |                                               |                |                  [2]{}: instr 0x38a-0x38a.7 (1)
0x380|                              1a               |          .     |                    drop: 0x1a (valid) 0x38a-0x38a.7 (1)
     |                                               |                |                  [3]{}: instr 0x38b-0x38b.7 (1)
0x380|                                 0b            |           .    |                    end: 0xb (valid) 0x38b-0x38b.7 (1)
     |                                               |                |          [41]{}: code 0x38c-0x398.7 (13)
0x380|                                    0c         |            .   |            size: 12 0x38c-0x38c.7 (1)
     |                                               |                |            code{}: 0x38d-0x398.7 (12)
     |                                               |                |              locals{}: 0x38d-0x38d.7 (1)
0x380|                                       00      |             .  |                n: 0 0x38d-0x38d.7 (1)
     |                                               |                |                items[0:0]: 0x38e-NA (0)
     |                                               |                |              expr{}: 0x38e-0x398.7 (11)
     |                                               |                |                instructions[0:4]: 0x38e-0x398.7 (11)
     |                                               |                |                  [0]{}: instr 0x38e-0x38f.7 (2)
0x380|                                          20   |                |                    local.get: 0x20 (valid) 0x38e-0x38e.7 (1)
0x380|                                             00|               .|                    x: 0 0x38f-0x38f.7 (1)
     |                                               |                |                  [1]{}: instr 0x390-0x396.7 (7)
0x390|29                                             |)               |                    i64.load: 0x29 (valid) 0x390-0x390.7 (1)
0x390|   03                                          | .              |                    align: 3 0x391-0x391.7 (1)
0x390|      ff ff ff ff 0f                           |  .....         |                    offset: 4294967295 0x392-0x396.7 (5)
     |                                               |                |                  [2]{}: instr 0x397-0x397.7 (1)
0x390|                     1a                        |       .        |                    drop: 0x1a (valid) 0x397-0x397.7 (1)
     |                                               |                |                  [3]{}: instr 0x398-0x398.7 (1)
0x390|                        0b                     |        .       |                    end: 0xb (valid) 0x398-0x398.7 (1)
     |                                               |                |    [5]{}: section 0x399-0x3ba.7 (34)
0x390|                           0b                  |         .      |      id: "data section" (11) 0x399-0x399.7 (1)
0x390|                              20               |                |      size: 32 0x39a-0x39a.7 (1)
     |                                               |                |      content{}: 0x39b-0x3ba.7 (32)
0x390|                                 01            |           .    |        n: 1 0x39b-0x39b.7 (1)
     |                                               |                |        items[0:1]: 0x39c-0x3ba.7 (31)
     |                                               |                |          [0]{}: data 0x39c-0x3ba.7 (31)
0x390|                                    00         |            .   |            tag: 0 0x39c-0x39c.7 (1)
     |                                               |                |            instructions[0:2]: 0x39d-0x39f.7 (3)
     |                                               |                |              [0]{}: instr 0x39d-0x39e.7 (2)
0x390|                                       41      |             A  |                i32.const: 0x41 (valid) 0x39d-0x39d.7 (1)
0x390|                                          00   |              . |                n: 0 0x39e-0x39e.7 (1)
     |                                               |                |              [1]{}: instr 0x39f-0x39f.7 (1)
0x390|                                             0b|               .|                end: 0xb (valid) 0x39f-0x39f.7 (1)
0x3a0|1a                                             |.               |            n: 26 0x3a0-0x3a0.7 (1)
0x3a0|   61 62 63 64 65 66 67 68 69 6a 6b 6c 6d 6e 6f| abcdefghijklmno|            bytes: raw bits 0x3a1-0x3ba.7 (26)
0x3b0|70 71 72 73 74 75 76 77 78 79 7a|              |pqrstuvwxyz|    |
