$ fq -d wasm dv binary-12.wasm
    |00 01 02 03 04 05 06 07 08 09 0a 0b 0c 0d 0e 0f|0123456789abcdef|.{}: binary-12.wasm (wasm) 0x0-0xf.7 (16)
0x00|00 61 73 6d                                    |.asm            |  magic: raw bits (valid) 0x0-0x3.7 (4)
0x00|            01 00 00 00                        |    ....        |  version: 1 0x4-0x7.7 (4)
    |                                               |                |  sections[0:1]: 0x8-0xf.7 (8)
    |                                               |                |    [0]{}: section 0x8-0xf.7 (8)
0x00|                        06                     |        .       |      id: "global section" (6) 0x8-0x8.7 (1)
0x00|                           06                  |         .      |      size: 6 0x9-0x9.7 (1)
    |                                               |                |      content{}: 0xa-0xf.7 (6)
0x00|                              01               |          .     |        n: 1 0xa-0xa.7 (1)
    |                                               |                |        items[0:1]: 0xb-0xf.7 (5)
    |                                               |                |          [0]{}: global 0xb-0xf.7 (5)
    |                                               |                |            globaltype{}: 0xb-0xc.7 (2)
0x00|                                 7e            |           ~    |              valtype: "i64" (126) 0xb-0xb.7 (1)
0x00|                                    00         |            .   |              mut: "const" (0) 0xc-0xc.7 (1)
    |                                               |                |            expr{}: 0xd-0xf.7 (3)
    |                                               |                |              instructions[0:2]: 0xd-0xf.7 (3)
    |                                               |                |                [0]{}: instr 0xd-0xe.7 (2)
0x00|                                       42      |             B  |                  i64.const: 0x42 (valid) 0xd-0xd.7 (1)
0x00|                                          00   |              . |                  n: 0 0xe-0xe.7 (1)
    |                                               |                |                [1]{}: instr 0xf-0xf.7 (1)
0x00|                                             0b|               .|                  end: 0xb (valid) 0xf-0xf.7 (1)
