$ fq -d wasm dv bulk-1.wasm
    |00 01 02 03 04 05 06 07 08 09 0a 0b 0c 0d 0e 0f|0123456789abcdef|.{}: bulk-1.wasm (wasm) 0x0-0x30.7 (49)
0x00|00 61 73 6d                                    |.asm            |  magic: raw bits (valid) 0x0-0x3.7 (4)
0x00|            01 00 00 00                        |    ....        |  version: 1 0x4-0x7.7 (4)
    |                                               |                |  sections[0:5]: 0x8-0x30.7 (41)
    |                                               |                |    [0]{}: section 0x8-0xd.7 (6)
0x00|                        01                     |        .       |      id: "type section" (1) 0x8-0x8.7 (1)
0x00|                           04                  |         .      |      size: 4 0x9-0x9.7 (1)
    |                                               |                |      content{}: 0xa-0xd.7 (4)
0x00|                              01               |          .     |        n: 1 0xa-0xa.7 (1)
    |                                               |                |        items[0:1]: 0xb-0xd.7 (3)
    |                                               |                |          [0]{}: functype 0xb-0xd.7 (3)
0x00|                                 60            |           `    |            tag: 0x60 (valid) 0xb-0xb.7 (1)
    |                                               |                |            rt1{}: 0xc-0xc.7 (1)
0x00|                                    00         |            .   |              n: 0 0xc-0xc.7 (1)
    |                                               |                |              items[0:0]: 0xd-NA (0)
    |                                               |                |            rt2{}: 0xd-0xd.7 (1)
0x00|                                       00      |             .  |              n: 0 0xd-0xd.7 (1)
    |                                               |                |              items[0:0]: 0xe-NA (0)
    |                                               |                |    [1]{}: section 0xe-0x12.7 (5)
0x00|                                          03   |              . |      id: "function section" (3) 0xe-0xe.7 (1)
0x00|                                             03|               .|      size: 3 0xf-0xf.7 (1)
    |                                               |                |      content{}: 0x10-0x12.7 (3)
0x10|02                                             |.               |        n: 2 0x10-0x10.7 (1)
    |                                               |                |        items[0:2]: 0x11-0x12.7 (2)
0x10|   00                                          | .              |          [0]: 0 x 0x11-0x11.7 (1)
0x10|      00                                       |  .             |          [1]: 0 x 0x12-0x12.7 (1)
    |                                               |                |    [2]{}: section 0x13-0x18.7 (6)
0x10|         04                                    |   .            |      id: "table section" (4) 0x13-0x13.7 (1)
0x10|            04                                 |    .           |      size: 4 0x14-0x14.7 (1)
    |                                               |                |      content{}: 0x15-0x18.7 (4)
0x10|               01                              |     .          |        n: 1 0x15-0x15.7 (1)
    |                                               |                |        items[0:1]: 0x16-0x18.7 (3)
    |                                               |                |          [0]{}: table 0x16-0x18.7 (3)
0x10|                  70                           |      p         |            reftype: "funcref" (112) 0x16-0x16.7 (1)
    |                                               |                |            limits{}: 0x17-0x18.7 (2)
0x10|                     00                        |       .        |              tag: 0x0 0x17-0x17.7 (1)
0x10|                        03                     |        .       |              min: 3 0x18-0x18.7 (1)
    |                                               |                |    [3]{}: section 0x19-0x27.7 (15)
0x10|                           09                  |         .      |      id: "element section" (9) 0x19-0x19.7 (1)
0x10|                              0d               |          .     |      size: 13 0x1a-0x1a.7 (1)
    |                                               |                |      element{}: 0x1b-0x27.7 (13)
0x10|                                 01            |           .    |        n: 1 0x1b-0x1b.7 (1)
    |                                               |                |        items[0:1]: 0x1c-0x27.7 (12)
    |                                               |                |          [0]{}: elem 0x1c-0x27.7 (12)
0x10|                                    05         |            .   |            tag: 5 0x1c-0x1c.7 (1)
0x10|                                       70      |             p  |            reftype: "funcref" (112) 0x1d-0x1d.7 (1)
0x10|                                          03   |              . |            n: 3 0x1e-0x1e.7 (1)
    |                                               |                |            items[0:3]: 0x1f-0x27.7 (9)
    |                                               |                |              [0][0:2]: instructions 0x1f-0x21.7 (3)
    |                                               |                |                [0]{}: instr 0x1f-0x20.7 (2)
0x10|                                             d2|               .|                  ref.func: 0xd2 (valid) 0x1f-0x1f.7 (1)
0x20|00                                             |.               |                  x: 0 0x20-0x20.7 (1)
    |                                               |                |                [1]{}: instr 0x21-0x21.7 (1)
0x20|   0b                                          | .              |                  end: 0xb (valid) 0x21-0x21.7 (1)
    |                                               |                |              [1][0:2]: instructions 0x22-0x24.7 (3)
    |                                               |                |                [0]{}: instr 0x22-0x23.7 (2)
0x20|      d0                                       |  .             |                  ref.null: 0xd0 (valid) 0x22-0x22.7 (1)
0x20|         70                                    |   p            |                  reftype: "funcref" (112) 0x23-0x23.7 (1)
    |                                               |                |                [1]{}: instr 0x24-0x24.7 (1)
0x20|            0b                                 |    .           |                  end: 0xb (valid) 0x24-0x24.7 (1)
    |                                               |                |              [2][0:2]: instructions 0x25-0x27.7 (3)
    |                                               |                |                [0]{}: instr 0x25-0x26.7 (2)
0x20|               d2                              |     .          |                  ref.func: 0xd2 (valid) 0x25-0x25.7 (1)
0x20|                  01                           |      .         |                  x: 1 0x26-0x26.7 (1)
    |                                               |                |                [1]{}: instr 0x27-0x27.7 (1)
0x20|                     0b                        |       .        |                  end: 0xb (valid) 0x27-0x27.7 (1)
    |                                               |                |    [4]{}: section 0x28-0x30.7 (9)
0x20|                        0a                     |        .       |      id: "code section" (10) 0x28-0x28.7 (1)
0x20|                           07                  |         .      |      size: 7 0x29-0x29.7 (1)
    |                                               |                |      content{}: 0x2a-0x30.7 (7)
0x20|                              02               |          .     |        n: 2 0x2a-0x2a.7 (1)
    |                                               |                |        items[0:2]: 0x2b-0x30.7 (6)
    |                                               |                |          [0]{}: code 0x2b-0x2d.7 (3)
0x20|                                 02            |           .    |            size: 2 0x2b-0x2b.7 (1)
    |                                               |                |            code{}: 0x2c-0x2d.7 (2)
    |                                               |                |              locals{}: 0x2c-0x2c.7 (1)
0x20|                                    00         |            .   |                n: 0 0x2c-0x2c.7 (1)
    |                                               |                |                items[0:0]: 0x2d-NA (0)
    |                                               |                |              expr{}: 0x2d-0x2d.7 (1)
    |                                               |                |                instructions[0:1]: 0x2d-0x2d.7 (1)
    |                                               |                |                  [0]{}: instr 0x2d-0x2d.7 (1)
0x20|                                       0b      |             .  |                    end: 0xb (valid) 0x2d-0x2d.7 (1)
    |                                               |                |          [1]{}: code 0x2e-0x30.7 (3)
0x20|                                          02   |              . |            size: 2 0x2e-0x2e.7 (1)
    |                                               |                |            code{}: 0x2f-0x30.7 (2)
    |                                               |                |              locals{}: 0x2f-0x2f.7 (1)
0x20|                                             00|               .|                n: 0 0x2f-0x2f.7 (1)
    |                                               |                |                items[0:0]: 0x30-NA (0)
    |                                               |                |              expr{}: 0x30-0x30.7 (1)
    |                                               |                |                instructions[0:1]: 0x30-0x30.7 (1)
    |                                               |                |                  [0]{}: instr 0x30-0x30.7 (1)
0x30|0b|                                            |.|              |                    end: 0xb (valid) 0x30-0x30.7 (1)
