$ fq -d wasm dv bulk-6.wasm
    |00 01 02 03 04 05 06 07 08 09 0a 0b 0c 0d 0e 0f|0123456789abcdef|.{}: bulk-6.wasm (wasm) 0x0-0xa3.7 (164)
0x00|00 61 73 6d                                    |.asm            |  magic: raw bits (valid) 0x0-0x3.7 (4)
0x00|            01 00 00 00                        |    ....        |  version: 1 0x4-0x7.7 (4)
    |                                               |                |  sections[0:5]: 0x8-0xa3.7 (156)
    |                                               |                |    [0]{}: section 0x8-0xd.7 (6)
0x00|                        01                     |        .       |      id: "type section" (1) 0x8-0x8.7 (1)
0x00|                           04                  |         .      |      size: 4 0x9-0x9.7 (1)
    |                                               |                |      content{}: 0xa-0xd.7 (4)
0x00|                              01               |          .     |        n: 1 0xa-0xa.7 (1)
    |                                               |                |        items[0:1]: 0xb-0xd.7 (3)
    |                                               |                |          [0]{}: functype 0xb-0xd.7 (3)
0x00|                                 60            |           `    |            tag: 0x60 (valid) 0xb-0xb.7 (1)
    |                                               |                |            rt1{}: 0xc-0xc.7 (1)
0x00|                                    00         |            .   |              n: 0 0xc-0xc.7 (1)
    |                                               |                |              items[0:0]: 0xd-NA (0)
    |                                               |                |            rt2{}: 0xd-0xd.7 (1)
0x00|                                       00      |             .  |              n: 0 0xd-0xd.7 (1)
    |                                               |                |              items[0:0]: 0xe-NA (0)
    |                                               |                |    [1]{}: section 0xe-0x11.7 (4)
0x00|                                          03   |              . |      id: "function section" (3) 0xe-0xe.7 (1)
0x00|                                             02|               .|      size: 2 0xf-0xf.7 (1)
    |                                               |                |      content{}: 0x10-0x11.7 (2)
0x10|01                                             |.               |        n: 1 0x10-0x10.7 (1)
    |                                               |                |        items[0:1]: 0x11-0x11.7 (1)
0x10|   00                                          | .              |          [0]: 0 x 0x11-0x11.7 (1)
    |                                               |                |    [2]{}: section 0x12-0x14.7 (3)
0x10|      0c                                       |  .             |      id: "data count section" (12) 0x12-0x12.7 (1)
0x10|         01                                    |   .            |      size: 1 0x13-0x13.7 (1)
    |                                               |                |      content{}: 0x14-0x14.7 (1)
0x10|            41                                 |    A           |        count: 65 0x14-0x14.7 (1)
    |                                               |                |    [3]{}: section 0x15-0x1d.7 (9)
0x10|               0a                              |     .          |      id: "code section" (10) 0x15-0x15.7 (1)
0x10|                  07                           |      .         |      size: 7 0x16-0x16.7 (1)
    |                                               |                |      content{}: 0x17-0x1d.7 (7)
0x10|                     01                        |       .        |        n: 1 0x17-0x17.7 (1)
    |                                               |                |        items[0:1]: 0x18-0x1d.7 (6)
    |                                               |                |          [0]{}: code 0x18-0x1d.7 (6)
0x10|                        05                     |        .       |            size: 5 0x18-0x18.7 (1)
    |                                               |                |            code{}: 0x19-0x1d.7 (5)
    |                                               |                |              locals{}: 0x19-0x19.7 (1)
0x10|                           00                  |         .      |                n: 0 0x19-0x19.7 (1)
    |                                               |                |                items[0:0]: 0x1a-NA (0)
    |                                               |                |              expr{}: 0x1a-0x1d.7 (4)
    |                                               |                |                instructions[0:2]: 0x1a-0x1d.7 (4)
    |                                               |                |                  [0]{}: instr 0x1a-0x1c.7 (3)
0x10|                              fc               |          .     |                    prefix: 0xfc (valid) 0x1a-0x1a.7 (1)
0x10|                                 09            |           .    |                    data.drop: 9 (valid) 0x1b-0x1b.7 (1)
0x10|                                    40         |            @   |                    x: 64 0x1c-0x1c.7 (1)
    |                                               |                |                  [1]{}: instr 0x1d-0x1d.7 (1)
0x10|                                       0b      |             .  |                    end: 0xb (valid) 0x1d-0x1d.7 (1)
    |                                               |                |    [4]{}: section 0x1e-0xa3.7 (134)
0x10|                                          0b   |              . |      id: "data section" (11) 0x1e-0x1e.7 (1)
0x10|                                             83|               .|      size: 131 0x1f-0x20.7 (2)
0x20|01                                             |.               |
    |                                               |                |      content{}: 0x21-0xa3.7 (131)
0x20|   41                                          | A              |        n: 65 0x21-0x21.7 (1)
    |                                               |                |        items[0:65]: 0x22-0xa3.7 (130)
    |                                               |                |          [0]{}: data 0x22-0x23.7 (2)
0x20|      01                                       |  .             |            tag: 1 0x22-0x22.7 (1)
0x20|         00                                    |   .            |            n: 0 0x23-0x23.7 (1)
    |                                               |                |            bytes: raw bits 0x24-NA (0)
    |                                               |                |          [1]{}: data 0x24-0x25.7 (2)
0x20|            01                                 |    .           |            tag: 1 0x24-0x24.7 (1)
0x20|               00                              |     .          |            n: 0 0x25-0x25.7 (1)
    |                                               |                |            bytes: raw bits 0x26-NA (0)
    |                                               |                |          [2]{}: data 0x26-0x27.7 (2)
0x20|                  01                           |      .         |            tag: 1 0x26-0x26.7 (1)
0x20|                     00                        |       .        |            n: 0 0x27-0x27.7 (1)
    |                                               |                |            bytes: raw bits 0x28-NA (0)
    |                                               |                |          [3]{}: data 0x28-0x29.7 (2)
0x20|                        01                     |        .       |            tag: 1 0x28-0x28.7 (1)
0x20|                           00                  |         .      |            n: 0 0x29-0x29.7 (1)
    |                                               |                |            bytes: raw bits 0x2a-NA (0)
    |                                               |                |          [4]{}: data 0x2a-0x2b.7 (2)
0x20|                              01               |          .     |            tag: 1 0x2a-0x2a.7 (1)
0x20|                                 00            |           .    |            n: 0 0x2b-0x2b.7 (1)
    |                                               |                |            bytes: raw bits 0x2c-NA (0)
    |                                               |                |          [5]{}: data 0x2c-0x2d.7 (2)
0x20|                                    01         |            .   |            tag: 1 0x2c-0x2c.7 (1)
0x20|                                       00      |             .  |            n: 0 0x2d-0x2d.7 (1)
    |                                               |                |            bytes: raw bits 0x2e-NA (0)
    |                                               |                |          [6]{}: data 0x2e-0x2f.7 (2)
0x20|                                          01   |              . |            tag: 1 0x2e-0x2e.7 (1)
0x20|                                             00|               .|            n: 0 0x2f-0x2f.7 (1)
    |                                               |                |            bytes: raw bits 0x30-NA (0)
    |                                               |                |          [7]{}: data 0x30-0x31.7 (2)
0x30|01                                             |.               |            tag: 1 0x30-0x30.7 (1)
0x30|   00                                          | .              |            n: 0 0x31-0x31.7 (1)
    |                                               |                |            bytes: raw bits 0x32-NA (0)
    |                                               |                |          [8]{}: data 0x32-0x33.7 (2)
0x30|      01                                       |  .             |            tag: 1 0x32-0x32.7 (1)
0x30|         00                                    |   .            |            n: 0 0x33-0x33.7 (1)
    |                                               |                |            bytes: raw bits 0x34-NA (0)
    |                                               |                |          [9]{}: data 0x34-0x35.7 (2)
0x30|            01                                 |    .           |            tag: 1 0x34-0x34.7 (1)
0x30|               00                              |     .          |            n: 0 0x35-0x35.7 (1)
    |                                               |                |            bytes: raw bits 0x36-NA (0)
    |                                               |                |          [10]{}: data 0x36-0x37.7 (2)
0x30|                  01                           |      .         |            tag: 1 0x36-0x36.7 (1)
0x30|                     00                        |       .        |            n: 0 0x37-0x37.7 (1)
    |                                               |                |            bytes: raw bits 0x38-NA (0)
    |                                               |                |          [11]{}: data 0x38-0x39.7 (2)
0x30|                        01                     |        .       |            tag: 1 0x38-0x38.7 (1)
0x30|                           00                  |         .      |            n: 0 0x39-0x39.7 (1)
    |                                               |                |            bytes: raw bits 0x3a-NA (0)
    |                                               |                |          [12]{}: data 0x3a-0x3b.7 (2)
0x30|                              01               |          .     |            tag: 1 0x3a-0x3a.7 (1)
0x30|                                 00            |           .    |            n: 0 0x3b-0x3b.7 (1)
    |                                               |                |            bytes: raw bits 0x3c-NA (0)
    |                                               |                |          [13]{}: data 0x3c-0x3d.7 (2)
0x30|                                    01         |            .   |            tag: 1 0x3c-0x3c.7 (1)
0x30|                                       00      |             .  |            n: 0 0x3d-0x3d.7 (1)
    |                                               |                |            bytes: raw bits 0x3e-NA (0)
    |                                               |                |          [14]{}: data 0x3e-0x3f.7 (2)
0x30|                                          01   |              . |            tag: 1 0x3e-0x3e.7 (1)
0x30|                                             00|               .|            n: 0 0x3f-0x3f.7 (1)
    |                                               |                |            bytes: raw bits 0x40-NA (0)
    |                                               |                |          [15]{}: data 0x40-0x41.7 (2)
0x40|01                                             |.               |            tag: 1 0x40-0x40.7 (1)
0x40|   00                                          | .              |            n: 0 0x41-0x41.7 (1)
    |                                               |                |            bytes: raw bits 0x42-NA (0)
    |                                               |                |          [16]{}: data 0x42-0x43.7 (2)
0x40|      01                                       |  .             |            tag: 1 0x42-0x42.7 (1)
0x40|         00                                    |   .            |            n: 0 0x43-0x43.7 (1)
    |                                               |                |            bytes: raw bits 0x44-NA (0)
    |                                               |                |          [17]{}: data 0x44-0x45.7 (2)
0x40|            01                                 |    .           |            tag: 1 0x44-0x44.7 (1)
0x40|               00                              |     .          |            n: 0 0x45-0x45.7 (1)
    |                                               |                |            bytes: raw bits 0x46-NA (0)
    |                                               |                |          [18]{}: data 0x46-0x47.7 (2)
0x40|                  01                           |      .         |            tag: 1 0x46-0x46.7 (1)
0x40|                     00                        |       .        |            n: 0 0x47-0x47.7 (1)
    |                                               |                |            bytes: raw bits 0x48-NA (0)
    |                                               |                |          [19]{}: data 0x48-0x49.7 (2)
0x40|                        01                     |        .       |            tag: 1 0x48-0x48.7 (1)
0x40|                           00                  |         .      |            n: 0 0x49-0x49.7 (1)
    |                                               |                |            bytes: raw bits 0x4a-NA (0)
    |                                               |                |          [20]{}: data 0x4a-0x4b.7 (2)
0x40|                              01               |          .     |            tag: 1 0x4a-0x4a.7 (1)
0x40|                                 00            |           .    |            n: 0 0x4b-0x4b.7 (1)
    |                                               |                |            bytes: raw bits 0x4c-NA (0)
    |                                               |                |          [21]{}: data 0x4c-0x4d.7 (2)
0x40|                                    01         |            .   |            tag: 1 0x4c-0x4c.7 (1)
0x40|                                       00      |             .  |            n: 0 0x4d-0x4d.7 (1)
    |                                               |                |            bytes: raw bits 0x4e-NA (0)
    |                                               |                |          [22]{}: data 0x4e-0x4f.7 (2)
0x40|                                          01   |              . |            tag: 1 0x4e-0x4e.7 (1)
0x40|                                             00|               .|            n: 0 0x4f-0x4f.7 (1)
    |                                               |                |            bytes: raw bits 0x50-NA (0)
    |                                               |                |          [23]{}: data 0x50-0x51.7 (2)
0x50|01                                             |.               |            tag: 1 0x50-0x50.7 (1)
0x50|   00                                          | .              |            n: 0 0x51-0x51.7 (1)
    |                                               |                |            bytes: raw bits 0x52-NA (0)
    |                                               |                |          [24]{}: data 0x52-0x53.7 (2)
0x50|      01                                       |  .             |            tag: 1 0x52-0x52.7 (1)
0x50|         00                                    |   .            |            n: 0 0x53-0x53.7 (1)
    |                                               |                |            bytes: raw bits 0x54-NA (0)
    |                                               |                |          [25]{}: data 0x54-0x55.7 (2)
0x50|            01                                 |    .           |            tag: 1 0x54-0x54.7 (1)
0x50|               00                              |     .          |            n: 0 0x55-0x55.7 (1)
    |                                               |                |            bytes: raw bits 0x56-NA (0)
    |                                               |                |          [26]{}: data 0x56-0x57.7 (2)
0x50|                  01                           |      .         |            tag: 1 0x56-0x56.7 (1)
0x50|                     00                        |       .        |            n: 0 0x57-0x57.7 (1)
    |                                               |                |            bytes: raw bits 0x58-NA (0)
    |                                               |                |          [27]{}: data 0x58-0x59.7 (2)
0x50|                        01                     |        .       |            tag: 1 0x58-0x58.7 (1)
0x50|                           00                  |         .      |            n: 0 0x59-0x59.7 (1)
    |                                               |                |            bytes: raw bits 0x5a-NA (0)
    |                                               |                |          [28]{}: data 0x5a-0x5b.7 (2)
0x50|                              01               |          .     |            tag: 1 0x5a-0x5a.7 (1)
0x50|                                 00            |           .    |            n: 0 0x5b-0x5b.7 (1)
    |                                               |                |            bytes: raw bits 0x5c-NA (0)
    |                                               |                |          [29]{}: data 0x5c-0x5d.7 (2)
0x50|                                    01         |            .   |            tag: 1 0x5c-0x5c.7 (1)
0x50|                                       00      |             .  |            n: 0 0x5d-0x5d.7 (1)
    |                                               |                |            bytes: raw bits 0x5e-NA (0)
    |                                               |                |          [30]{}: data 0x5e-0x5f.7 (2)
0x50|                                          01   |              . |            tag: 1 0x5e-0x5e.7 (1)
0x50|                                             00|               .|            n: 0 0x5f-0x5f.7 (1)
    |                                               |                |            bytes: raw bits 0x60-NA (0)
    |                                               |                |          [31]{}: data 0x60-0x61.7 (2)
0x60|01                                             |.               |            tag: 1 0x60-0x60.7 (1)
0x60|   00                                          | .              |            n: 0 0x61-0x61.7 (1)
    |                                               |                |            bytes: raw bits 0x62-NA (0)
    |                                               |                |          [32]{}: data 0x62-0x63.7 (2)
0x60|      01                                       |  .             |            tag: 1 0x62-0x62.7 (1)
0x60|         00                                    |   .            |            n: 0 0x63-0x63.7 (1)
    |                                               |                |            bytes: raw bits 0x64-NA (0)
    |                                               |                |          [33]{}: data 0x64-0x65.7 (2)
0x60|            01                                 |    .           |            tag: 1 0x64-0x64.7 (1)
0x60|               00                              |     .          |            n: 0 0x65-0x65.7 (1)
    |                                               |                |            bytes: raw bits 0x66-NA (0)
    |                                               |                |          [34]{}: data 0x66-0x67.7 (2)
0x60|                  01                           |      .         |            tag: 1 0x66-0x66.7 (1)
0x60|                     00                        |       .        |            n: 0 0x67-0x67.7 (1)
    |                                               |                |            bytes: raw bits 0x68-NA (0)
    |                                               |                |          [35]{}: data 0x68-0x69.7 (2)
0x60|                        01                     |        .       |            tag: 1 0x68-0x68.7 (1)
0x60|                           00                  |         .      |            n: 0 0x69-0x69.7 (1)
    |                                               |                |            bytes: raw bits 0x6a-NA (0)
    |                                               |                |          [36]{}: data 0x6a-0x6b.7 (2)
0x60|                              01               |          .     |            tag: 1 0x6a-0x6a.7 (1)
0x60|                                 00            |           .    |            n: 0 0x6b-0x6b.7 (1)
    |                                               |                |            bytes: raw bits 0x6c-NA (0)
    |                                               |                |          [37]{}: data 0x6c-0x6d.7 (2)
0x60|                                    01         |            .   |            tag: 1 0x6c-0x6c.7 (1)
0x60|                                       00      |             .  |            n: 0 0x6d-0x6d.7 (1)
    |                                               |                |            bytes: raw bits 0x6e-NA (0)
    |                                               |                |          [38]{}: data 0x6e-0x6f.7 (2)
0x60|                                          01   |              . |            tag: 1 0x6e-0x6e.7 (1)
0x60|                                             00|               .|            n: 0 0x6f-0x6f.7 (1)
    |                                               |                |            bytes: raw bits 0x70-NA (0)
    |                                               |                |          [39]{}: data 0x70-0x71.7 (2)
0x70|01                                             |.               |            tag: 1 0x70-0x70.7 (1)
0x70|   00                                          | .              |            n: 0 0x71-0x71.7 (1)
    |                                               |                |            bytes: raw bits 0x72-NA (0)
    |                                               |                |          [40]{}: data 0x72-0x73.7 (2)
0x70|      01                                       |  .             |            tag: 1 0x72-0x72.7 (1)
0x70|         00                                    |   .            |            n: 0 0x73-0x73.7 (1)
    |                                               |                |            bytes: raw bits 0x74-NA (0)
    |                                               |                |          [41]{}: data 0x74-0x75.7 (2)
0x70|            01                                 |    .           |            tag: 1 0x74-0x74.7 (1)
0x70|               00                              |     .          |            n: 0 0x75-0x75.7 (1)
    |                                               |                |            bytes: raw bits 0x76-NA (0)
    |                                               |                |          [42]{}: data 0x76-0x77.7 (2)
0x70|                  01                           |      .         |            tag: 1 0x76-0x76.7 (1)
0x70|                     00                        |       .        |            n: 0 0x77-0x77.7 (1)
    |                                               |                |            bytes: raw bits 0x78-NA (0)
    |                                               |                |          [43]{}: data 0x78-0x79.7 (2)
0x70|                        01                     |        .       |            tag: 1 0x78-0x78.7 (1)
0x70|                           00                  |         .      |            n: 0 0x79-0x79.7 (1)
    |                                               |                |            bytes: raw bits 0x7a-NA (0)
    |                                               |                |          [44]{}: data 0x7a-0x7b.7 (2)
0x70|                              01               |          .     |            tag: 1 0x7a-0x7a.7 (1)
0x70|                                 00            |           .    |            n: 0 0x7b-0x7b.7 (1)
    |                                               |                |            bytes: raw bits 0x7c-NA (0)
    |                                               |                |          [45]{}: data 0x7c-0x7d.7 (2)
0x70|                                    01         |            .   |            tag: 1 0x7c-0x7c.7 (1)
0x70|                                       00      |             .  |            n: 0 0x7d-0x7d.7 (1)
    |                                               |                |            bytes: raw bits 0x7e-NA (0)
    |                                               |                |          [46]{}: data 0x7e-0x7f.7 (2)
0x70|                                          01   |              . |            tag: 1 0x7e-0x7e.7 (1)
0x70|                                             00|               .|            n: 0 0x7f-0x7f.7 (1)
    |                                               |                |            bytes: raw bits 0x80-NA (0)
    |                                               |                |          [47]{}: data 0x80-0x81.7 (2)
0x80|01                                             |.               |            tag: 1 0x80-0x80.7 (1)
0x80|   00                                          | .              |            n: 0 0x81-0x81.7 (1)
    |                                               |                |            bytes: raw bits 0x82-NA (0)
    |                                               |                |          [48]{}: data 0x82-0x83.7 (2)
0x80|      01                                       |  .             |            tag: 1 0x82-0x82.7 (1)
0x80|         00                                    |   .            |            n: 0 0x83-0x83.7 (1)
    |                                               |                |            bytes: raw bits 0x84-NA (0)
    |                                               |                |          [49]{}: data 0x84-0x85.7 (2)
0x80|            01                                 |    .           |            tag: 1 0x84-0x84.7 (1)
0x80|               00                              |     .          |            n: 0 0x85-0x85.7 (1)
    |                                               |                |            bytes: raw bits 0x86-NA (0)
    |                                               |                |          [50]{}: data 0x86-0x87.7 (2)
0x80|                  01                           |      .         |            tag: 1 0x86-0x86.7 (1)
0x80|                     00                        |       .        |            n: 0 0x87-0x87.7 (1)
    |                                               |                |            bytes: raw bits 0x88-NA (0)
    |                                               |                |          [51]{}: data 0x88-0x89.7 (2)
0x80|                        01                     |        .       |            tag: 1 0x88-0x88.7 (1)
0x80|                           00                  |         .      |            n: 0 0x89-0x89.7 (1)
    |                                               |                |            bytes: raw bits 0x8a-NA (0)
    |                                               |                |          [52]{}: data 0x8a-0x8b.7 (2)
0x80|                              01               |          .     |            tag: 1 0x8a-0x8a.7 (1)
0x80|                                 00            |           .    |            n: 0 0x8b-0x8b.7 (1)
    |                                               |                |            bytes: raw bits 0x8c-NA (0)
    |                                               |                |          [53]{}: data 0x8c-0x8d.7 (2)
0x80|                                    01         |            .   |            tag: 1 0x8c-0x8c.7 (1)
0x80|                                       00      |             .  |            n: 0 0x8d-0x8d.7 (1)
    |                                               |                |            bytes: raw bits 0x8e-NA (0)
    |                                               |                |          [54]{}: data 0x8e-0x8f.7 (2)
0x80|                                          01   |              . |            tag: 1 0x8e-0x8e.7 (1)
0x80|                                             00|               .|            n: 0 0x8f-0x8f.7 (1)
    |                                               |                |            bytes: raw bits 0x90-NA (0)
    |                                               |                |          [55]{}: data 0x90-0x91.7 (2)
0x90|01                                             |.               |            tag: 1 0x90-0x90.7 (1)
0x90|   00                                          | .              |            n: 0 0x91-0x91.7 (1)
    |                                               |                |            bytes: raw bits 0x92-NA (0)
    |                                               |                |          [56]{}: data 0x92-0x93.7 (2)
0x90|      01                                       |  .             |            tag: 1 0x92-0x92.7 (1)
0x90|         00                                    |   .            |            n: 0 0x93-0x93.7 (1)
    |                                               |                |            bytes: raw bits 0x94-NA (0)
    |                                               |                |          [57]{}: data 0x94-0x95.7 (2)
0x90|            01                                 |    .           |            tag: 1 0x94-0x94.7 (1)
0x90|               00                              |     .          |            n: 0 0x95-0x95.7 (1)
    |                                               |                |            bytes: raw bits 0x96-NA (0)
    |                                               |                |          [58]{}: data 0x96-0x97.7 (2)
0x90|                  01                           |      .         |            tag: 1 0x96-0x96.7 (1)
0x90|                     00                        |       .        |            n: 0 0x97-0x97.7 (1)
    |                                               |                |            bytes: raw bits 0x98-NA (0)
    |                                               |                |          [59]{}: data 0x98-0x99.7 (2)
0x90|                        01                     |        .       |            tag: 1 0x98-0x98.7 (1)
0x90|                           00                  |         .      |            n: 0 0x99-0x99.7 (1)
    |                                               |                |            bytes: raw bits 0x9a-NA (0)
    |                                               |                |          [60]{}: data 0x9a-0x9b.7 (2)
0x90|                              01               |          .     |            tag: 1 0x9a-0x9a.7 (1)
0x90|                                 00            |           .    |            n: 0 0x9b-0x9b.7 (1)
    |                                               |                |            bytes: raw bits 0x9c-NA (0)
    |                                               |                |          [61]{}: data 0x9c-0x9d.7 (2)
0x90|                                    01         |            .   |            tag: 1 0x9c-0x9c.7 (1)
0x90|                                       00      |             .  |            n: 0 0x9d-0x9d.7 (1)
    |                                               |                |            bytes: raw bits 0x9e-NA (0)
    |                                               |                |          [62]{}: data 0x9e-0x9f.7 (2)
0x90|                                          01   |              . |            tag: 1 0x9e-0x9e.7 (1)
0x90|                                             00|               .|            n: 0 0x9f-0x9f.7 (1)
    |                                               |                |            bytes: raw bits 0xa0-NA (0)
    |                                               |                |          [63]{}: data 0xa0-0xa1.7 (2)
0xa0|01                                             |.               |            tag: 1 0xa0-0xa0.7 (1)
0xa0|   00                                          | .              |            n: 0 0xa1-0xa1.7 (1)
    |                                               |                |            bytes: raw bits 0xa2-NA (0)
    |                                               |                |          [64]{}: data 0xa2-0xa3.7 (2)
0xa0|      01                                       |  .             |            tag: 1 0xa2-0xa2.7 (1)
0xa0|         00|                                   |   .|           |            n: 0 0xa3-0xa3.7 (1)
    |                                               |                |            bytes: raw bits 0xa4-NA (0)
