$ fq -d wasm dv data-7.wasm
    |00 01 02 03 04 05 06 07 08 09 0a 0b 0c 0d 0e 0f|0123456789abcdef|.{}: data-7.wasm (wasm) 0x0-0x2f.7 (48)
0x00|00 61 73 6d                                    |.asm            |  magic: raw bits (valid) 0x0-0x3.7 (4)
0x00|            01 00 00 00                        |    ....        |  version: 1 0x4-0x7.7 (4)
    |                                               |                |  sections[0:3]: 0x8-0x2f.7 (40)
    |                                               |                |    [0]{}: section 0x8-0x21.7 (26)
0x00|                        02                     |        .       |      id: "import section" (2) 0x8-0x8.7 (1)
0x00|                           18                  |         .      |      size: 24 0x9-0x9.7 (1)
    |                                               |                |      content{}: 0xa-0x21.7 (24)
0x00|                              01               |          .     |        n: 1 0xa-0xa.7 (1)
    |                                               |                |        items[0:1]: 0xb-0x21.7 (23)
    |                                               |                |          [0]{}: import 0xb-0x21.7 (23)
    |                                               |                |            mod{}: 0xb-0x13.7 (9)
0x00|                                 08            |           .    |              len: 8 0xb-0xb.7 (1)
0x00|                                    73 70 65 63|            spec|              utf8bytes: "spectest" 0xc-0x13.7 (8)
0x10|74 65 73 74                                    |test            |
    |                                               |                |            nm{}: 0x14-0x1e.7 (11)
0x10|            0a                                 |    .           |              len: 10 0x14-0x14.7 (1)
0x10|               67 6c 6f 62 61 6c 5f 69 33 32   |     global_i32 |              utf8bytes: "global_i32" 0x15-0x1e.7 (10)
    |                                               |                |            importdesc{}: 0x1f-0x21.7 (3)
0x10|                                             03|               .|              tag: "global" (0x3) 0x1f-0x1f.7 (1)
    |                                               |                |              globaltype{}: 0x20-0x21.7 (2)
0x20|7f                                             |.               |                valtype: "i32" (127) 0x20-0x20.7 (1)
0x20|   00                                          | .              |                mut: "const" (0) 0x21-0x21.7 (1)
    |                                               |                |    [1]{}: section 0x22-0x26.7 (5)
0x20|      05                                       |  .             |      id: "memory section" (5) 0x22-0x22.7 (1)
0x20|         03                                    |   .            |      size: 3 0x23-0x23.7 (1)
    |                                               |                |      content{}: 0x24-0x26.7 (3)
0x20|            01                                 |    .           |        n: 1 0x24-0x24.7 (1)
    |                                               |                |        items[0:1]: 0x25-0x26.7 (2)
    |                                               |                |          [0]{}: mem 0x25-0x26.7 (2)
    |                                               |                |            limits{}: 0x25-0x26.7 (2)
0x20|               00                              |     .          |              tag: 0x0 0x25-0x25.7 (1)
0x20|                  01                           |      .         |              min: 1 0x26-0x26.7 (1)
    |                                               |                |    [2]{}: section 0x27-0x2f.7 (9)
0x20|                     0b                        |       .        |      id: "data section" (11) 0x27-0x27.7 (1)
0x20|                        07                     |        .       |      size: 7 0x28-0x28.7 (1)
    |                                               |                |      content{}: 0x29-0x2f.7 (7)
0x20|                           01                  |         .      |        n: 1 0x29-0x29.7 (1)
    |                                               |                |        items[0:1]: 0x2a-0x2f.7 (6)
    |                                               |                |          [0]{}: data 0x2a-0x2f.7 (6)
0x20|                              00               |          .     |            tag: 0 0x2a-0x2a.7 (1)
    |                                               |                |            instructions[0:2]: 0x2b-0x2d.7 (3)
    |                                               |                |              [0]{}: instr 0x2b-0x2c.7 (2)
0x20|                                 23            |           #    |                global.get: 0x23 (valid) 0x2b-0x2b.7 (1)
0x20|                                    00         |            .   |                x: 0 0x2c-0x2c.7 (1)
    |                                               |                |              [1]{}: instr 0x2d-0x2d.7 (1)
0x20|                                       0b      |             .  |                end: 0xb (valid) 0x2d-0x2d.7 (1)
0x20|                                          01   |              . |            n: 1 0x2e-0x2e.7 (1)
0x20|                                             61|               a|            bytes: raw bits 0x2f-0x2f.7 (1)
