$ fq -d wasm dv elem-23.wasm
    |00 01 02 03 04 05 06 07 08 09 0a 0b 0c 0d 0e 0f|0123456789abcdef|.{}: elem-23.wasm (wasm) 0x0-0x7f.7 (128)
0x00|00 61 73 6d                                    |.asm            |  magic: raw bits (valid) 0x0-0x3.7 (4)
0x00|            01 00 00 00                        |    ....        |  version: 1 0x4-0x7.7 (4)
    |                                               |                |  sections[0:6]: 0x8-0x7f.7 (120)
    |                                               |                |    [0]{}: section 0x8-0xe.7 (7)
0x00|                        01                     |        .       |      id: "type section" (1) 0x8-0x8.7 (1)
0x00|                           05                  |         .      |      size: 5 0x9-0x9.7 (1)
    |                                               |                |      content{}: 0xa-0xe.7 (5)
0x00|                              01               |          .     |        n: 1 0xa-0xa.7 (1)
    |                                               |                |        items[0:1]: 0xb-0xe.7 (4)
    |                                               |                |          [0]{}: functype 0xb-0xe.7 (4)
0x00|                                 60            |           `    |            tag: 0x60 (valid) 0xb-0xb.7 (1)
    |                                               |                |            rt1{}: 0xc-0xc.7 (1)
0x00|                                    00         |            .   |              n: 0 0xc-0xc.7 (1)
    |                                               |                |              items[0:0]: 0xd-NA (0)
    |                                               |                |            rt2{}: 0xd-0xe.7 (2)
0x00|                                       01      |             .  |              n: 1 0xd-0xd.7 (1)
    |                                               |                |              items[0:1]: 0xe-0xe.7 (1)
0x00|                                          7f   |              . |                [0]: "i32" (127) valtype 0xe-0xe.7 (1)
    |                                               |                |    [1]{}: section 0xf-0x16.7 (8)
0x00|                                             03|               .|      id: "function section" (3) 0xf-0xf.7 (1)
0x10|06                                             |.               |      size: 6 0x10-0x10.7 (1)
    |                                               |                |      content{}: 0x11-0x16.7 (6)
0x10|   05                                          | .              |        n: 5 0x11-0x11.7 (1)
    |                                               |                |        items[0:5]: 0x12-0x16.7 (5)
0x10|      00                                       |  .             |          [0]: 0 x 0x12-0x12.7 (1)
0x10|         00                                    |   .            |          [1]: 0 x 0x13-0x13.7 (1)
0x10|            00                                 |    .           |          [2]: 0 x 0x14-0x14.7 (1)
0x10|               00                              |     .          |          [3]: 0 x 0x15-0x15.7 (1)
0x10|                  00                           |      .         |          [4]: 0 x 0x16-0x16.7 (1)
    |                                               |                |    [2]{}: section 0x17-0x1c.7 (6)
0x10|                     04                        |       .        |      id: "table section" (4) 0x17-0x17.7 (1)
0x10|                        04                     |        .       |      size: 4 0x18-0x18.7 (1)
    |                                               |                |      content{}: 0x19-0x1c.7 (4)
0x10|                           01                  |         .      |        n: 1 0x19-0x19.7 (1)
    |                                               |                |        items[0:1]: 0x1a-0x1c.7 (3)
    |                                               |                |          [0]{}: table 0x1a-0x1c.7 (3)
0x10|                              70               |          p     |            reftype: "funcref" (112) 0x1a-0x1a.7 (1)
    |                                               |                |            limits{}: 0x1b-0x1c.7 (2)
0x10|                                 00            |           .    |              tag: 0x0 0x1b-0x1b.7 (1)
0x10|                                    0a         |            .   |              min: 10 0x1c-0x1c.7 (1)
    |                                               |                |    [3]{}: section 0x1d-0x49.7 (45)
0x10|                                       07      |             .  |      id: "export section" (7) 0x1d-0x1d.7 (1)
0x10|                                          2b   |              + |      size: 43 0x1e-0x1e.7 (1)
    |                                               |                |      content{}: 0x1f-0x49.7 (43)
0x10|                                             04|               .|        n: 4 0x1f-0x1f.7 (1)
    |                                               |                |        items[0:4]: 0x20-0x49.7 (42)
    |                                               |                |          [0]{}: export 0x20-0x2e.7 (15)
    |                                               |                |            name{}: 0x20-0x2c.7 (13)
0x20|0c                                             |.               |              len: 12 0x20-0x20.7 (1)
0x20|   73 68 61 72 65 64 2d 74 61 62 6c 65         | shared-table   |              utf8bytes: "shared-table" 0x21-0x2c.7 (12)
    |                                               |                |            expr{}: 0x2d-0x2e.7 (2)
0x20|                                       01      |             .  |              tag: "tableidx" (0x1) 0x2d-0x2d.7 (1)
0x20|                                          00   |              . |              x: 0 0x2e-0x2e.7 (1)
    |                                               |                |          [1]{}: export 0x2f-0x37.7 (9)
    |                                               |                |            name{}: 0x2f-0x35.7 (7)
0x20|                                             06|               .|              len: 6 0x2f-0x2f.7 (1)
0x30|63 61 6c 6c 2d 37                              |call-7          |              utf8bytes: "call-7" 0x30-0x35.7 (6)
    |                                               |                |            expr{}: 0x36-0x37.7 (2)
0x30|                  00                           |      .         |              tag: "funcidx" (0x0) 0x36-0x36.7 (1)
0x30|                     02                        |       .        |              x: 2 0x37-0x37.7 (1)
    |                                               |                |          [2]{}: export 0x38-0x40.7 (9)
    |                                               |                |            name{}: 0x38-0x3e.7 (7)
0x30|                        06                     |        .       |              len: 6 0x38-0x38.7 (1)
0x30|                           63 61 6c 6c 2d 38   |         call-8 |              utf8bytes: "call-8" 0x39-0x3e.7 (6)
    |                                               |                |            expr{}: 0x3f-0x40.7 (2)
0x30|                                             00|               .|              tag: "funcidx" (0x0) 0x3f-0x3f.7 (1)
0x40|03                                             |.               |              x: 3 0x40-0x40.7 (1)
    |                                               |                |          [3]{}: export 0x41-0x49.7 (9)
    |                                               |                |            name{}: 0x41-0x47.7 (7)
0x40|   06                                          | .              |              len: 6 0x41-0x41.7 (1)
0x40|      63 61 6c 6c 2d 39                        |  call-9        |              utf8bytes: "call-9" 0x42-0x47.7 (6)
    |                                               |                |            expr{}: 0x48-0x49.7 (2)
0x40|                        00                     |        .       |              tag: "funcidx" (0x0) 0x48-0x48.7 (1)
0x40|                           04                  |         .      |              x: 4 0x49-0x49.7 (1)
    |                                               |                |    [4]{}: section 0x4a-0x58.7 (15)
0x40|                              09               |          .     |      id: "element section" (9) 0x4a-0x4a.7 (1)
0x40|                                 0d            |           .    |      size: 13 0x4b-0x4b.7 (1)
    |                                               |                |      element{}: 0x4c-0x58.7 (13)
0x40|                                    02         |            .   |        n: 2 0x4c-0x4c.7 (1)
    |                                               |                |        items[0:2]: 0x4d-0x58.7 (12)
    |                                               |                |          [0]{}: elem 0x4d-0x52.7 (6)
0x40|                                       00      |             .  |            tag: 0 0x4d-0x4d.7 (1)
    |                                               |                |            instructions[0:2]: 0x4e-0x50.7 (3)
    |                                               |                |              [0]{}: instr 0x4e-0x4f.7 (2)
0x40|                                          41   |              A |                i32.const: 0x41 (valid) 0x4e-0x4e.7 (1)
0x40|                                             08|               .|                n: 8 0x4f-0x4f.7 (1)
    |                                               |                |              [1]{}: instr 0x50-0x50.7 (1)
0x50|0b                                             |.               |                end: 0xb (valid) 0x50-0x50.7 (1)
0x50|   01                                          | .              |            n: 1 0x51-0x51.7 (1)
    |                                               |                |            items[0:1]: 0x52-0x52.7 (1)
0x50|      00                                       |  .             |              [0]: 0 y 0x52-0x52.7 (1)
    |                                               |                |          [1]{}: elem 0x53-0x58.7 (6)
0x50|         00                                    |   .            |            tag: 0 0x53-0x53.7 (1)
    |                                               |                |            instructions[0:2]: 0x54-0x56.7 (3)
    |                                               |                |              [0]{}: instr 0x54-0x55.7 (2)
0x50|            41                                 |    A           |                i32.const: 0x41 (valid) 0x54-0x54.7 (1)
0x50|               09                              |     .          |                n: 9 0x55-0x55.7 (1)
    |                                               |                |              [1]{}: instr 0x56-0x56.7 (1)
0x50|                  0b                           |      .         |                end: 0xb (valid) 0x56-0x56.7 (1)
0x50|                     01                        |       .        |            n: 1 0x57-0x57.7 (1)
    |                                               |                |            items[0:1]: 0x58-0x58.7 (1)
0x50|                        01                     |        .       |              [0]: 1 y 0x58-0x58.7 (1)
    |                                               |                |    [5]{}: section 0x59-0x7f.7 (39)
0x50|                           0a                  |         .      |      id: "code section" (10) 0x59-0x59.7 (1)
0x50|                              25               |          %     |      size: 37 0x5a-0x5a.7 (1)
    |                                               |                |      content{}: 0x5b-0x7f.7 (37)
0x50|                                 05            |           .    |        n: 5 0x5b-0x5b.7 (1)
    |                                               |                |        items[0:5]: 0x5c-0x7f.7 (36)
    |                                               |                |          [0]{}: code 0x5c-0x61.7 (6)
0x50|                                    05         |            .   |            size: 5 0x5c-0x5c.7 (1)
    |                                               |                |            code{}: 0x5d-0x61.7 (5)
    |                                               |                |              locals{}: 0x5d-0x5d.7 (1)
0x50|                                       00      |             .  |                n: 0 0x5d-0x5d.7 (1)
    |                                               |                |                items[0:0]: 0x5e-NA (0)
    |                                               |                |              expr{}: 0x5e-0x61.7 (4)
    |                                               |                |                instructions[0:2]: 0x5e-0x61.7 (4)
    |                                               |                |                  [0]{}: instr 0x5e-0x60.7 (3)
0x50|                                          41   |              A |                    i32.const: 0x41 (valid) 0x5e-0x5e.7 (1)
0x50|                                             c1|               .|                    n: 65 0x5f-0x60.7 (2)
0x60|00                                             |.               |
    |                                               |                |                  [1]{}: instr 0x61-0x61.7 (1)
0x60|   0b                                          | .              |                    end: 0xb (valid) 0x61-0x61.7 (1)
    |                                               |                |          [1]{}: code 0x62-0x67.7 (6)
0x60|      05                                       |  .             |            size: 5 0x62-0x62.7 (1)
    |                                               |                |            code{}: 0x63-0x67.7 (5)
    |                                               |                |              locals{}: 0x63-0x63.7 (1)
0x60|         00                                    |   .            |                n: 0 0x63-0x63.7 (1)
    |                                               |                |                items[0:0]: 0x64-NA (0)
    |                                               |                |              expr{}: 0x64-0x67.7 (4)
    |                                               |                |                instructions[0:2]: 0x64-0x67.7 (4)
    |                                               |                |                  [0]{}: instr 0x64-0x66.7 (3)
0x60|            41                                 |    A           |                    i32.const: 0x41 (valid) 0x64-0x64.7 (1)
0x60|               c2 00                           |     ..         |                    n: 66 0x65-0x66.7 (2)
    |                                               |                |                  [1]{}: instr 0x67-0x67.7 (1)
0x60|                     0b                        |       .        |                    end: 0xb (valid) 0x67-0x67.7 (1)
    |                                               |                |          [2]{}: code 0x68-0x6f.7 (8)
0x60|                        07                     |        .       |            size: 7 0x68-0x68.7 (1)
    |                                               |                |            code{}: 0x69-0x6f.7 (7)
    |                                               |                |              locals{}: 0x69-0x69.7 (1)
0x60|                           00                  |         .      |                n: 0 0x69-0x69.7 (1)
    |                                               |                |                items[0:0]: 0x6a-NA (0)
    |                                               |                |              expr{}: 0x6a-0x6f.7 (6)
    |                                               |                |                instructions[0:3]: 0x6a-0x6f.7 (6)
    |                                               |                |                  [0]{}: instr 0x6a-0x6b.7 (2)
0x60|                              41               |          A     |                    i32.const: 0x41 (valid) 0x6a-0x6a.7 (1)
0x60|                                 07            |           .    |                    n: 7 0x6b-0x6b.7 (1)
    |                                               |                |                  [1]{}: instr 0x6c-0x6e.7 (3)
0x60|                                    11         |            .   |                    call: 0x11 (valid) 0x6c-0x6c.7 (1)
0x60|                                       00      |             .  |                    y: 0 0x6d-0x6d.7 (1)
0x60|                                          00   |              . |                    x: 0 0x6e-0x6e.7 (1)
    |                                               |                |                  [2]{}: instr 0x6f-0x6f.7 (1)
0x60|                                             0b|               .|                    end: 0xb (valid) 0x6f-0x6f.7 (1)
    |                                               |                |          [3]{}: code 0x70-0x77.7 (8)
0x70|07                                             |.               |            size: 7 0x70-0x70.7 (1)
    |                                               |                |            code{}: 0x71-0x77.7 (7)
    |                                               |                |              locals{}: 0x71-0x71.7 (1)
0x70|   00                                          | .              |                n: 0 0x71-0x71.7 (1)
    |                                               |                |                items[0:0]: 0x72-NA (0)
    |                                               |                |              expr{}: 0x72-0x77.7 (6)
    |                                               |                |                instructions[0:3]: 0x72-0x77.7 (6)
    |                                               |                |                  [0]{}: instr 0x72-0x73.7 (2)
0x70|      41                                       |  A             |                    i32.const: 0x41 (valid) 0x72-0x72.7 (1)
0x70|         08                                    |   .            |                    n: 8 0x73-0x73.7 (1)
    |                                               |                |                  [1]{}: instr 0x74-0x76.7 (3)
0x70|            11                                 |    .           |                    call: 0x11 (valid) 0x74-0x74.7 (1)
0x70|               00                              |     .          |                    y: 0 0x75-0x75.7 (1)
0x70|                  00                           |      .         |                    x: 0 0x76-0x76.7 (1)
    |                                               |                |                  [2]{}: instr 0x77-0x77.7 (1)
0x70|                     0b                        |       .        |                    end: 0xb (valid) 0x77-0x77.7 (1)
    |                                               |                |          [4]{}: code 0x78-0x7f.7 (8)
0x70|                        07                     |        .       |            size: 7 0x78-0x78.7 (1)
    |                                               |                |            code{}: 0x79-0x7f.7 (7)
    |                                               |                |              locals{}: 0x79-0x79.7 (1)
0x70|                           00                  |         .      |                n: 0 0x79-0x79.7 (1)
    |                                               |                |                items[0:0]: 0x7a-NA (0)
    |                                               |                |              expr{}: 0x7a-0x7f.7 (6)
    |                                               |                |                instructions[0:3]: 0x7a-0x7f.7 (6)
    |                                               |                |                  [0]{}: instr 0x7a-0x7b.7 (2)
0x70|                              41               |          A     |                    i32.const: 0x41 (valid) 0x7a-0x7a.7 (1)
0x70|                                 09            |           .    |                    n: 9 0x7b-0x7b.7 (1)
    |                                               |                |                  [1]{}: instr 0x7c-0x7e.7 (3)
0x70|                                    11         |            .   |                    call: 0x11 (valid) 0x7c-0x7c.7 (1)
0x70|                                       00      |             .  |                    y: 0 0x7d-0x7d.7 (1)
0x70|                                          00   |              . |                    x: 0 0x7e-0x7e.7 (1)
    |                                               |                |                  [2]{}: instr 0x7f-0x7f.7 (1)
0x70|                                             0b|               .|                    end: 0xb (valid) 0x7f-0x7f.7 (1)
