$ fq -d wasm dv exports-18.wasm
    |00 01 02 03 04 05 06 07 08 09 0a 0b 0c 0d 0e 0f|0123456789abcdef|.{}: exports-18.wasm (wasm) 0x0-0x16.7 (23)
0x00|00 61 73 6d                                    |.asm            |  magic: raw bits (valid) 0x0-0x3.7 (4)
0x00|            01 00 00 00                        |    ....        |  version: 1 0x4-0x7.7 (4)
    |                                               |                |  sections[0:2]: 0x8-0x16.7 (15)
    |                                               |                |    [0]{}: section 0x8-0xf.7 (8)
0x00|                        06                     |        .       |      id: "global section" (6) 0x8-0x8.7 (1)
0x00|                           06                  |         .      |      size: 6 0x9-0x9.7 (1)
    |                                               |                |      content{}: 0xa-0xf.7 (6)
0x00|                              01               |          .     |        n: 1 0xa-0xa.7 (1)
    |                                               |                |        items[0:1]: 0xb-0xf.7 (5)
    |                                               |                |          [0]{}: global 0xb-0xf.7 (5)
    |                                               |                |            globaltype{}: 0xb-0xc.7 (2)
0x00|                                 7f            |           .    |              valtype: "i32" (127) 0xb-0xb.7 (1)
0x00|                                    00         |            .   |              mut: "const" (0) 0xc-0xc.7 (1)
    |                                               |                |            expr{}: 0xd-0xf.7 (3)
    |                                               |                |              instructions[0:2]: 0xd-0xf.7 (3)
    |                                               |                |                [0]{}: instr 0xd-0xe.7 (2)
0x00|                                       41      |             A  |                  i32.const: 0x41 (valid) 0xd-0xd.7 (1)
0x00|                                          00   |              . |                  n: 0 0xe-0xe.7 (1)
    |                                               |                |                [1]{}: instr 0xf-0xf.7 (1)
0x00|                                             0b|               .|                  end: 0xb (valid) 0xf-0xf.7 (1)
    |                                               |                |    [1]{}: section 0x10-0x16.7 (7)
0x10|07                                             |.               |      id: "export section" (7) 0x10-0x10.7 (1)
0x10|   05                                          | .              |      size: 5 0x11-0x11.7 (1)
    |                                               |                |      content{}: 0x12-0x16.7 (5)
0x10|      01                                       |  .             |        n: 1 0x12-0x12.7 (1)
    |                                               |                |        items[0:1]: 0x13-0x16.7 (4)
    |                                               |                |          [0]{}: export 0x13-0x16.7 (4)
    |                                               |                |            name{}: 0x13-0x14.7 (2)
0x10|         01                                    |   .            |              len: 1 0x13-0x13.7 (1)
0x10|            61                                 |    a           |              utf8bytes: "a" 0x14-0x14.7 (1)
    |                                               |                |            expr{}: 0x15-0x16.7 (2)
0x10|               03                              |     .          |              tag: "globalidx" (0x3) 0x15-0x15.7 (1)
0x10|                  00|                          |      .|        |              x: 0 0x16-0x16.7 (1)
