$ fq -d wasm dv float_exprs-58.wasm
    |00 01 02 03 04 05 06 07 08 09 0a 0b 0c 0d 0e 0f|0123456789abcdef|.{}: float_exprs-58.wasm (wasm) 0x0-0x77.7 (120)
0x00|00 61 73 6d                                    |.asm            |  magic: raw bits (valid) 0x0-0x3.7 (4)
0x00|            01 00 00 00                        |    ....        |  version: 1 0x4-0x7.7 (4)
    |                                               |                |  sections[0:4]: 0x8-0x77.7 (112)
    |                                               |                |    [0]{}: section 0x8-0x16.7 (15)
0x00|                        01                     |        .       |      id: "type section" (1) 0x8-0x8.7 (1)
0x00|                           0d                  |         .      |      size: 13 0x9-0x9.7 (1)
    |                                               |                |      content{}: 0xa-0x16.7 (13)
0x00|                              02               |          .     |        n: 2 0xa-0xa.7 (1)
    |                                               |                |        items[0:2]: 0xb-0x16.7 (12)
    |                                               |                |          [0]{}: functype 0xb-0x10.7 (6)
0x00|                                 60            |           `    |            tag: 0x60 (valid) 0xb-0xb.7 (1)
    |                                               |                |            rt1{}: 0xc-0xe.7 (3)
0x00|                                    02         |            .   |              n: 2 0xc-0xc.7 (1)
    |                                               |                |              items[0:2]: 0xd-0xe.7 (2)
0x00|                                       7d      |             }  |                [0]: "f32" (125) valtype 0xd-0xd.7 (1)
0x00|                                          7d   |              } |                [1]: "f32" (125) valtype 0xe-0xe.7 (1)
    |                                               |                |            rt2{}: 0xf-0x10.7 (2)
0x00|                                             01|               .|              n: 1 0xf-0xf.7 (1)
    |                                               |                |              items[0:1]: 0x10-0x10.7 (1)
0x10|7d                                             |}               |                [0]: "f32" (125) valtype 0x10-0x10.7 (1)
    |                                               |                |          [1]{}: functype 0x11-0x16.7 (6)
0x10|   60                                          | `              |            tag: 0x60 (valid) 0x11-0x11.7 (1)
    |                                               |                |            rt1{}: 0x12-0x14.7 (3)
0x10|      02                                       |  .             |              n: 2 0x12-0x12.7 (1)
    |                                               |                |              items[0:2]: 0x13-0x14.7 (2)
0x10|         7c                                    |   |            |                [0]: "f64" (124) valtype 0x13-0x13.7 (1)
0x10|            7c                                 |    |           |                [1]: "f64" (124) valtype 0x14-0x14.7 (1)
    |                                               |                |            rt2{}: 0x15-0x16.7 (2)
0x10|               01                              |     .          |              n: 1 0x15-0x15.7 (1)
    |                                               |                |              items[0:1]: 0x16-0x16.7 (1)
0x10|                  7c                           |      |         |                [0]: "f64" (124) valtype 0x16-0x16.7 (1)
    |                                               |                |    [1]{}: section 0x17-0x1b.7 (5)
0x10|                     03                        |       .        |      id: "function section" (3) 0x17-0x17.7 (1)
0x10|                        03                     |        .       |      size: 3 0x18-0x18.7 (1)
    |                                               |                |      content{}: 0x19-0x1b.7 (3)
0x10|                           02                  |         .      |        n: 2 0x19-0x19.7 (1)
    |                                               |                |        items[0:2]: 0x1a-0x1b.7 (2)
0x10|                              00               |          .     |          [0]: 0 x 0x1a-0x1a.7 (1)
0x10|                                 01            |           .    |          [1]: 1 x 0x1b-0x1b.7 (1)
    |                                               |                |    [2]{}: section 0x1c-0x58.7 (61)
0x10|                                    07         |            .   |      id: "export section" (7) 0x1c-0x1c.7 (1)
0x10|                                       3b      |             ;  |      size: 59 0x1d-0x1d.7 (1)
    |                                               |                |      content{}: 0x1e-0x58.7 (59)
0x10|                                          02   |              . |        n: 2 0x1e-0x1e.7 (1)
    |                                               |                |        items[0:2]: 0x1f-0x58.7 (58)
    |                                               |                |          [0]{}: export 0x1f-0x3b.7 (29)
    |                                               |                |            name{}: 0x1f-0x39.7 (27)
0x10|                                             1a|               .|              len: 26 0x1f-0x1f.7 (1)
0x20|66 33 32 2e 6e 6f 5f 61 6c 67 65 62 72 61 69 63|f32.no_algebraic|              utf8bytes: "f32.no_algebraic_factoring" 0x20-0x39.7 (26)
0x30|5f 66 61 63 74 6f 72 69 6e 67                  |_factoring      |
    |                                               |                |            expr{}: 0x3a-0x3b.7 (2)
0x30|                              00               |          .     |              tag: "funcidx" (0x0) 0x3a-0x3a.7 (1)
0x30|                                 00            |           .    |              x: 0 0x3b-0x3b.7 (1)
    |                                               |                |          [1]{}: export 0x3c-0x58.7 (29)
    |                                               |                |            name{}: 0x3c-0x56.7 (27)
0x30|                                    1a         |            .   |              len: 26 0x3c-0x3c.7 (1)
0x30|                                       66 36 34|             f64|              utf8bytes: "f64.no_algebraic_factoring" 0x3d-0x56.7 (26)
0x40|2e 6e 6f 5f 61 6c 67 65 62 72 61 69 63 5f 66 61|.no_algebraic_fa|
0x50|63 74 6f 72 69 6e 67                           |ctoring         |
    |                                               |                |            expr{}: 0x57-0x58.7 (2)
0x50|                     00                        |       .        |              tag: "funcidx" (0x0) 0x57-0x57.7 (1)
0x50|                        01                     |        .       |              x: 1 0x58-0x58.7 (1)
    |                                               |                |    [3]{}: section 0x59-0x77.7 (31)
0x50|                           0a                  |         .      |      id: "code section" (10) 0x59-0x59.7 (1)
0x50|                              1d               |          .     |      size: 29 0x5a-0x5a.7 (1)
    |                                               |                |      content{}: 0x5b-0x77.7 (29)
0x50|                                 02            |           .    |        n: 2 0x5b-0x5b.7 (1)
    |                                               |                |        items[0:2]: 0x5c-0x77.7 (28)
    |                                               |                |          [0]{}: code 0x5c-0x69.7 (14)
0x50|                                    0d         |            .   |            size: 13 0x5c-0x5c.7 (1)
    |                                               |                |            code{}: 0x5d-0x69.7 (13)
    |                                               |                |              locals{}: 0x5d-0x5d.7 (1)
0x50|                                       00      |             .  |                n: 0 0x5d-0x5d.7 (1)
    |                                               |                |                items[0:0]: 0x5e-NA (0)
    |                                               |                |              expr{}: 0x5e-0x69.7 (12)
    |                                               |                |                instructions[0:8]: 0x5e-0x69.7 (12)
    |                                               |                |                  [0]{}: instr 0x5e-0x5f.7 (2)
0x50|                                          20   |                |                    local.get: 0x20 (valid) 0x5e-0x5e.7 (1)
0x50|                                             00|               .|                    x: 0 0x5f-0x5f.7 (1)
    |                                               |                |                  [1]{}: instr 0x60-0x61.7 (2)
0x60|20                                             |                |                    local.get: 0x20 (valid) 0x60-0x60.7 (1)
0x60|   00                                          | .              |                    x: 0 0x61-0x61.7 (1)
    |                                               |                |                  [2]{}: instr 0x62-0x62.7 (1)
0x60|      94                                       |  .             |                    f32.mul: 0x94 (valid) 0x62-0x62.7 (1)
    |                                               |                |                  [3]{}: instr 0x63-0x64.7 (2)
0x60|         20                                    |                |                    local.get: 0x20 (valid) 0x63-0x63.7 (1)
0x60|            01                                 |    .           |                    x: 1 0x64-0x64.7 (1)
    |                                               |                |                  [4]{}: instr 0x65-0x66.7 (2)
0x60|               20                              |                |                    local.get: 0x20 (valid) 0x65-0x65.7 (1)
0x60|                  01                           |      .         |                    x: 1 0x66-0x66.7 (1)
    |                                               |                |                  [5]{}: instr 0x67-0x67.7 (1)
0x60|                     94                        |       .        |                    f32.mul: 0x94 (valid) 0x67-0x67.7 (1)
    |                                               |                |                  [6]{}: instr 0x68-0x68.7 (1)
0x60|                        93                     |        .       |                    f32.sub: 0x93 (valid) 0x68-0x68.7 (1)
    |                                               |                |                  [7]{}: instr 0x69-0x69.7 (1)
0x60|                           0b                  |         .      |                    end: 0xb (valid) 0x69-0x69.7 (1)
    |                                               |                |          [1]{}: code 0x6a-0x77.7 (14)
0x60|                              0d               |          .     |            size: 13 0x6a-0x6a.7 (1)
    |                                               |                |            code{}: 0x6b-0x77.7 (13)
    |                                               |                |              locals{}: 0x6b-0x6b.7 (1)
0x60|                                 00            |           .    |                n: 0 0x6b-0x6b.7 (1)
    |                                               |                |                items[0:0]: 0x6c-NA (0)
    |                                               |                |              expr{}: 0x6c-0x77.7 (12)
    |                                               |                |                instructions[0:8]: 0x6c-0x77.7 (12)
    |                                               |                |                  [0]{}: instr 0x6c-0x6d.7 (2)
0x60|                                    20         |                |                    local.get: 0x20 (valid) 0x6c-0x6c.7 (1)
0x60|                                       00      |             .  |                    x: 0 0x6d-0x6d.7 (1)
    |                                               |                |                  [1]{}: instr 0x6e-0x6f.7 (2)
0x60|                                          20   |                |                    local.get: 0x20 (valid) 0x6e-0x6e.7 (1)
0x60|                                             00|               .|                    x: 0 0x6f-0x6f.7 (1)
    |                                               |                |                  [2]{}: instr 0x70-0x70.7 (1)
0x70|a2                                             |.               |                    f64.mul: 0xa2 (valid) 0x70-0x70.7 (1)
    |                                               |                |                  [3]{}: instr 0x71-0x72.7 (2)
0x70|   20                                          |                |                    local.get: 0x20 (valid) 0x71-0x71.7 (1)
0x70|      01                                       |  .             |                    x: 1 0x72-0x72.7 (1)
    |                                               |                |                  [4]{}: instr 0x73-0x74.7 (2)
0x70|         20                                    |                |                    local.get: 0x20 (valid) 0x73-0x73.7 (1)
0x70|            01                                 |    .           |                    x: 1 0x74-0x74.7 (1)
    |                                               |                |                  [5]{}: instr 0x75-0x75.7 (1)
0x70|               a2                              |     .          |                    f64.mul: 0xa2 (valid) 0x75-0x75.7 (1)
    |                                               |                |                  [6]{}: instr 0x76-0x76.7 (1)
0x70|                  a1                           |      .         |                    f64.sub: 0xa1 (valid) 0x76-0x76.7 (1)
    |                                               |                |                  [7]{}: instr 0x77-0x77.7 (1)
0x70|                     0b|                       |       .|       |                    end: 0xb (valid) 0x77-0x77.7 (1)
