$ fq -d wasm dv float_exprs-61.wasm
     |00 01 02 03 04 05 06 07 08 09 0a 0b 0c 0d 0e 0f|0123456789abcdef|.{}: float_exprs-61.wasm (wasm) 0x0-0x4ac.7 (1197)
0x000|00 61 73 6d                                    |.asm            |  magic: raw bits (valid) 0x0-0x3.7 (4)
0x000|            01 00 00 00                        |    ....        |  version: 1 0x4-0x7.7 (4)
     |                                               |                |  sections[0:6]: 0x8-0x4ac.7 (1189)
     |                                               |                |    [0]{}: section 0x8-0x10.7 (9)
0x000|                        01                     |        .       |      id: "type section" (1) 0x8-0x8.7 (1)
0x000|                           07                  |         .      |      size: 7 0x9-0x9.7 (1)
     |                                               |                |      content{}: 0xa-0x10.7 (7)
0x000|                              01               |          .     |        n: 1 0xa-0xa.7 (1)
     |                                               |                |        items[0:1]: 0xb-0x10.7 (6)
     |                                               |                |          [0]{}: functype 0xb-0x10.7 (6)
0x000|                                 60            |           `    |            tag: 0x60 (valid) 0xb-0xb.7 (1)
     |                                               |                |            rt1{}: 0xc-0xe.7 (3)
0x000|                                    02         |            .   |              n: 2 0xc-0xc.7 (1)
     |                                               |                |              items[0:2]: 0xd-0xe.7 (2)
0x000|                                       7f      |             .  |                [0]: "i32" (127) valtype 0xd-0xd.7 (1)
0x000|                                          7f   |              . |                [1]: "i32" (127) valtype 0xe-0xe.7 (1)
     |                                               |                |            rt2{}: 0xf-0x10.7 (2)
0x000|                                             01|               .|              n: 1 0xf-0xf.7 (1)
     |                                               |                |              items[0:1]: 0x10-0x10.7 (1)
0x010|7d                                             |}               |                [0]: "f32" (125) valtype 0x10-0x10.7 (1)
     |                                               |                |    [1]{}: section 0x11-0x15.7 (5)
0x010|   03                                          | .              |      id: "function section" (3) 0x11-0x11.7 (1)
0x010|      03                                       |  .             |      size: 3 0x12-0x12.7 (1)
     |                                               |                |      content{}: 0x13-0x15.7 (3)
0x010|         02                                    |   .            |        n: 2 0x13-0x13.7 (1)
     |                                               |                |        items[0:2]: 0x14-0x15.7 (2)
0x010|            00                                 |    .           |          [0]: 0 x 0x14-0x14.7 (1)
0x010|               00                              |     .          |          [1]: 0 x 0x15-0x15.7 (1)
     |                                               |                |    [2]{}: section 0x16-0x1b.7 (6)
0x010|                  05                           |      .         |      id: "memory section" (5) 0x16-0x16.7 (1)
0x010|                     04                        |       .        |      size: 4 0x17-0x17.7 (1)
     |                                               |                |      content{}: 0x18-0x1b.7 (4)
0x010|                        01                     |        .       |        n: 1 0x18-0x18.7 (1)
     |                                               |                |        items[0:1]: 0x19-0x1b.7 (3)
     |                                               |                |          [0]{}: mem 0x19-0x1b.7 (3)
     |                                               |                |            limits{}: 0x19-0x1b.7 (3)
0x010|                           01                  |         .      |              tag: 0x1 0x19-0x19.7 (1)
0x010|                              01               |          .     |              min: 1 0x1a-0x1a.7 (1)
0x010|                                 01            |           .    |              max: 1 0x1b-0x1b.7 (1)
     |                                               |                |    [3]{}: section 0x1c-0x3e.7 (35)
0x010|                                    07         |            .   |      id: "export section" (7) 0x1c-0x1c.7 (1)
0x010|                                       21      |             !  |      size: 33 0x1d-0x1d.7 (1)
     |                                               |                |      content{}: 0x1e-0x3e.7 (33)
0x010|                                          02   |              . |        n: 2 0x1e-0x1e.7 (1)
     |                                               |                |        items[0:2]: 0x1f-0x3e.7 (32)
     |                                               |                |          [0]{}: export 0x1f-0x2e.7 (16)
     |                                               |                |            name{}: 0x1f-0x2c.7 (14)
0x010|                                             0d|               .|              len: 13 0x1f-0x1f.7 (1)
0x020|66 33 32 2e 6b 61 68 61 6e 5f 73 75 6d         |f32.kahan_sum   |              utf8bytes: "f32.kahan_sum" 0x20-0x2c.7 (13)
     |                                               |                |            expr{}: 0x2d-0x2e.7 (2)
0x020|                                       00      |             .  |              tag: "funcidx" (0x0) 0x2d-0x2d.7 (1)
0x020|                                          00   |              . |              x: 0 0x2e-0x2e.7 (1)
     |                                               |                |          [1]{}: export 0x2f-0x3e.7 (16)
     |                                               |                |            name{}: 0x2f-0x3c.7 (14)
0x020|                                             0d|               .|              len: 13 0x2f-0x2f.7 (1)
0x030|66 33 32 2e 70 6c 61 69 6e 5f 73 75 6d         |f32.plain_sum   |              utf8bytes: "f32.plain_sum" 0x30-0x3c.7 (13)
     |                                               |                |            expr{}: 0x3d-0x3e.7 (2)
0x030|                                       00      |             .  |              tag: "funcidx" (0x0) 0x3d-0x3d.7 (1)
0x030|                                          01   |              . |              x: 1 0x3e-0x3e.7 (1)
     |                                               |                |    [4]{}: section 0x3f-0xa2.7 (100)
0x030|                                             0a|               .|      id: "code section" (10) 0x3f-0x3f.7 (1)
0x040|62                                             |b               |      size: 98 0x40-0x40.7 (1)
     |                                               |                |      content{}: 0x41-0xa2.7 (98)
0x040|   02                                          | .              |        n: 2 0x41-0x41.7 (1)
     |                                               |                |        items[0:2]: 0x42-0xa2.7 (97)
     |                                               |                |          [0]{}: code 0x42-0x79.7 (56)
0x040|      37                                       |  7             |            size: 55 0x42-0x42.7 (1)
     |                                               |                |            code{}: 0x43-0x79.7 (55)
     |                                               |                |              locals{}: 0x43-0x45.7 (3)
0x040|         01                                    |   .            |                n: 1 0x43-0x43.7 (1)
     |                                               |                |                items[0:1]: 0x44-0x45.7 (2)
     |                                               |                |                  [0]{}: locals 0x44-0x45.7 (2)
0x040|            03                                 |    .           |                    n: 3 0x44-0x44.7 (1)
0x040|               7d                              |     }          |                    valtype: "f32" (125) 0x45-0x45.7 (1)
     |                                               |                |              expr{}: 0x46-0x79.7 (52)
     |                                               |                |                instructions[0:3]: 0x46-0x79.7 (52)
     |                                               |                |                  [0]{}: instr 0x46-0x76.7 (49)
0x040|                  02                           |      .         |                    block: 0x2 (valid) 0x46-0x46.7 (1)
0x040|                     40                        |       @        |                    empty: 64 0x47-0x47.7 (1)
     |                                               |                |                    instructions[0:1]: 0x48-0x75.7 (46)
     |                                               |                |                      [0]{}: instr 0x48-0x75.7 (46)
0x040|                        03                     |        .       |                        loop: 0x3 (valid) 0x48-0x48.7 (1)
0x040|                           40                  |         @      |                        empty: 64 0x49-0x49.7 (1)
     |                                               |                |                        instructions[0:24]: 0x4a-0x74.7 (43)
     |                                               |                |                          [0]{}: instr 0x4a-0x4b.7 (2)
0x040|                              20               |                |                            local.get: 0x20 (valid) 0x4a-0x4a.7 (1)
0x040|                                 03            |           .    |                            x: 3 0x4b-0x4b.7 (1)
     |                                               |                |                          [1]{}: instr 0x4c-0x4d.7 (2)
0x040|                                    20         |                |                            local.get: 0x20 (valid) 0x4c-0x4c.7 (1)
0x040|                                       00      |             .  |                            x: 0 0x4d-0x4d.7 (1)
     |                                               |                |                          [2]{}: instr 0x4e-0x50.7 (3)
0x040|                                          2a   |              * |                            f32.load: 0x2a (valid) 0x4e-0x4e.7 (1)
0x040|                                             02|               .|                            align: 2 0x4f-0x4f.7 (1)
0x050|00                                             |.               |                            offset: 0 0x50-0x50.7 (1)
     |                                               |                |                          [3]{}: instr 0x51-0x52.7 (2)
0x050|   20                                          |                |                            local.get: 0x20 (valid) 0x51-0x51.7 (1)
0x050|      04                                       |  .             |                            x: 4 0x52-0x52.7 (1)
     |                                               |                |                          [4]{}: instr 0x53-0x53.7 (1)
0x050|         93                                    |   .            |                            f32.sub: 0x93 (valid) 0x53-0x53.7 (1)
     |                                               |                |                          [5]{}: instr 0x54-0x55.7 (2)
0x050|            22                                 |    "           |                            local.tee: 0x22 (valid) 0x54-0x54.7 (1)
0x050|               04                              |     .          |                            x: 4 0x55-0x55.7 (1)
     |                                               |                |                          [6]{}: instr 0x56-0x56.7 (1)
0x050|                  92                           |      .         |                            f32.add: 0x92 (valid) 0x56-0x56.7 (1)
     |                                               |                |                          [7]{}: instr 0x57-0x58.7 (2)
0x050|                     22                        |       "        |                            local.tee: 0x22 (valid) 0x57-0x57.7 (1)
0x050|                        02                     |        .       |                            x: 2 0x58-0x58.7 (1)
     |                                               |                |                          [8]{}: instr 0x59-0x5a.7 (2)
0x050|                           20                  |                |                            local.get: 0x20 (valid) 0x59-0x59.7 (1)
0x050|                              03               |          .     |                            x: 3 0x5a-0x5a.7 (1)
     |                                               |                |                          [9]{}: instr 0x5b-0x5b.7 (1)
0x050|                                 93            |           .    |                            f32.sub: 0x93 (valid) 0x5b-0x5b.7 (1)
     |                                               |                |                          [10]{}: instr 0x5c-0x5d.7 (2)
0x050|                                    20         |                |                            local.get: 0x20 (valid) 0x5c-0x5c.7 (1)
0x050|                                       04      |             .  |                            x: 4 0x5d-0x5d.7 (1)
     |                                               |                |                          [11]{}: instr 0x5e-0x5e.7 (1)
0x050|                                          93   |              . |                            f32.sub: 0x93 (valid) 0x5e-0x5e.7 (1)
     |                                               |                |                          [12]{}: instr 0x5f-0x60.7 (2)
0x050|                                             21|               !|                            local.set: 0x21 (valid) 0x5f-0x5f.7 (1)
0x060|04                                             |.               |                            x: 4 0x60-0x60.7 (1)
     |                                               |                |                          [13]{}: instr 0x61-0x62.7 (2)
0x060|   20                                          |                |                            local.get: 0x20 (valid) 0x61-0x61.7 (1)
0x060|      00                                       |  .             |                            x: 0 0x62-0x62.7 (1)
     |                                               |                |                          [14]{}: instr 0x63-0x64.7 (2)
0x060|         41                                    |   A            |                            i32.const: 0x41 (valid) 0x63-0x63.7 (1)
0x060|            04                                 |    .           |                            n: 4 0x64-0x64.7 (1)
     |                                               |                |                          [15]{}: instr 0x65-0x65.7 (1)
0x060|               6a                              |     j          |                            i32.add: 0x6a (valid) 0x65-0x65.7 (1)
     |                                               |                |                          [16]{}: instr 0x66-0x67.7 (2)
0x060|                  21                           |      !         |                            local.set: 0x21 (valid) 0x66-0x66.7 (1)
0x060|                     00                        |       .        |                            x: 0 0x67-0x67.7 (1)
     |                                               |                |                          [17]{}: instr 0x68-0x69.7 (2)
0x060|                        20                     |                |                            local.get: 0x20 (valid) 0x68-0x68.7 (1)
0x060|                           02                  |         .      |                            x: 2 0x69-0x69.7 (1)
     |                                               |                |                          [18]{}: instr 0x6a-0x6b.7 (2)
0x060|                              21               |          !     |                            local.set: 0x21 (valid) 0x6a-0x6a.7 (1)
0x060|                                 03            |           .    |                            x: 3 0x6b-0x6b.7 (1)
     |                                               |                |                          [19]{}: instr 0x6c-0x6d.7 (2)
0x060|                                    20         |                |                            local.get: 0x20 (valid) 0x6c-0x6c.7 (1)
0x060|                                       01      |             .  |                            x: 1 0x6d-0x6d.7 (1)
     |                                               |                |                          [20]{}: instr 0x6e-0x6f.7 (2)
0x060|                                          41   |              A |                            i32.const: 0x41 (valid) 0x6e-0x6e.7 (1)
0x060|                                             7f|               .|                            n: -1 0x6f-0x6f.7 (1)
     |                                               |                |                          [21]{}: instr 0x70-0x70.7 (1)
0x070|6a                                             |j               |                            i32.add: 0x6a (valid) 0x70-0x70.7 (1)
     |                                               |                |                          [22]{}: instr 0x71-0x72.7 (2)
0x070|   22                                          | "              |                            local.tee: 0x22 (valid) 0x71-0x71.7 (1)
0x070|      01                                       |  .             |                            x: 1 0x72-0x72.7 (1)
     |                                               |                |                          [23]{}: instr 0x73-0x74.7 (2)
0x070|         0d                                    |   .            |                            br_if: 0xd (valid) 0x73-0x73.7 (1)
0x070|            00                                 |    .           |                            l: 0 0x74-0x74.7 (1)
0x070|               0b                              |     .          |                        end: 11 (valid) 0x75-0x75.7 (1)
0x070|                  0b                           |      .         |                    end: 11 (valid) 0x76-0x76.7 (1)
     |                                               |                |                  [1]{}: instr 0x77-0x78.7 (2)
0x070|                     20                        |                |                    local.get: 0x20 (valid) 0x77-0x77.7 (1)
0x070|                        02                     |        .       |                    x: 2 0x78-0x78.7 (1)
     |                                               |                |                  [2]{}: instr 0x79-0x79.7 (1)
0x070|                           0b                  |         .      |                    end: 0xb (valid) 0x79-0x79.7 (1)
     |                                               |                |          [1]{}: code 0x7a-0xa2.7 (41)
0x070|                              28               |          (     |            size: 40 0x7a-0x7a.7 (1)
     |                                               |                |            code{}: 0x7b-0xa2.7 (40)
     |                                               |                |              locals{}: 0x7b-0x7d.7 (3)
0x070|                                 01            |           .    |                n: 1 0x7b-0x7b.7 (1)
     |                                               |                |                items[0:1]: 0x7c-0x7d.7 (2)
     |                                               |                |                  [0]{}: locals 0x7c-0x7d.7 (2)
0x070|                                    01         |            .   |                    n: 1 0x7c-0x7c.7 (1)
0x070|                                       7d      |             }  |                    valtype: "f32" (125) 0x7d-0x7d.7 (1)
     |                                               |                |              expr{}: 0x7e-0xa2.7 (37)
     |                                               |                |                instructions[0:3]: 0x7e-0xa2.7 (37)
     |                                               |                |                  [0]{}: instr 0x7e-0x9f.7 (34)
0x070|                                          02   |              . |                    block: 0x2 (valid) 0x7e-0x7e.7 (1)
0x070|                                             40|               @|                    empty: 64 0x7f-0x7f.7 (1)
     |                                               |                |                    instructions[0:1]: 0x80-0x9e.7 (31)
     |                                               |                |                      [0]{}: instr 0x80-0x9e.7 (31)
0x080|03                                             |.               |                        loop: 0x3 (valid) 0x80-0x80.7 (1)
0x080|   40                                          | @              |                        empty: 64 0x81-0x81.7 (1)
     |                                               |                |                        instructions[0:15]: 0x82-0x9d.7 (28)
     |                                               |                |                          [0]{}: instr 0x82-0x83.7 (2)
0x080|      20                                       |                |                            local.get: 0x20 (valid) 0x82-0x82.7 (1)
0x080|         02                                    |   .            |                            x: 2 0x83-0x83.7 (1)
     |                                               |                |                          [1]{}: instr 0x84-0x85.7 (2)
0x080|            20                                 |                |                            local.get: 0x20 (valid) 0x84-0x84.7 (1)
0x080|               00                              |     .          |                            x: 0 0x85-0x85.7 (1)
     |                                               |                |                          [2]{}: instr 0x86-0x88.7 (3)
0x080|                  2a                           |      *         |                            f32.load: 0x2a (valid) 0x86-0x86.7 (1)
0x080|                     02                        |       .        |                            align: 2 0x87-0x87.7 (1)
0x080|                        00                     |        .       |                            offset: 0 0x88-0x88.7 (1)
     |                                               |                |                          [3]{}: instr 0x89-0x89.7 (1)
0x080|                           92                  |         .      |                            f32.add: 0x92 (valid) 0x89-0x89.7 (1)
     |                                               |                |                          [4]{}: instr 0x8a-0x8b.7 (2)
0x080|                              21               |          !     |                            local.set: 0x21 (valid) 0x8a-0x8a.7 (1)
0x080|                                 02            |           .    |                            x: 2 0x8b-0x8b.7 (1)
     |                                               |                |                          [5]{}: instr 0x8c-0x8d.7 (2)
0x080|                                    20         |                |                            local.get: 0x20 (valid) 0x8c-0x8c.7 (1)
0x080|                                       00      |             .  |                            x: 0 0x8d-0x8d.7 (1)
     |                                               |                |                          [6]{}: instr 0x8e-0x8f.7 (2)
0x080|                                          41   |              A |                            i32.const: 0x41 (valid) 0x8e-0x8e.7 (1)
0x080|                                             04|               .|                            n: 4 0x8f-0x8f.7 (1)
     |                                               |                |                          [7]{}: instr 0x90-0x90.7 (1)
0x090|6a                                             |j               |                            i32.add: 0x6a (valid) 0x90-0x90.7 (1)
     |                                               |                |                          [8]{}: instr 0x91-0x92.7 (2)
0x090|   21                                          | !              |                            local.set: 0x21 (valid) 0x91-0x91.7 (1)
0x090|      00                                       |  .             |                            x: 0 0x92-0x92.7 (1)
     |                                               |                |                          [9]{}: instr 0x93-0x94.7 (2)
0x090|         20                                    |                |                            local.get: 0x20 (valid) 0x93-0x93.7 (1)
0x090|            01                                 |    .           |                            x: 1 0x94-0x94.7 (1)
     |                                               |                |                          [10]{}: instr 0x95-0x96.7 (2)
0x090|               41                              |     A          |                            i32.const: 0x41 (valid) 0x95-0x95.7 (1)
0x090|                  7f                           |      .         |                            n: -1 0x96-0x96.7 (1)
     |                                               |                |                          [11]{}: instr 0x97-0x97.7 (1)
0x090|                     6a                        |       j        |                            i32.add: 0x6a (valid) 0x97-0x97.7 (1)
     |                                               |                |                          [12]{}: instr 0x98-0x99.7 (2)
0x090|                        21                     |        !       |                            local.set: 0x21 (valid) 0x98-0x98.7 (1)
0x090|                           01                  |         .      |                            x: 1 0x99-0x99.7 (1)
     |                                               |                |                          [13]{}: instr 0x9a-0x9b.7 (2)
0x090|                              20               |                |                            local.get: 0x20 (valid) 0x9a-0x9a.7 (1)
0x090|                                 01            |           .    |                            x: 1 0x9b-0x9b.7 (1)
     |                                               |                |                          [14]{}: instr 0x9c-0x9d.7 (2)
0x090|                                    0d         |            .   |                            br_if: 0xd (valid) 0x9c-0x9c.7 (1)
0x090|                                       00      |             .  |                            l: 0 0x9d-0x9d.7 (1)
0x090|                                          0b   |              . |                        end: 11 (valid) 0x9e-0x9e.7 (1)
0x090|                                             0b|               .|                    end: 11 (valid) 0x9f-0x9f.7 (1)
     |                                               |                |                  [1]{}: instr 0xa0-0xa1.7 (2)
0x0a0|20                                             |                |                    local.get: 0x20 (valid) 0xa0-0xa0.7 (1)
0x0a0|   02                                          | .              |                    x: 2 0xa1-0xa1.7 (1)
     |                                               |                |                  [2]{}: instr 0xa2-0xa2.7 (1)
0x0a0|      0b                                       |  .             |                    end: 0xb (valid) 0xa2-0xa2.7 (1)
     |                                               |                |    [5]{}: section 0xa3-0x4ac.7 (1034)
0x0a0|         0b                                    |   .            |      id: "data section" (11) 0xa3-0xa3.7 (1)
0x0a0|            87 08                              |    ..          |      size: 1031 0xa4-0xa5.7 (2)
     |                                               |                |      content{}: 0xa6-0x4ac.7 (1031)
0x0a0|                  01                           |      .         |        n: 1 0xa6-0xa6.7 (1)
     |                                               |                |        items[0:1]: 0xa7-0x4ac.7 (1030)
     |                                               |                |          [0]{}: data 0xa7-0x4ac.7 (1030)
0x0a0|                     00                        |       .        |            tag: 0 0xa7-0xa7.7 (1)
     |                                               |                |            instructions[0:2]: 0xa8-0xaa.7 (3)
     |                                               |                |              [0]{}: instr 0xa8-0xa9.7 (2)
0x0a0|                        41                     |        A       |                i32.const: 0x41 (valid) 0xa8-0xa8.7 (1)
0x0a0|                           00                  |         .      |                n: 0 0xa9-0xa9.7 (1)
     |                                               |                |              [1]{}: instr 0xaa-0xaa.7 (1)
0x0a0|                              0b               |          .     |                end: 0xb (valid) 0xaa-0xaa.7 (1)
0x0a0|                                 80 08         |           ..   |            n: 1024 0xab-0xac.7 (2)
0x0a0|                                       c4 c5 57|             ..W|            bytes: raw bits 0xad-0x4ac.7 (1024)
0x0b0|24 a5 84 c8 0b 6d b8 4b 2e f2 76 17 1c ca 4a 56|$....m.K..v...JV|
*    |until 0x4ac.7 (end) (1024)                     |                |
