$ fq -d wasm dv float_exprs-59.wasm
    |00 01 02 03 04 05 06 07 08 09 0a 0b 0c 0d 0e 0f|0123456789abcdef|.{}: float_exprs-59.wasm (wasm) 0x0-0xea.7 (235)
0x00|00 61 73 6d                                    |.asm            |  magic: raw bits (valid) 0x0-0x3.7 (4)
0x00|            01 00 00 00                        |    ....        |  version: 1 0x4-0x7.7 (4)
    |                                               |                |  sections[0:6]: 0x8-0xea.7 (227)
    |                                               |                |    [0]{}: section 0x8-0x15.7 (14)
0x00|                        01                     |        .       |      id: "type section" (1) 0x8-0x8.7 (1)
0x00|                           0c                  |         .      |      size: 12 0x9-0x9.7 (1)
    |                                               |                |      content{}: 0xa-0x15.7 (12)
0x00|                              02               |          .     |        n: 2 0xa-0xa.7 (1)
    |                                               |                |        items[0:2]: 0xb-0x15.7 (11)
    |                                               |                |          [0]{}: functype 0xb-0x10.7 (6)
0x00|                                 60            |           `    |            tag: 0x60 (valid) 0xb-0xb.7 (1)
    |                                               |                |            rt1{}: 0xc-0xf.7 (4)
0x00|                                    03         |            .   |              n: 3 0xc-0xc.7 (1)
    |                                               |                |              items[0:3]: 0xd-0xf.7 (3)
0x00|                                       7f      |             .  |                [0]: "i32" (127) valtype 0xd-0xd.7 (1)
0x00|                                          7f   |              . |                [1]: "i32" (127) valtype 0xe-0xe.7 (1)
0x00|                                             7f|               .|                [2]: "i32" (127) valtype 0xf-0xf.7 (1)
    |                                               |                |            rt2{}: 0x10-0x10.7 (1)
0x10|00                                             |.               |              n: 0 0x10-0x10.7 (1)
    |                                               |                |              items[0:0]: 0x11-NA (0)
    |                                               |                |          [1]{}: functype 0x11-0x15.7 (5)
0x10|   60                                          | `              |            tag: 0x60 (valid) 0x11-0x11.7 (1)
    |                                               |                |            rt1{}: 0x12-0x13.7 (2)
0x10|      01                                       |  .             |              n: 1 0x12-0x12.7 (1)
    |                                               |                |              items[0:1]: 0x13-0x13.7 (1)
0x10|         7f                                    |   .            |                [0]: "i32" (127) valtype 0x13-0x13.7 (1)
    |                                               |                |            rt2{}: 0x14-0x15.7 (2)
0x10|            01                                 |    .           |              n: 1 0x14-0x14.7 (1)
    |                                               |                |              items[0:1]: 0x15-0x15.7 (1)
0x10|               7d                              |     }          |                [0]: "f32" (125) valtype 0x15-0x15.7 (1)
    |                                               |                |    [1]{}: section 0x16-0x1a.7 (5)
0x10|                  03                           |      .         |      id: "function section" (3) 0x16-0x16.7 (1)
0x10|                     03                        |       .        |      size: 3 0x17-0x17.7 (1)
    |                                               |                |      content{}: 0x18-0x1a.7 (3)
0x10|                        02                     |        .       |        n: 2 0x18-0x18.7 (1)
    |                                               |                |        items[0:2]: 0x19-0x1a.7 (2)
0x10|                           00                  |         .      |          [0]: 0 x 0x19-0x19.7 (1)
0x10|                              01               |          .     |          [1]: 1 x 0x1a-0x1a.7 (1)
    |                                               |                |    [2]{}: section 0x1b-0x20.7 (6)
0x10|                                 05            |           .    |      id: "memory section" (5) 0x1b-0x1b.7 (1)
0x10|                                    04         |            .   |      size: 4 0x1c-0x1c.7 (1)
    |                                               |                |      content{}: 0x1d-0x20.7 (4)
0x10|                                       01      |             .  |        n: 1 0x1d-0x1d.7 (1)
    |                                               |                |        items[0:1]: 0x1e-0x20.7 (3)
    |                                               |                |          [0]{}: mem 0x1e-0x20.7 (3)
    |                                               |                |            limits{}: 0x1e-0x20.7 (3)
0x10|                                          01   |              . |              tag: 0x1 0x1e-0x1e.7 (1)
0x10|                                             01|               .|              min: 1 0x1f-0x1f.7 (1)
0x20|01                                             |.               |              max: 1 0x20-0x20.7 (1)
    |                                               |                |    [3]{}: section 0x21-0x42.7 (34)
0x20|   07                                          | .              |      id: "export section" (7) 0x21-0x21.7 (1)
0x20|      20                                       |                |      size: 32 0x22-0x22.7 (1)
    |                                               |                |      content{}: 0x23-0x42.7 (32)
0x20|         02                                    |   .            |        n: 2 0x23-0x23.7 (1)
    |                                               |                |        items[0:2]: 0x24-0x42.7 (31)
    |                                               |                |          [0]{}: export 0x24-0x37.7 (20)
    |                                               |                |            name{}: 0x24-0x35.7 (18)
0x20|            11                                 |    .           |              len: 17 0x24-0x24.7 (1)
0x20|               66 33 32 2e 73 69 6d 70 6c 65 5f|     f32.simple_|              utf8bytes: "f32.simple_x4_sum" 0x25-0x35.7 (17)
0x30|78 34 5f 73 75 6d                              |x4_sum          |
    |                                               |                |            expr{}: 0x36-0x37.7 (2)
0x30|                  00                           |      .         |              tag: "funcidx" (0x0) 0x36-0x36.7 (1)
0x30|                     00                        |       .        |              x: 0 0x37-0x37.7 (1)
    |                                               |                |          [1]{}: export 0x38-0x42.7 (11)
    |                                               |                |            name{}: 0x38-0x40.7 (9)
0x30|                        08                     |        .       |              len: 8 0x38-0x38.7 (1)
0x30|                           66 33 32 2e 6c 6f 61|         f32.loa|              utf8bytes: "f32.load" 0x39-0x40.7 (8)
0x40|64                                             |d               |
    |                                               |                |            expr{}: 0x41-0x42.7 (2)
0x40|   00                                          | .              |              tag: "funcidx" (0x0) 0x41-0x41.7 (1)
0x40|      01                                       |  .             |              x: 1 0x42-0x42.7 (1)
    |                                               |                |    [4]{}: section 0x43-0xb2.7 (112)
0x40|         0a                                    |   .            |      id: "code section" (10) 0x43-0x43.7 (1)
0x40|            6e                                 |    n           |      size: 110 0x44-0x44.7 (1)
    |                                               |                |      content{}: 0x45-0xb2.7 (110)
0x40|               02                              |     .          |        n: 2 0x45-0x45.7 (1)
    |                                               |                |        items[0:2]: 0x46-0xb2.7 (109)
    |                                               |                |          [0]{}: code 0x46-0xaa.7 (101)
0x40|                  64                           |      d         |            size: 100 0x46-0x46.7 (1)
    |                                               |                |            code{}: 0x47-0xaa.7 (100)
    |                                               |                |              locals{}: 0x47-0x49.7 (3)
0x40|                     01                        |       .        |                n: 1 0x47-0x47.7 (1)
    |                                               |                |                items[0:1]: 0x48-0x49.7 (2)
    |                                               |                |                  [0]{}: locals 0x48-0x49.7 (2)
0x40|                        08                     |        .       |                    n: 8 0x48-0x48.7 (1)
0x40|                           7d                  |         }      |                    valtype: "f32" (125) 0x49-0x49.7 (1)
    |                                               |                |              expr{}: 0x4a-0xaa.7 (97)
    |                                               |                |                instructions[0:45]: 0x4a-0xaa.7 (97)
    |                                               |                |                  [0]{}: instr 0x4a-0x4b.7 (2)
0x40|                              20               |                |                    local.get: 0x20 (valid) 0x4a-0x4a.7 (1)
0x40|                                 00            |           .    |                    x: 0 0x4b-0x4b.7 (1)
    |                                               |                |                  [1]{}: instr 0x4c-0x4e.7 (3)
0x40|                                    2a         |            *   |                    f32.load: 0x2a (valid) 0x4c-0x4c.7 (1)
0x40|                                       02      |             .  |                    align: 2 0x4d-0x4d.7 (1)
0x40|                                          00   |              . |                    offset: 0 0x4e-0x4e.7 (1)
    |                                               |                |                  [2]{}: instr 0x4f-0x50.7 (2)
0x40|                                             21|               !|                    local.set: 0x21 (valid) 0x4f-0x4f.7 (1)
0x50|03                                             |.               |                    x: 3 0x50-0x50.7 (1)
    |                                               |                |                  [3]{}: instr 0x51-0x52.7 (2)
0x50|   20                                          |                |                    local.get: 0x20 (valid) 0x51-0x51.7 (1)
0x50|      00                                       |  .             |                    x: 0 0x52-0x52.7 (1)
    |                                               |                |                  [4]{}: instr 0x53-0x55.7 (3)
0x50|         2a                                    |   *            |                    f32.load: 0x2a (valid) 0x53-0x53.7 (1)
0x50|            02                                 |    .           |                    align: 2 0x54-0x54.7 (1)
0x50|               04                              |     .          |                    offset: 4 0x55-0x55.7 (1)
    |                                               |                |                  [5]{}: instr 0x56-0x57.7 (2)
0x50|                  21                           |      !         |                    local.set: 0x21 (valid) 0x56-0x56.7 (1)
0x50|                     04                        |       .        |                    x: 4 0x57-0x57.7 (1)
    |                                               |                |                  [6]{}: instr 0x58-0x59.7 (2)
0x50|                        20                     |                |                    local.get: 0x20 (valid) 0x58-0x58.7 (1)
0x50|                           00                  |         .      |                    x: 0 0x59-0x59.7 (1)
    |                                               |                |                  [7]{}: instr 0x5a-0x5c.7 (3)
0x50|                              2a               |          *     |                    f32.load: 0x2a (valid) 0x5a-0x5a.7 (1)
0x50|                                 02            |           .    |                    align: 2 0x5b-0x5b.7 (1)
0x50|                                    08         |            .   |                    offset: 8 0x5c-0x5c.7 (1)
    |                                               |                |                  [8]{}: instr 0x5d-0x5e.7 (2)
0x50|                                       21      |             !  |                    local.set: 0x21 (valid) 0x5d-0x5d.7 (1)
0x50|                                          05   |              . |                    x: 5 0x5e-0x5e.7 (1)
    |                                               |                |                  [9]{}: instr 0x5f-0x60.7 (2)
0x50|                                             20|                |                    local.get: 0x20 (valid) 0x5f-0x5f.7 (1)
0x60|00                                             |.               |                    x: 0 0x60-0x60.7 (1)
    |                                               |                |                  [10]{}: instr 0x61-0x63.7 (3)
0x60|   2a                                          | *              |                    f32.load: 0x2a (valid) 0x61-0x61.7 (1)
0x60|      02                                       |  .             |                    align: 2 0x62-0x62.7 (1)
0x60|         0c                                    |   .            |                    offset: 12 0x63-0x63.7 (1)
    |                                               |                |                  [11]{}: instr 0x64-0x65.7 (2)
0x60|            21                                 |    !           |                    local.set: 0x21 (valid) 0x64-0x64.7 (1)
0x60|               06                              |     .          |                    x: 6 0x65-0x65.7 (1)
    |                                               |                |                  [12]{}: instr 0x66-0x67.7 (2)
0x60|                  20                           |                |                    local.get: 0x20 (valid) 0x66-0x66.7 (1)
0x60|                     01                        |       .        |                    x: 1 0x67-0x67.7 (1)
    |                                               |                |                  [13]{}: instr 0x68-0x6a.7 (3)
0x60|                        2a                     |        *       |                    f32.load: 0x2a (valid) 0x68-0x68.7 (1)
0x60|                           02                  |         .      |                    align: 2 0x69-0x69.7 (1)
0x60|                              00               |          .     |                    offset: 0 0x6a-0x6a.7 (1)
    |                                               |                |                  [14]{}: instr 0x6b-0x6c.7 (2)
0x60|                                 21            |           !    |                    local.set: 0x21 (valid) 0x6b-0x6b.7 (1)
0x60|                                    07         |            .   |                    x: 7 0x6c-0x6c.7 (1)
    |                                               |                |                  [15]{}: instr 0x6d-0x6e.7 (2)
0x60|                                       20      |                |                    local.get: 0x20 (valid) 0x6d-0x6d.7 (1)
0x60|                                          01   |              . |                    x: 1 0x6e-0x6e.7 (1)
    |                                               |                |                  [16]{}: instr 0x6f-0x71.7 (3)
0x60|                                             2a|               *|                    f32.load: 0x2a (valid) 0x6f-0x6f.7 (1)
0x70|02                                             |.               |                    align: 2 0x70-0x70.7 (1)
0x70|   04                                          | .              |                    offset: 4 0x71-0x71.7 (1)
    |                                               |                |                  [17]{}: instr 0x72-0x73.7 (2)
0x70|      21                                       |  !             |                    local.set: 0x21 (valid) 0x72-0x72.7 (1)
0x70|         08                                    |   .            |                    x: 8 0x73-0x73.7 (1)
    |                                               |                |                  [18]{}: instr 0x74-0x75.7 (2)
0x70|            20                                 |                |                    local.get: 0x20 (valid) 0x74-0x74.7 (1)
0x70|               01                              |     .          |                    x: 1 0x75-0x75.7 (1)
    |                                               |                |                  [19]{}: instr 0x76-0x78.7 (3)
0x70|                  2a                           |      *         |                    f32.load: 0x2a (valid) 0x76-0x76.7 (1)
0x70|                     02                        |       .        |                    align: 2 0x77-0x77.7 (1)
0x70|                        08                     |        .       |                    offset: 8 0x78-0x78.7 (1)
    |                                               |                |                  [20]{}: instr 0x79-0x7a.7 (2)
0x70|                           21                  |         !      |                    local.set: 0x21 (valid) 0x79-0x79.7 (1)
0x70|                              09               |          .     |                    x: 9 0x7a-0x7a.7 (1)
    |                                               |                |                  [21]{}: instr 0x7b-0x7c.7 (2)
0x70|                                 20            |                |                    local.get: 0x20 (valid) 0x7b-0x7b.7 (1)
0x70|                                    01         |            .   |                    x: 1 0x7c-0x7c.7 (1)
    |                                               |                |                  [22]{}: instr 0x7d-0x7f.7 (3)
0x70|                                       2a      |             *  |                    f32.load: 0x2a (valid) 0x7d-0x7d.7 (1)
0x70|                                          02   |              . |                    align: 2 0x7e-0x7e.7 (1)
0x70|                                             0c|               .|                    offset: 12 0x7f-0x7f.7 (1)
    |                                               |                |                  [23]{}: instr 0x80-0x81.7 (2)
0x80|21                                             |!               |                    local.set: 0x21 (valid) 0x80-0x80.7 (1)
0x80|   0a                                          | .              |                    x: 10 0x81-0x81.7 (1)
    |                                               |                |                  [24]{}: instr 0x82-0x83.7 (2)
0x80|      20                                       |                |                    local.get: 0x20 (valid) 0x82-0x82.7 (1)
0x80|         02                                    |   .            |                    x: 2 0x83-0x83.7 (1)
    |                                               |                |                  [25]{}: instr 0x84-0x85.7 (2)
0x80|            20                                 |                |                    local.get: 0x20 (valid) 0x84-0x84.7 (1)
0x80|               03                              |     .          |                    x: 3 0x85-0x85.7 (1)
    |                                               |                |                  [26]{}: instr 0x86-0x87.7 (2)
0x80|                  20                           |                |                    local.get: 0x20 (valid) 0x86-0x86.7 (1)
0x80|                     07                        |       .        |                    x: 7 0x87-0x87.7 (1)
    |                                               |                |                  [27]{}: instr 0x88-0x88.7 (1)
0x80|                        92                     |        .       |                    f32.add: 0x92 (valid) 0x88-0x88.7 (1)
    |                                               |                |                  [28]{}: instr 0x89-0x8b.7 (3)
0x80|                           38                  |         8      |                    f32.store: 0x38 (valid) 0x89-0x89.7 (1)
0x80|                              02               |          .     |                    align: 2 0x8a-0x8a.7 (1)
0x80|                                 00            |           .    |                    offset: 0 0x8b-0x8b.7 (1)
    |                                               |                |                  [29]{}: instr 0x8c-0x8d.7 (2)
0x80|                                    20         |                |                    local.get: 0x20 (valid) 0x8c-0x8c.7 (1)
0x80|                                       02      |             .  |                    x: 2 0x8d-0x8d.7 (1)
    |                                               |                |                  [30]{}: instr 0x8e-0x8f.7 (2)
0x80|                                          20   |                |                    local.get: 0x20 (valid) 0x8e-0x8e.7 (1)
0x80|                                             04|               .|                    x: 4 0x8f-0x8f.7 (1)
    |                                               |                |                  [31]{}: instr 0x90-0x91.7 (2)
0x90|20                                             |                |                    local.get: 0x20 (valid) 0x90-0x90.7 (1)
0x90|   08                                          | .              |                    x: 8 0x91-0x91.7 (1)
    |                                               |                |                  [32]{}: instr 0x92-0x92.7 (1)
0x90|      92                                       |  .             |                    f32.add: 0x92 (valid) 0x92-0x92.7 (1)
    |                                               |                |                  [33]{}: instr 0x93-0x95.7 (3)
0x90|         38                                    |   8            |                    f32.store: 0x38 (valid) 0x93-0x93.7 (1)
0x90|            02                                 |    .           |                    align: 2 0x94-0x94.7 (1)
0x90|               04                              |     .          |                    offset: 4 0x95-0x95.7 (1)
    |                                               |                |                  [34]{}: instr 0x96-0x97.7 (2)
0x90|                  20                           |                |                    local.get: 0x20 (valid) 0x96-0x96.7 (1)
0x90|                     02                        |       .        |                    x: 2 0x97-0x97.7 (1)
    |                                               |                |                  [35]{}: instr 0x98-0x99.7 (2)
0x90|                        20                     |                |                    local.get: 0x20 (valid) 0x98-0x98.7 (1)
0x90|                           05                  |         .      |                    x: 5 0x99-0x99.7 (1)
    |                                               |                |                  [36]{}: instr 0x9a-0x9b.7 (2)
0x90|                              20               |                |                    local.get: 0x20 (valid) 0x9a-0x9a.7 (1)
0x90|                                 09            |           .    |                    x: 9 0x9b-0x9b.7 (1)
    |                                               |                |                  [37]{}: instr 0x9c-0x9c.7 (1)
0x90|                                    92         |            .   |                    f32.add: 0x92 (valid) 0x9c-0x9c.7 (1)
    |                                               |                |                  [38]{}: instr 0x9d-0x9f.7 (3)
0x90|                                       38      |             8  |                    f32.store: 0x38 (valid) 0x9d-0x9d.7 (1)
0x90|                                          02   |              . |                    align: 2 0x9e-0x9e.7 (1)
0x90|                                             08|               .|                    offset: 8 0x9f-0x9f.7 (1)
    |                                               |                |                  [39]{}: instr 0xa0-0xa1.7 (2)
0xa0|20                                             |                |                    local.get: 0x20 (valid) 0xa0-0xa0.7 (1)
0xa0|   02                                          | .              |                    x: 2 0xa1-0xa1.7 (1)
    |                                               |                |                  [40]{}: instr 0xa2-0xa3.7 (2)
0xa0|      20                                       |                |                    local.get: 0x20 (valid) 0xa2-0xa2.7 (1)
0xa0|         06                                    |   .            |                    x: 6 0xa3-0xa3.7 (1)
    |                                               |                |                  [41]{}: instr 0xa4-0xa5.7 (2)
0xa0|            20                                 |                |                    local.get: 0x20 (valid) 0xa4-0xa4.7 (1)
0xa0|               0a                              |     .          |                    x: 10 0xa5-0xa5.7 (1)
    |                                               |                |                  [42]{}: instr 0xa6-0xa6.7 (1)
0xa0|                  92                           |      .         |                    f32.add: 0x92 (valid) 0xa6-0xa6.7 (1)
    |                                               |                |                  [43]{}: instr 0xa7-0xa9.7 (3)
0xa0|                     38                        |       8        |                    f32.store: 0x38 (valid) 0xa7-0xa7.7 (1)
0xa0|                        02                     |        .       |                    align: 2 0xa8-0xa8.7 (1)
0xa0|                           0c                  |         .      |                    offset: 12 0xa9-0xa9.7 (1)
    |                                               |                |                  [44]{}: instr 0xaa-0xaa.7 (1)
0xa0|                              0b               |          .     |                    end: 0xb (valid) 0xaa-0xaa.7 (1)
    |                                               |                |          [1]{}: code 0xab-0xb2.7 (8)
0xa0|                                 07            |           .    |            size: 7 0xab-0xab.7 (1)
    |                                               |                |            code{}: 0xac-0xb2.7 (7)
    |                                               |                |              locals{}: 0xac-0xac.7 (1)
0xa0|                                    00         |            .   |                n: 0 0xac-0xac.7 (1)
    |                                               |                |                items[0:0]: 0xad-NA (0)
    |                                               |                |              expr{}: 0xad-0xb2.7 (6)
    |                                               |                |                instructions[0:3]: 0xad-0xb2.7 (6)
    |                                               |                |                  [0]{}: instr 0xad-0xae.7 (2)
0xa0|                                       20      |                |                    local.get: 0x20 (valid) 0xad-0xad.7 (1)
0xa0|                                          00   |              . |                    x: 0 0xae-0xae.7 (1)
    |                                               |                |                  [1]{}: instr 0xaf-0xb1.7 (3)
0xa0|                                             2a|               *|                    f32.load: 0x2a (valid) 0xaf-0xaf.7 (1)
0xb0|02                                             |.               |                    align: 2 0xb0-0xb0.7 (1)
0xb0|   00                                          | .              |                    offset: 0 0xb1-0xb1.7 (1)
    |                                               |                |                  [2]{}: instr 0xb2-0xb2.7 (1)
0xb0|      0b                                       |  .             |                    end: 0xb (valid) 0xb2-0xb2.7 (1)
    |                                               |                |    [5]{}: section 0xb3-0xea.7 (56)
0xb0|         0b                                    |   .            |      id: "data section" (11) 0xb3-0xb3.7 (1)
0xb0|            36                                 |    6           |      size: 54 0xb4-0xb4.7 (1)
    |                                               |                |      content{}: 0xb5-0xea.7 (54)
0xb0|               01                              |     .          |        n: 1 0xb5-0xb5.7 (1)
    |                                               |                |        items[0:1]: 0xb6-0xea.7 (53)
    |                                               |                |          [0]{}: data 0xb6-0xea.7 (53)
0xb0|                  00                           |      .         |            tag: 0 0xb6-0xb6.7 (1)
    |                                               |                |            instructions[0:2]: 0xb7-0xb9.7 (3)
    |                                               |                |              [0]{}: instr 0xb7-0xb8.7 (2)
0xb0|                     41                        |       A        |                i32.const: 0x41 (valid) 0xb7-0xb7.7 (1)
0xb0|                        00                     |        .       |                n: 0 0xb8-0xb8.7 (1)
    |                                               |                |              [1]{}: instr 0xb9-0xb9.7 (1)
0xb0|                           0b                  |         .      |                end: 0xb (valid) 0xb9-0xb9.7 (1)
0xb0|                              30               |          0     |            n: 48 0xba-0xba.7 (1)
0xb0|                                 01 00 00 00 01|           .....|            bytes: raw bits 0xbb-0xea.7 (48)
0xc0|00 00 80 01 00 00 00 01 00 00 80 01 00 00 00 01|................|
*   |until 0xea.7 (end) (48)                        |                |
