$ fq -d wasm dv float_exprs-50.wasm
    |00 01 02 03 04 05 06 07 08 09 0a 0b 0c 0d 0e 0f|0123456789abcdef|.{}: float_exprs-50.wasm (wasm) 0x0-0x39.7 (58)
0x00|00 61 73 6d                                    |.asm            |  magic: raw bits (valid) 0x0-0x3.7 (4)
0x00|            01 00 00 00                        |    ....        |  version: 1 0x4-0x7.7 (4)
    |                                               |                |  sections[0:4]: 0x8-0x39.7 (50)
    |                                               |                |    [0]{}: section 0x8-0xf.7 (8)
0x00|                        01                     |        .       |      id: "type section" (1) 0x8-0x8.7 (1)
0x00|                           06                  |         .      |      size: 6 0x9-0x9.7 (1)
    |                                               |                |      content{}: 0xa-0xf.7 (6)
0x00|                              01               |          .     |        n: 1 0xa-0xa.7 (1)
    |                                               |                |        items[0:1]: 0xb-0xf.7 (5)
    |                                               |                |          [0]{}: functype 0xb-0xf.7 (5)
0x00|                                 60            |           `    |            tag: 0x60 (valid) 0xb-0xb.7 (1)
    |                                               |                |            rt1{}: 0xc-0xd.7 (2)
0x00|                                    01         |            .   |              n: 1 0xc-0xc.7 (1)
    |                                               |                |              items[0:1]: 0xd-0xd.7 (1)
0x00|                                       7d      |             }  |                [0]: "f32" (125) valtype 0xd-0xd.7 (1)
    |                                               |                |            rt2{}: 0xe-0xf.7 (2)
0x00|                                          01   |              . |              n: 1 0xe-0xe.7 (1)
    |                                               |                |              items[0:1]: 0xf-0xf.7 (1)
0x00|                                             7d|               }|                [0]: "f32" (125) valtype 0xf-0xf.7 (1)
    |                                               |                |    [1]{}: section 0x10-0x13.7 (4)
0x10|03                                             |.               |      id: "function section" (3) 0x10-0x10.7 (1)
0x10|   02                                          | .              |      size: 2 0x11-0x11.7 (1)
    |                                               |                |      content{}: 0x12-0x13.7 (2)
0x10|      01                                       |  .             |        n: 1 0x12-0x12.7 (1)
    |                                               |                |        items[0:1]: 0x13-0x13.7 (1)
0x10|         00                                    |   .            |          [0]: 0 x 0x13-0x13.7 (1)
    |                                               |                |    [2]{}: section 0x14-0x25.7 (18)
0x10|            07                                 |    .           |      id: "export section" (7) 0x14-0x14.7 (1)
0x10|               10                              |     .          |      size: 16 0x15-0x15.7 (1)
    |                                               |                |      content{}: 0x16-0x25.7 (16)
0x10|                  01                           |      .         |        n: 1 0x16-0x16.7 (1)
    |                                               |                |        items[0:1]: 0x17-0x25.7 (15)
    |                                               |                |          [0]{}: export 0x17-0x25.7 (15)
    |                                               |                |            name{}: 0x17-0x23.7 (13)
0x10|                     0c                        |       .        |              len: 12 0x17-0x17.7 (1)
0x10|                        6c 6c 76 6d 5f 70 72 32|        llvm_pr2|              utf8bytes: "llvm_pr26746" 0x18-0x23.7 (12)
0x20|36 37 34 36                                    |6746            |
    |                                               |                |            expr{}: 0x24-0x25.7 (2)
0x20|            00                                 |    .           |              tag: "funcidx" (0x0) 0x24-0x24.7 (1)
0x20|               00                              |     .          |              x: 0 0x25-0x25.7 (1)
    |                                               |                |    [3]{}: section 0x26-0x39.7 (20)
0x20|                  0a                           |      .         |      id: "code section" (10) 0x26-0x26.7 (1)
0x20|                     12                        |       .        |      size: 18 0x27-0x27.7 (1)
    |                                               |                |      content{}: 0x28-0x39.7 (18)
0x20|                        01                     |        .       |        n: 1 0x28-0x28.7 (1)
    |                                               |                |        items[0:1]: 0x29-0x39.7 (17)
    |                                               |                |          [0]{}: code 0x29-0x39.7 (17)
0x20|                           10                  |         .      |            size: 16 0x29-0x29.7 (1)
    |                                               |                |            code{}: 0x2a-0x39.7 (16)
    |                                               |                |              locals{}: 0x2a-0x2a.7 (1)
0x20|                              00               |          .     |                n: 0 0x2a-0x2a.7 (1)
    |                                               |                |                items[0:0]: 0x2b-NA (0)
    |                                               |                |              expr{}: 0x2b-0x39.7 (15)
    |                                               |                |                instructions[0:6]: 0x2b-0x39.7 (15)
    |                                               |                |                  [0]{}: instr 0x2b-0x2f.7 (5)
0x20|                                 43            |           C    |                    f32.const: 0x43 (valid) 0x2b-0x2b.7 (1)
0x20|                                    00 00 00 00|            ....|                    z: 0 0x2c-0x2f.7 (4)
    |                                               |                |                  [1]{}: instr 0x30-0x34.7 (5)
0x30|43                                             |C               |                    f32.const: 0x43 (valid) 0x30-0x30.7 (1)
0x30|   00 00 00 80                                 | ....           |                    z: -0 0x31-0x34.7 (4)
    |                                               |                |                  [2]{}: instr 0x35-0x36.7 (2)
0x30|               20                              |                |                    local.get: 0x20 (valid) 0x35-0x35.7 (1)
0x30|                  00                           |      .         |                    x: 0 0x36-0x36.7 (1)
    |                                               |                |                  [3]{}: instr 0x37-0x37.7 (1)
0x30|                     93                        |       .        |                    f32.sub: 0x93 (valid) 0x37-0x37.7 (1)
    |                                               |                |                  [4]{}: instr 0x38-0x38.7 (1)
0x30|                        93                     |        .       |                    f32.sub: 0x93 (valid) 0x38-0x38.7 (1)
    |                                               |                |                  [5]{}: instr 0x39-0x39.7 (1)
0x30|                           0b|                 |         .|     |                    end: 0xb (valid) 0x39-0x39.7 (1)
