$ fq -d wasm dv float_exprs-79.wasm
     |00 01 02 03 04 05 06 07 08 09 0a 0b 0c 0d 0e 0f|0123456789abcdef|.{}: float_exprs-79.wasm (wasm) 0x0-0x183.7 (388)
0x000|00 61 73 6d                                    |.asm            |  magic: raw bits (valid) 0x0-0x3.7 (4)
0x000|            01 00 00 00                        |    ....        |  version: 1 0x4-0x7.7 (4)
     |                                               |                |  sections[0:4]: 0x8-0x183.7 (380)
     |                                               |                |    [0]{}: section 0x8-0x32.7 (43)
0x000|                        01                     |        .       |      id: "type section" (1) 0x8-0x8.7 (1)
0x000|                           29                  |         )      |      size: 41 0x9-0x9.7 (1)
     |                                               |                |      content{}: 0xa-0x32.7 (41)
0x000|                              06               |          .     |        n: 6 0xa-0xa.7 (1)
     |                                               |                |        items[0:6]: 0xb-0x32.7 (40)
     |                                               |                |          [0]{}: functype 0xb-0xf.7 (5)
0x000|                                 60            |           `    |            tag: 0x60 (valid) 0xb-0xb.7 (1)
     |                                               |                |            rt1{}: 0xc-0xd.7 (2)
0x000|                                    01         |            .   |              n: 1 0xc-0xc.7 (1)
     |                                               |                |              items[0:1]: 0xd-0xd.7 (1)
0x000|                                       7d      |             }  |                [0]: "f32" (125) valtype 0xd-0xd.7 (1)
     |                                               |                |            rt2{}: 0xe-0xf.7 (2)
0x000|                                          01   |              . |              n: 1 0xe-0xe.7 (1)
     |                                               |                |              items[0:1]: 0xf-0xf.7 (1)
0x000|                                             7d|               }|                [0]: "f32" (125) valtype 0xf-0xf.7 (1)
     |                                               |                |          [1]{}: functype 0x10-0x17.7 (8)
0x010|60                                             |`               |            tag: 0x60 (valid) 0x10-0x10.7 (1)
     |                                               |                |            rt1{}: 0x11-0x15.7 (5)
0x010|   04                                          | .              |              n: 4 0x11-0x11.7 (1)
     |                                               |                |              items[0:4]: 0x12-0x15.7 (4)
0x010|      7d                                       |  }             |                [0]: "f32" (125) valtype 0x12-0x12.7 (1)
0x010|         7d                                    |   }            |                [1]: "f32" (125) valtype 0x13-0x13.7 (1)
0x010|            7d                                 |    }           |                [2]: "f32" (125) valtype 0x14-0x14.7 (1)
0x010|               7d                              |     }          |                [3]: "f32" (125) valtype 0x15-0x15.7 (1)
     |                                               |                |            rt2{}: 0x16-0x17.7 (2)
0x010|                  01                           |      .         |              n: 1 0x16-0x16.7 (1)
     |                                               |                |              items[0:1]: 0x17-0x17.7 (1)
0x010|                     7d                        |       }        |                [0]: "f32" (125) valtype 0x17-0x17.7 (1)
     |                                               |                |          [2]{}: functype 0x18-0x1e.7 (7)
0x010|                        60                     |        `       |            tag: 0x60 (valid) 0x18-0x18.7 (1)
     |                                               |                |            rt1{}: 0x19-0x1c.7 (4)
0x010|                           03                  |         .      |              n: 3 0x19-0x19.7 (1)
     |                                               |                |              items[0:3]: 0x1a-0x1c.7 (3)
0x010|                              7d               |          }     |                [0]: "f32" (125) valtype 0x1a-0x1a.7 (1)
0x010|                                 7d            |           }    |                [1]: "f32" (125) valtype 0x1b-0x1b.7 (1)
0x010|                                    7d         |            }   |                [2]: "f32" (125) valtype 0x1c-0x1c.7 (1)
     |                                               |                |            rt2{}: 0x1d-0x1e.7 (2)
0x010|                                       01      |             .  |              n: 1 0x1d-0x1d.7 (1)
     |                                               |                |              items[0:1]: 0x1e-0x1e.7 (1)
0x010|                                          7d   |              } |                [0]: "f32" (125) valtype 0x1e-0x1e.7 (1)
     |                                               |                |          [3]{}: functype 0x1f-0x23.7 (5)
0x010|                                             60|               `|            tag: 0x60 (valid) 0x1f-0x1f.7 (1)
     |                                               |                |            rt1{}: 0x20-0x21.7 (2)
0x020|01                                             |.               |              n: 1 0x20-0x20.7 (1)
     |                                               |                |              items[0:1]: 0x21-0x21.7 (1)
0x020|   7c                                          | |              |                [0]: "f64" (124) valtype 0x21-0x21.7 (1)
     |                                               |                |            rt2{}: 0x22-0x23.7 (2)
0x020|      01                                       |  .             |              n: 1 0x22-0x22.7 (1)
     |                                               |                |              items[0:1]: 0x23-0x23.7 (1)
0x020|         7c                                    |   |            |                [0]: "f64" (124) valtype 0x23-0x23.7 (1)
     |                                               |                |          [4]{}: functype 0x24-0x2b.7 (8)
0x020|            60                                 |    `           |            tag: 0x60 (valid) 0x24-0x24.7 (1)
     |                                               |                |            rt1{}: 0x25-0x29.7 (5)
0x020|               04                              |     .          |              n: 4 0x25-0x25.7 (1)
     |                                               |                |              items[0:4]: 0x26-0x29.7 (4)
0x020|                  7c                           |      |         |                [0]: "f64" (124) valtype 0x26-0x26.7 (1)
0x020|                     7c                        |       |        |                [1]: "f64" (124) valtype 0x27-0x27.7 (1)
0x020|                        7c                     |        |       |                [2]: "f64" (124) valtype 0x28-0x28.7 (1)
0x020|                           7c                  |         |      |                [3]: "f64" (124) valtype 0x29-0x29.7 (1)
     |                                               |                |            rt2{}: 0x2a-0x2b.7 (2)
0x020|                              01               |          .     |              n: 1 0x2a-0x2a.7 (1)
     |                                               |                |              items[0:1]: 0x2b-0x2b.7 (1)
0x020|                                 7c            |           |    |                [0]: "f64" (124) valtype 0x2b-0x2b.7 (1)
     |                                               |                |          [5]{}: functype 0x2c-0x32.7 (7)
0x020|                                    60         |            `   |            tag: 0x60 (valid) 0x2c-0x2c.7 (1)
     |                                               |                |            rt1{}: 0x2d-0x30.7 (4)
0x020|                                       03      |             .  |              n: 3 0x2d-0x2d.7 (1)
     |                                               |                |              items[0:3]: 0x2e-0x30.7 (3)
0x020|                                          7c   |              | |                [0]: "f64" (124) valtype 0x2e-0x2e.7 (1)
0x020|                                             7c|               ||                [1]: "f64" (124) valtype 0x2f-0x2f.7 (1)
0x030|7c                                             ||               |                [2]: "f64" (124) valtype 0x30-0x30.7 (1)
     |                                               |                |            rt2{}: 0x31-0x32.7 (2)
0x030|   01                                          | .              |              n: 1 0x31-0x31.7 (1)
     |                                               |                |              items[0:1]: 0x32-0x32.7 (1)
0x030|      7c                                       |  |             |                [0]: "f64" (124) valtype 0x32-0x32.7 (1)
     |                                               |                |    [1]{}: section 0x33-0x3f.7 (13)
0x030|         03                                    |   .            |      id: "function section" (3) 0x33-0x33.7 (1)
0x030|            0b                                 |    .           |      size: 11 0x34-0x34.7 (1)
     |                                               |                |      content{}: 0x35-0x3f.7 (11)
0x030|               0a                              |     .          |        n: 10 0x35-0x35.7 (1)
     |                                               |                |        items[0:10]: 0x36-0x3f.7 (10)
0x030|                  00                           |      .         |          [0]: 0 x 0x36-0x36.7 (1)
0x030|                     01                        |       .        |          [1]: 1 x 0x37-0x37.7 (1)
0x030|                        02                     |        .       |          [2]: 2 x 0x38-0x38.7 (1)
0x030|                           02                  |         .      |          [3]: 2 x 0x39-0x39.7 (1)
0x030|                              01               |          .     |          [4]: 1 x 0x3a-0x3a.7 (1)
0x030|                                 03            |           .    |          [5]: 3 x 0x3b-0x3b.7 (1)
0x030|                                    04         |            .   |          [6]: 4 x 0x3c-0x3c.7 (1)
0x030|                                       05      |             .  |          [7]: 5 x 0x3d-0x3d.7 (1)
0x030|                                          05   |              . |          [8]: 5 x 0x3e-0x3e.7 (1)
0x030|                                             04|               .|          [9]: 4 x 0x3f-0x3f.7 (1)
     |                                               |                |    [2]{}: section 0x40-0xf7.7 (184)
0x040|07                                             |.               |      id: "export section" (7) 0x40-0x40.7 (1)
0x040|   b5 01                                       | ..             |      size: 181 0x41-0x42.7 (2)
     |                                               |                |      content{}: 0x43-0xf7.7 (181)
0x040|         0a                                    |   .            |        n: 10 0x43-0x43.7 (1)
     |                                               |                |        items[0:10]: 0x44-0xf7.7 (180)
     |                                               |                |          [0]{}: export 0x44-0x4e.7 (11)
     |                                               |                |            name{}: 0x44-0x4c.7 (9)
0x040|            08                                 |    .           |              len: 8 0x44-0x44.7 (1)
0x040|               66 33 32 2e 73 71 72 74         |     f32.sqrt   |              utf8bytes: "f32.sqrt" 0x45-0x4c.7 (8)
     |                                               |                |            expr{}: 0x4d-0x4e.7 (2)
0x040|                                       00      |             .  |              tag: "funcidx" (0x0) 0x4d-0x4d.7 (1)
0x040|                                          00   |              . |              x: 0 0x4e-0x4e.7 (1)
     |                                               |                |          [1]{}: export 0x4f-0x60.7 (18)
     |                                               |                |            name{}: 0x4f-0x5e.7 (16)
0x040|                                             0f|               .|              len: 15 0x4f-0x4f.7 (1)
0x050|66 33 32 2e 78 6b 63 64 5f 73 71 72 74 5f 32   |f32.xkcd_sqrt_2 |              utf8bytes: "f32.xkcd_sqrt_2" 0x50-0x5e.7 (15)
     |                                               |                |            expr{}: 0x5f-0x60.7 (2)
0x050|                                             00|               .|              tag: "funcidx" (0x0) 0x5f-0x5f.7 (1)
0x060|01                                             |.               |              x: 1 0x60-0x60.7 (1)
     |                                               |                |          [2]{}: export 0x61-0x72.7 (18)
     |                                               |                |            name{}: 0x61-0x70.7 (16)
0x060|   0f                                          | .              |              len: 15 0x61-0x61.7 (1)
0x060|      66 33 32 2e 78 6b 63 64 5f 73 71 72 74 5f|  f32.xkcd_sqrt_|              utf8bytes: "f32.xkcd_sqrt_3" 0x62-0x70.7 (15)
0x070|33                                             |3               |
     |                                               |                |            expr{}: 0x71-0x72.7 (2)
0x070|   00                                          | .              |              tag: "funcidx" (0x0) 0x71-0x71.7 (1)
0x070|      02                                       |  .             |              x: 2 0x72-0x72.7 (1)
     |                                               |                |          [3]{}: export 0x73-0x84.7 (18)
     |                                               |                |            name{}: 0x73-0x82.7 (16)
0x070|         0f                                    |   .            |              len: 15 0x73-0x73.7 (1)
0x070|            66 33 32 2e 78 6b 63 64 5f 73 71 72|    f32.xkcd_sqr|              utf8bytes: "f32.xkcd_sqrt_5" 0x74-0x82.7 (15)
0x080|74 5f 35                                       |t_5             |
     |                                               |                |            expr{}: 0x83-0x84.7 (2)
0x080|         00                                    |   .            |              tag: "funcidx" (0x0) 0x83-0x83.7 (1)
0x080|            03                                 |    .           |              x: 3 0x84-0x84.7 (1)
     |                                               |                |          [4]{}: export 0x85-0x9d.7 (25)
     |                                               |                |            name{}: 0x85-0x9b.7 (23)
0x080|               16                              |     .          |              len: 22 0x85-0x85.7 (1)
0x080|                  66 33 32 2e 78 6b 63 64 5f 62|      f32.xkcd_b|              utf8bytes: "f32.xkcd_better_sqrt_5" 0x86-0x9b.7 (22)
0x090|65 74 74 65 72 5f 73 71 72 74 5f 35            |etter_sqrt_5    |
     |                                               |                |            expr{}: 0x9c-0x9d.7 (2)
0x090|                                    00         |            .   |              tag: "funcidx" (0x0) 0x9c-0x9c.7 (1)
0x090|                                       04      |             .  |              x: 4 0x9d-0x9d.7 (1)
     |                                               |                |          [5]{}: export 0x9e-0xa8.7 (11)
     |                                               |                |            name{}: 0x9e-0xa6.7 (9)
0x090|                                          08   |              . |              len: 8 0x9e-0x9e.7 (1)
0x090|                                             66|               f|              utf8bytes: "f64.sqrt" 0x9f-0xa6.7 (8)
0x0a0|36 34 2e 73 71 72 74                           |64.sqrt         |
     |                                               |                |            expr{}: 0xa7-0xa8.7 (2)
0x0a0|                     00                        |       .        |              tag: "funcidx" (0x0) 0xa7-0xa7.7 (1)
0x0a0|                        05                     |        .       |              x: 5 0xa8-0xa8.7 (1)
     |                                               |                |          [6]{}: export 0xa9-0xba.7 (18)
     |                                               |                |            name{}: 0xa9-0xb8.7 (16)
0x0a0|                           0f                  |         .      |              len: 15 0xa9-0xa9.7 (1)
0x0a0|                              66 36 34 2e 78 6b|          f64.xk|              utf8bytes: "f64.xkcd_sqrt_2" 0xaa-0xb8.7 (15)
0x0b0|63 64 5f 73 71 72 74 5f 32                     |cd_sqrt_2       |
     |                                               |                |            expr{}: 0xb9-0xba.7 (2)
0x0b0|                           00                  |         .      |              tag: "funcidx" (0x0) 0xb9-0xb9.7 (1)
0x0b0|                              06               |          .     |              x: 6 0xba-0xba.7 (1)
     |                                               |                |          [7]{}: export 0xbb-0xcc.7 (18)
     |                                               |                |            name{}: 0xbb-0xca.7 (16)
0x0b0|                                 0f            |           .    |              len: 15 0xbb-0xbb.7 (1)
0x0b0|                                    66 36 34 2e|            f64.|              utf8bytes: "f64.xkcd_sqrt_3" 0xbc-0xca.7 (15)
0x0c0|78 6b 63 64 5f 73 71 72 74 5f 33               |xkcd_sqrt_3     |
     |                                               |                |            expr{}: 0xcb-0xcc.7 (2)
0x0c0|                                 00            |           .    |              tag: "funcidx" (0x0) 0xcb-0xcb.7 (1)
0x0c0|                                    07         |            .   |              x: 7 0xcc-0xcc.7 (1)
     |                                               |                |          [8]{}: export 0xcd-0xde.7 (18)
     |                                               |                |            name{}: 0xcd-0xdc.7 (16)
0x0c0|                                       0f      |             .  |              len: 15 0xcd-0xcd.7 (1)
0x0c0|                                          66 36|              f6|              utf8bytes: "f64.xkcd_sqrt_5" 0xce-0xdc.7 (15)
0x0d0|34 2e 78 6b 63 64 5f 73 71 72 74 5f 35         |4.xkcd_sqrt_5   |
     |                                               |                |            expr{}: 0xdd-0xde.7 (2)
0x0d0|                                       00      |             .  |              tag: "funcidx" (0x0) 0xdd-0xdd.7 (1)
0x0d0|                                          08   |              . |              x: 8 0xde-0xde.7 (1)
     |                                               |                |          [9]{}: export 0xdf-0xf7.7 (25)
     |                                               |                |            name{}: 0xdf-0xf5.7 (23)
0x0d0|                                             16|               .|              len: 22 0xdf-0xdf.7 (1)
0x0e0|66 36 34 2e 78 6b 63 64 5f 62 65 74 74 65 72 5f|f64.xkcd_better_|              utf8bytes: "f64.xkcd_better_sqrt_5" 0xe0-0xf5.7 (22)
0x0f0|73 71 72 74 5f 35                              |sqrt_5          |
     |                                               |                |            expr{}: 0xf6-0xf7.7 (2)
0x0f0|                  00                           |      .         |              tag: "funcidx" (0x0) 0xf6-0xf6.7 (1)
0x0f0|                     09                        |       .        |              x: 9 0xf7-0xf7.7 (1)
     |                                               |                |    [3]{}: section 0xf8-0x183.7 (140)
0x0f0|                        0a                     |        .       |      id: "code section" (10) 0xf8-0xf8.7 (1)
0x0f0|                           89 01               |         ..     |      size: 137 0xf9-0xfa.7 (2)
     |                                               |                |      content{}: 0xfb-0x183.7 (137)
0x0f0|                                 0a            |           .    |        n: 10 0xfb-0xfb.7 (1)
     |                                               |                |        items[0:10]: 0xfc-0x183.7 (136)
     |                                               |                |          [0]{}: code 0xfc-0x101.7 (6)
0x0f0|                                    05         |            .   |            size: 5 0xfc-0xfc.7 (1)
     |                                               |                |            code{}: 0xfd-0x101.7 (5)
     |                                               |                |              locals{}: 0xfd-0xfd.7 (1)
0x0f0|                                       00      |             .  |                n: 0 0xfd-0xfd.7 (1)
     |                                               |                |                items[0:0]: 0xfe-NA (0)
     |                                               |                |              expr{}: 0xfe-0x101.7 (4)
     |                                               |                |                instructions[0:3]: 0xfe-0x101.7 (4)
     |                                               |                |                  [0]{}: instr 0xfe-0xff.7 (2)
0x0f0|                                          20   |                |                    local.get: 0x20 (valid) 0xfe-0xfe.7 (1)
0x0f0|                                             00|               .|                    x: 0 0xff-0xff.7 (1)
     |                                               |                |                  [1]{}: instr 0x100-0x100.7 (1)
0x100|91                                             |.               |                    f32.sqrt: 0x91 (valid) 0x100-0x100.7 (1)
     |                                               |                |                  [2]{}: instr 0x101-0x101.7 (1)
0x100|   0b                                          | .              |                    end: 0xb (valid) 0x101-0x101.7 (1)
     |                                               |                |          [1]{}: code 0x102-0x112.7 (17)
0x100|      10                                       |  .             |            size: 16 0x102-0x102.7 (1)
     |                                               |                |            code{}: 0x103-0x112.7 (16)
     |                                               |                |              locals{}: 0x103-0x103.7 (1)
0x100|         00                                    |   .            |                n: 0 0x103-0x103.7 (1)
     |                                               |                |                items[0:0]: 0x104-NA (0)
     |                                               |                |              expr{}: 0x104-0x112.7 (15)
     |                                               |                |                instructions[0:10]: 0x104-0x112.7 (15)
     |                                               |                |                  [0]{}: instr 0x104-0x105.7 (2)
0x100|            20                                 |                |                    local.get: 0x20 (valid) 0x104-0x104.7 (1)
0x100|               00                              |     .          |                    x: 0 0x105-0x105.7 (1)
     |                                               |                |                  [1]{}: instr 0x106-0x107.7 (2)
0x100|                  20                           |                |                    local.get: 0x20 (valid) 0x106-0x106.7 (1)
0x100|                     01                        |       .        |                    x: 1 0x107-0x107.7 (1)
     |                                               |                |                  [2]{}: instr 0x108-0x108.7 (1)
0x100|                        95                     |        .       |                    f32.div: 0x95 (valid) 0x108-0x108.7 (1)
     |                                               |                |                  [3]{}: instr 0x109-0x10a.7 (2)
0x100|                           20                  |                |                    local.get: 0x20 (valid) 0x109-0x109.7 (1)
0x100|                              02               |          .     |                    x: 2 0x10a-0x10a.7 (1)
     |                                               |                |                  [4]{}: instr 0x10b-0x10c.7 (2)
0x100|                                 20            |                |                    local.get: 0x20 (valid) 0x10b-0x10b.7 (1)
0x100|                                    03         |            .   |                    x: 3 0x10c-0x10c.7 (1)
     |                                               |                |                  [5]{}: instr 0x10d-0x10e.7 (2)
0x100|                                       20      |                |                    local.get: 0x20 (valid) 0x10d-0x10d.7 (1)
0x100|                                          02   |              . |                    x: 2 0x10e-0x10e.7 (1)
     |                                               |                |                  [6]{}: instr 0x10f-0x10f.7 (1)
0x100|                                             93|               .|                    f32.sub: 0x93 (valid) 0x10f-0x10f.7 (1)
     |                                               |                |                  [7]{}: instr 0x110-0x110.7 (1)
0x110|95                                             |.               |                    f32.div: 0x95 (valid) 0x110-0x110.7 (1)
     |                                               |                |                  [8]{}: instr 0x111-0x111.7 (1)
0x110|   92                                          | .              |                    f32.add: 0x92 (valid) 0x111-0x111.7 (1)
     |                                               |                |                  [9]{}: instr 0x112-0x112.7 (1)
0x110|      0b                                       |  .             |                    end: 0xb (valid) 0x112-0x112.7 (1)
     |                                               |                |          [2]{}: code 0x113-0x11d.7 (11)
0x110|         0a                                    |   .            |            size: 10 0x113-0x113.7 (1)
     |                                               |                |            code{}: 0x114-0x11d.7 (10)
     |                                               |                |              locals{}: 0x114-0x114.7 (1)
0x110|            00                                 |    .           |                n: 0 0x114-0x114.7 (1)
     |                                               |                |                items[0:0]: 0x115-NA (0)
     |                                               |                |              expr{}: 0x115-0x11d.7 (9)
     |                                               |                |                instructions[0:6]: 0x115-0x11d.7 (9)
     |                                               |                |                  [0]{}: instr 0x115-0x116.7 (2)
0x110|               20                              |                |                    local.get: 0x20 (valid) 0x115-0x115.7 (1)
0x110|                  00                           |      .         |                    x: 0 0x116-0x116.7 (1)
     |                                               |                |                  [1]{}: instr 0x117-0x118.7 (2)
0x110|                     20                        |                |                    local.get: 0x20 (valid) 0x117-0x117.7 (1)
0x110|                        01                     |        .       |                    x: 1 0x118-0x118.7 (1)
     |                                               |                |                  [2]{}: instr 0x119-0x119.7 (1)
0x110|                           94                  |         .      |                    f32.mul: 0x94 (valid) 0x119-0x119.7 (1)
     |                                               |                |                  [3]{}: instr 0x11a-0x11b.7 (2)
0x110|                              20               |                |                    local.get: 0x20 (valid) 0x11a-0x11a.7 (1)
0x110|                                 02            |           .    |                    x: 2 0x11b-0x11b.7 (1)
     |                                               |                |                  [4]{}: instr 0x11c-0x11c.7 (1)
0x110|                                    95         |            .   |                    f32.div: 0x95 (valid) 0x11c-0x11c.7 (1)
     |                                               |                |                  [5]{}: instr 0x11d-0x11d.7 (1)
0x110|                                       0b      |             .  |                    end: 0xb (valid) 0x11d-0x11d.7 (1)
     |                                               |                |          [3]{}: code 0x11e-0x12b.7 (14)
0x110|                                          0d   |              . |            size: 13 0x11e-0x11e.7 (1)
     |                                               |                |            code{}: 0x11f-0x12b.7 (13)
     |                                               |                |              locals{}: 0x11f-0x11f.7 (1)
0x110|                                             00|               .|                n: 0 0x11f-0x11f.7 (1)
     |                                               |                |                items[0:0]: 0x120-NA (0)
     |                                               |                |              expr{}: 0x120-0x12b.7 (12)
     |                                               |                |                instructions[0:8]: 0x120-0x12b.7 (12)
     |                                               |                |                  [0]{}: instr 0x120-0x121.7 (2)
0x120|20                                             |                |                    local.get: 0x20 (valid) 0x120-0x120.7 (1)
0x120|   00                                          | .              |                    x: 0 0x121-0x121.7 (1)
     |                                               |                |                  [1]{}: instr 0x122-0x123.7 (2)
0x120|      20                                       |                |                    local.get: 0x20 (valid) 0x122-0x122.7 (1)
0x120|         01                                    |   .            |                    x: 1 0x123-0x123.7 (1)
     |                                               |                |                  [2]{}: instr 0x124-0x124.7 (1)
0x120|            95                                 |    .           |                    f32.div: 0x95 (valid) 0x124-0x124.7 (1)
     |                                               |                |                  [3]{}: instr 0x125-0x126.7 (2)
0x120|               20                              |                |                    local.get: 0x20 (valid) 0x125-0x125.7 (1)
0x120|                  02                           |      .         |                    x: 2 0x126-0x126.7 (1)
     |                                               |                |                  [4]{}: instr 0x127-0x128.7 (2)
0x120|                     20                        |                |                    local.get: 0x20 (valid) 0x127-0x127.7 (1)
0x120|                        00                     |        .       |                    x: 0 0x128-0x128.7 (1)
     |                                               |                |                  [5]{}: instr 0x129-0x129.7 (1)
0x120|                           95                  |         .      |                    f32.div: 0x95 (valid) 0x129-0x129.7 (1)
     |                                               |                |                  [6]{}: instr 0x12a-0x12a.7 (1)
0x120|                              92               |          .     |                    f32.add: 0x92 (valid) 0x12a-0x12a.7 (1)
     |                                               |                |                  [7]{}: instr 0x12b-0x12b.7 (1)
0x120|                                 0b            |           .    |                    end: 0xb (valid) 0x12b-0x12b.7 (1)
     |                                               |                |          [4]{}: code 0x12c-0x13f.7 (20)
0x120|                                    13         |            .   |            size: 19 0x12c-0x12c.7 (1)
     |                                               |                |            code{}: 0x12d-0x13f.7 (19)
     |                                               |                |              locals{}: 0x12d-0x12d.7 (1)
0x120|                                       00      |             .  |                n: 0 0x12d-0x12d.7 (1)
     |                                               |                |                items[0:0]: 0x12e-NA (0)
     |                                               |                |              expr{}: 0x12e-0x13f.7 (18)
     |                                               |                |                instructions[0:12]: 0x12e-0x13f.7 (18)
     |                                               |                |                  [0]{}: instr 0x12e-0x12f.7 (2)
0x120|                                          20   |                |                    local.get: 0x20 (valid) 0x12e-0x12e.7 (1)
0x120|                                             00|               .|                    x: 0 0x12f-0x12f.7 (1)
     |                                               |                |                  [1]{}: instr 0x130-0x131.7 (2)
0x130|20                                             |                |                    local.get: 0x20 (valid) 0x130-0x130.7 (1)
0x130|   01                                          | .              |                    x: 1 0x131-0x131.7 (1)
     |                                               |                |                  [2]{}: instr 0x132-0x133.7 (2)
0x130|      20                                       |                |                    local.get: 0x20 (valid) 0x132-0x132.7 (1)
0x130|         02                                    |   .            |                    x: 2 0x133-0x133.7 (1)
     |                                               |                |                  [3]{}: instr 0x134-0x134.7 (1)
0x130|            94                                 |    .           |                    f32.mul: 0x94 (valid) 0x134-0x134.7 (1)
     |                                               |                |                  [4]{}: instr 0x135-0x135.7 (1)
0x130|               92                              |     .          |                    f32.add: 0x92 (valid) 0x135-0x135.7 (1)
     |                                               |                |                  [5]{}: instr 0x136-0x137.7 (2)
0x130|                  20                           |                |                    local.get: 0x20 (valid) 0x136-0x136.7 (1)
0x130|                     03                        |       .        |                    x: 3 0x137-0x137.7 (1)
     |                                               |                |                  [6]{}: instr 0x138-0x139.7 (2)
0x130|                        20                     |                |                    local.get: 0x20 (valid) 0x138-0x138.7 (1)
0x130|                           01                  |         .      |                    x: 1 0x139-0x139.7 (1)
     |                                               |                |                  [7]{}: instr 0x13a-0x13b.7 (2)
0x130|                              20               |                |                    local.get: 0x20 (valid) 0x13a-0x13a.7 (1)
0x130|                                 02            |           .    |                    x: 2 0x13b-0x13b.7 (1)
     |                                               |                |                  [8]{}: instr 0x13c-0x13c.7 (1)
0x130|                                    94         |            .   |                    f32.mul: 0x94 (valid) 0x13c-0x13c.7 (1)
     |                                               |                |                  [9]{}: instr 0x13d-0x13d.7 (1)
0x130|                                       93      |             .  |                    f32.sub: 0x93 (valid) 0x13d-0x13d.7 (1)
     |                                               |                |                  [10]{}: instr 0x13e-0x13e.7 (1)
0x130|                                          95   |              . |                    f32.div: 0x95 (valid) 0x13e-0x13e.7 (1)
     |                                               |                |                  [11]{}: instr 0x13f-0x13f.7 (1)
0x130|                                             0b|               .|                    end: 0xb (valid) 0x13f-0x13f.7 (1)
     |                                               |                |          [5]{}: code 0x140-0x145.7 (6)
0x140|05                                             |.               |            size: 5 0x140-0x140.7 (1)
     |                                               |                |            code{}: 0x141-0x145.7 (5)
     |                                               |                |              locals{}: 0x141-0x141.7 (1)
0x140|   00                                          | .              |                n: 0 0x141-0x141.7 (1)
     |                                               |                |                items[0:0]: 0x142-NA (0)
     |                                               |                |              expr{}: 0x142-0x145.7 (4)
     |                                               |                |                instructions[0:3]: 0x142-0x145.7 (4)
     |                                               |                |                  [0]{}: instr 0x142-0x143.7 (2)
0x140|      20                                       |                |                    local.get: 0x20 (valid) 0x142-0x142.7 (1)
0x140|         00                                    |   .            |                    x: 0 0x143-0x143.7 (1)
     |                                               |                |                  [1]{}: instr 0x144-0x144.7 (1)
0x140|            9f                                 |    .           |                    f64.sqrt: 0x9f (valid) 0x144-0x144.7 (1)
     |                                               |                |                  [2]{}: instr 0x145-0x145.7 (1)
0x140|               0b                              |     .          |                    end: 0xb (valid) 0x145-0x145.7 (1)
     |                                               |                |          [6]{}: code 0x146-0x156.7 (17)
0x140|                  10                           |      .         |            size: 16 0x146-0x146.7 (1)
     |                                               |                |            code{}: 0x147-0x156.7 (16)
     |                                               |                |              locals{}: 0x147-0x147.7 (1)
0x140|                     00                        |       .        |                n: 0 0x147-0x147.7 (1)
     |                                               |                |                items[0:0]: 0x148-NA (0)
     |                                               |                |              expr{}: 0x148-0x156.7 (15)
     |                                               |                |                instructions[0:10]: 0x148-0x156.7 (15)
     |                                               |                |                  [0]{}: instr 0x148-0x149.7 (2)
0x140|                        20                     |                |                    local.get: 0x20 (valid) 0x148-0x148.7 (1)
0x140|                           00                  |         .      |                    x: 0 0x149-0x149.7 (1)
     |                                               |                |                  [1]{}: instr 0x14a-0x14b.7 (2)
0x140|                              20               |                |                    local.get: 0x20 (valid) 0x14a-0x14a.7 (1)
0x140|                                 01            |           .    |                    x: 1 0x14b-0x14b.7 (1)
     |                                               |                |                  [2]{}: instr 0x14c-0x14c.7 (1)
0x140|                                    a3         |            .   |                    f64.div: 0xa3 (valid) 0x14c-0x14c.7 (1)
     |                                               |                |                  [3]{}: instr 0x14d-0x14e.7 (2)
0x140|                                       20      |                |                    local.get: 0x20 (valid) 0x14d-0x14d.7 (1)
0x140|                                          02   |              . |                    x: 2 0x14e-0x14e.7 (1)
     |                                               |                |                  [4]{}: instr 0x14f-0x150.7 (2)
0x140|                                             20|                |                    local.get: 0x20 (valid) 0x14f-0x14f.7 (1)
0x150|03                                             |.               |                    x: 3 0x150-0x150.7 (1)
     |                                               |                |                  [5]{}: instr 0x151-0x152.7 (2)
0x150|   20                                          |                |                    local.get: 0x20 (valid) 0x151-0x151.7 (1)
0x150|      02                                       |  .             |                    x: 2 0x152-0x152.7 (1)
     |                                               |                |                  [6]{}: instr 0x153-0x153.7 (1)
0x150|         a1                                    |   .            |                    f64.sub: 0xa1 (valid) 0x153-0x153.7 (1)
     |                                               |                |                  [7]{}: instr 0x154-0x154.7 (1)
0x150|            a3                                 |    .           |                    f64.div: 0xa3 (valid) 0x154-0x154.7 (1)
     |                                               |                |                  [8]{}: instr 0x155-0x155.7 (1)
0x150|               a0                              |     .          |                    f64.add: 0xa0 (valid) 0x155-0x155.7 (1)
     |                                               |                |                  [9]{}: instr 0x156-0x156.7 (1)
0x150|                  0b                           |      .         |                    end: 0xb (valid) 0x156-0x156.7 (1)
     |                                               |                |          [7]{}: code 0x157-0x161.7 (11)
0x150|                     0a                        |       .        |            size: 10 0x157-0x157.7 (1)
     |                                               |                |            code{}: 0x158-0x161.7 (10)
     |                                               |                |              locals{}: 0x158-0x158.7 (1)
0x150|                        00                     |        .       |                n: 0 0x158-0x158.7 (1)
     |                                               |                |                items[0:0]: 0x159-NA (0)
     |                                               |                |              expr{}: 0x159-0x161.7 (9)
     |                                               |                |                instructions[0:6]: 0x159-0x161.7 (9)
     |                                               |                |                  [0]{}: instr 0x159-0x15a.7 (2)
0x150|                           20                  |                |                    local.get: 0x20 (valid) 0x159-0x159.7 (1)
0x150|                              00               |          .     |                    x: 0 0x15a-0x15a.7 (1)
     |                                               |                |                  [1]{}: instr 0x15b-0x15c.7 (2)
0x150|                                 20            |                |                    local.get: 0x20 (valid) 0x15b-0x15b.7 (1)
0x150|                                    01         |            .   |                    x: 1 0x15c-0x15c.7 (1)
     |                                               |                |                  [2]{}: instr 0x15d-0x15d.7 (1)
0x150|                                       a2      |             .  |                    f64.mul: 0xa2 (valid) 0x15d-0x15d.7 (1)
     |                                               |                |                  [3]{}: instr 0x15e-0x15f.7 (2)
0x150|                                          20   |                |                    local.get: 0x20 (valid) 0x15e-0x15e.7 (1)
0x150|                                             02|               .|                    x: 2 0x15f-0x15f.7 (1)
     |                                               |                |                  [4]{}: instr 0x160-0x160.7 (1)
0x160|a3                                             |.               |                    f64.div: 0xa3 (valid) 0x160-0x160.7 (1)
     |                                               |                |                  [5]{}: instr 0x161-0x161.7 (1)
0x160|   0b                                          | .              |                    end: 0xb (valid) 0x161-0x161.7 (1)
     |                                               |                |          [8]{}: code 0x162-0x16f.7 (14)
0x160|      0d                                       |  .             |            size: 13 0x162-0x162.7 (1)
     |                                               |                |            code{}: 0x163-0x16f.7 (13)
     |                                               |                |              locals{}: 0x163-0x163.7 (1)
0x160|         00                                    |   .            |                n: 0 0x163-0x163.7 (1)
     |                                               |                |                items[0:0]: 0x164-NA (0)
     |                                               |                |              expr{}: 0x164-0x16f.7 (12)
     |                                               |                |                instructions[0:8]: 0x164-0x16f.7 (12)
     |                                               |                |                  [0]{}: instr 0x164-0x165.7 (2)
0x160|            20                                 |                |                    local.get: 0x20 (valid) 0x164-0x164.7 (1)
0x160|               00                              |     .          |                    x: 0 0x165-0x165.7 (1)
     |                                               |                |                  [1]{}: instr 0x166-0x167.7 (2)
0x160|                  20                           |                |                    local.get: 0x20 (valid) 0x166-0x166.7 (1)
0x160|                     01                        |       .        |                    x: 1 0x167-0x167.7 (1)
     |                                               |                |                  [2]{}: instr 0x168-0x168.7 (1)
0x160|                        a3                     |        .       |                    f64.div: 0xa3 (valid) 0x168-0x168.7 (1)
     |                                               |                |                  [3]{}: instr 0x169-0x16a.7 (2)
0x160|                           20                  |                |                    local.get: 0x20 (valid) 0x169-0x169.7 (1)
0x160|                              02               |          .     |                    x: 2 0x16a-0x16a.7 (1)
     |                                               |                |                  [4]{}: instr 0x16b-0x16c.7 (2)
0x160|                                 20            |                |                    local.get: 0x20 (valid) 0x16b-0x16b.7 (1)
0x160|                                    00         |            .   |                    x: 0 0x16c-0x16c.7 (1)
     |                                               |                |                  [5]{}: instr 0x16d-0x16d.7 (1)
0x160|                                       a3      |             .  |                    f64.div: 0xa3 (valid) 0x16d-0x16d.7 (1)
     |                                               |                |                  [6]{}: instr 0x16e-0x16e.7 (1)
0x160|                                          a0   |              . |                    f64.add: 0xa0 (valid) 0x16e-0x16e.7 (1)
     |                                               |                |                  [7]{}: instr 0x16f-0x16f.7 (1)
0x160|                                             0b|               .|                    end: 0xb (valid) 0x16f-0x16f.7 (1)
     |                                               |                |          [9]{}: code 0x170-0x183.7 (20)
0x170|13                                             |.               |            size: 19 0x170-0x170.7 (1)
     |                                               |                |            code{}: 0x171-0x183.7 (19)
     |                                               |                |              locals{}: 0x171-0x171.7 (1)
0x170|   00                                          | .              |                n: 0 0x171-0x171.7 (1)
     |                                               |                |                items[0:0]: 0x172-NA (0)
     |                                               |                |              expr{}: 0x172-0x183.7 (18)
     |                                               |                |                instructions[0:12]: 0x172-0x183.7 (18)
     |                                               |                |                  [0]{}: instr 0x172-0x173.7 (2)
0x170|      20                                       |                |                    local.get: 0x20 (valid) 0x172-0x172.7 (1)
0x170|         00                                    |   .            |                    x: 0 0x173-0x173.7 (1)
     |                                               |                |                  [1]{}: instr 0x174-0x175.7 (2)
0x170|            20                                 |                |                    local.get: 0x20 (valid) 0x174-0x174.7 (1)
0x170|               01                              |     .          |                    x: 1 0x175-0x175.7 (1)
     |                                               |                |                  [2]{}: instr 0x176-0x177.7 (2)
0x170|                  20                           |                |                    local.get: 0x20 (valid) 0x176-0x176.7 (1)
0x170|                     02                        |       .        |                    x: 2 0x177-0x177.7 (1)
     |                                               |                |                  [3]{}: instr 0x178-0x178.7 (1)
0x170|                        a2                     |        .       |                    f64.mul: 0xa2 (valid) 0x178-0x178.7 (1)
     |                                               |                |                  [4]{}: instr 0x179-0x179.7 (1)
0x170|                           a0                  |         .      |                    f64.add: 0xa0 (valid) 0x179-0x179.7 (1)
     |                                               |                |                  [5]{}: instr 0x17a-0x17b.7 (2)
0x170|                              20               |                |                    local.get: 0x20 (valid) 0x17a-0x17a.7 (1)
0x170|                                 03            |           .    |                    x: 3 0x17b-0x17b.7 (1)
     |                                               |                |                  [6]{}: instr 0x17c-0x17d.7 (2)
0x170|                                    20         |                |                    local.get: 0x20 (valid) 0x17c-0x17c.7 (1)
0x170|                                       01      |             .  |                    x: 1 0x17d-0x17d.7 (1)
     |                                               |                |                  [7]{}: instr 0x17e-0x17f.7 (2)
0x170|                                          20   |                |                    local.get: 0x20 (valid) 0x17e-0x17e.7 (1)
0x170|                                             02|               .|                    x: 2 0x17f-0x17f.7 (1)
     |                                               |                |                  [8]{}: instr 0x180-0x180.7 (1)
0x180|a2                                             |.               |                    f64.mul: 0xa2 (valid) 0x180-0x180.7 (1)
     |                                               |                |                  [9]{}: instr 0x181-0x181.7 (1)
0x180|   a1                                          | .              |                    f64.sub: 0xa1 (valid) 0x181-0x181.7 (1)
     |                                               |                |                  [10]{}: instr 0x182-0x182.7 (1)
0x180|      a3                                       |  .             |                    f64.div: 0xa3 (valid) 0x182-0x182.7 (1)
     |                                               |                |                  [11]{}: instr 0x183-0x183.7 (1)
0x180|         0b|                                   |   .|           |                    end: 0xb (valid) 0x183-0x183.7 (1)
