$ fq -d wasm dv float_exprs-45.wasm
     |00 01 02 03 04 05 06 07 08 09 0a 0b 0c 0d 0e 0f|0123456789abcdef|.{}: float_exprs-45.wasm (wasm) 0x0-0x1b7.7 (440)
0x000|00 61 73 6d                                    |.asm            |  magic: raw bits (valid) 0x0-0x3.7 (4)
0x000|            01 00 00 00                        |    ....        |  version: 1 0x4-0x7.7 (4)
     |                                               |                |  sections[0:4]: 0x8-0x1b7.7 (432)
     |                                               |                |    [0]{}: section 0x8-0x14.7 (13)
0x000|                        01                     |        .       |      id: "type section" (1) 0x8-0x8.7 (1)
0x000|                           0b                  |         .      |      size: 11 0x9-0x9.7 (1)
     |                                               |                |      content{}: 0xa-0x14.7 (11)
0x000|                              02               |          .     |        n: 2 0xa-0xa.7 (1)
     |                                               |                |        items[0:2]: 0xb-0x14.7 (10)
     |                                               |                |          [0]{}: functype 0xb-0xf.7 (5)
0x000|                                 60            |           `    |            tag: 0x60 (valid) 0xb-0xb.7 (1)
     |                                               |                |            rt1{}: 0xc-0xd.7 (2)
0x000|                                    01         |            .   |              n: 1 0xc-0xc.7 (1)
     |                                               |                |              items[0:1]: 0xd-0xd.7 (1)
0x000|                                       7d      |             }  |                [0]: "f32" (125) valtype 0xd-0xd.7 (1)
     |                                               |                |            rt2{}: 0xe-0xf.7 (2)
0x000|                                          01   |              . |              n: 1 0xe-0xe.7 (1)
     |                                               |                |              items[0:1]: 0xf-0xf.7 (1)
0x000|                                             7d|               }|                [0]: "f32" (125) valtype 0xf-0xf.7 (1)
     |                                               |                |          [1]{}: functype 0x10-0x14.7 (5)
0x010|60                                             |`               |            tag: 0x60 (valid) 0x10-0x10.7 (1)
     |                                               |                |            rt1{}: 0x11-0x12.7 (2)
0x010|   01                                          | .              |              n: 1 0x11-0x11.7 (1)
     |                                               |                |              items[0:1]: 0x12-0x12.7 (1)
0x010|      7c                                       |  |             |                [0]: "f64" (124) valtype 0x12-0x12.7 (1)
     |                                               |                |            rt2{}: 0x13-0x14.7 (2)
0x010|         01                                    |   .            |              n: 1 0x13-0x13.7 (1)
     |                                               |                |              items[0:1]: 0x14-0x14.7 (1)
0x010|            7c                                 |    |           |                [0]: "f64" (124) valtype 0x14-0x14.7 (1)
     |                                               |                |    [1]{}: section 0x15-0x1f.7 (11)
0x010|               03                              |     .          |      id: "function section" (3) 0x15-0x15.7 (1)
0x010|                  09                           |      .         |      size: 9 0x16-0x16.7 (1)
     |                                               |                |      content{}: 0x17-0x1f.7 (9)
0x010|                     08                        |       .        |        n: 8 0x17-0x17.7 (1)
     |                                               |                |        items[0:8]: 0x18-0x1f.7 (8)
0x010|                        00                     |        .       |          [0]: 0 x 0x18-0x18.7 (1)
0x010|                           00                  |         .      |          [1]: 0 x 0x19-0x19.7 (1)
0x010|                              00               |          .     |          [2]: 0 x 0x1a-0x1a.7 (1)
0x010|                                 00            |           .    |          [3]: 0 x 0x1b-0x1b.7 (1)
0x010|                                    01         |            .   |          [4]: 1 x 0x1c-0x1c.7 (1)
0x010|                                       01      |             .  |          [5]: 1 x 0x1d-0x1d.7 (1)
0x010|                                          01   |              . |          [6]: 1 x 0x1e-0x1e.7 (1)
0x010|                                             01|               .|          [7]: 1 x 0x1f-0x1f.7 (1)
     |                                               |                |    [2]{}: section 0x20-0x11b.7 (252)
0x020|07                                             |.               |      id: "export section" (7) 0x20-0x20.7 (1)
0x020|   f9 01                                       | ..             |      size: 249 0x21-0x22.7 (2)
     |                                               |                |      content{}: 0x23-0x11b.7 (249)
0x020|         08                                    |   .            |        n: 8 0x23-0x23.7 (1)
     |                                               |                |        items[0:8]: 0x24-0x11b.7 (248)
     |                                               |                |          [0]{}: export 0x24-0x42.7 (31)
     |                                               |                |            name{}: 0x24-0x40.7 (29)
0x020|            1c                                 |    .           |              len: 28 0x24-0x24.7 (1)
0x020|               66 33 32 2e 6e 6f 5f 66 6f 6c 64|     f32.no_fold|              utf8bytes: "f32.no_fold_lt_select_to_abs" 0x25-0x40.7 (28)
0x030|5f 6c 74 5f 73 65 6c 65 63 74 5f 74 6f 5f 61 62|_lt_select_to_ab|
0x040|73                                             |s               |
     |                                               |                |            expr{}: 0x41-0x42.7 (2)
0x040|   00                                          | .              |              tag: "funcidx" (0x0) 0x41-0x41.7 (1)
0x040|      00                                       |  .             |              x: 0 0x42-0x42.7 (1)
     |                                               |                |          [1]{}: export 0x43-0x61.7 (31)
     |                                               |                |            name{}: 0x43-0x5f.7 (29)
0x040|         1c                                    |   .            |              len: 28 0x43-0x43.7 (1)
0x040|            66 33 32 2e 6e 6f 5f 66 6f 6c 64 5f|    f32.no_fold_|              utf8bytes: "f32.no_fold_le_select_to_abs" 0x44-0x5f.7 (28)
0x050|6c 65 5f 73 65 6c 65 63 74 5f 74 6f 5f 61 62 73|le_select_to_abs|
     |                                               |                |            expr{}: 0x60-0x61.7 (2)
0x060|00                                             |.               |              tag: "funcidx" (0x0) 0x60-0x60.7 (1)
0x060|   01                                          | .              |              x: 1 0x61-0x61.7 (1)
     |                                               |                |          [2]{}: export 0x62-0x80.7 (31)
     |                                               |                |            name{}: 0x62-0x7e.7 (29)
0x060|      1c                                       |  .             |              len: 28 0x62-0x62.7 (1)
0x060|         66 33 32 2e 6e 6f 5f 66 6f 6c 64 5f 67|   f32.no_fold_g|              utf8bytes: "f32.no_fold_gt_select_to_abs" 0x63-0x7e.7 (28)
0x070|74 5f 73 65 6c 65 63 74 5f 74 6f 5f 61 62 73   |t_select_to_abs |
     |                                               |                |            expr{}: 0x7f-0x80.7 (2)
0x070|                                             00|               .|              tag: "funcidx" (0x0) 0x7f-0x7f.7 (1)
0x080|02                                             |.               |              x: 2 0x80-0x80.7 (1)
     |                                               |                |          [3]{}: export 0x81-0x9f.7 (31)
     |                                               |                |            name{}: 0x81-0x9d.7 (29)
0x080|   1c                                          | .              |              len: 28 0x81-0x81.7 (1)
0x080|      66 33 32 2e 6e 6f 5f 66 6f 6c 64 5f 67 65|  f32.no_fold_ge|              utf8bytes: "f32.no_fold_ge_select_to_abs" 0x82-0x9d.7 (28)
0x090|5f 73 65 6c 65 63 74 5f 74 6f 5f 61 62 73      |_select_to_abs  |
     |                                               |                |            expr{}: 0x9e-0x9f.7 (2)
0x090|                                          00   |              . |              tag: "funcidx" (0x0) 0x9e-0x9e.7 (1)
0x090|                                             03|               .|              x: 3 0x9f-0x9f.7 (1)
     |                                               |                |          [4]{}: export 0xa0-0xbe.7 (31)
     |                                               |                |            name{}: 0xa0-0xbc.7 (29)
0x0a0|1c                                             |.               |              len: 28 0xa0-0xa0.7 (1)
0x0a0|   66 36 34 2e 6e 6f 5f 66 6f 6c 64 5f 6c 74 5f| f64.no_fold_lt_|              utf8bytes: "f64.no_fold_lt_select_to_abs" 0xa1-0xbc.7 (28)
0x0b0|73 65 6c 65 63 74 5f 74 6f 5f 61 62 73         |select_to_abs   |
     |                                               |                |            expr{}: 0xbd-0xbe.7 (2)
0x0b0|                                       00      |             .  |              tag: "funcidx" (0x0) 0xbd-0xbd.7 (1)
0x0b0|                                          04   |              . |              x: 4 0xbe-0xbe.7 (1)
     |                                               |                |          [5]{}: export 0xbf-0xdd.7 (31)
     |                                               |                |            name{}: 0xbf-0xdb.7 (29)
0x0b0|                                             1c|               .|              len: 28 0xbf-0xbf.7 (1)
0x0c0|66 36 34 2e 6e 6f 5f 66 6f 6c 64 5f 6c 65 5f 73|f64.no_fold_le_s|              utf8bytes: "f64.no_fold_le_select_to_abs" 0xc0-0xdb.7 (28)
0x0d0|65 6c 65 63 74 5f 74 6f 5f 61 62 73            |elect_to_abs    |
     |                                               |                |            expr{}: 0xdc-0xdd.7 (2)
0x0d0|                                    00         |            .   |              tag: "funcidx" (0x0) 0xdc-0xdc.7 (1)
0x0d0|                                       05      |             .  |              x: 5 0xdd-0xdd.7 (1)
     |                                               |                |          [6]{}: export 0xde-0xfc.7 (31)
     |                                               |                |            name{}: 0xde-0xfa.7 (29)
0x0d0|                                          1c   |              . |              len: 28 0xde-0xde.7 (1)
0x0d0|                                             66|               f|              utf8bytes: "f64.no_fold_gt_select_to_abs" 0xdf-0xfa.7 (28)
0x0e0|36 34 2e 6e 6f 5f 66 6f 6c 64 5f 67 74 5f 73 65|64.no_fold_gt_se|
0x0f0|6c 65 63 74 5f 74 6f 5f 61 62 73               |lect_to_abs     |
     |                                               |                |            expr{}: 0xfb-0xfc.7 (2)
0x0f0|                                 00            |           .    |              tag: "funcidx" (0x0) 0xfb-0xfb.7 (1)
0x0f0|                                    06         |            .   |              x: 6 0xfc-0xfc.7 (1)
     |                                               |                |          [7]{}: export 0xfd-0x11b.7 (31)
     |                                               |                |            name{}: 0xfd-0x119.7 (29)
0x0f0|                                       1c      |             .  |              len: 28 0xfd-0xfd.7 (1)
0x0f0|                                          66 36|              f6|              utf8bytes: "f64.no_fold_ge_select_to_abs" 0xfe-0x119.7 (28)
0x100|34 2e 6e 6f 5f 66 6f 6c 64 5f 67 65 5f 73 65 6c|4.no_fold_ge_sel|
0x110|65 63 74 5f 74 6f 5f 61 62 73                  |ect_to_abs      |
     |                                               |                |            expr{}: 0x11a-0x11b.7 (2)
0x110|                              00               |          .     |              tag: "funcidx" (0x0) 0x11a-0x11a.7 (1)
0x110|                                 07            |           .    |              x: 7 0x11b-0x11b.7 (1)
     |                                               |                |    [3]{}: section 0x11c-0x1b7.7 (156)
0x110|                                    0a         |            .   |      id: "code section" (10) 0x11c-0x11c.7 (1)
0x110|                                       99 01   |             .. |      size: 153 0x11d-0x11e.7 (2)
     |                                               |                |      content{}: 0x11f-0x1b7.7 (153)
0x110|                                             08|               .|        n: 8 0x11f-0x11f.7 (1)
     |                                               |                |        items[0:8]: 0x120-0x1b7.7 (152)
     |                                               |                |          [0]{}: code 0x120-0x130.7 (17)
0x120|10                                             |.               |            size: 16 0x120-0x120.7 (1)
     |                                               |                |            code{}: 0x121-0x130.7 (16)
     |                                               |                |              locals{}: 0x121-0x121.7 (1)
0x120|   00                                          | .              |                n: 0 0x121-0x121.7 (1)
     |                                               |                |                items[0:0]: 0x122-NA (0)
     |                                               |                |              expr{}: 0x122-0x130.7 (15)
     |                                               |                |                instructions[0:8]: 0x122-0x130.7 (15)
     |                                               |                |                  [0]{}: instr 0x122-0x123.7 (2)
0x120|      20                                       |                |                    local.get: 0x20 (valid) 0x122-0x122.7 (1)
0x120|         00                                    |   .            |                    x: 0 0x123-0x123.7 (1)
     |                                               |                |                  [1]{}: instr 0x124-0x124.7 (1)
0x120|            8c                                 |    .           |                    f32.neg: 0x8c (valid) 0x124-0x124.7 (1)
     |                                               |                |                  [2]{}: instr 0x125-0x126.7 (2)
0x120|               20                              |                |                    local.get: 0x20 (valid) 0x125-0x125.7 (1)
0x120|                  00                           |      .         |                    x: 0 0x126-0x126.7 (1)
     |                                               |                |                  [3]{}: instr 0x127-0x128.7 (2)
0x120|                     20                        |                |                    local.get: 0x20 (valid) 0x127-0x127.7 (1)
0x120|                        00                     |        .       |                    x: 0 0x128-0x128.7 (1)
     |                                               |                |                  [4]{}: instr 0x129-0x12d.7 (5)
0x120|                           43                  |         C      |                    f32.const: 0x43 (valid) 0x129-0x129.7 (1)
0x120|                              00 00 00 00      |          ....  |                    z: 0 0x12a-0x12d.7 (4)
     |                                               |                |                  [5]{}: instr 0x12e-0x12e.7 (1)
0x120|                                          5d   |              ] |                    f32.lt: 0x5d (valid) 0x12e-0x12e.7 (1)
     |                                               |                |                  [6]{}: instr 0x12f-0x12f.7 (1)
0x120|                                             1b|               .|                    select: 0x1b (valid) 0x12f-0x12f.7 (1)
     |                                               |                |                  [7]{}: instr 0x130-0x130.7 (1)
0x130|0b                                             |.               |                    end: 0xb (valid) 0x130-0x130.7 (1)
     |                                               |                |          [1]{}: code 0x131-0x141.7 (17)
0x130|   10                                          | .              |            size: 16 0x131-0x131.7 (1)
     |                                               |                |            code{}: 0x132-0x141.7 (16)
     |                                               |                |              locals{}: 0x132-0x132.7 (1)
0x130|      00                                       |  .             |                n: 0 0x132-0x132.7 (1)
     |                                               |                |                items[0:0]: 0x133-NA (0)
     |                                               |                |              expr{}: 0x133-0x141.7 (15)
     |                                               |                |                instructions[0:8]: 0x133-0x141.7 (15)
     |                                               |                |                  [0]{}: instr 0x133-0x134.7 (2)
0x130|         20                                    |                |                    local.get: 0x20 (valid) 0x133-0x133.7 (1)
0x130|            00                                 |    .           |                    x: 0 0x134-0x134.7 (1)
     |                                               |                |                  [1]{}: instr 0x135-0x135.7 (1)
0x130|               8c                              |     .          |                    f32.neg: 0x8c (valid) 0x135-0x135.7 (1)
     |                                               |                |                  [2]{}: instr 0x136-0x137.7 (2)
0x130|                  20                           |                |                    local.get: 0x20 (valid) 0x136-0x136.7 (1)
0x130|                     00                        |       .        |                    x: 0 0x137-0x137.7 (1)
     |                                               |                |                  [3]{}: instr 0x138-0x139.7 (2)
0x130|                        20                     |                |                    local.get: 0x20 (valid) 0x138-0x138.7 (1)
0x130|                           00                  |         .      |                    x: 0 0x139-0x139.7 (1)
     |                                               |                |                  [4]{}: instr 0x13a-0x13e.7 (5)
0x130|                              43               |          C     |                    f32.const: 0x43 (valid) 0x13a-0x13a.7 (1)
0x130|                                 00 00 00 80   |           .... |                    z: -0 0x13b-0x13e.7 (4)
     |                                               |                |                  [5]{}: instr 0x13f-0x13f.7 (1)
0x130|                                             5f|               _|                    f32.le: 0x5f (valid) 0x13f-0x13f.7 (1)
     |                                               |                |                  [6]{}: instr 0x140-0x140.7 (1)
0x140|1b                                             |.               |                    select: 0x1b (valid) 0x140-0x140.7 (1)
     |                                               |                |                  [7]{}: instr 0x141-0x141.7 (1)
0x140|   0b                                          | .              |                    end: 0xb (valid) 0x141-0x141.7 (1)
     |                                               |                |          [2]{}: code 0x142-0x152.7 (17)
0x140|      10                                       |  .             |            size: 16 0x142-0x142.7 (1)
     |                                               |                |            code{}: 0x143-0x152.7 (16)
     |                                               |                |              locals{}: 0x143-0x143.7 (1)
0x140|         00                                    |   .            |                n: 0 0x143-0x143.7 (1)
     |                                               |                |                items[0:0]: 0x144-NA (0)
     |                                               |                |              expr{}: 0x144-0x152.7 (15)
     |                                               |                |                instructions[0:8]: 0x144-0x152.7 (15)
     |                                               |                |                  [0]{}: instr 0x144-0x145.7 (2)
0x140|            20                                 |                |                    local.get: 0x20 (valid) 0x144-0x144.7 (1)
0x140|               00                              |     .          |                    x: 0 0x145-0x145.7 (1)
     |                                               |                |                  [1]{}: instr 0x146-0x147.7 (2)
0x140|                  20                           |                |                    local.get: 0x20 (valid) 0x146-0x146.7 (1)
0x140|                     00                        |       .        |                    x: 0 0x147-0x147.7 (1)
     |                                               |                |                  [2]{}: instr 0x148-0x148.7 (1)
0x140|                        8c                     |        .       |                    f32.neg: 0x8c (valid) 0x148-0x148.7 (1)
     |                                               |                |                  [3]{}: instr 0x149-0x14a.7 (2)
0x140|                           20                  |                |                    local.get: 0x20 (valid) 0x149-0x149.7 (1)
0x140|                              00               |          .     |                    x: 0 0x14a-0x14a.7 (1)
     |                                               |                |                  [4]{}: instr 0x14b-0x14f.7 (5)
0x140|                                 43            |           C    |                    f32.const: 0x43 (valid) 0x14b-0x14b.7 (1)
0x140|                                    00 00 00 80|            ....|                    z: -0 0x14c-0x14f.7 (4)
     |                                               |                |                  [5]{}: instr 0x150-0x150.7 (1)
0x150|5e                                             |^               |                    f32.gt: 0x5e (valid) 0x150-0x150.7 (1)
     |                                               |                |                  [6]{}: instr 0x151-0x151.7 (1)
0x150|   1b                                          | .              |                    select: 0x1b (valid) 0x151-0x151.7 (1)
     |                                               |                |                  [7]{}: instr 0x152-0x152.7 (1)
0x150|      0b                                       |  .             |                    end: 0xb (valid) 0x152-0x152.7 (1)
     |                                               |                |          [3]{}: code 0x153-0x163.7 (17)
0x150|         10                                    |   .            |            size: 16 0x153-0x153.7 (1)
     |                                               |                |            code{}: 0x154-0x163.7 (16)
     |                                               |                |              locals{}: 0x154-0x154.7 (1)
0x150|            00                                 |    .           |                n: 0 0x154-0x154.7 (1)
     |                                               |                |                items[0:0]: 0x155-NA (0)
     |                                               |                |              expr{}: 0x155-0x163.7 (15)
     |                                               |                |                instructions[0:8]: 0x155-0x163.7 (15)
     |                                               |                |                  [0]{}: instr 0x155-0x156.7 (2)
0x150|               20                              |                |                    local.get: 0x20 (valid) 0x155-0x155.7 (1)
0x150|                  00                           |      .         |                    x: 0 0x156-0x156.7 (1)
     |                                               |                |                  [1]{}: instr 0x157-0x158.7 (2)
0x150|                     20                        |                |                    local.get: 0x20 (valid) 0x157-0x157.7 (1)
0x150|                        00                     |        .       |                    x: 0 0x158-0x158.7 (1)
     |                                               |                |                  [2]{}: instr 0x159-0x159.7 (1)
0x150|                           8c                  |         .      |                    f32.neg: 0x8c (valid) 0x159-0x159.7 (1)
     |                                               |                |                  [3]{}: instr 0x15a-0x15b.7 (2)
0x150|                              20               |                |                    local.get: 0x20 (valid) 0x15a-0x15a.7 (1)
0x150|                                 00            |           .    |                    x: 0 0x15b-0x15b.7 (1)
     |                                               |                |                  [4]{}: instr 0x15c-0x160.7 (5)
0x150|                                    43         |            C   |                    f32.const: 0x43 (valid) 0x15c-0x15c.7 (1)
0x150|                                       00 00 00|             ...|                    z: 0 0x15d-0x160.7 (4)
0x160|00                                             |.               |
     |                                               |                |                  [5]{}: instr 0x161-0x161.7 (1)
0x160|   60                                          | `              |                    f32.ge: 0x60 (valid) 0x161-0x161.7 (1)
     |                                               |                |                  [6]{}: instr 0x162-0x162.7 (1)
0x160|      1b                                       |  .             |                    select: 0x1b (valid) 0x162-0x162.7 (1)
     |                                               |                |                  [7]{}: instr 0x163-0x163.7 (1)
0x160|         0b                                    |   .            |                    end: 0xb (valid) 0x163-0x163.7 (1)
     |                                               |                |          [4]{}: code 0x164-0x178.7 (21)
0x160|            14                                 |    .           |            size: 20 0x164-0x164.7 (1)
     |                                               |                |            code{}: 0x165-0x178.7 (20)
     |                                               |                |              locals{}: 0x165-0x165.7 (1)
0x160|               00                              |     .          |                n: 0 0x165-0x165.7 (1)
     |                                               |                |                items[0:0]: 0x166-NA (0)
     |                                               |                |              expr{}: 0x166-0x178.7 (19)
     |                                               |                |                instructions[0:8]: 0x166-0x178.7 (19)
     |                                               |                |                  [0]{}: instr 0x166-0x167.7 (2)
0x160|                  20                           |                |                    local.get: 0x20 (valid) 0x166-0x166.7 (1)
0x160|                     00                        |       .        |                    x: 0 0x167-0x167.7 (1)
     |                                               |                |                  [1]{}: instr 0x168-0x168.7 (1)
0x160|                        9a                     |        .       |                    f64.neg: 0x9a (valid) 0x168-0x168.7 (1)
     |                                               |                |                  [2]{}: instr 0x169-0x16a.7 (2)
0x160|                           20                  |                |                    local.get: 0x20 (valid) 0x169-0x169.7 (1)
0x160|                              00               |          .     |                    x: 0 0x16a-0x16a.7 (1)
     |                                               |                |                  [3]{}: instr 0x16b-0x16c.7 (2)
0x160|                                 20            |                |                    local.get: 0x20 (valid) 0x16b-0x16b.7 (1)
0x160|                                    00         |            .   |                    x: 0 0x16c-0x16c.7 (1)
     |                                               |                |                  [4]{}: instr 0x16d-0x175.7 (9)
0x160|                                       44      |             D  |                    f64.const: 0x44 (valid) 0x16d-0x16d.7 (1)
0x160|                                          00 00|              ..|                    z: 0 0x16e-0x175.7 (8)
0x170|00 00 00 00 00 00                              |......          |
     |                                               |                |                  [5]{}: instr 0x176-0x176.7 (1)
0x170|                  63                           |      c         |                    f64.lt: 0x63 (valid) 0x176-0x176.7 (1)
     |                                               |                |                  [6]{}: instr 0x177-0x177.7 (1)
0x170|                     1b                        |       .        |                    select: 0x1b (valid) 0x177-0x177.7 (1)
     |                                               |                |                  [7]{}: instr 0x178-0x178.7 (1)
0x170|                        0b                     |        .       |                    end: 0xb (valid) 0x178-0x178.7 (1)
     |                                               |                |          [5]{}: code 0x179-0x18d.7 (21)
0x170|                           14                  |         .      |            size: 20 0x179-0x179.7 (1)
     |                                               |                |            code{}: 0x17a-0x18d.7 (20)
     |                                               |                |              locals{}: 0x17a-0x17a.7 (1)
0x170|                              00               |          .     |                n: 0 0x17a-0x17a.7 (1)
     |                                               |                |                items[0:0]: 0x17b-NA (0)
     |                                               |                |              expr{}: 0x17b-0x18d.7 (19)
     |                                               |                |                instructions[0:8]: 0x17b-0x18d.7 (19)
     |                                               |                |                  [0]{}: instr 0x17b-0x17c.7 (2)
0x170|                                 20            |                |                    local.get: 0x20 (valid) 0x17b-0x17b.7 (1)
0x170|                                    00         |            .   |                    x: 0 0x17c-0x17c.7 (1)
     |                                               |                |                  [1]{}: instr 0x17d-0x17d.7 (1)
0x170|                                       9a      |             .  |                    f64.neg: 0x9a (valid) 0x17d-0x17d.7 (1)
     |                                               |                |                  [2]{}: instr 0x17e-0x17f.7 (2)
0x170|                                          20   |                |                    local.get: 0x20 (valid) 0x17e-0x17e.7 (1)
0x170|                                             00|               .|                    x: 0 0x17f-0x17f.7 (1)
     |                                               |                |                  [3]{}: instr 0x180-0x181.7 (2)
0x180|20                                             |                |                    local.get: 0x20 (valid) 0x180-0x180.7 (1)
0x180|   00                                          | .              |                    x: 0 0x181-0x181.7 (1)
     |                                               |                |                  [4]{}: instr 0x182-0x18a.7 (9)
0x180|      44                                       |  D             |                    f64.const: 0x44 (valid) 0x182-0x182.7 (1)
0x180|         00 00 00 00 00 00 00 80               |   ........     |                    z: -0 0x183-0x18a.7 (8)
     |                                               |                |                  [5]{}: instr 0x18b-0x18b.7 (1)
0x180|                                 65            |           e    |                    f64.le: 0x65 (valid) 0x18b-0x18b.7 (1)
     |                                               |                |                  [6]{}: instr 0x18c-0x18c.7 (1)
0x180|                                    1b         |            .   |                    select: 0x1b (valid) 0x18c-0x18c.7 (1)
     |                                               |                |                  [7]{}: instr 0x18d-0x18d.7 (1)
0x180|                                       0b      |             .  |                    end: 0xb (valid) 0x18d-0x18d.7 (1)
     |                                               |                |          [6]{}: code 0x18e-0x1a2.7 (21)
0x180|                                          14   |              . |            size: 20 0x18e-0x18e.7 (1)
     |                                               |                |            code{}: 0x18f-0x1a2.7 (20)
     |                                               |                |              locals{}: 0x18f-0x18f.7 (1)
0x180|                                             00|               .|                n: 0 0x18f-0x18f.7 (1)
     |                                               |                |                items[0:0]: 0x190-NA (0)
     |                                               |                |              expr{}: 0x190-0x1a2.7 (19)
     |                                               |                |                instructions[0:8]: 0x190-0x1a2.7 (19)
     |                                               |                |                  [0]{}: instr 0x190-0x191.7 (2)
0x190|20                                             |                |                    local.get: 0x20 (valid) 0x190-0x190.7 (1)
0x190|   00                                          | .              |                    x: 0 0x191-0x191.7 (1)
     |                                               |                |                  [1]{}: instr 0x192-0x193.7 (2)
0x190|      20                                       |                |                    local.get: 0x20 (valid) 0x192-0x192.7 (1)
0x190|         00                                    |   .            |                    x: 0 0x193-0x193.7 (1)
     |                                               |                |                  [2]{}: instr 0x194-0x194.7 (1)
0x190|            9a                                 |    .           |                    f64.neg: 0x9a (valid) 0x194-0x194.7 (1)
     |                                               |                |                  [3]{}: instr 0x195-0x196.7 (2)
0x190|               20                              |                |                    local.get: 0x20 (valid) 0x195-0x195.7 (1)
0x190|                  00                           |      .         |                    x: 0 0x196-0x196.7 (1)
     |                                               |                |                  [4]{}: instr 0x197-0x19f.7 (9)
0x190|                     44                        |       D        |                    f64.const: 0x44 (valid) 0x197-0x197.7 (1)
0x190|                        00 00 00 00 00 00 00 80|        ........|                    z: -0 0x198-0x19f.7 (8)
     |                                               |                |                  [5]{}: instr 0x1a0-0x1a0.7 (1)
0x1a0|64                                             |d               |                    f64.gt: 0x64 (valid) 0x1a0-0x1a0.7 (1)
     |                                               |                |                  [6]{}: instr 0x1a1-0x1a1.7 (1)
0x1a0|   1b                                          | .              |                    select: 0x1b (valid) 0x1a1-0x1a1.7 (1)
     |                                               |                |                  [7]{}: instr 0x1a2-0x1a2.7 (1)
0x1a0|      0b                                       |  .             |                    end: 0xb (valid) 0x1a2-0x1a2.7 (1)
     |                                               |                |          [7]{}: code 0x1a3-0x1b7.7 (21)
0x1a0|         14                                    |   .            |            size: 20 0x1a3-0x1a3.7 (1)
     |                                               |                |            code{}: 0x1a4-0x1b7.7 (20)
     |                                               |                |              locals{}: 0x1a4-0x1a4.7 (1)
0x1a0|            00                                 |    .           |                n: 0 0x1a4-0x1a4.7 (1)
     |                                               |                |                items[0:0]: 0x1a5-NA (0)
     |                                               |                |              expr{}: 0x1a5-0x1b7.7 (19)
     |                                               |                |                instructions[0:8]: 0x1a5-0x1b7.7 (19)
     |                                               |                |                  [0]{}: instr 0x1a5-0x1a6.7 (2)
0x1a0|               20                              |                |                    local.get: 0x20 (valid) 0x1a5-0x1a5.7 (1)
0x1a0|                  00                           |      .         |                    x: 0 0x1a6-0x1a6.7 (1)
     |                                               |                |                  [1]{}: instr 0x1a7-0x1a8.7 (2)
0x1a0|                     20                        |                |                    local.get: 0x20 (valid) 0x1a7-0x1a7.7 (1)
0x1a0|                        00                     |        .       |                    x: 0 0x1a8-0x1a8.7 (1)
     |                                               |                |                  [2]{}: instr 0x1a9-0x1a9.7 (1)
0x1a0|                           9a                  |         .      |                    f64.neg: 0x9a (valid) 0x1a9-0x1a9.7 (1)
     |                                               |                |                  [3]{}: instr 0x1aa-0x1ab.7 (2)
0x1a0|                              20               |                |                    local.get: 0x20 (valid) 0x1aa-0x1aa.7 (1)
0x1a0|                                 00            |           .    |                    x: 0 0x1ab-0x1ab.7 (1)
     |                                               |                |                  [4]{}: instr 0x1ac-0x1b4.7 (9)
0x1a0|                                    44         |            D   |                    f64.const: 0x44 (valid) 0x1ac-0x1ac.7 (1)
0x1a0|                                       00 00 00|             ...|                    z: 0 0x1ad-0x1b4.7 (8)
0x1b0|00 00 00 00 00                                 |.....           |
     |                                               |                |                  [5]{}: instr 0x1b5-0x1b5.7 (1)
0x1b0|               66                              |     f          |                    f64.ge: 0x66 (valid) 0x1b5-0x1b5.7 (1)
     |                                               |                |                  [6]{}: instr 0x1b6-0x1b6.7 (1)
0x1b0|                  1b                           |      .         |                    select: 0x1b (valid) 0x1b6-0x1b6.7 (1)
     |                                               |                |                  [7]{}: instr 0x1b7-0x1b7.7 (1)
0x1b0|                     0b|                       |       .|       |                    end: 0xb (valid) 0x1b7-0x1b7.7 (1)
