$ fq -d wasm dv float_exprs-87.wasm
     |00 01 02 03 04 05 06 07 08 09 0a 0b 0c 0d 0e 0f|0123456789abcdef|.{}: float_exprs-87.wasm (wasm) 0x0-0x3c3.7 (964)
0x000|00 61 73 6d                                    |.asm            |  magic: raw bits (valid) 0x0-0x3.7 (4)
0x000|            01 00 00 00                        |    ....        |  version: 1 0x4-0x7.7 (4)
     |                                               |                |  sections[0:4]: 0x8-0x3c3.7 (956)
     |                                               |                |    [0]{}: section 0x8-0x20.7 (25)
0x000|                        01                     |        .       |      id: "type section" (1) 0x8-0x8.7 (1)
0x000|                           17                  |         .      |      size: 23 0x9-0x9.7 (1)
     |                                               |                |      content{}: 0xa-0x20.7 (23)
0x000|                              04               |          .     |        n: 4 0xa-0xa.7 (1)
     |                                               |                |        items[0:4]: 0xb-0x20.7 (22)
     |                                               |                |          [0]{}: functype 0xb-0x10.7 (6)
0x000|                                 60            |           `    |            tag: 0x60 (valid) 0xb-0xb.7 (1)
     |                                               |                |            rt1{}: 0xc-0xe.7 (3)
0x000|                                    02         |            .   |              n: 2 0xc-0xc.7 (1)
     |                                               |                |              items[0:2]: 0xd-0xe.7 (2)
0x000|                                       7f      |             .  |                [0]: "i32" (127) valtype 0xd-0xd.7 (1)
0x000|                                          7f   |              . |                [1]: "i32" (127) valtype 0xe-0xe.7 (1)
     |                                               |                |            rt2{}: 0xf-0x10.7 (2)
0x000|                                             01|               .|              n: 1 0xf-0xf.7 (1)
     |                                               |                |              items[0:1]: 0x10-0x10.7 (1)
0x010|7f                                             |.               |                [0]: "i32" (127) valtype 0x10-0x10.7 (1)
     |                                               |                |          [1]{}: functype 0x11-0x15.7 (5)
0x010|   60                                          | `              |            tag: 0x60 (valid) 0x11-0x11.7 (1)
     |                                               |                |            rt1{}: 0x12-0x13.7 (2)
0x010|      01                                       |  .             |              n: 1 0x12-0x12.7 (1)
     |                                               |                |              items[0:1]: 0x13-0x13.7 (1)
0x010|         7f                                    |   .            |                [0]: "i32" (127) valtype 0x13-0x13.7 (1)
     |                                               |                |            rt2{}: 0x14-0x15.7 (2)
0x010|            01                                 |    .           |              n: 1 0x14-0x14.7 (1)
     |                                               |                |              items[0:1]: 0x15-0x15.7 (1)
0x010|               7f                              |     .          |                [0]: "i32" (127) valtype 0x15-0x15.7 (1)
     |                                               |                |          [2]{}: functype 0x16-0x1b.7 (6)
0x010|                  60                           |      `         |            tag: 0x60 (valid) 0x16-0x16.7 (1)
     |                                               |                |            rt1{}: 0x17-0x19.7 (3)
0x010|                     02                        |       .        |              n: 2 0x17-0x17.7 (1)
     |                                               |                |              items[0:2]: 0x18-0x19.7 (2)
0x010|                        7e                     |        ~       |                [0]: "i64" (126) valtype 0x18-0x18.7 (1)
0x010|                           7e                  |         ~      |                [1]: "i64" (126) valtype 0x19-0x19.7 (1)
     |                                               |                |            rt2{}: 0x1a-0x1b.7 (2)
0x010|                              01               |          .     |              n: 1 0x1a-0x1a.7 (1)
     |                                               |                |              items[0:1]: 0x1b-0x1b.7 (1)
0x010|                                 7e            |           ~    |                [0]: "i64" (126) valtype 0x1b-0x1b.7 (1)
     |                                               |                |          [3]{}: functype 0x1c-0x20.7 (5)
0x010|                                    60         |            `   |            tag: 0x60 (valid) 0x1c-0x1c.7 (1)
     |                                               |                |            rt1{}: 0x1d-0x1e.7 (2)
0x010|                                       01      |             .  |              n: 1 0x1d-0x1d.7 (1)
     |                                               |                |              items[0:1]: 0x1e-0x1e.7 (1)
0x010|                                          7e   |              ~ |                [0]: "i64" (126) valtype 0x1e-0x1e.7 (1)
     |                                               |                |            rt2{}: 0x1f-0x20.7 (2)
0x010|                                             01|               .|              n: 1 0x1f-0x1f.7 (1)
     |                                               |                |              items[0:1]: 0x20-0x20.7 (1)
0x020|7e                                             |~               |                [0]: "i64" (126) valtype 0x20-0x20.7 (1)
     |                                               |                |    [1]{}: section 0x21-0x36.7 (22)
0x020|   03                                          | .              |      id: "function section" (3) 0x21-0x21.7 (1)
0x020|      14                                       |  .             |      size: 20 0x22-0x22.7 (1)
     |                                               |                |      content{}: 0x23-0x36.7 (20)
0x020|         13                                    |   .            |        n: 19 0x23-0x23.7 (1)
     |                                               |                |        items[0:19]: 0x24-0x36.7 (19)
0x020|            00                                 |    .           |          [0]: 0 x 0x24-0x24.7 (1)
0x020|               00                              |     .          |          [1]: 0 x 0x25-0x25.7 (1)
0x020|                  01                           |      .         |          [2]: 1 x 0x26-0x26.7 (1)
0x020|                     02                        |       .        |          [3]: 2 x 0x27-0x27.7 (1)
0x020|                        02                     |        .       |          [4]: 2 x 0x28-0x28.7 (1)
0x020|                           03                  |         .      |          [5]: 3 x 0x29-0x29.7 (1)
0x020|                              01               |          .     |          [6]: 1 x 0x2a-0x2a.7 (1)
0x020|                                 01            |           .    |          [7]: 1 x 0x2b-0x2b.7 (1)
0x020|                                    01         |            .   |          [8]: 1 x 0x2c-0x2c.7 (1)
0x020|                                       01      |             .  |          [9]: 1 x 0x2d-0x2d.7 (1)
0x020|                                          01   |              . |          [10]: 1 x 0x2e-0x2e.7 (1)
0x020|                                             01|               .|          [11]: 1 x 0x2f-0x2f.7 (1)
0x030|03                                             |.               |          [12]: 3 x 0x30-0x30.7 (1)
0x030|   03                                          | .              |          [13]: 3 x 0x31-0x31.7 (1)
0x030|      03                                       |  .             |          [14]: 3 x 0x32-0x32.7 (1)
0x030|         03                                    |   .            |          [15]: 3 x 0x33-0x33.7 (1)
0x030|            03                                 |    .           |          [16]: 3 x 0x34-0x34.7 (1)
0x030|               03                              |     .          |          [17]: 3 x 0x35-0x35.7 (1)
0x030|                  01                           |      .         |          [18]: 1 x 0x36-0x36.7 (1)
     |                                               |                |    [2]{}: section 0x37-0x227.7 (497)
0x030|                     07                        |       .        |      id: "export section" (7) 0x37-0x37.7 (1)
0x030|                        ee 03                  |        ..      |      size: 494 0x38-0x39.7 (2)
     |                                               |                |      content{}: 0x3a-0x227.7 (494)
0x030|                              13               |          .     |        n: 19 0x3a-0x3a.7 (1)
     |                                               |                |        items[0:19]: 0x3b-0x227.7 (493)
     |                                               |                |          [0]{}: export 0x3b-0x5a.7 (32)
     |                                               |                |            name{}: 0x3b-0x58.7 (30)
0x030|                                 1d            |           .    |              len: 29 0x3b-0x3b.7 (1)
0x030|                                    66 33 32 2e|            f32.|              utf8bytes: "f32.arithmetic_nan_bitpattern" 0x3c-0x58.7 (29)
0x040|61 72 69 74 68 6d 65 74 69 63 5f 6e 61 6e 5f 62|arithmetic_nan_b|
0x050|69 74 70 61 74 74 65 72 6e                     |itpattern       |
     |                                               |                |            expr{}: 0x59-0x5a.7 (2)
0x050|                           00                  |         .      |              tag: "funcidx" (0x0) 0x59-0x59.7 (1)
0x050|                              00               |          .     |              x: 0 0x5a-0x5a.7 (1)
     |                                               |                |          [1]{}: export 0x5b-0x79.7 (31)
     |                                               |                |            name{}: 0x5b-0x77.7 (29)
0x050|                                 1c            |           .    |              len: 28 0x5b-0x5b.7 (1)
0x050|                                    66 33 32 2e|            f32.|              utf8bytes: "f32.canonical_nan_bitpattern" 0x5c-0x77.7 (28)
0x060|63 61 6e 6f 6e 69 63 61 6c 5f 6e 61 6e 5f 62 69|canonical_nan_bi|
0x070|74 70 61 74 74 65 72 6e                        |tpattern        |
     |                                               |                |            expr{}: 0x78-0x79.7 (2)
0x070|                        00                     |        .       |              tag: "funcidx" (0x0) 0x78-0x78.7 (1)
0x070|                           01                  |         .      |              x: 1 0x79-0x79.7 (1)
     |                                               |                |          [2]{}: export 0x7a-0x9c.7 (35)
     |                                               |                |            name{}: 0x7a-0x9a.7 (33)
0x070|                              20               |                |              len: 32 0x7a-0x7a.7 (1)
0x070|                                 66 33 32 2e 6e|           f32.n|              utf8bytes: "f32.nonarithmetic_nan_bitpattern" 0x7b-0x9a.7 (32)
0x080|6f 6e 61 72 69 74 68 6d 65 74 69 63 5f 6e 61 6e|onarithmetic_nan|
0x090|5f 62 69 74 70 61 74 74 65 72 6e               |_bitpattern     |
     |                                               |                |            expr{}: 0x9b-0x9c.7 (2)
0x090|                                 00            |           .    |              tag: "funcidx" (0x0) 0x9b-0x9b.7 (1)
0x090|                                    02         |            .   |              x: 2 0x9c-0x9c.7 (1)
     |                                               |                |          [3]{}: export 0x9d-0xbc.7 (32)
     |                                               |                |            name{}: 0x9d-0xba.7 (30)
0x090|                                       1d      |             .  |              len: 29 0x9d-0x9d.7 (1)
0x090|                                          66 36|              f6|              utf8bytes: "f64.arithmetic_nan_bitpattern" 0x9e-0xba.7 (29)
0x0a0|34 2e 61 72 69 74 68 6d 65 74 69 63 5f 6e 61 6e|4.arithmetic_nan|
0x0b0|5f 62 69 74 70 61 74 74 65 72 6e               |_bitpattern     |
     |                                               |                |            expr{}: 0xbb-0xbc.7 (2)
0x0b0|                                 00            |           .    |              tag: "funcidx" (0x0) 0xbb-0xbb.7 (1)
0x0b0|                                    03         |            .   |              x: 3 0xbc-0xbc.7 (1)
     |                                               |                |          [4]{}: export 0xbd-0xdb.7 (31)
     |                                               |                |            name{}: 0xbd-0xd9.7 (29)
0x0b0|                                       1c      |             .  |              len: 28 0xbd-0xbd.7 (1)
0x0b0|                                          66 36|              f6|              utf8bytes: "f64.canonical_nan_bitpattern" 0xbe-0xd9.7 (28)
0x0c0|34 2e 63 61 6e 6f 6e 69 63 61 6c 5f 6e 61 6e 5f|4.canonical_nan_|
0x0d0|62 69 74 70 61 74 74 65 72 6e                  |bitpattern      |
     |                                               |                |            expr{}: 0xda-0xdb.7 (2)
0x0d0|                              00               |          .     |              tag: "funcidx" (0x0) 0xda-0xda.7 (1)
0x0d0|                                 04            |           .    |              x: 4 0xdb-0xdb.7 (1)
     |                                               |                |          [5]{}: export 0xdc-0xfe.7 (35)
     |                                               |                |            name{}: 0xdc-0xfc.7 (33)
0x0d0|                                    20         |                |              len: 32 0xdc-0xdc.7 (1)
0x0d0|                                       66 36 34|             f64|              utf8bytes: "f64.nonarithmetic_nan_bitpattern" 0xdd-0xfc.7 (32)
0x0e0|2e 6e 6f 6e 61 72 69 74 68 6d 65 74 69 63 5f 6e|.nonarithmetic_n|
0x0f0|61 6e 5f 62 69 74 70 61 74 74 65 72 6e         |an_bitpattern   |
     |                                               |                |            expr{}: 0xfd-0xfe.7 (2)
0x0f0|                                       00      |             .  |              tag: "funcidx" (0x0) 0xfd-0xfd.7 (1)
0x0f0|                                          05   |              . |              x: 5 0xfe-0xfe.7 (1)
     |                                               |                |          [6]{}: export 0xff-0x115.7 (23)
     |                                               |                |            name{}: 0xff-0x113.7 (21)
0x0f0|                                             14|               .|              len: 20 0xff-0xff.7 (1)
0x100|66 33 32 2e 6e 6f 5f 66 6f 6c 64 5f 73 75 62 5f|f32.no_fold_sub_|              utf8bytes: "f32.no_fold_sub_zero" 0x100-0x113.7 (20)
0x110|7a 65 72 6f                                    |zero            |
     |                                               |                |            expr{}: 0x114-0x115.7 (2)
0x110|            00                                 |    .           |              tag: "funcidx" (0x0) 0x114-0x114.7 (1)
0x110|               06                              |     .          |              x: 6 0x115-0x115.7 (1)
     |                                               |                |          [7]{}: export 0x116-0x12c.7 (23)
     |                                               |                |            name{}: 0x116-0x12a.7 (21)
0x110|                  14                           |      .         |              len: 20 0x116-0x116.7 (1)
0x110|                     66 33 32 2e 6e 6f 5f 66 6f|       f32.no_fo|              utf8bytes: "f32.no_fold_neg0_sub" 0x117-0x12a.7 (20)
0x120|6c 64 5f 6e 65 67 30 5f 73 75 62               |ld_neg0_sub     |
     |                                               |                |            expr{}: 0x12b-0x12c.7 (2)
0x120|                                 00            |           .    |              tag: "funcidx" (0x0) 0x12b-0x12b.7 (1)
0x120|                                    07         |            .   |              x: 7 0x12c-0x12c.7 (1)
     |                                               |                |          [8]{}: export 0x12d-0x142.7 (22)
     |                                               |                |            name{}: 0x12d-0x140.7 (20)
0x120|                                       13      |             .  |              len: 19 0x12d-0x12d.7 (1)
0x120|                                          66 33|              f3|              utf8bytes: "f32.no_fold_mul_one" 0x12e-0x140.7 (19)
0x130|32 2e 6e 6f 5f 66 6f 6c 64 5f 6d 75 6c 5f 6f 6e|2.no_fold_mul_on|
0x140|65                                             |e               |
     |                                               |                |            expr{}: 0x141-0x142.7 (2)
0x140|   00                                          | .              |              tag: "funcidx" (0x0) 0x141-0x141.7 (1)
0x140|      08                                       |  .             |              x: 8 0x142-0x142.7 (1)
     |                                               |                |          [9]{}: export 0x143-0x159.7 (23)
     |                                               |                |            name{}: 0x143-0x157.7 (21)
0x140|         14                                    |   .            |              len: 20 0x143-0x143.7 (1)
0x140|            66 33 32 2e 6e 6f 5f 66 6f 6c 64 5f|    f32.no_fold_|              utf8bytes: "f32.no_fold_neg1_mul" 0x144-0x157.7 (20)
0x150|6e 65 67 31 5f 6d 75 6c                        |neg1_mul        |
     |                                               |                |            expr{}: 0x158-0x159.7 (2)
0x150|                        00                     |        .       |              tag: "funcidx" (0x0) 0x158-0x158.7 (1)
0x150|                           09                  |         .      |              x: 9 0x159-0x159.7 (1)
     |                                               |                |          [10]{}: export 0x15a-0x16f.7 (22)
     |                                               |                |            name{}: 0x15a-0x16d.7 (20)
0x150|                              13               |          .     |              len: 19 0x15a-0x15a.7 (1)
0x150|                                 66 33 32 2e 6e|           f32.n|              utf8bytes: "f32.no_fold_div_one" 0x15b-0x16d.7 (19)
0x160|6f 5f 66 6f 6c 64 5f 64 69 76 5f 6f 6e 65      |o_fold_div_one  |
     |                                               |                |            expr{}: 0x16e-0x16f.7 (2)
0x160|                                          00   |              . |              tag: "funcidx" (0x0) 0x16e-0x16e.7 (1)
0x160|                                             0a|               .|              x: 10 0x16f-0x16f.7 (1)
     |                                               |                |          [11]{}: export 0x170-0x186.7 (23)
     |                                               |                |            name{}: 0x170-0x184.7 (21)
0x170|14                                             |.               |              len: 20 0x170-0x170.7 (1)
0x170|   66 33 32 2e 6e 6f 5f 66 6f 6c 64 5f 64 69 76| f32.no_fold_div|              utf8bytes: "f32.no_fold_div_neg1" 0x171-0x184.7 (20)
0x180|5f 6e 65 67 31                                 |_neg1           |
     |                                               |                |            expr{}: 0x185-0x186.7 (2)
0x180|               00                              |     .          |              tag: "funcidx" (0x0) 0x185-0x185.7 (1)
0x180|                  0b                           |      .         |              x: 11 0x186-0x186.7 (1)
     |                                               |                |          [12]{}: export 0x187-0x19d.7 (23)
     |                                               |                |            name{}: 0x187-0x19b.7 (21)
0x180|                     14                        |       .        |              len: 20 0x187-0x187.7 (1)
0x180|                        66 36 34 2e 6e 6f 5f 66|        f64.no_f|              utf8bytes: "f64.no_fold_sub_zero" 0x188-0x19b.7 (20)
0x190|6f 6c 64 5f 73 75 62 5f 7a 65 72 6f            |old_sub_zero    |
     |                                               |                |            expr{}: 0x19c-0x19d.7 (2)
0x190|                                    00         |            .   |              tag: "funcidx" (0x0) 0x19c-0x19c.7 (1)
0x190|                                       0c      |             .  |              x: 12 0x19d-0x19d.7 (1)
     |                                               |                |          [13]{}: export 0x19e-0x1b4.7 (23)
     |                                               |                |            name{}: 0x19e-0x1b2.7 (21)
0x190|                                          14   |              . |              len: 20 0x19e-0x19e.7 (1)
0x190|                                             66|               f|              utf8bytes: "f64.no_fold_neg0_sub" 0x19f-0x1b2.7 (20)
0x1a0|36 34 2e 6e 6f 5f 66 6f 6c 64 5f 6e 65 67 30 5f|64.no_fold_neg0_|
0x1b0|73 75 62                                       |sub             |
     |                                               |                |            expr{}: 0x1b3-0x1b4.7 (2)
0x1b0|         00                                    |   .            |              tag: "funcidx" (0x0) 0x1b3-0x1b3.7 (1)
0x1b0|            0d                                 |    .           |              x: 13 0x1b4-0x1b4.7 (1)
     |                                               |                |          [14]{}: export 0x1b5-0x1ca.7 (22)
     |                                               |                |            name{}: 0x1b5-0x1c8.7 (20)
0x1b0|               13                              |     .          |              len: 19 0x1b5-0x1b5.7 (1)
0x1b0|                  66 36 34 2e 6e 6f 5f 66 6f 6c|      f64.no_fol|              utf8bytes: "f64.no_fold_mul_one" 0x1b6-0x1c8.7 (19)
0x1c0|64 5f 6d 75 6c 5f 6f 6e 65                     |d_mul_one       |
     |                                               |                |            expr{}: 0x1c9-0x1ca.7 (2)
0x1c0|                           00                  |         .      |              tag: "funcidx" (0x0) 0x1c9-0x1c9.7 (1)
0x1c0|                              0e               |          .     |              x: 14 0x1ca-0x1ca.7 (1)
     |                                               |                |          [15]{}: export 0x1cb-0x1e1.7 (23)
     |                                               |                |            name{}: 0x1cb-0x1df.7 (21)
0x1c0|                                 14            |           .    |              len: 20 0x1cb-0x1cb.7 (1)
0x1c0|                                    66 36 34 2e|            f64.|              utf8bytes: "f64.no_fold_neg1_mul" 0x1cc-0x1df.7 (20)
0x1d0|6e 6f 5f 66 6f 6c 64 5f 6e 65 67 31 5f 6d 75 6c|no_fold_neg1_mul|
     |                                               |                |            expr{}: 0x1e0-0x1e1.7 (2)
0x1e0|00                                             |.               |              tag: "funcidx" (0x0) 0x1e0-0x1e0.7 (1)
0x1e0|   0f                                          | .              |              x: 15 0x1e1-0x1e1.7 (1)
     |                                               |                |          [16]{}: export 0x1e2-0x1f7.7 (22)
     |                                               |                |            name{}: 0x1e2-0x1f5.7 (20)
0x1e0|      13                                       |  .             |              len: 19 0x1e2-0x1e2.7 (1)
0x1e0|         66 36 34 2e 6e 6f 5f 66 6f 6c 64 5f 64|   f64.no_fold_d|              utf8bytes: "f64.no_fold_div_one" 0x1e3-0x1f5.7 (19)
0x1f0|69 76 5f 6f 6e 65                              |iv_one          |
     |                                               |                |            expr{}: 0x1f6-0x1f7.7 (2)
0x1f0|                  00                           |      .         |              tag: "funcidx" (0x0) 0x1f6-0x1f6.7 (1)
0x1f0|                     10                        |       .        |              x: 16 0x1f7-0x1f7.7 (1)
     |                                               |                |          [17]{}: export 0x1f8-0x20e.7 (23)
     |                                               |                |            name{}: 0x1f8-0x20c.7 (21)
0x1f0|                        14                     |        .       |              len: 20 0x1f8-0x1f8.7 (1)
0x1f0|                           66 36 34 2e 6e 6f 5f|         f64.no_|              utf8bytes: "f64.no_fold_div_neg1" 0x1f9-0x20c.7 (20)
0x200|66 6f 6c 64 5f 64 69 76 5f 6e 65 67 31         |fold_div_neg1   |
     |                                               |                |            expr{}: 0x20d-0x20e.7 (2)
0x200|                                       00      |             .  |              tag: "funcidx" (0x0) 0x20d-0x20d.7 (1)
0x200|                                          11   |              . |              x: 17 0x20e-0x20e.7 (1)
     |                                               |                |          [18]{}: export 0x20f-0x227.7 (25)
     |                                               |                |            name{}: 0x20f-0x225.7 (23)
0x200|                                             16|               .|              len: 22 0x20f-0x20f.7 (1)
0x210|6e 6f 5f 66 6f 6c 64 5f 70 72 6f 6d 6f 74 65 5f|no_fold_promote_|              utf8bytes: "no_fold_promote_demote" 0x210-0x225.7 (22)
0x220|64 65 6d 6f 74 65                              |demote          |
     |                                               |                |            expr{}: 0x226-0x227.7 (2)
0x220|                  00                           |      .         |              tag: "funcidx" (0x0) 0x226-0x226.7 (1)
0x220|                     12                        |       .        |              x: 18 0x227-0x227.7 (1)
     |                                               |                |    [3]{}: section 0x228-0x3c3.7 (412)
0x220|                        0a                     |        .       |      id: "code section" (10) 0x228-0x228.7 (1)
0x220|                           99 03               |         ..     |      size: 409 0x229-0x22a.7 (2)
     |                                               |                |      content{}: 0x22b-0x3c3.7 (409)
0x220|                                 13            |           .    |        n: 19 0x22b-0x22b.7 (1)
     |                                               |                |        items[0:19]: 0x22c-0x3c3.7 (408)
     |                                               |                |          [0]{}: code 0x22c-0x23d.7 (18)
0x220|                                    11         |            .   |            size: 17 0x22c-0x22c.7 (1)
     |                                               |                |            code{}: 0x22d-0x23d.7 (17)
     |                                               |                |              locals{}: 0x22d-0x22d.7 (1)
0x220|                                       00      |             .  |                n: 0 0x22d-0x22d.7 (1)
     |                                               |                |                items[0:0]: 0x22e-NA (0)
     |                                               |                |              expr{}: 0x22e-0x23d.7 (16)
     |                                               |                |                instructions[0:9]: 0x22e-0x23d.7 (16)
     |                                               |                |                  [0]{}: instr 0x22e-0x22f.7 (2)
0x220|                                          20   |                |                    local.get: 0x20 (valid) 0x22e-0x22e.7 (1)
0x220|                                             00|               .|                    x: 0 0x22f-0x22f.7 (1)
     |                                               |                |                  [1]{}: instr 0x230-0x230.7 (1)
0x230|be                                             |.               |                    f32.reinterpret_i32: 0xbe (valid) 0x230-0x230.7 (1)
     |                                               |                |                  [2]{}: instr 0x231-0x232.7 (2)
0x230|   20                                          |                |                    local.get: 0x20 (valid) 0x231-0x231.7 (1)
0x230|      01                                       |  .             |                    x: 1 0x232-0x232.7 (1)
     |                                               |                |                  [3]{}: instr 0x233-0x233.7 (1)
0x230|         be                                    |   .            |                    f32.reinterpret_i32: 0xbe (valid) 0x233-0x233.7 (1)
     |                                               |                |                  [4]{}: instr 0x234-0x234.7 (1)
0x230|            95                                 |    .           |                    f32.div: 0x95 (valid) 0x234-0x234.7 (1)
     |                                               |                |                  [5]{}: instr 0x235-0x235.7 (1)
0x230|               bc                              |     .          |                    i32.reinterpret_f32: 0xbc (valid) 0x235-0x235.7 (1)
     |                                               |                |                  [6]{}: instr 0x236-0x23b.7 (6)
0x230|                  41                           |      A         |                    i32.const: 0x41 (valid) 0x236-0x236.7 (1)
0x230|                     80 80 80 fe 07            |       .....    |                    n: 2143289344 0x237-0x23b.7 (5)
     |                                               |                |                  [7]{}: instr 0x23c-0x23c.7 (1)
0x230|                                    71         |            q   |                    i32.and: 0x71 (valid) 0x23c-0x23c.7 (1)
     |                                               |                |                  [8]{}: instr 0x23d-0x23d.7 (1)
0x230|                                       0b      |             .  |                    end: 0xb (valid) 0x23d-0x23d.7 (1)
     |                                               |                |          [1]{}: code 0x23e-0x24f.7 (18)
0x230|                                          11   |              . |            size: 17 0x23e-0x23e.7 (1)
     |                                               |                |            code{}: 0x23f-0x24f.7 (17)
     |                                               |                |              locals{}: 0x23f-0x23f.7 (1)
0x230|                                             00|               .|                n: 0 0x23f-0x23f.7 (1)
     |                                               |                |                items[0:0]: 0x240-NA (0)
     |                                               |                |              expr{}: 0x240-0x24f.7 (16)
     |                                               |                |                instructions[0:9]: 0x240-0x24f.7 (16)
     |                                               |                |                  [0]{}: instr 0x240-0x241.7 (2)
0x240|20                                             |                |                    local.get: 0x20 (valid) 0x240-0x240.7 (1)
0x240|   00                                          | .              |                    x: 0 0x241-0x241.7 (1)
     |                                               |                |                  [1]{}: instr 0x242-0x242.7 (1)
0x240|      be                                       |  .             |                    f32.reinterpret_i32: 0xbe (valid) 0x242-0x242.7 (1)
     |                                               |                |                  [2]{}: instr 0x243-0x244.7 (2)
0x240|         20                                    |                |                    local.get: 0x20 (valid) 0x243-0x243.7 (1)
0x240|            01                                 |    .           |                    x: 1 0x244-0x244.7 (1)
     |                                               |                |                  [3]{}: instr 0x245-0x245.7 (1)
0x240|               be                              |     .          |                    f32.reinterpret_i32: 0xbe (valid) 0x245-0x245.7 (1)
     |                                               |                |                  [4]{}: instr 0x246-0x246.7 (1)
0x240|                  95                           |      .         |                    f32.div: 0x95 (valid) 0x246-0x246.7 (1)
     |                                               |                |                  [5]{}: instr 0x247-0x247.7 (1)
0x240|                     bc                        |       .        |                    i32.reinterpret_f32: 0xbc (valid) 0x247-0x247.7 (1)
     |                                               |                |                  [6]{}: instr 0x248-0x24d.7 (6)
0x240|                        41                     |        A       |                    i32.const: 0x41 (valid) 0x248-0x248.7 (1)
0x240|                           ff ff ff ff 07      |         .....  |                    n: 2147483647 0x249-0x24d.7 (5)
     |                                               |                |                  [7]{}: instr 0x24e-0x24e.7 (1)
0x240|                                          71   |              q |                    i32.and: 0x71 (valid) 0x24e-0x24e.7 (1)
     |                                               |                |                  [8]{}: instr 0x24f-0x24f.7 (1)
0x240|                                             0b|               .|                    end: 0xb (valid) 0x24f-0x24f.7 (1)
     |                                               |                |          [2]{}: code 0x250-0x257.7 (8)
0x250|07                                             |.               |            size: 7 0x250-0x250.7 (1)
     |                                               |                |            code{}: 0x251-0x257.7 (7)
     |                                               |                |              locals{}: 0x251-0x251.7 (1)
0x250|   00                                          | .              |                n: 0 0x251-0x251.7 (1)
     |                                               |                |                items[0:0]: 0x252-NA (0)
     |                                               |                |              expr{}: 0x252-0x257.7 (6)
     |                                               |                |                instructions[0:5]: 0x252-0x257.7 (6)
     |                                               |                |                  [0]{}: instr 0x252-0x253.7 (2)
0x250|      20                                       |                |                    local.get: 0x20 (valid) 0x252-0x252.7 (1)
0x250|         00                                    |   .            |                    x: 0 0x253-0x253.7 (1)
     |                                               |                |                  [1]{}: instr 0x254-0x254.7 (1)
0x250|            be                                 |    .           |                    f32.reinterpret_i32: 0xbe (valid) 0x254-0x254.7 (1)
     |                                               |                |                  [2]{}: instr 0x255-0x255.7 (1)
0x250|               8c                              |     .          |                    f32.neg: 0x8c (valid) 0x255-0x255.7 (1)
     |                                               |                |                  [3]{}: instr 0x256-0x256.7 (1)
0x250|                  bc                           |      .         |                    i32.reinterpret_f32: 0xbc (valid) 0x256-0x256.7 (1)
     |                                               |                |                  [4]{}: instr 0x257-0x257.7 (1)
0x250|                     0b                        |       .        |                    end: 0xb (valid) 0x257-0x257.7 (1)
     |                                               |                |          [3]{}: code 0x258-0x26e.7 (23)
0x250|                        16                     |        .       |            size: 22 0x258-0x258.7 (1)
     |                                               |                |            code{}: 0x259-0x26e.7 (22)
     |                                               |                |              locals{}: 0x259-0x259.7 (1)
0x250|                           00                  |         .      |                n: 0 0x259-0x259.7 (1)
     |                                               |                |                items[0:0]: 0x25a-NA (0)
     |                                               |                |              expr{}: 0x25a-0x26e.7 (21)
     |                                               |                |                instructions[0:9]: 0x25a-0x26e.7 (21)
     |                                               |                |                  [0]{}: instr 0x25a-0x25b.7 (2)
0x250|                              20               |                |                    local.get: 0x20 (valid) 0x25a-0x25a.7 (1)
0x250|                                 00            |           .    |                    x: 0 0x25b-0x25b.7 (1)
     |                                               |                |                  [1]{}: instr 0x25c-0x25c.7 (1)
0x250|                                    bf         |            .   |                    f64.reinterpret_i64: 0xbf (valid) 0x25c-0x25c.7 (1)
     |                                               |                |                  [2]{}: instr 0x25d-0x25e.7 (2)
0x250|                                       20      |                |                    local.get: 0x20 (valid) 0x25d-0x25d.7 (1)
0x250|                                          01   |              . |                    x: 1 0x25e-0x25e.7 (1)
     |                                               |                |                  [3]{}: instr 0x25f-0x25f.7 (1)
0x250|                                             bf|               .|                    f64.reinterpret_i64: 0xbf (valid) 0x25f-0x25f.7 (1)
     |                                               |                |                  [4]{}: instr 0x260-0x260.7 (1)
0x260|a3                                             |.               |                    f64.div: 0xa3 (valid) 0x260-0x260.7 (1)
     |                                               |                |                  [5]{}: instr 0x261-0x261.7 (1)
0x260|   bd                                          | .              |                    i64.reinterpret_f64: 0xbd (valid) 0x261-0x261.7 (1)
     |                                               |                |                  [6]{}: instr 0x262-0x26c.7 (11)
0x260|      42                                       |  B             |                    i64.const: 0x42 (valid) 0x262-0x262.7 (1)
0x260|         80 80 80 80 80 80 80 fc ff 00         |   ..........   |                    n: 9221120237041090560 0x263-0x26c.7 (10)
     |                                               |                |                  [7]{}: instr 0x26d-0x26d.7 (1)
0x260|                                       83      |             .  |                    i64.and: 0x83 (valid) 0x26d-0x26d.7 (1)
     |                                               |                |                  [8]{}: instr 0x26e-0x26e.7 (1)
0x260|                                          0b   |              . |                    end: 0xb (valid) 0x26e-0x26e.7 (1)
     |                                               |                |          [4]{}: code 0x26f-0x285.7 (23)
0x260|                                             16|               .|            size: 22 0x26f-0x26f.7 (1)
     |                                               |                |            code{}: 0x270-0x285.7 (22)
     |                                               |                |              locals{}: 0x270-0x270.7 (1)
0x270|00                                             |.               |                n: 0 0x270-0x270.7 (1)
     |                                               |                |                items[0:0]: 0x271-NA (0)
     |                                               |                |              expr{}: 0x271-0x285.7 (21)
     |                                               |                |                instructions[0:9]: 0x271-0x285.7 (21)
     |                                               |                |                  [0]{}: instr 0x271-0x272.7 (2)
0x270|   20                                          |                |                    local.get: 0x20 (valid) 0x271-0x271.7 (1)
0x270|      00                                       |  .             |                    x: 0 0x272-0x272.7 (1)
     |                                               |                |                  [1]{}: instr 0x273-0x273.7 (1)
0x270|         bf                                    |   .            |                    f64.reinterpret_i64: 0xbf (valid) 0x273-0x273.7 (1)
     |                                               |                |                  [2]{}: instr 0x274-0x275.7 (2)
0x270|            20                                 |                |                    local.get: 0x20 (valid) 0x274-0x274.7 (1)
0x270|               01                              |     .          |                    x: 1 0x275-0x275.7 (1)
     |                                               |                |                  [3]{}: instr 0x276-0x276.7 (1)
0x270|                  bf                           |      .         |                    f64.reinterpret_i64: 0xbf (valid) 0x276-0x276.7 (1)
     |                                               |                |                  [4]{}: instr 0x277-0x277.7 (1)
0x270|                     a3                        |       .        |                    f64.div: 0xa3 (valid) 0x277-0x277.7 (1)
     |                                               |                |                  [5]{}: instr 0x278-0x278.7 (1)
0x270|                        bd                     |        .       |                    i64.reinterpret_f64: 0xbd (valid) 0x278-0x278.7 (1)
     |                                               |                |                  [6]{}: instr 0x279-0x283.7 (11)
0x270|                           42                  |         B      |                    i64.const: 0x42 (valid) 0x279-0x279.7 (1)
0x270|                              ff ff ff ff ff ff|          ......|                    n: 9223372036854775807 0x27a-0x283.7 (10)
0x280|ff ff ff 00                                    |....            |
     |                                               |                |                  [7]{}: instr 0x284-0x284.7 (1)
0x280|            83                                 |    .           |                    i64.and: 0x83 (valid) 0x284-0x284.7 (1)
     |                                               |                |                  [8]{}: instr 0x285-0x285.7 (1)
0x280|               0b                              |     .          |                    end: 0xb (valid) 0x285-0x285.7 (1)
     |                                               |                |          [5]{}: code 0x286-0x28d.7 (8)
0x280|                  07                           |      .         |            size: 7 0x286-0x286.7 (1)
     |                                               |                |            code{}: 0x287-0x28d.7 (7)
     |                                               |                |              locals{}: 0x287-0x287.7 (1)
0x280|                     00                        |       .        |                n: 0 0x287-0x287.7 (1)
     |                                               |                |                items[0:0]: 0x288-NA (0)
     |                                               |                |              expr{}: 0x288-0x28d.7 (6)
     |                                               |                |                instructions[0:5]: 0x288-0x28d.7 (6)
     |                                               |                |                  [0]{}: instr 0x288-0x289.7 (2)
0x280|                        20                     |                |                    local.get: 0x20 (valid) 0x288-0x288.7 (1)
0x280|                           00                  |         .      |                    x: 0 0x289-0x289.7 (1)
     |                                               |                |                  [1]{}: instr 0x28a-0x28a.7 (1)
0x280|                              bf               |          .     |                    f64.reinterpret_i64: 0xbf (valid) 0x28a-0x28a.7 (1)
     |                                               |                |                  [2]{}: instr 0x28b-0x28b.7 (1)
0x280|                                 9a            |           .    |                    f64.neg: 0x9a (valid) 0x28b-0x28b.7 (1)
     |                                               |                |                  [3]{}: instr 0x28c-0x28c.7 (1)
0x280|                                    bd         |            .   |                    i64.reinterpret_f64: 0xbd (valid) 0x28c-0x28c.7 (1)
     |                                               |                |                  [4]{}: instr 0x28d-0x28d.7 (1)
0x280|                                       0b      |             .  |                    end: 0xb (valid) 0x28d-0x28d.7 (1)
     |                                               |                |          [6]{}: code 0x28e-0x2a1.7 (20)
0x280|                                          13   |              . |            size: 19 0x28e-0x28e.7 (1)
     |                                               |                |            code{}: 0x28f-0x2a1.7 (19)
     |                                               |                |              locals{}: 0x28f-0x28f.7 (1)
0x280|                                             00|               .|                n: 0 0x28f-0x28f.7 (1)
     |                                               |                |                items[0:0]: 0x290-NA (0)
     |                                               |                |              expr{}: 0x290-0x2a1.7 (18)
     |                                               |                |                instructions[0:8]: 0x290-0x2a1.7 (18)
     |                                               |                |                  [0]{}: instr 0x290-0x291.7 (2)
0x290|20                                             |                |                    local.get: 0x20 (valid) 0x290-0x290.7 (1)
0x290|   00                                          | .              |                    x: 0 0x291-0x291.7 (1)
     |                                               |                |                  [1]{}: instr 0x292-0x292.7 (1)
0x290|      be                                       |  .             |                    f32.reinterpret_i32: 0xbe (valid) 0x292-0x292.7 (1)
     |                                               |                |                  [2]{}: instr 0x293-0x297.7 (5)
0x290|         43                                    |   C            |                    f32.const: 0x43 (valid) 0x293-0x293.7 (1)
0x290|            00 00 00 00                        |    ....        |                    z: 0 0x294-0x297.7 (4)
     |                                               |                |                  [3]{}: instr 0x298-0x298.7 (1)
0x290|                        93                     |        .       |                    f32.sub: 0x93 (valid) 0x298-0x298.7 (1)
     |                                               |                |                  [4]{}: instr 0x299-0x299.7 (1)
0x290|                           bc                  |         .      |                    i32.reinterpret_f32: 0xbc (valid) 0x299-0x299.7 (1)
     |                                               |                |                  [5]{}: instr 0x29a-0x29f.7 (6)
0x290|                              41               |          A     |                    i32.const: 0x41 (valid) 0x29a-0x29a.7 (1)
0x290|                                 80 80 80 fe 07|           .....|                    n: 2143289344 0x29b-0x29f.7 (5)
     |                                               |                |                  [6]{}: instr 0x2a0-0x2a0.7 (1)
0x2a0|71                                             |q               |                    i32.and: 0x71 (valid) 0x2a0-0x2a0.7 (1)
     |                                               |                |                  [7]{}: instr 0x2a1-0x2a1.7 (1)
0x2a0|   0b                                          | .              |                    end: 0xb (valid) 0x2a1-0x2a1.7 (1)
     |                                               |                |          [7]{}: code 0x2a2-0x2b5.7 (20)
0x2a0|      13                                       |  .             |            size: 19 0x2a2-0x2a2.7 (1)
     |                                               |                |            code{}: 0x2a3-0x2b5.7 (19)
     |                                               |                |              locals{}: 0x2a3-0x2a3.7 (1)
0x2a0|         00                                    |   .            |                n: 0 0x2a3-0x2a3.7 (1)
     |                                               |                |                items[0:0]: 0x2a4-NA (0)
     |                                               |                |              expr{}: 0x2a4-0x2b5.7 (18)
     |                                               |                |                instructions[0:8]: 0x2a4-0x2b5.7 (18)
     |                                               |                |                  [0]{}: instr 0x2a4-0x2a8.7 (5)
0x2a0|            43                                 |    C           |                    f32.const: 0x43 (valid) 0x2a4-0x2a4.7 (1)
0x2a0|               00 00 00 80                     |     ....       |                    z: -0 0x2a5-0x2a8.7 (4)
     |                                               |                |                  [1]{}: instr 0x2a9-0x2aa.7 (2)
0x2a0|                           20                  |                |                    local.get: 0x20 (valid) 0x2a9-0x2a9.7 (1)
0x2a0|                              00               |          .     |                    x: 0 0x2aa-0x2aa.7 (1)
     |                                               |                |                  [2]{}: instr 0x2ab-0x2ab.7 (1)
0x2a0|                                 be            |           .    |                    f32.reinterpret_i32: 0xbe (valid) 0x2ab-0x2ab.7 (1)
     |                                               |                |                  [3]{}: instr 0x2ac-0x2ac.7 (1)
0x2a0|                                    93         |            .   |                    f32.sub: 0x93 (valid) 0x2ac-0x2ac.7 (1)
     |                                               |                |                  [4]{}: instr 0x2ad-0x2ad.7 (1)
0x2a0|                                       bc      |             .  |                    i32.reinterpret_f32: 0xbc (valid) 0x2ad-0x2ad.7 (1)
     |                                               |                |                  [5]{}: instr 0x2ae-0x2b3.7 (6)
0x2a0|                                          41   |              A |                    i32.const: 0x41 (valid) 0x2ae-0x2ae.7 (1)
0x2a0|                                             80|               .|                    n: 2143289344 0x2af-0x2b3.7 (5)
0x2b0|80 80 fe 07                                    |....            |
     |                                               |                |                  [6]{}: instr 0x2b4-0x2b4.7 (1)
0x2b0|            71                                 |    q           |                    i32.and: 0x71 (valid) 0x2b4-0x2b4.7 (1)
     |                                               |                |                  [7]{}: instr 0x2b5-0x2b5.7 (1)
0x2b0|               0b                              |     .          |                    end: 0xb (valid) 0x2b5-0x2b5.7 (1)
     |                                               |                |          [8]{}: code 0x2b6-0x2c9.7 (20)
0x2b0|                  13                           |      .         |            size: 19 0x2b6-0x2b6.7 (1)
     |                                               |                |            code{}: 0x2b7-0x2c9.7 (19)
     |                                               |                |              locals{}: 0x2b7-0x2b7.7 (1)
0x2b0|                     00                        |       .        |                n: 0 0x2b7-0x2b7.7 (1)
     |                                               |                |                items[0:0]: 0x2b8-NA (0)
     |                                               |                |              expr{}: 0x2b8-0x2c9.7 (18)
     |                                               |                |                instructions[0:8]: 0x2b8-0x2c9.7 (18)
     |                                               |                |                  [0]{}: instr 0x2b8-0x2b9.7 (2)
0x2b0|                        20                     |                |                    local.get: 0x20 (valid) 0x2b8-0x2b8.7 (1)
0x2b0|                           00                  |         .      |                    x: 0 0x2b9-0x2b9.7 (1)
     |                                               |                |                  [1]{}: instr 0x2ba-0x2ba.7 (1)
0x2b0|                              be               |          .     |                    f32.reinterpret_i32: 0xbe (valid) 0x2ba-0x2ba.7 (1)
     |                                               |                |                  [2]{}: instr 0x2bb-0x2bf.7 (5)
0x2b0|                                 43            |           C    |                    f32.const: 0x43 (valid) 0x2bb-0x2bb.7 (1)
0x2b0|                                    00 00 80 3f|            ...?|                    z: 1 0x2bc-0x2bf.7 (4)
     |                                               |                |                  [3]{}: instr 0x2c0-0x2c0.7 (1)
0x2c0|94                                             |.               |                    f32.mul: 0x94 (valid) 0x2c0-0x2c0.7 (1)
     |                                               |                |                  [4]{}: instr 0x2c1-0x2c1.7 (1)
0x2c0|   bc                                          | .              |                    i32.reinterpret_f32: 0xbc (valid) 0x2c1-0x2c1.7 (1)
     |                                               |                |                  [5]{}: instr 0x2c2-0x2c7.7 (6)
0x2c0|      41                                       |  A             |                    i32.const: 0x41 (valid) 0x2c2-0x2c2.7 (1)
0x2c0|         80 80 80 fe 07                        |   .....        |                    n: 2143289344 0x2c3-0x2c7.7 (5)
     |                                               |                |                  [6]{}: instr 0x2c8-0x2c8.7 (1)
0x2c0|                        71                     |        q       |                    i32.and: 0x71 (valid) 0x2c8-0x2c8.7 (1)
     |                                               |                |                  [7]{}: instr 0x2c9-0x2c9.7 (1)
0x2c0|                           0b                  |         .      |                    end: 0xb (valid) 0x2c9-0x2c9.7 (1)
     |                                               |                |          [9]{}: code 0x2ca-0x2dd.7 (20)
0x2c0|                              13               |          .     |            size: 19 0x2ca-0x2ca.7 (1)
     |                                               |                |            code{}: 0x2cb-0x2dd.7 (19)
     |                                               |                |              locals{}: 0x2cb-0x2cb.7 (1)
0x2c0|                                 00            |           .    |                n: 0 0x2cb-0x2cb.7 (1)
     |                                               |                |                items[0:0]: 0x2cc-NA (0)
     |                                               |                |              expr{}: 0x2cc-0x2dd.7 (18)
     |                                               |                |                instructions[0:8]: 0x2cc-0x2dd.7 (18)
     |                                               |                |                  [0]{}: instr 0x2cc-0x2d0.7 (5)
0x2c0|                                    43         |            C   |                    f32.const: 0x43 (valid) 0x2cc-0x2cc.7 (1)
0x2c0|                                       00 00 80|             ...|                    z: -1 0x2cd-0x2d0.7 (4)
0x2d0|bf                                             |.               |
     |                                               |                |                  [1]{}: instr 0x2d1-0x2d2.7 (2)
0x2d0|   20                                          |                |                    local.get: 0x20 (valid) 0x2d1-0x2d1.7 (1)
0x2d0|      00                                       |  .             |                    x: 0 0x2d2-0x2d2.7 (1)
     |                                               |                |                  [2]{}: instr 0x2d3-0x2d3.7 (1)
0x2d0|         be                                    |   .            |                    f32.reinterpret_i32: 0xbe (valid) 0x2d3-0x2d3.7 (1)
     |                                               |                |                  [3]{}: instr 0x2d4-0x2d4.7 (1)
0x2d0|            94                                 |    .           |                    f32.mul: 0x94 (valid) 0x2d4-0x2d4.7 (1)
     |                                               |                |                  [4]{}: instr 0x2d5-0x2d5.7 (1)
0x2d0|               bc                              |     .          |                    i32.reinterpret_f32: 0xbc (valid) 0x2d5-0x2d5.7 (1)
     |                                               |                |                  [5]{}: instr 0x2d6-0x2db.7 (6)
0x2d0|                  41                           |      A         |                    i32.const: 0x41 (valid) 0x2d6-0x2d6.7 (1)
0x2d0|                     80 80 80 fe 07            |       .....    |                    n: 2143289344 0x2d7-0x2db.7 (5)
     |                                               |                |                  [6]{}: instr 0x2dc-0x2dc.7 (1)
0x2d0|                                    71         |            q   |                    i32.and: 0x71 (valid) 0x2dc-0x2dc.7 (1)
     |                                               |                |                  [7]{}: instr 0x2dd-0x2dd.7 (1)
0x2d0|                                       0b      |             .  |                    end: 0xb (valid) 0x2dd-0x2dd.7 (1)
     |                                               |                |          [10]{}: code 0x2de-0x2f1.7 (20)
0x2d0|                                          13   |              . |            size: 19 0x2de-0x2de.7 (1)
     |                                               |                |            code{}: 0x2df-0x2f1.7 (19)
     |                                               |                |              locals{}: 0x2df-0x2df.7 (1)
0x2d0|                                             00|               .|                n: 0 0x2df-0x2df.7 (1)
     |                                               |                |                items[0:0]: 0x2e0-NA (0)
     |                                               |                |              expr{}: 0x2e0-0x2f1.7 (18)
     |                                               |                |                instructions[0:8]: 0x2e0-0x2f1.7 (18)
     |                                               |                |                  [0]{}: instr 0x2e0-0x2e1.7 (2)
0x2e0|20                                             |                |                    local.get: 0x20 (valid) 0x2e0-0x2e0.7 (1)
0x2e0|   00                                          | .              |                    x: 0 0x2e1-0x2e1.7 (1)
     |                                               |                |                  [1]{}: instr 0x2e2-0x2e2.7 (1)
0x2e0|      be                                       |  .             |                    f32.reinterpret_i32: 0xbe (valid) 0x2e2-0x2e2.7 (1)
     |                                               |                |                  [2]{}: instr 0x2e3-0x2e7.7 (5)
0x2e0|         43                                    |   C            |                    f32.const: 0x43 (valid) 0x2e3-0x2e3.7 (1)
0x2e0|            00 00 80 3f                        |    ...?        |                    z: 1 0x2e4-0x2e7.7 (4)
     |                                               |                |                  [3]{}: instr 0x2e8-0x2e8.7 (1)
0x2e0|                        95                     |        .       |                    f32.div: 0x95 (valid) 0x2e8-0x2e8.7 (1)
     |                                               |                |                  [4]{}: instr 0x2e9-0x2e9.7 (1)
0x2e0|                           bc                  |         .      |                    i32.reinterpret_f32: 0xbc (valid) 0x2e9-0x2e9.7 (1)
     |                                               |                |                  [5]{}: instr 0x2ea-0x2ef.7 (6)
0x2e0|                              41               |          A     |                    i32.const: 0x41 (valid) 0x2ea-0x2ea.7 (1)
0x2e0|                                 80 80 80 fe 07|           .....|                    n: 2143289344 0x2eb-0x2ef.7 (5)
     |                                               |                |                  [6]{}: instr 0x2f0-0x2f0.7 (1)
0x2f0|71                                             |q               |                    i32.and: 0x71 (valid) 0x2f0-0x2f0.7 (1)
     |                                               |                |                  [7]{}: instr 0x2f1-0x2f1.7 (1)
0x2f0|   0b                                          | .              |                    end: 0xb (valid) 0x2f1-0x2f1.7 (1)
     |                                               |                |          [11]{}: code 0x2f2-0x305.7 (20)
0x2f0|      13                                       |  .             |            size: 19 0x2f2-0x2f2.7 (1)
     |                                               |                |            code{}: 0x2f3-0x305.7 (19)
     |                                               |                |              locals{}: 0x2f3-0x2f3.7 (1)
0x2f0|         00                                    |   .            |                n: 0 0x2f3-0x2f3.7 (1)
     |                                               |                |                items[0:0]: 0x2f4-NA (0)
     |                                               |                |              expr{}: 0x2f4-0x305.7 (18)
     |                                               |                |                instructions[0:8]: 0x2f4-0x305.7 (18)
     |                                               |                |                  [0]{}: instr 0x2f4-0x2f5.7 (2)
0x2f0|            20                                 |                |                    local.get: 0x20 (valid) 0x2f4-0x2f4.7 (1)
0x2f0|               00                              |     .          |                    x: 0 0x2f5-0x2f5.7 (1)
     |                                               |                |                  [1]{}: instr 0x2f6-0x2f6.7 (1)
0x2f0|                  be                           |      .         |                    f32.reinterpret_i32: 0xbe (valid) 0x2f6-0x2f6.7 (1)
     |                                               |                |                  [2]{}: instr 0x2f7-0x2fb.7 (5)
0x2f0|                     43                        |       C        |                    f32.const: 0x43 (valid) 0x2f7-0x2f7.7 (1)
0x2f0|                        00 00 80 bf            |        ....    |                    z: -1 0x2f8-0x2fb.7 (4)
     |                                               |                |                  [3]{}: instr 0x2fc-0x2fc.7 (1)
0x2f0|                                    95         |            .   |                    f32.div: 0x95 (valid) 0x2fc-0x2fc.7 (1)
     |                                               |                |                  [4]{}: instr 0x2fd-0x2fd.7 (1)
0x2f0|                                       bc      |             .  |                    i32.reinterpret_f32: 0xbc (valid) 0x2fd-0x2fd.7 (1)
     |                                               |                |                  [5]{}: instr 0x2fe-0x303.7 (6)
0x2f0|                                          41   |              A |                    i32.const: 0x41 (valid) 0x2fe-0x2fe.7 (1)
0x2f0|                                             80|               .|                    n: 2143289344 0x2ff-0x303.7 (5)
0x300|80 80 fe 07                                    |....            |
     |                                               |                |                  [6]{}: instr 0x304-0x304.7 (1)
0x300|            71                                 |    q           |                    i32.and: 0x71 (valid) 0x304-0x304.7 (1)
     |                                               |                |                  [7]{}: instr 0x305-0x305.7 (1)
0x300|               0b                              |     .          |                    end: 0xb (valid) 0x305-0x305.7 (1)
     |                                               |                |          [12]{}: code 0x306-0x322.7 (29)
0x300|                  1c                           |      .         |            size: 28 0x306-0x306.7 (1)
     |                                               |                |            code{}: 0x307-0x322.7 (28)
     |                                               |                |              locals{}: 0x307-0x307.7 (1)
0x300|                     00                        |       .        |                n: 0 0x307-0x307.7 (1)
     |                                               |                |                items[0:0]: 0x308-NA (0)
     |                                               |                |              expr{}: 0x308-0x322.7 (27)
     |                                               |                |                instructions[0:8]: 0x308-0x322.7 (27)
     |                                               |                |                  [0]{}: instr 0x308-0x309.7 (2)
0x300|                        20                     |                |                    local.get: 0x20 (valid) 0x308-0x308.7 (1)
0x300|                           00                  |         .      |                    x: 0 0x309-0x309.7 (1)
     |                                               |                |                  [1]{}: instr 0x30a-0x30a.7 (1)
0x300|                              bf               |          .     |                    f64.reinterpret_i64: 0xbf (valid) 0x30a-0x30a.7 (1)
     |                                               |                |                  [2]{}: instr 0x30b-0x313.7 (9)
0x300|                                 44            |           D    |                    f64.const: 0x44 (valid) 0x30b-0x30b.7 (1)
0x300|                                    00 00 00 00|            ....|                    z: 0 0x30c-0x313.7 (8)
0x310|00 00 00 00                                    |....            |
     |                                               |                |                  [3]{}: instr 0x314-0x314.7 (1)
0x310|            a1                                 |    .           |                    f64.sub: 0xa1 (valid) 0x314-0x314.7 (1)
     |                                               |                |                  [4]{}: instr 0x315-0x315.7 (1)
0x310|               bd                              |     .          |                    i64.reinterpret_f64: 0xbd (valid) 0x315-0x315.7 (1)
     |                                               |                |                  [5]{}: instr 0x316-0x320.7 (11)
0x310|                  42                           |      B         |                    i64.const: 0x42 (valid) 0x316-0x316.7 (1)
0x310|                     80 80 80 80 80 80 80 fc ff|       .........|                    n: 9221120237041090560 0x317-0x320.7 (10)
0x320|00                                             |.               |
     |                                               |                |                  [6]{}: instr 0x321-0x321.7 (1)
0x320|   83                                          | .              |                    i64.and: 0x83 (valid) 0x321-0x321.7 (1)
     |                                               |                |                  [7]{}: instr 0x322-0x322.7 (1)
0x320|      0b                                       |  .             |                    end: 0xb (valid) 0x322-0x322.7 (1)
     |                                               |                |          [13]{}: code 0x323-0x33f.7 (29)
0x320|         1c                                    |   .            |            size: 28 0x323-0x323.7 (1)
     |                                               |                |            code{}: 0x324-0x33f.7 (28)
     |                                               |                |              locals{}: 0x324-0x324.7 (1)
0x320|            00                                 |    .           |                n: 0 0x324-0x324.7 (1)
     |                                               |                |                items[0:0]: 0x325-NA (0)
     |                                               |                |              expr{}: 0x325-0x33f.7 (27)
     |                                               |                |                instructions[0:8]: 0x325-0x33f.7 (27)
     |                                               |                |                  [0]{}: instr 0x325-0x32d.7 (9)
0x320|               44                              |     D          |                    f64.const: 0x44 (valid) 0x325-0x325.7 (1)
0x320|                  00 00 00 00 00 00 00 80      |      ........  |                    z: -0 0x326-0x32d.7 (8)
     |                                               |                |                  [1]{}: instr 0x32e-0x32f.7 (2)
0x320|                                          20   |                |                    local.get: 0x20 (valid) 0x32e-0x32e.7 (1)
0x320|                                             00|               .|                    x: 0 0x32f-0x32f.7 (1)
     |                                               |                |                  [2]{}: instr 0x330-0x330.7 (1)
0x330|bf                                             |.               |                    f64.reinterpret_i64: 0xbf (valid) 0x330-0x330.7 (1)
     |                                               |                |                  [3]{}: instr 0x331-0x331.7 (1)
0x330|   a1                                          | .              |                    f64.sub: 0xa1 (valid) 0x331-0x331.7 (1)
     |                                               |                |                  [4]{}: instr 0x332-0x332.7 (1)
0x330|      bd                                       |  .             |                    i64.reinterpret_f64: 0xbd (valid) 0x332-0x332.7 (1)
     |                                               |                |                  [5]{}: instr 0x333-0x33d.7 (11)
0x330|         42                                    |   B            |                    i64.const: 0x42 (valid) 0x333-0x333.7 (1)
0x330|            80 80 80 80 80 80 80 fc ff 00      |    ..........  |                    n: 9221120237041090560 0x334-0x33d.7 (10)
     |                                               |                |                  [6]{}: instr 0x33e-0x33e.7 (1)
0x330|                                          83   |              . |                    i64.and: 0x83 (valid) 0x33e-0x33e.7 (1)
     |                                               |                |                  [7]{}: instr 0x33f-0x33f.7 (1)
0x330|                                             0b|               .|                    end: 0xb (valid) 0x33f-0x33f.7 (1)
     |                                               |                |          [14]{}: code 0x340-0x35c.7 (29)
0x340|1c                                             |.               |            size: 28 0x340-0x340.7 (1)
     |                                               |                |            code{}: 0x341-0x35c.7 (28)
     |                                               |                |              locals{}: 0x341-0x341.7 (1)
0x340|   00                                          | .              |                n: 0 0x341-0x341.7 (1)
     |                                               |                |                items[0:0]: 0x342-NA (0)
     |                                               |                |              expr{}: 0x342-0x35c.7 (27)
     |                                               |                |                instructions[0:8]: 0x342-0x35c.7 (27)
     |                                               |                |                  [0]{}: instr 0x342-0x343.7 (2)
0x340|      20                                       |                |                    local.get: 0x20 (valid) 0x342-0x342.7 (1)
0x340|         00                                    |   .            |                    x: 0 0x343-0x343.7 (1)
     |                                               |                |                  [1]{}: instr 0x344-0x344.7 (1)
0x340|            bf                                 |    .           |                    f64.reinterpret_i64: 0xbf (valid) 0x344-0x344.7 (1)
     |                                               |                |                  [2]{}: instr 0x345-0x34d.7 (9)
0x340|               44                              |     D          |                    f64.const: 0x44 (valid) 0x345-0x345.7 (1)
0x340|                  00 00 00 00 00 00 f0 3f      |      .......?  |                    z: 1 0x346-0x34d.7 (8)
     |                                               |                |                  [3]{}: instr 0x34e-0x34e.7 (1)
0x340|                                          a2   |              . |                    f64.mul: 0xa2 (valid) 0x34e-0x34e.7 (1)
     |                                               |                |                  [4]{}: instr 0x34f-0x34f.7 (1)
0x340|                                             bd|               .|                    i64.reinterpret_f64: 0xbd (valid) 0x34f-0x34f.7 (1)
     |                                               |                |                  [5]{}: instr 0x350-0x35a.7 (11)
0x350|42                                             |B               |                    i64.const: 0x42 (valid) 0x350-0x350.7 (1)
0x350|   80 80 80 80 80 80 80 fc ff 00               | ..........     |                    n: 9221120237041090560 0x351-0x35a.7 (10)
     |                                               |                |                  [6]{}: instr 0x35b-0x35b.7 (1)
0x350|                                 83            |           .    |                    i64.and: 0x83 (valid) 0x35b-0x35b.7 (1)
     |                                               |                |                  [7]{}: instr 0x35c-0x35c.7 (1)
0x350|                                    0b         |            .   |                    end: 0xb (valid) 0x35c-0x35c.7 (1)
     |                                               |                |          [15]{}: code 0x35d-0x379.7 (29)
0x350|                                       1c      |             .  |            size: 28 0x35d-0x35d.7 (1)
     |                                               |                |            code{}: 0x35e-0x379.7 (28)
     |                                               |                |              locals{}: 0x35e-0x35e.7 (1)
0x350|                                          00   |              . |                n: 0 0x35e-0x35e.7 (1)
     |                                               |                |                items[0:0]: 0x35f-NA (0)
     |                                               |                |              expr{}: 0x35f-0x379.7 (27)
     |                                               |                |                instructions[0:8]: 0x35f-0x379.7 (27)
     |                                               |                |                  [0]{}: instr 0x35f-0x367.7 (9)
0x350|                                             44|               D|                    f64.const: 0x44 (valid) 0x35f-0x35f.7 (1)
0x360|00 00 00 00 00 00 f0 bf                        |........        |                    z: -1 0x360-0x367.7 (8)
     |                                               |                |                  [1]{}: instr 0x368-0x369.7 (2)
0x360|                        20                     |                |                    local.get: 0x20 (valid) 0x368-0x368.7 (1)
0x360|                           00                  |         .      |                    x: 0 0x369-0x369.7 (1)
     |                                               |                |                  [2]{}: instr 0x36a-0x36a.7 (1)
0x360|                              bf               |          .     |                    f64.reinterpret_i64: 0xbf (valid) 0x36a-0x36a.7 (1)
     |                                               |                |                  [3]{}: instr 0x36b-0x36b.7 (1)
0x360|                                 a2            |           .    |                    f64.mul: 0xa2 (valid) 0x36b-0x36b.7 (1)
     |                                               |                |                  [4]{}: instr 0x36c-0x36c.7 (1)
0x360|                                    bd         |            .   |                    i64.reinterpret_f64: 0xbd (valid) 0x36c-0x36c.7 (1)
     |                                               |                |                  [5]{}: instr 0x36d-0x377.7 (11)
0x360|                                       42      |             B  |                    i64.const: 0x42 (valid) 0x36d-0x36d.7 (1)
0x360|                                          80 80|              ..|                    n: 9221120237041090560 0x36e-0x377.7 (10)
0x370|80 80 80 80 80 fc ff 00                        |........        |
     |                                               |                |                  [6]{}: instr 0x378-0x378.7 (1)
0x370|                        83                     |        .       |                    i64.and: 0x83 (valid) 0x378-0x378.7 (1)
     |                                               |                |                  [7]{}: instr 0x379-0x379.7 (1)
0x370|                           0b                  |         .      |                    end: 0xb (valid) 0x379-0x379.7 (1)
     |                                               |                |          [16]{}: code 0x37a-0x396.7 (29)
0x370|                              1c               |          .     |            size: 28 0x37a-0x37a.7 (1)
     |                                               |                |            code{}: 0x37b-0x396.7 (28)
     |                                               |                |              locals{}: 0x37b-0x37b.7 (1)
0x370|                                 00            |           .    |                n: 0 0x37b-0x37b.7 (1)
     |                                               |                |                items[0:0]: 0x37c-NA (0)
     |                                               |                |              expr{}: 0x37c-0x396.7 (27)
     |                                               |                |                instructions[0:8]: 0x37c-0x396.7 (27)
     |                                               |                |                  [0]{}: instr 0x37c-0x37d.7 (2)
0x370|                                    20         |                |                    local.get: 0x20 (valid) 0x37c-0x37c.7 (1)
0x370|                                       00      |             .  |                    x: 0 0x37d-0x37d.7 (1)
     |                                               |                |                  [1]{}: instr 0x37e-0x37e.7 (1)
0x370|                                          bf   |              . |                    f64.reinterpret_i64: 0xbf (valid) 0x37e-0x37e.7 (1)
     |                                               |                |                  [2]{}: instr 0x37f-0x387.7 (9)
0x370|                                             44|               D|                    f64.const: 0x44 (valid) 0x37f-0x37f.7 (1)
0x380|00 00 00 00 00 00 f0 3f                        |.......?        |                    z: 1 0x380-0x387.7 (8)
     |                                               |                |                  [3]{}: instr 0x388-0x388.7 (1)
0x380|                        a3                     |        .       |                    f64.div: 0xa3 (valid) 0x388-0x388.7 (1)
     |                                               |                |                  [4]{}: instr 0x389-0x389.7 (1)
0x380|                           bd                  |         .      |                    i64.reinterpret_f64: 0xbd (valid) 0x389-0x389.7 (1)
     |                                               |                |                  [5]{}: instr 0x38a-0x394.7 (11)
0x380|                              42               |          B     |                    i64.const: 0x42 (valid) 0x38a-0x38a.7 (1)
0x380|                                 80 80 80 80 80|           .....|                    n: 9221120237041090560 0x38b-0x394.7 (10)
0x390|80 80 fc ff 00                                 |.....           |
     |                                               |                |                  [6]{}: instr 0x395-0x395.7 (1)
0x390|               83                              |     .          |                    i64.and: 0x83 (valid) 0x395-0x395.7 (1)
     |                                               |                |                  [7]{}: instr 0x396-0x396.7 (1)
0x390|                  0b                           |      .         |                    end: 0xb (valid) 0x396-0x396.7 (1)
     |                                               |                |          [17]{}: code 0x397-0x3b3.7 (29)
0x390|                     1c                        |       .        |            size: 28 0x397-0x397.7 (1)
     |                                               |                |            code{}: 0x398-0x3b3.7 (28)
     |                                               |                |              locals{}: 0x398-0x398.7 (1)
0x390|                        00                     |        .       |                n: 0 0x398-0x398.7 (1)
     |                                               |                |                items[0:0]: 0x399-NA (0)
     |                                               |                |              expr{}: 0x399-0x3b3.7 (27)
     |                                               |                |                instructions[0:8]: 0x399-0x3b3.7 (27)
     |                                               |                |                  [0]{}: instr 0x399-0x39a.7 (2)
0x390|                           20                  |                |                    local.get: 0x20 (valid) 0x399-0x399.7 (1)
0x390|                              00               |          .     |                    x: 0 0x39a-0x39a.7 (1)
     |                                               |                |                  [1]{}: instr 0x39b-0x39b.7 (1)
0x390|                                 bf            |           .    |                    f64.reinterpret_i64: 0xbf (valid) 0x39b-0x39b.7 (1)
     |                                               |                |                  [2]{}: instr 0x39c-0x3a4.7 (9)
0x390|                                    44         |            D   |                    f64.const: 0x44 (valid) 0x39c-0x39c.7 (1)
0x390|                                       00 00 00|             ...|                    z: -1 0x39d-0x3a4.7 (8)
0x3a0|00 00 00 f0 bf                                 |.....           |
     |                                               |                |                  [3]{}: instr 0x3a5-0x3a5.7 (1)
0x3a0|               a3                              |     .          |                    f64.div: 0xa3 (valid) 0x3a5-0x3a5.7 (1)
     |                                               |                |                  [4]{}: instr 0x3a6-0x3a6.7 (1)
0x3a0|                  bd                           |      .         |                    i64.reinterpret_f64: 0xbd (valid) 0x3a6-0x3a6.7 (1)
     |                                               |                |                  [5]{}: instr 0x3a7-0x3b1.7 (11)
0x3a0|                     42                        |       B        |                    i64.const: 0x42 (valid) 0x3a7-0x3a7.7 (1)
0x3a0|                        80 80 80 80 80 80 80 fc|        ........|                    n: 9221120237041090560 0x3a8-0x3b1.7 (10)
0x3b0|ff 00                                          |..              |
     |                                               |                |                  [6]{}: instr 0x3b2-0x3b2.7 (1)
0x3b0|      83                                       |  .             |                    i64.and: 0x83 (valid) 0x3b2-0x3b2.7 (1)
     |                                               |                |                  [7]{}: instr 0x3b3-0x3b3.7 (1)
0x3b0|         0b                                    |   .            |                    end: 0xb (valid) 0x3b3-0x3b3.7 (1)
     |                                               |                |          [18]{}: code 0x3b4-0x3c3.7 (16)
0x3b0|            0f                                 |    .           |            size: 15 0x3b4-0x3b4.7 (1)
     |                                               |                |            code{}: 0x3b5-0x3c3.7 (15)
     |                                               |                |              locals{}: 0x3b5-0x3b5.7 (1)
0x3b0|               00                              |     .          |                n: 0 0x3b5-0x3b5.7 (1)
     |                                               |                |                items[0:0]: 0x3b6-NA (0)
     |                                               |                |              expr{}: 0x3b6-0x3c3.7 (14)
     |                                               |                |                instructions[0:8]: 0x3b6-0x3c3.7 (14)
     |                                               |                |                  [0]{}: instr 0x3b6-0x3b7.7 (2)
0x3b0|                  20                           |                |                    local.get: 0x20 (valid) 0x3b6-0x3b6.7 (1)
0x3b0|                     00                        |       .        |                    x: 0 0x3b7-0x3b7.7 (1)
     |                                               |                |                  [1]{}: instr 0x3b8-0x3b8.7 (1)
0x3b0|                        be                     |        .       |                    f32.reinterpret_i32: 0xbe (valid) 0x3b8-0x3b8.7 (1)
     |                                               |                |                  [2]{}: instr 0x3b9-0x3b9.7 (1)
0x3b0|                           bb                  |         .      |                    f64.promote_f32: 0xbb (valid) 0x3b9-0x3b9.7 (1)
     |                                               |                |                  [3]{}: instr 0x3ba-0x3ba.7 (1)
0x3b0|                              b6               |          .     |                    f32.demote_f64: 0xb6 (valid) 0x3ba-0x3ba.7 (1)
     |                                               |                |                  [4]{}: instr 0x3bb-0x3bb.7 (1)
0x3b0|                                 bc            |           .    |                    i32.reinterpret_f32: 0xbc (valid) 0x3bb-0x3bb.7 (1)
     |                                               |                |                  [5]{}: instr 0x3bc-0x3c1.7 (6)
0x3b0|                                    41         |            A   |                    i32.const: 0x41 (valid) 0x3bc-0x3bc.7 (1)
0x3b0|                                       80 80 80|             ...|                    n: 2143289344 0x3bd-0x3c1.7 (5)
0x3c0|fe 07                                          |..              |
     |                                               |                |                  [6]{}: instr 0x3c2-0x3c2.7 (1)
0x3c0|      71                                       |  q             |                    i32.and: 0x71 (valid) 0x3c2-0x3c2.7 (1)
     |                                               |                |                  [7]{}: instr 0x3c3-0x3c3.7 (1)
0x3c0|         0b|                                   |   .|           |                    end: 0xb (valid) 0x3c3-0x3c3.7 (1)
