$ fq -d wasm dv float_memory-5.wasm
    |00 01 02 03 04 05 06 07 08 09 0a 0b 0c 0d 0e 0f|0123456789abcdef|.{}: float_memory-5.wasm (wasm) 0x0-0xad.7 (174)
0x00|00 61 73 6d                                    |.asm            |  magic: raw bits (valid) 0x0-0x3.7 (4)
0x00|            01 00 00 00                        |    ....        |  version: 1 0x4-0x7.7 (4)
    |                                               |                |  sections[0:6]: 0x8-0xad.7 (166)
    |                                               |                |    [0]{}: section 0x8-0x15.7 (14)
0x00|                        01                     |        .       |      id: "type section" (1) 0x8-0x8.7 (1)
0x00|                           0c                  |         .      |      size: 12 0x9-0x9.7 (1)
    |                                               |                |      content{}: 0xa-0x15.7 (12)
0x00|                              03               |          .     |        n: 3 0xa-0xa.7 (1)
    |                                               |                |        items[0:3]: 0xb-0x15.7 (11)
    |                                               |                |          [0]{}: functype 0xb-0xe.7 (4)
0x00|                                 60            |           `    |            tag: 0x60 (valid) 0xb-0xb.7 (1)
    |                                               |                |            rt1{}: 0xc-0xc.7 (1)
0x00|                                    00         |            .   |              n: 0 0xc-0xc.7 (1)
    |                                               |                |              items[0:0]: 0xd-NA (0)
    |                                               |                |            rt2{}: 0xd-0xe.7 (2)
0x00|                                       01      |             .  |              n: 1 0xd-0xd.7 (1)
    |                                               |                |              items[0:1]: 0xe-0xe.7 (1)
0x00|                                          7c   |              | |                [0]: "f64" (124) valtype 0xe-0xe.7 (1)
    |                                               |                |          [1]{}: functype 0xf-0x12.7 (4)
0x00|                                             60|               `|            tag: 0x60 (valid) 0xf-0xf.7 (1)
    |                                               |                |            rt1{}: 0x10-0x10.7 (1)
0x10|00                                             |.               |              n: 0 0x10-0x10.7 (1)
    |                                               |                |              items[0:0]: 0x11-NA (0)
    |                                               |                |            rt2{}: 0x11-0x12.7 (2)
0x10|   01                                          | .              |              n: 1 0x11-0x11.7 (1)
    |                                               |                |              items[0:1]: 0x12-0x12.7 (1)
0x10|      7e                                       |  ~             |                [0]: "i64" (126) valtype 0x12-0x12.7 (1)
    |                                               |                |          [2]{}: functype 0x13-0x15.7 (3)
0x10|         60                                    |   `            |            tag: 0x60 (valid) 0x13-0x13.7 (1)
    |                                               |                |            rt1{}: 0x14-0x14.7 (1)
0x10|            00                                 |    .           |              n: 0 0x14-0x14.7 (1)
    |                                               |                |              items[0:0]: 0x15-NA (0)
    |                                               |                |            rt2{}: 0x15-0x15.7 (1)
0x10|               00                              |     .          |              n: 0 0x15-0x15.7 (1)
    |                                               |                |              items[0:0]: 0x16-NA (0)
    |                                               |                |    [1]{}: section 0x16-0x1d.7 (8)
0x10|                  03                           |      .         |      id: "function section" (3) 0x16-0x16.7 (1)
0x10|                     06                        |       .        |      size: 6 0x17-0x17.7 (1)
    |                                               |                |      content{}: 0x18-0x1d.7 (6)
0x10|                        05                     |        .       |        n: 5 0x18-0x18.7 (1)
    |                                               |                |        items[0:5]: 0x19-0x1d.7 (5)
0x10|                           00                  |         .      |          [0]: 0 x 0x19-0x19.7 (1)
0x10|                              01               |          .     |          [1]: 1 x 0x1a-0x1a.7 (1)
0x10|                                 02            |           .    |          [2]: 2 x 0x1b-0x1b.7 (1)
0x10|                                    02         |            .   |          [3]: 2 x 0x1c-0x1c.7 (1)
0x10|                                       02      |             .  |          [4]: 2 x 0x1d-0x1d.7 (1)
    |                                               |                |    [2]{}: section 0x1e-0x23.7 (6)
0x10|                                          05   |              . |      id: "memory section" (5) 0x1e-0x1e.7 (1)
0x10|                                             04|               .|      size: 4 0x1f-0x1f.7 (1)
    |                                               |                |      content{}: 0x20-0x23.7 (4)
0x20|01                                             |.               |        n: 1 0x20-0x20.7 (1)
    |                                               |                |        items[0:1]: 0x21-0x23.7 (3)
    |                                               |                |          [0]{}: mem 0x21-0x23.7 (3)
    |                                               |                |            limits{}: 0x21-0x23.7 (3)
0x20|   01                                          | .              |              tag: 0x1 0x21-0x21.7 (1)
0x20|      01                                       |  .             |              min: 1 0x22-0x22.7 (1)
0x20|         01                                    |   .            |              max: 1 0x23-0x23.7 (1)
    |                                               |                |    [3]{}: section 0x24-0x5c.7 (57)
0x20|            07                                 |    .           |      id: "export section" (7) 0x24-0x24.7 (1)
0x20|               37                              |     7          |      size: 55 0x25-0x25.7 (1)
    |                                               |                |      content{}: 0x26-0x5c.7 (55)
0x20|                  05                           |      .         |        n: 5 0x26-0x26.7 (1)
    |                                               |                |        items[0:5]: 0x27-0x5c.7 (54)
    |                                               |                |          [0]{}: export 0x27-0x31.7 (11)
    |                                               |                |            name{}: 0x27-0x2f.7 (9)
0x20|                     08                        |       .        |              len: 8 0x27-0x27.7 (1)
0x20|                        66 36 34 2e 6c 6f 61 64|        f64.load|              utf8bytes: "f64.load" 0x28-0x2f.7 (8)
    |                                               |                |            expr{}: 0x30-0x31.7 (2)
0x30|00                                             |.               |              tag: "funcidx" (0x0) 0x30-0x30.7 (1)
0x30|   00                                          | .              |              x: 0 0x31-0x31.7 (1)
    |                                               |                |          [1]{}: export 0x32-0x3c.7 (11)
    |                                               |                |            name{}: 0x32-0x3a.7 (9)
0x30|      08                                       |  .             |              len: 8 0x32-0x32.7 (1)
0x30|         69 36 34 2e 6c 6f 61 64               |   i64.load     |              utf8bytes: "i64.load" 0x33-0x3a.7 (8)
    |                                               |                |            expr{}: 0x3b-0x3c.7 (2)
0x30|                                 00            |           .    |              tag: "funcidx" (0x0) 0x3b-0x3b.7 (1)
0x30|                                    01         |            .   |              x: 1 0x3c-0x3c.7 (1)
    |                                               |                |          [2]{}: export 0x3d-0x48.7 (12)
    |                                               |                |            name{}: 0x3d-0x46.7 (10)
0x30|                                       09      |             .  |              len: 9 0x3d-0x3d.7 (1)
0x30|                                          66 36|              f6|              utf8bytes: "f64.store" 0x3e-0x46.7 (9)
0x40|34 2e 73 74 6f 72 65                           |4.store         |
    |                                               |                |            expr{}: 0x47-0x48.7 (2)
0x40|                     00                        |       .        |              tag: "funcidx" (0x0) 0x47-0x47.7 (1)
0x40|                        02                     |        .       |              x: 2 0x48-0x48.7 (1)
    |                                               |                |          [3]{}: export 0x49-0x54.7 (12)
    |                                               |                |            name{}: 0x49-0x52.7 (10)
0x40|                           09                  |         .      |              len: 9 0x49-0x49.7 (1)
0x40|                              69 36 34 2e 73 74|          i64.st|              utf8bytes: "i64.store" 0x4a-0x52.7 (9)
0x50|6f 72 65                                       |ore             |
    |                                               |                |            expr{}: 0x53-0x54.7 (2)
0x50|         00                                    |   .            |              tag: "funcidx" (0x0) 0x53-0x53.7 (1)
0x50|            03                                 |    .           |              x: 3 0x54-0x54.7 (1)
    |                                               |                |          [4]{}: export 0x55-0x5c.7 (8)
    |                                               |                |            name{}: 0x55-0x5a.7 (6)
0x50|               05                              |     .          |              len: 5 0x55-0x55.7 (1)
0x50|                  72 65 73 65 74               |      reset     |              utf8bytes: "reset" 0x56-0x5a.7 (5)
    |                                               |                |            expr{}: 0x5b-0x5c.7 (2)
0x50|                                 00            |           .    |              tag: "funcidx" (0x0) 0x5b-0x5b.7 (1)
0x50|                                    04         |            .   |              x: 4 0x5c-0x5c.7 (1)
    |                                               |                |    [4]{}: section 0x5d-0x9d.7 (65)
0x50|                                       0a      |             .  |      id: "code section" (10) 0x5d-0x5d.7 (1)
0x50|                                          3f   |              ? |      size: 63 0x5e-0x5e.7 (1)
    |                                               |                |      content{}: 0x5f-0x9d.7 (63)
0x50|                                             05|               .|        n: 5 0x5f-0x5f.7 (1)
    |                                               |                |        items[0:5]: 0x60-0x9d.7 (62)
    |                                               |                |          [0]{}: code 0x60-0x67.7 (8)
0x60|07                                             |.               |            size: 7 0x60-0x60.7 (1)
    |                                               |                |            code{}: 0x61-0x67.7 (7)
    |                                               |                |              locals{}: 0x61-0x61.7 (1)
0x60|   00                                          | .              |                n: 0 0x61-0x61.7 (1)
    |                                               |                |                items[0:0]: 0x62-NA (0)
    |                                               |                |              expr{}: 0x62-0x67.7 (6)
    |                                               |                |                instructions[0:3]: 0x62-0x67.7 (6)
    |                                               |                |                  [0]{}: instr 0x62-0x63.7 (2)
0x60|      41                                       |  A             |                    i32.const: 0x41 (valid) 0x62-0x62.7 (1)
0x60|         00                                    |   .            |                    n: 0 0x63-0x63.7 (1)
    |                                               |                |                  [1]{}: instr 0x64-0x66.7 (3)
0x60|            2b                                 |    +           |                    f64.load: 0x2b (valid) 0x64-0x64.7 (1)
0x60|               03                              |     .          |                    align: 3 0x65-0x65.7 (1)
0x60|                  00                           |      .         |                    offset: 0 0x66-0x66.7 (1)
    |                                               |                |                  [2]{}: instr 0x67-0x67.7 (1)
0x60|                     0b                        |       .        |                    end: 0xb (valid) 0x67-0x67.7 (1)
    |                                               |                |          [1]{}: code 0x68-0x6f.7 (8)
0x60|                        07                     |        .       |            size: 7 0x68-0x68.7 (1)
    |                                               |                |            code{}: 0x69-0x6f.7 (7)
    |                                               |                |              locals{}: 0x69-0x69.7 (1)
0x60|                           00                  |         .      |                n: 0 0x69-0x69.7 (1)
    |                                               |                |                items[0:0]: 0x6a-NA (0)
    |                                               |                |              expr{}: 0x6a-0x6f.7 (6)
    |                                               |                |                instructions[0:3]: 0x6a-0x6f.7 (6)
    |                                               |                |                  [0]{}: instr 0x6a-0x6b.7 (2)
0x60|                              41               |          A     |                    i32.const: 0x41 (valid) 0x6a-0x6a.7 (1)
0x60|                                 00            |           .    |                    n: 0 0x6b-0x6b.7 (1)
    |                                               |                |                  [1]{}: instr 0x6c-0x6e.7 (3)
0x60|                                    29         |            )   |                    i64.load: 0x29 (valid) 0x6c-0x6c.7 (1)
0x60|                                       03      |             .  |                    align: 3 0x6d-0x6d.7 (1)
0x60|                                          00   |              . |                    offset: 0 0x6e-0x6e.7 (1)
    |                                               |                |                  [2]{}: instr 0x6f-0x6f.7 (1)
0x60|                                             0b|               .|                    end: 0xb (valid) 0x6f-0x6f.7 (1)
    |                                               |                |          [2]{}: code 0x70-0x80.7 (17)
0x70|10                                             |.               |            size: 16 0x70-0x70.7 (1)
    |                                               |                |            code{}: 0x71-0x80.7 (16)
    |                                               |                |              locals{}: 0x71-0x71.7 (1)
0x70|   00                                          | .              |                n: 0 0x71-0x71.7 (1)
    |                                               |                |                items[0:0]: 0x72-NA (0)
    |                                               |                |              expr{}: 0x72-0x80.7 (15)
    |                                               |                |                instructions[0:4]: 0x72-0x80.7 (15)
    |                                               |                |                  [0]{}: instr 0x72-0x73.7 (2)
0x70|      41                                       |  A             |                    i32.const: 0x41 (valid) 0x72-0x72.7 (1)
0x70|         00                                    |   .            |                    n: 0 0x73-0x73.7 (1)
    |                                               |                |                  [1]{}: instr 0x74-0x7c.7 (9)
0x70|            44                                 |    D           |                    f64.const: 0x44 (valid) 0x74-0x74.7 (1)
0x70|               01 00 00 00 00 00 fc 7f         |     ........   |                    z: NaN 0x75-0x7c.7 (8)
    |                                               |                |                  [2]{}: instr 0x7d-0x7f.7 (3)
0x70|                                       39      |             9  |                    f64.store: 0x39 (valid) 0x7d-0x7d.7 (1)
0x70|                                          03   |              . |                    align: 3 0x7e-0x7e.7 (1)
0x70|                                             00|               .|                    offset: 0 0x7f-0x7f.7 (1)
    |                                               |                |                  [3]{}: instr 0x80-0x80.7 (1)
0x80|0b                                             |.               |                    end: 0xb (valid) 0x80-0x80.7 (1)
    |                                               |                |          [3]{}: code 0x81-0x93.7 (19)
0x80|   12                                          | .              |            size: 18 0x81-0x81.7 (1)
    |                                               |                |            code{}: 0x82-0x93.7 (18)
    |                                               |                |              locals{}: 0x82-0x82.7 (1)
0x80|      00                                       |  .             |                n: 0 0x82-0x82.7 (1)
    |                                               |                |                items[0:0]: 0x83-NA (0)
    |                                               |                |              expr{}: 0x83-0x93.7 (17)
    |                                               |                |                instructions[0:4]: 0x83-0x93.7 (17)
    |                                               |                |                  [0]{}: instr 0x83-0x84.7 (2)
0x80|         41                                    |   A            |                    i32.const: 0x41 (valid) 0x83-0x83.7 (1)
0x80|            00                                 |    .           |                    n: 0 0x84-0x84.7 (1)
    |                                               |                |                  [1]{}: instr 0x85-0x8f.7 (11)
0x80|               42                              |     B          |                    i64.const: 0x42 (valid) 0x85-0x85.7 (1)
0x80|                  81 80 80 80 80 80 80 fe ff 00|      ..........|                    n: 9222246136947933185 0x86-0x8f.7 (10)
    |                                               |                |                  [2]{}: instr 0x90-0x92.7 (3)
0x90|37                                             |7               |                    i64.store: 0x37 (valid) 0x90-0x90.7 (1)
0x90|   03                                          | .              |                    align: 3 0x91-0x91.7 (1)
0x90|      00                                       |  .             |                    offset: 0 0x92-0x92.7 (1)
    |                                               |                |                  [3]{}: instr 0x93-0x93.7 (1)
0x90|         0b                                    |   .            |                    end: 0xb (valid) 0x93-0x93.7 (1)
    |                                               |                |          [4]{}: code 0x94-0x9d.7 (10)
0x90|            09                                 |    .           |            size: 9 0x94-0x94.7 (1)
    |                                               |                |            code{}: 0x95-0x9d.7 (9)
    |                                               |                |              locals{}: 0x95-0x95.7 (1)
0x90|               00                              |     .          |                n: 0 0x95-0x95.7 (1)
    |                                               |                |                items[0:0]: 0x96-NA (0)
    |                                               |                |              expr{}: 0x96-0x9d.7 (8)
    |                                               |                |                instructions[0:4]: 0x96-0x9d.7 (8)
    |                                               |                |                  [0]{}: instr 0x96-0x97.7 (2)
0x90|                  41                           |      A         |                    i32.const: 0x41 (valid) 0x96-0x96.7 (1)
0x90|                     00                        |       .        |                    n: 0 0x97-0x97.7 (1)
    |                                               |                |                  [1]{}: instr 0x98-0x99.7 (2)
0x90|                        42                     |        B       |                    i64.const: 0x42 (valid) 0x98-0x98.7 (1)
0x90|                           00                  |         .      |                    n: 0 0x99-0x99.7 (1)
    |                                               |                |                  [2]{}: instr 0x9a-0x9c.7 (3)
0x90|                              37               |          7     |                    i64.store: 0x37 (valid) 0x9a-0x9a.7 (1)
0x90|                                 03            |           .    |                    align: 3 0x9b-0x9b.7 (1)
0x90|                                    00         |            .   |                    offset: 0 0x9c-0x9c.7 (1)
    |                                               |                |                  [3]{}: instr 0x9d-0x9d.7 (1)
0x90|                                       0b      |             .  |                    end: 0xb (valid) 0x9d-0x9d.7 (1)
    |                                               |                |    [5]{}: section 0x9e-0xad.7 (16)
0x90|                                          0b   |              . |      id: "data section" (11) 0x9e-0x9e.7 (1)
0x90|                                             0e|               .|      size: 14 0x9f-0x9f.7 (1)
    |                                               |                |      content{}: 0xa0-0xad.7 (14)
0xa0|01                                             |.               |        n: 1 0xa0-0xa0.7 (1)
    |                                               |                |        items[0:1]: 0xa1-0xad.7 (13)
    |                                               |                |          [0]{}: data 0xa1-0xad.7 (13)
0xa0|   00                                          | .              |            tag: 0 0xa1-0xa1.7 (1)
    |                                               |                |            instructions[0:2]: 0xa2-0xa4.7 (3)
    |                                               |                |              [0]{}: instr 0xa2-0xa3.7 (2)
0xa0|      41                                       |  A             |                i32.const: 0x41 (valid) 0xa2-0xa2.7 (1)
0xa0|         00                                    |   .            |                n: 0 0xa3-0xa3.7 (1)
    |                                               |                |              [1]{}: instr 0xa4-0xa4.7 (1)
0xa0|            0b                                 |    .           |                end: 0xb (valid) 0xa4-0xa4.7 (1)
0xa0|               08                              |     .          |            n: 8 0xa5-0xa5.7 (1)
0xa0|                  01 00 00 00 00 00 fc 7f|     |      ........| |            bytes: raw bits 0xa6-0xad.7 (8)
