$ fq -d wasm dv float_exprs-65.wasm
    |00 01 02 03 04 05 06 07 08 09 0a 0b 0c 0d 0e 0f|0123456789abcdef|.{}: float_exprs-65.wasm (wasm) 0x0-0x69.7 (106)
0x00|00 61 73 6d                                    |.asm            |  magic: raw bits (valid) 0x0-0x3.7 (4)
0x00|            01 00 00 00                        |    ....        |  version: 1 0x4-0x7.7 (4)
    |                                               |                |  sections[0:4]: 0x8-0x69.7 (98)
    |                                               |                |    [0]{}: section 0x8-0x16.7 (15)
0x00|                        01                     |        .       |      id: "type section" (1) 0x8-0x8.7 (1)
0x00|                           0d                  |         .      |      size: 13 0x9-0x9.7 (1)
    |                                               |                |      content{}: 0xa-0x16.7 (13)
0x00|                              02               |          .     |        n: 2 0xa-0xa.7 (1)
    |                                               |                |        items[0:2]: 0xb-0x16.7 (12)
    |                                               |                |          [0]{}: functype 0xb-0x10.7 (6)
0x00|                                 60            |           `    |            tag: 0x60 (valid) 0xb-0xb.7 (1)
    |                                               |                |            rt1{}: 0xc-0xe.7 (3)
0x00|                                    02         |            .   |              n: 2 0xc-0xc.7 (1)
    |                                               |                |              items[0:2]: 0xd-0xe.7 (2)
0x00|                                       7d      |             }  |                [0]: "f32" (125) valtype 0xd-0xd.7 (1)
0x00|                                          7d   |              } |                [1]: "f32" (125) valtype 0xe-0xe.7 (1)
    |                                               |                |            rt2{}: 0xf-0x10.7 (2)
0x00|                                             01|               .|              n: 1 0xf-0xf.7 (1)
    |                                               |                |              items[0:1]: 0x10-0x10.7 (1)
0x10|7d                                             |}               |                [0]: "f32" (125) valtype 0x10-0x10.7 (1)
    |                                               |                |          [1]{}: functype 0x11-0x16.7 (6)
0x10|   60                                          | `              |            tag: 0x60 (valid) 0x11-0x11.7 (1)
    |                                               |                |            rt1{}: 0x12-0x14.7 (3)
0x10|      02                                       |  .             |              n: 2 0x12-0x12.7 (1)
    |                                               |                |              items[0:2]: 0x13-0x14.7 (2)
0x10|         7c                                    |   |            |                [0]: "f64" (124) valtype 0x13-0x13.7 (1)
0x10|            7c                                 |    |           |                [1]: "f64" (124) valtype 0x14-0x14.7 (1)
    |                                               |                |            rt2{}: 0x15-0x16.7 (2)
0x10|               01                              |     .          |              n: 1 0x15-0x15.7 (1)
    |                                               |                |              items[0:1]: 0x16-0x16.7 (1)
0x10|                  7c                           |      |         |                [0]: "f64" (124) valtype 0x16-0x16.7 (1)
    |                                               |                |    [1]{}: section 0x17-0x1b.7 (5)
0x10|                     03                        |       .        |      id: "function section" (3) 0x17-0x17.7 (1)
0x10|                        03                     |        .       |      size: 3 0x18-0x18.7 (1)
    |                                               |                |      content{}: 0x19-0x1b.7 (3)
0x10|                           02                  |         .      |        n: 2 0x19-0x19.7 (1)
    |                                               |                |        items[0:2]: 0x1a-0x1b.7 (2)
0x10|                              00               |          .     |          [0]: 0 x 0x1a-0x1a.7 (1)
0x10|                                 01            |           .    |          [1]: 1 x 0x1b-0x1b.7 (1)
    |                                               |                |    [2]{}: section 0x1c-0x52.7 (55)
0x10|                                    07         |            .   |      id: "export section" (7) 0x1c-0x1c.7 (1)
0x10|                                       35      |             5  |      size: 53 0x1d-0x1d.7 (1)
    |                                               |                |      content{}: 0x1e-0x52.7 (53)
0x10|                                          02   |              . |        n: 2 0x1e-0x1e.7 (1)
    |                                               |                |        items[0:2]: 0x1f-0x52.7 (52)
    |                                               |                |          [0]{}: export 0x1f-0x38.7 (26)
    |                                               |                |            name{}: 0x1f-0x36.7 (24)
0x10|                                             17|               .|              len: 23 0x1f-0x1f.7 (1)
0x20|66 33 32 2e 6e 6f 5f 66 6f 6c 64 5f 61 64 64 5f|f32.no_fold_add_|              utf8bytes: "f32.no_fold_add_neg_neg" 0x20-0x36.7 (23)
0x30|6e 65 67 5f 6e 65 67                           |neg_neg         |
    |                                               |                |            expr{}: 0x37-0x38.7 (2)
0x30|                     00                        |       .        |              tag: "funcidx" (0x0) 0x37-0x37.7 (1)
0x30|                        00                     |        .       |              x: 0 0x38-0x38.7 (1)
    |                                               |                |          [1]{}: export 0x39-0x52.7 (26)
    |                                               |                |            name{}: 0x39-0x50.7 (24)
0x30|                           17                  |         .      |              len: 23 0x39-0x39.7 (1)
0x30|                              66 36 34 2e 6e 6f|          f64.no|              utf8bytes: "f64.no_fold_add_neg_neg" 0x3a-0x50.7 (23)
0x40|5f 66 6f 6c 64 5f 61 64 64 5f 6e 65 67 5f 6e 65|_fold_add_neg_ne|
0x50|67                                             |g               |
    |                                               |                |            expr{}: 0x51-0x52.7 (2)
0x50|   00                                          | .              |              tag: "funcidx" (0x0) 0x51-0x51.7 (1)
0x50|      01                                       |  .             |              x: 1 0x52-0x52.7 (1)
    |                                               |                |    [3]{}: section 0x53-0x69.7 (23)
0x50|         0a                                    |   .            |      id: "code section" (10) 0x53-0x53.7 (1)
0x50|            15                                 |    .           |      size: 21 0x54-0x54.7 (1)
    |                                               |                |      content{}: 0x55-0x69.7 (21)
0x50|               02                              |     .          |        n: 2 0x55-0x55.7 (1)
    |                                               |                |        items[0:2]: 0x56-0x69.7 (20)
    |                                               |                |          [0]{}: code 0x56-0x5f.7 (10)
0x50|                  09                           |      .         |            size: 9 0x56-0x56.7 (1)
    |                                               |                |            code{}: 0x57-0x5f.7 (9)
    |                                               |                |              locals{}: 0x57-0x57.7 (1)
0x50|                     00                        |       .        |                n: 0 0x57-0x57.7 (1)
    |                                               |                |                items[0:0]: 0x58-NA (0)
    |                                               |                |              expr{}: 0x58-0x5f.7 (8)
    |                                               |                |                instructions[0:6]: 0x58-0x5f.7 (8)
    |                                               |                |                  [0]{}: instr 0x58-0x59.7 (2)
0x50|                        20                     |                |                    local.get: 0x20 (valid) 0x58-0x58.7 (1)
0x50|                           00                  |         .      |                    x: 0 0x59-0x59.7 (1)
    |                                               |                |                  [1]{}: instr 0x5a-0x5a.7 (1)
0x50|                              8c               |          .     |                    f32.neg: 0x8c (valid) 0x5a-0x5a.7 (1)
    |                                               |                |                  [2]{}: instr 0x5b-0x5c.7 (2)
0x50|                                 20            |                |                    local.get: 0x20 (valid) 0x5b-0x5b.7 (1)
0x50|                                    01         |            .   |                    x: 1 0x5c-0x5c.7 (1)
    |                                               |                |                  [3]{}: instr 0x5d-0x5d.7 (1)
0x50|                                       8c      |             .  |                    f32.neg: 0x8c (valid) 0x5d-0x5d.7 (1)
    |                                               |                |                  [4]{}: instr 0x5e-0x5e.7 (1)
0x50|                                          92   |              . |                    f32.add: 0x92 (valid) 0x5e-0x5e.7 (1)
    |                                               |                |                  [5]{}: instr 0x5f-0x5f.7 (1)
0x50|                                             0b|               .|                    end: 0xb (valid) 0x5f-0x5f.7 (1)
    |                                               |                |          [1]{}: code 0x60-0x69.7 (10)
0x60|09                                             |.               |            size: 9 0x60-0x60.7 (1)
    |                                               |                |            code{}: 0x61-0x69.7 (9)
    |                                               |                |              locals{}: 0x61-0x61.7 (1)
0x60|   00                                          | .              |                n: 0 0x61-0x61.7 (1)
    |                                               |                |                items[0:0]: 0x62-NA (0)
    |                                               |                |              expr{}: 0x62-0x69.7 (8)
    |                                               |                |                instructions[0:6]: 0x62-0x69.7 (8)
    |                                               |                |                  [0]{}: instr 0x62-0x63.7 (2)
0x60|      20                                       |                |                    local.get: 0x20 (valid) 0x62-0x62.7 (1)
0x60|         00                                    |   .            |                    x: 0 0x63-0x63.7 (1)
    |                                               |                |                  [1]{}: instr 0x64-0x64.7 (1)
0x60|            9a                                 |    .           |                    f64.neg: 0x9a (valid) 0x64-0x64.7 (1)
    |                                               |                |                  [2]{}: instr 0x65-0x66.7 (2)
0x60|               20                              |                |                    local.get: 0x20 (valid) 0x65-0x65.7 (1)
0x60|                  01                           |      .         |                    x: 1 0x66-0x66.7 (1)
    |                                               |                |                  [3]{}: instr 0x67-0x67.7 (1)
0x60|                     9a                        |       .        |                    f64.neg: 0x9a (valid) 0x67-0x67.7 (1)
    |                                               |                |                  [4]{}: instr 0x68-0x68.7 (1)
0x60|                        a0                     |        .       |                    f64.add: 0xa0 (valid) 0x68-0x68.7 (1)
    |                                               |                |                  [5]{}: instr 0x69-0x69.7 (1)
0x60|                           0b|                 |         .|     |                    end: 0xb (valid) 0x69-0x69.7 (1)
