$ fq -d wasm dv func-3.wasm
     |00 01 02 03 04 05 06 07 08 09 0a 0b 0c 0d 0e 0f|0123456789abcdef|.{}: func-3.wasm (wasm) 0x0-0x1cb.7 (460)
0x000|00 61 73 6d                                    |.asm            |  magic: raw bits (valid) 0x0-0x3.7 (4)
0x000|            01 00 00 00                        |    ....        |  version: 1 0x4-0x7.7 (4)
     |                                               |                |  sections[0:6]: 0x8-0x1cb.7 (452)
     |                                               |                |    [0]{}: section 0x8-0x26.7 (31)
0x000|                        01                     |        .       |      id: "type section" (1) 0x8-0x8.7 (1)
0x000|                           1d                  |         .      |      size: 29 0x9-0x9.7 (1)
     |                                               |                |      content{}: 0xa-0x26.7 (29)
0x000|                              04               |          .     |        n: 4 0xa-0xa.7 (1)
     |                                               |                |        items[0:4]: 0xb-0x26.7 (28)
     |                                               |                |          [0]{}: functype 0xb-0xd.7 (3)
0x000|                                 60            |           `    |            tag: 0x60 (valid) 0xb-0xb.7 (1)
     |                                               |                |            rt1{}: 0xc-0xc.7 (1)
0x000|                                    00         |            .   |              n: 0 0xc-0xc.7 (1)
     |                                               |                |              items[0:0]: 0xd-NA (0)
     |                                               |                |            rt2{}: 0xd-0xd.7 (1)
0x000|                                       00      |             .  |              n: 0 0xd-0xd.7 (1)
     |                                               |                |              items[0:0]: 0xe-NA (0)
     |                                               |                |          [1]{}: functype 0xe-0x10.7 (3)
0x000|                                          60   |              ` |            tag: 0x60 (valid) 0xe-0xe.7 (1)
     |                                               |                |            rt1{}: 0xf-0xf.7 (1)
0x000|                                             00|               .|              n: 0 0xf-0xf.7 (1)
     |                                               |                |              items[0:0]: 0x10-NA (0)
     |                                               |                |            rt2{}: 0x10-0x10.7 (1)
0x010|00                                             |.               |              n: 0 0x10-0x10.7 (1)
     |                                               |                |              items[0:0]: 0x11-NA (0)
     |                                               |                |          [2]{}: functype 0x11-0x1b.7 (11)
0x010|   60                                          | `              |            tag: 0x60 (valid) 0x11-0x11.7 (1)
     |                                               |                |            rt1{}: 0x12-0x1a.7 (9)
0x010|      08                                       |  .             |              n: 8 0x12-0x12.7 (1)
     |                                               |                |              items[0:8]: 0x13-0x1a.7 (8)
0x010|         7e                                    |   ~            |                [0]: "i64" (126) valtype 0x13-0x13.7 (1)
0x010|            7e                                 |    ~           |                [1]: "i64" (126) valtype 0x14-0x14.7 (1)
0x010|               7c                              |     |          |                [2]: "f64" (124) valtype 0x15-0x15.7 (1)
0x010|                  7e                           |      ~         |                [3]: "i64" (126) valtype 0x16-0x16.7 (1)
0x010|                     7c                        |       |        |                [4]: "f64" (124) valtype 0x17-0x17.7 (1)
0x010|                        7e                     |        ~       |                [5]: "i64" (126) valtype 0x18-0x18.7 (1)
0x010|                           7d                  |         }      |                [6]: "f32" (125) valtype 0x19-0x19.7 (1)
0x010|                              7f               |          .     |                [7]: "i32" (127) valtype 0x1a-0x1a.7 (1)
     |                                               |                |            rt2{}: 0x1b-0x1b.7 (1)
0x010|                                 00            |           .    |              n: 0 0x1b-0x1b.7 (1)
     |                                               |                |              items[0:0]: 0x1c-NA (0)
     |                                               |                |          [3]{}: functype 0x1c-0x26.7 (11)
0x010|                                    60         |            `   |            tag: 0x60 (valid) 0x1c-0x1c.7 (1)
     |                                               |                |            rt1{}: 0x1d-0x25.7 (9)
0x010|                                       08      |             .  |              n: 8 0x1d-0x1d.7 (1)
     |                                               |                |              items[0:8]: 0x1e-0x25.7 (8)
0x010|                                          7c   |              | |                [0]: "f64" (124) valtype 0x1e-0x1e.7 (1)
0x010|                                             7e|               ~|                [1]: "i64" (126) valtype 0x1f-0x1f.7 (1)
0x020|7c                                             ||               |                [2]: "f64" (124) valtype 0x20-0x20.7 (1)
0x020|   7e                                          | ~              |                [3]: "i64" (126) valtype 0x21-0x21.7 (1)
0x020|      7c                                       |  |             |                [4]: "f64" (124) valtype 0x22-0x22.7 (1)
0x020|         7e                                    |   ~            |                [5]: "i64" (126) valtype 0x23-0x23.7 (1)
0x020|            7d                                 |    }           |                [6]: "f32" (125) valtype 0x24-0x24.7 (1)
0x020|               7f                              |     .          |                [7]: "i32" (127) valtype 0x25-0x25.7 (1)
     |                                               |                |            rt2{}: 0x26-0x26.7 (1)
0x020|                  00                           |      .         |              n: 0 0x26-0x26.7 (1)
     |                                               |                |              items[0:0]: 0x27-NA (0)
     |                                               |                |    [1]{}: section 0x27-0x34.7 (14)
0x020|                     03                        |       .        |      id: "function section" (3) 0x27-0x27.7 (1)
0x020|                        0c                     |        .       |      size: 12 0x28-0x28.7 (1)
     |                                               |                |      content{}: 0x29-0x34.7 (12)
0x020|                           0b                  |         .      |        n: 11 0x29-0x29.7 (1)
     |                                               |                |        items[0:11]: 0x2a-0x34.7 (11)
0x020|                              00               |          .     |          [0]: 0 x 0x2a-0x2a.7 (1)
0x020|                                 03            |           .    |          [1]: 3 x 0x2b-0x2b.7 (1)
0x020|                                    00         |            .   |          [2]: 0 x 0x2c-0x2c.7 (1)
0x020|                                       03      |             .  |          [3]: 3 x 0x2d-0x2d.7 (1)
0x020|                                          03   |              . |          [4]: 3 x 0x2e-0x2e.7 (1)
0x020|                                             02|               .|          [5]: 2 x 0x2f-0x2f.7 (1)
0x030|02                                             |.               |          [6]: 2 x 0x30-0x30.7 (1)
0x030|   00                                          | .              |          [7]: 0 x 0x31-0x31.7 (1)
0x030|      00                                       |  .             |          [8]: 0 x 0x32-0x32.7 (1)
0x030|         00                                    |   .            |          [9]: 0 x 0x33-0x33.7 (1)
0x030|            00                                 |    .           |          [10]: 0 x 0x34-0x34.7 (1)
     |                                               |                |    [2]{}: section 0x35-0x3b.7 (7)
0x030|               04                              |     .          |      id: "table section" (4) 0x35-0x35.7 (1)
0x030|                  05                           |      .         |      size: 5 0x36-0x36.7 (1)
     |                                               |                |      content{}: 0x37-0x3b.7 (5)
0x030|                     01                        |       .        |        n: 1 0x37-0x37.7 (1)
     |                                               |                |        items[0:1]: 0x38-0x3b.7 (4)
     |                                               |                |          [0]{}: table 0x38-0x3b.7 (4)
0x030|                        70                     |        p       |            reftype: "funcref" (112) 0x38-0x38.7 (1)
     |                                               |                |            limits{}: 0x39-0x3b.7 (3)
0x030|                           01                  |         .      |              tag: 0x1 0x39-0x39.7 (1)
0x030|                              07               |          .     |              min: 7 0x3a-0x3a.7 (1)
0x030|                                 07            |           .    |              max: 7 0x3b-0x3b.7 (1)
     |                                               |                |    [3]{}: section 0x3c-0xb4.7 (121)
0x030|                                    07         |            .   |      id: "export section" (7) 0x3c-0x3c.7 (1)
0x030|                                       77      |             w  |      size: 119 0x3d-0x3d.7 (1)
     |                                               |                |      content{}: 0x3e-0xb4.7 (119)
0x030|                                          04   |              . |        n: 4 0x3e-0x3e.7 (1)
     |                                               |                |        items[0:4]: 0x3f-0xb4.7 (118)
     |                                               |                |          [0]{}: export 0x3f-0x5a.7 (28)
     |                                               |                |            name{}: 0x3f-0x58.7 (26)
0x030|                                             19|               .|              len: 25 0x3f-0x3f.7 (1)
0x040|73 69 67 6e 61 74 75 72 65 2d 65 78 70 6c 69 63|signature-explic|              utf8bytes: "signature-explicit-reused" 0x40-0x58.7 (25)
0x050|69 74 2d 72 65 75 73 65 64                     |it-reused       |
     |                                               |                |            expr{}: 0x59-0x5a.7 (2)
0x050|                           00                  |         .      |              tag: "funcidx" (0x0) 0x59-0x59.7 (1)
0x050|                              07               |          .     |              x: 7 0x5a-0x5a.7 (1)
     |                                               |                |          [1]{}: export 0x5b-0x76.7 (28)
     |                                               |                |            name{}: 0x5b-0x74.7 (26)
0x050|                                 19            |           .    |              len: 25 0x5b-0x5b.7 (1)
0x050|                                    73 69 67 6e|            sign|              utf8bytes: "signature-implicit-reused" 0x5c-0x74.7 (25)
0x060|61 74 75 72 65 2d 69 6d 70 6c 69 63 69 74 2d 72|ature-implicit-r|
0x070|65 75 73 65 64                                 |eused           |
     |                                               |                |            expr{}: 0x75-0x76.7 (2)
0x070|               00                              |     .          |              tag: "funcidx" (0x0) 0x75-0x75.7 (1)
0x070|                  08                           |      .         |              x: 8 0x76-0x76.7 (1)
     |                                               |                |          [2]{}: export 0x77-0x95.7 (31)
     |                                               |                |            name{}: 0x77-0x93.7 (29)
0x070|                     1c                        |       .        |              len: 28 0x77-0x77.7 (1)
0x070|                        73 69 67 6e 61 74 75 72|        signatur|              utf8bytes: "signature-explicit-duplicate" 0x78-0x93.7 (28)
0x080|65 2d 65 78 70 6c 69 63 69 74 2d 64 75 70 6c 69|e-explicit-dupli|
0x090|63 61 74 65                                    |cate            |
     |                                               |                |            expr{}: 0x94-0x95.7 (2)
0x090|            00                                 |    .           |              tag: "funcidx" (0x0) 0x94-0x94.7 (1)
0x090|               09                              |     .          |              x: 9 0x95-0x95.7 (1)
     |                                               |                |          [3]{}: export 0x96-0xb4.7 (31)
     |                                               |                |            name{}: 0x96-0xb2.7 (29)
0x090|                  1c                           |      .         |              len: 28 0x96-0x96.7 (1)
0x090|                     73 69 67 6e 61 74 75 72 65|       signature|              utf8bytes: "signature-implicit-duplicate" 0x97-0xb2.7 (28)
0x0a0|2d 69 6d 70 6c 69 63 69 74 2d 64 75 70 6c 69 63|-implicit-duplic|
0x0b0|61 74 65                                       |ate             |
     |                                               |                |            expr{}: 0xb3-0xb4.7 (2)
0x0b0|         00                                    |   .            |              tag: "funcidx" (0x0) 0xb3-0xb3.7 (1)
0x0b0|            0a                                 |    .           |              x: 10 0xb4-0xb4.7 (1)
     |                                               |                |    [4]{}: section 0xb5-0xc3.7 (15)
0x0b0|               09                              |     .          |      id: "element section" (9) 0xb5-0xb5.7 (1)
0x0b0|                  0d                           |      .         |      size: 13 0xb6-0xb6.7 (1)
     |                                               |                |      element{}: 0xb7-0xc3.7 (13)
0x0b0|                     01                        |       .        |        n: 1 0xb7-0xb7.7 (1)
     |                                               |                |        items[0:1]: 0xb8-0xc3.7 (12)
     |                                               |                |          [0]{}: elem 0xb8-0xc3.7 (12)
0x0b0|                        00                     |        .       |            tag: 0 0xb8-0xb8.7 (1)
     |                                               |                |            instructions[0:2]: 0xb9-0xbb.7 (3)
     |                                               |                |              [0]{}: instr 0xb9-0xba.7 (2)
0x0b0|                           41                  |         A      |                i32.const: 0x41 (valid) 0xb9-0xb9.7 (1)
0x0b0|                              00               |          .     |                n: 0 0xba-0xba.7 (1)
     |                                               |                |              [1]{}: instr 0xbb-0xbb.7 (1)
0x0b0|                                 0b            |           .    |                end: 0xb (valid) 0xbb-0xbb.7 (1)
0x0b0|                                    07         |            .   |            n: 7 0xbc-0xbc.7 (1)
     |                                               |                |            items[0:7]: 0xbd-0xc3.7 (7)
0x0b0|                                       04      |             .  |              [0]: 4 y 0xbd-0xbd.7 (1)
0x0b0|                                          02   |              . |              [1]: 2 y 0xbe-0xbe.7 (1)
0x0b0|                                             01|               .|              [2]: 1 y 0xbf-0xbf.7 (1)
0x0c0|04                                             |.               |              [3]: 4 y 0xc0-0xc0.7 (1)
0x0c0|   00                                          | .              |              [4]: 0 y 0xc1-0xc1.7 (1)
0x0c0|      05                                       |  .             |              [5]: 5 y 0xc2-0xc2.7 (1)
0x0c0|         06                                    |   .            |              [6]: 6 y 0xc3-0xc3.7 (1)
     |                                               |                |    [5]{}: section 0xc4-0x1cb.7 (264)
0x0c0|            0a                                 |    .           |      id: "code section" (10) 0xc4-0xc4.7 (1)
0x0c0|               85 02                           |     ..         |      size: 261 0xc5-0xc6.7 (2)
     |                                               |                |      content{}: 0xc7-0x1cb.7 (261)
0x0c0|                     0b                        |       .        |        n: 11 0xc7-0xc7.7 (1)
     |                                               |                |        items[0:11]: 0xc8-0x1cb.7 (260)
     |                                               |                |          [0]{}: code 0xc8-0xca.7 (3)
0x0c0|                        02                     |        .       |            size: 2 0xc8-0xc8.7 (1)
     |                                               |                |            code{}: 0xc9-0xca.7 (2)
     |                                               |                |              locals{}: 0xc9-0xc9.7 (1)
0x0c0|                           00                  |         .      |                n: 0 0xc9-0xc9.7 (1)
     |                                               |                |                items[0:0]: 0xca-NA (0)
     |                                               |                |              expr{}: 0xca-0xca.7 (1)
     |                                               |                |                instructions[0:1]: 0xca-0xca.7 (1)
     |                                               |                |                  [0]{}: instr 0xca-0xca.7 (1)
0x0c0|                              0b               |          .     |                    end: 0xb (valid) 0xca-0xca.7 (1)
     |                                               |                |          [1]{}: code 0xcb-0xcd.7 (3)
0x0c0|                                 02            |           .    |            size: 2 0xcb-0xcb.7 (1)
     |                                               |                |            code{}: 0xcc-0xcd.7 (2)
     |                                               |                |              locals{}: 0xcc-0xcc.7 (1)
0x0c0|                                    00         |            .   |                n: 0 0xcc-0xcc.7 (1)
     |                                               |                |                items[0:0]: 0xcd-NA (0)
     |                                               |                |              expr{}: 0xcd-0xcd.7 (1)
     |                                               |                |                instructions[0:1]: 0xcd-0xcd.7 (1)
     |                                               |                |                  [0]{}: instr 0xcd-0xcd.7 (1)
0x0c0|                                       0b      |             .  |                    end: 0xb (valid) 0xcd-0xcd.7 (1)
     |                                               |                |          [2]{}: code 0xce-0xd0.7 (3)
0x0c0|                                          02   |              . |            size: 2 0xce-0xce.7 (1)
     |                                               |                |            code{}: 0xcf-0xd0.7 (2)
     |                                               |                |              locals{}: 0xcf-0xcf.7 (1)
0x0c0|                                             00|               .|                n: 0 0xcf-0xcf.7 (1)
     |                                               |                |                items[0:0]: 0xd0-NA (0)
     |                                               |                |              expr{}: 0xd0-0xd0.7 (1)
     |                                               |                |                instructions[0:1]: 0xd0-0xd0.7 (1)
     |                                               |                |                  [0]{}: instr 0xd0-0xd0.7 (1)
0x0d0|0b                                             |.               |                    end: 0xb (valid) 0xd0-0xd0.7 (1)
     |                                               |                |          [3]{}: code 0xd1-0xd3.7 (3)
0x0d0|   02                                          | .              |            size: 2 0xd1-0xd1.7 (1)
     |                                               |                |            code{}: 0xd2-0xd3.7 (2)
     |                                               |                |              locals{}: 0xd2-0xd2.7 (1)
0x0d0|      00                                       |  .             |                n: 0 0xd2-0xd2.7 (1)
     |                                               |                |                items[0:0]: 0xd3-NA (0)
     |                                               |                |              expr{}: 0xd3-0xd3.7 (1)
     |                                               |                |                instructions[0:1]: 0xd3-0xd3.7 (1)
     |                                               |                |                  [0]{}: instr 0xd3-0xd3.7 (1)
0x0d0|         0b                                    |   .            |                    end: 0xb (valid) 0xd3-0xd3.7 (1)
     |                                               |                |          [4]{}: code 0xd4-0xd6.7 (3)
0x0d0|            02                                 |    .           |            size: 2 0xd4-0xd4.7 (1)
     |                                               |                |            code{}: 0xd5-0xd6.7 (2)
     |                                               |                |              locals{}: 0xd5-0xd5.7 (1)
0x0d0|               00                              |     .          |                n: 0 0xd5-0xd5.7 (1)
     |                                               |                |                items[0:0]: 0xd6-NA (0)
     |                                               |                |              expr{}: 0xd6-0xd6.7 (1)
     |                                               |                |                instructions[0:1]: 0xd6-0xd6.7 (1)
     |                                               |                |                  [0]{}: instr 0xd6-0xd6.7 (1)
0x0d0|                  0b                           |      .         |                    end: 0xb (valid) 0xd6-0xd6.7 (1)
     |                                               |                |          [5]{}: code 0xd7-0xd9.7 (3)
0x0d0|                     02                        |       .        |            size: 2 0xd7-0xd7.7 (1)
     |                                               |                |            code{}: 0xd8-0xd9.7 (2)
     |                                               |                |              locals{}: 0xd8-0xd8.7 (1)
0x0d0|                        00                     |        .       |                n: 0 0xd8-0xd8.7 (1)
     |                                               |                |                items[0:0]: 0xd9-NA (0)
     |                                               |                |              expr{}: 0xd9-0xd9.7 (1)
     |                                               |                |                instructions[0:1]: 0xd9-0xd9.7 (1)
     |                                               |                |                  [0]{}: instr 0xd9-0xd9.7 (1)
0x0d0|                           0b                  |         .      |                    end: 0xb (valid) 0xd9-0xd9.7 (1)
     |                                               |                |          [6]{}: code 0xda-0xdc.7 (3)
0x0d0|                              02               |          .     |            size: 2 0xda-0xda.7 (1)
     |                                               |                |            code{}: 0xdb-0xdc.7 (2)
     |                                               |                |              locals{}: 0xdb-0xdb.7 (1)
0x0d0|                                 00            |           .    |                n: 0 0xdb-0xdb.7 (1)
     |                                               |                |                items[0:0]: 0xdc-NA (0)
     |                                               |                |              expr{}: 0xdc-0xdc.7 (1)
     |                                               |                |                instructions[0:1]: 0xdc-0xdc.7 (1)
     |                                               |                |                  [0]{}: instr 0xdc-0xdc.7 (1)
0x0d0|                                    0b         |            .   |                    end: 0xb (valid) 0xdc-0xdc.7 (1)
     |                                               |                |          [7]{}: code 0xdd-0xe9.7 (13)
0x0d0|                                       0c      |             .  |            size: 12 0xdd-0xdd.7 (1)
     |                                               |                |            code{}: 0xde-0xe9.7 (12)
     |                                               |                |              locals{}: 0xde-0xde.7 (1)
0x0d0|                                          00   |              . |                n: 0 0xde-0xde.7 (1)
     |                                               |                |                items[0:0]: 0xdf-NA (0)
     |                                               |                |              expr{}: 0xdf-0xe9.7 (11)
     |                                               |                |                instructions[0:5]: 0xdf-0xe9.7 (11)
     |                                               |                |                  [0]{}: instr 0xdf-0xe0.7 (2)
0x0d0|                                             41|               A|                    i32.const: 0x41 (valid) 0xdf-0xdf.7 (1)
0x0e0|01                                             |.               |                    n: 1 0xe0-0xe0.7 (1)
     |                                               |                |                  [1]{}: instr 0xe1-0xe3.7 (3)
0x0e0|   11                                          | .              |                    call: 0x11 (valid) 0xe1-0xe1.7 (1)
0x0e0|      00                                       |  .             |                    y: 0 0xe2-0xe2.7 (1)
0x0e0|         00                                    |   .            |                    x: 0 0xe3-0xe3.7 (1)
     |                                               |                |                  [2]{}: instr 0xe4-0xe5.7 (2)
0x0e0|            41                                 |    A           |                    i32.const: 0x41 (valid) 0xe4-0xe4.7 (1)
0x0e0|               04                              |     .          |                    n: 4 0xe5-0xe5.7 (1)
     |                                               |                |                  [3]{}: instr 0xe6-0xe8.7 (3)
0x0e0|                  11                           |      .         |                    call: 0x11 (valid) 0xe6-0xe6.7 (1)
0x0e0|                     00                        |       .        |                    y: 0 0xe7-0xe7.7 (1)
0x0e0|                        00                     |        .       |                    x: 0 0xe8-0xe8.7 (1)
     |                                               |                |                  [4]{}: instr 0xe9-0xe9.7 (1)
0x0e0|                           0b                  |         .      |                    end: 0xb (valid) 0xe9-0xe9.7 (1)
     |                                               |                |          [8]{}: code 0xea-0x174.7 (139)
0x0e0|                              89 01            |          ..    |            size: 137 0xea-0xeb.7 (2)
     |                                               |                |            code{}: 0xec-0x174.7 (137)
     |                                               |                |              locals{}: 0xec-0xec.7 (1)
0x0e0|                                    00         |            .   |                n: 0 0xec-0xec.7 (1)
     |                                               |                |                items[0:0]: 0xed-NA (0)
     |                                               |                |              expr{}: 0xed-0x174.7 (136)
     |                                               |                |                instructions[0:31]: 0xed-0x174.7 (136)
     |                                               |                |                  [0]{}: instr 0xed-0xf5.7 (9)
0x0e0|                                       44      |             D  |                    f64.const: 0x44 (valid) 0xed-0xed.7 (1)
0x0e0|                                          00 00|              ..|                    z: 0 0xee-0xf5.7 (8)
0x0f0|00 00 00 00 00 00                              |......          |
     |                                               |                |                  [1]{}: instr 0xf6-0xf7.7 (2)
0x0f0|                  42                           |      B         |                    i64.const: 0x42 (valid) 0xf6-0xf6.7 (1)
0x0f0|                     00                        |       .        |                    n: 0 0xf7-0xf7.7 (1)
     |                                               |                |                  [2]{}: instr 0xf8-0x100.7 (9)
0x0f0|                        44                     |        D       |                    f64.const: 0x44 (valid) 0xf8-0xf8.7 (1)
0x0f0|                           00 00 00 00 00 00 00|         .......|                    z: 0 0xf9-0x100.7 (8)
0x100|00                                             |.               |
     |                                               |                |                  [3]{}: instr 0x101-0x102.7 (2)
0x100|   42                                          | B              |                    i64.const: 0x42 (valid) 0x101-0x101.7 (1)
0x100|      00                                       |  .             |                    n: 0 0x102-0x102.7 (1)
     |                                               |                |                  [4]{}: instr 0x103-0x10b.7 (9)
0x100|         44                                    |   D            |                    f64.const: 0x44 (valid) 0x103-0x103.7 (1)
0x100|            00 00 00 00 00 00 00 00            |    ........    |                    z: 0 0x104-0x10b.7 (8)
     |                                               |                |                  [5]{}: instr 0x10c-0x10d.7 (2)
0x100|                                    42         |            B   |                    i64.const: 0x42 (valid) 0x10c-0x10c.7 (1)
0x100|                                       00      |             .  |                    n: 0 0x10d-0x10d.7 (1)
     |                                               |                |                  [6]{}: instr 0x10e-0x112.7 (5)
0x100|                                          43   |              C |                    f32.const: 0x43 (valid) 0x10e-0x10e.7 (1)
0x100|                                             00|               .|                    z: 0 0x10f-0x112.7 (4)
0x110|00 00 00                                       |...             |
     |                                               |                |                  [7]{}: instr 0x113-0x114.7 (2)
0x110|         41                                    |   A            |                    i32.const: 0x41 (valid) 0x113-0x113.7 (1)
0x110|            00                                 |    .           |                    n: 0 0x114-0x114.7 (1)
     |                                               |                |                  [8]{}: instr 0x115-0x116.7 (2)
0x110|               41                              |     A          |                    i32.const: 0x41 (valid) 0x115-0x115.7 (1)
0x110|                  00                           |      .         |                    n: 0 0x116-0x116.7 (1)
     |                                               |                |                  [9]{}: instr 0x117-0x119.7 (3)
0x110|                     11                        |       .        |                    call: 0x11 (valid) 0x117-0x117.7 (1)
0x110|                        03                     |        .       |                    y: 3 0x118-0x118.7 (1)
0x110|                           00                  |         .      |                    x: 0 0x119-0x119.7 (1)
     |                                               |                |                  [10]{}: instr 0x11a-0x122.7 (9)
0x110|                              44               |          D     |                    f64.const: 0x44 (valid) 0x11a-0x11a.7 (1)
0x110|                                 00 00 00 00 00|           .....|                    z: 0 0x11b-0x122.7 (8)
0x120|00 00 00                                       |...             |
     |                                               |                |                  [11]{}: instr 0x123-0x124.7 (2)
0x120|         42                                    |   B            |                    i64.const: 0x42 (valid) 0x123-0x123.7 (1)
0x120|            00                                 |    .           |                    n: 0 0x124-0x124.7 (1)
     |                                               |                |                  [12]{}: instr 0x125-0x12d.7 (9)
0x120|               44                              |     D          |                    f64.const: 0x44 (valid) 0x125-0x125.7 (1)
0x120|                  00 00 00 00 00 00 00 00      |      ........  |                    z: 0 0x126-0x12d.7 (8)
     |                                               |                |                  [13]{}: instr 0x12e-0x12f.7 (2)
0x120|                                          42   |              B |                    i64.const: 0x42 (valid) 0x12e-0x12e.7 (1)
0x120|                                             00|               .|                    n: 0 0x12f-0x12f.7 (1)
     |                                               |                |                  [14]{}: instr 0x130-0x138.7 (9)
0x130|44                                             |D               |                    f64.const: 0x44 (valid) 0x130-0x130.7 (1)
0x130|   00 00 00 00 00 00 00 00                     | ........       |                    z: 0 0x131-0x138.7 (8)
     |                                               |                |                  [15]{}: instr 0x139-0x13a.7 (2)
0x130|                           42                  |         B      |                    i64.const: 0x42 (valid) 0x139-0x139.7 (1)
0x130|                              00               |          .     |                    n: 0 0x13a-0x13a.7 (1)
     |                                               |                |                  [16]{}: instr 0x13b-0x13f.7 (5)
0x130|                                 43            |           C    |                    f32.const: 0x43 (valid) 0x13b-0x13b.7 (1)
0x130|                                    00 00 00 00|            ....|                    z: 0 0x13c-0x13f.7 (4)
     |                                               |                |                  [17]{}: instr 0x140-0x141.7 (2)
0x140|41                                             |A               |                    i32.const: 0x41 (valid) 0x140-0x140.7 (1)
0x140|   00                                          | .              |                    n: 0 0x141-0x141.7 (1)
     |                                               |                |                  [18]{}: instr 0x142-0x143.7 (2)
0x140|      41                                       |  A             |                    i32.const: 0x41 (valid) 0x142-0x142.7 (1)
0x140|         02                                    |   .            |                    n: 2 0x143-0x143.7 (1)
     |                                               |                |                  [19]{}: instr 0x144-0x146.7 (3)
0x140|            11                                 |    .           |                    call: 0x11 (valid) 0x144-0x144.7 (1)
0x140|               03                              |     .          |                    y: 3 0x145-0x145.7 (1)
0x140|                  00                           |      .         |                    x: 0 0x146-0x146.7 (1)
     |                                               |                |                  [20]{}: instr 0x147-0x14f.7 (9)
0x140|                     44                        |       D        |                    f64.const: 0x44 (valid) 0x147-0x147.7 (1)
0x140|                        00 00 00 00 00 00 00 00|        ........|                    z: 0 0x148-0x14f.7 (8)
     |                                               |                |                  [21]{}: instr 0x150-0x151.7 (2)
0x150|42                                             |B               |                    i64.const: 0x42 (valid) 0x150-0x150.7 (1)
0x150|   00                                          | .              |                    n: 0 0x151-0x151.7 (1)
     |                                               |                |                  [22]{}: instr 0x152-0x15a.7 (9)
0x150|      44                                       |  D             |                    f64.const: 0x44 (valid) 0x152-0x152.7 (1)
0x150|         00 00 00 00 00 00 00 00               |   ........     |                    z: 0 0x153-0x15a.7 (8)
     |                                               |                |                  [23]{}: instr 0x15b-0x15c.7 (2)
0x150|                                 42            |           B    |                    i64.const: 0x42 (valid) 0x15b-0x15b.7 (1)
0x150|                                    00         |            .   |                    n: 0 0x15c-0x15c.7 (1)
     |                                               |                |                  [24]{}: instr 0x15d-0x165.7 (9)
0x150|                                       44      |             D  |                    f64.const: 0x44 (valid) 0x15d-0x15d.7 (1)
0x150|                                          00 00|              ..|                    z: 0 0x15e-0x165.7 (8)
0x160|00 00 00 00 00 00                              |......          |
     |                                               |                |                  [25]{}: instr 0x166-0x167.7 (2)
0x160|                  42                           |      B         |                    i64.const: 0x42 (valid) 0x166-0x166.7 (1)
0x160|                     00                        |       .        |                    n: 0 0x167-0x167.7 (1)
     |                                               |                |                  [26]{}: instr 0x168-0x16c.7 (5)
0x160|                        43                     |        C       |                    f32.const: 0x43 (valid) 0x168-0x168.7 (1)
0x160|                           00 00 00 00         |         ....   |                    z: 0 0x169-0x16c.7 (4)
     |                                               |                |                  [27]{}: instr 0x16d-0x16e.7 (2)
0x160|                                       41      |             A  |                    i32.const: 0x41 (valid) 0x16d-0x16d.7 (1)
0x160|                                          00   |              . |                    n: 0 0x16e-0x16e.7 (1)
     |                                               |                |                  [28]{}: instr 0x16f-0x170.7 (2)
0x160|                                             41|               A|                    i32.const: 0x41 (valid) 0x16f-0x16f.7 (1)
0x170|03                                             |.               |                    n: 3 0x170-0x170.7 (1)
     |                                               |                |                  [29]{}: instr 0x171-0x173.7 (3)
0x170|   11                                          | .              |                    call: 0x11 (valid) 0x171-0x171.7 (1)
0x170|      03                                       |  .             |                    y: 3 0x172-0x172.7 (1)
0x170|         00                                    |   .            |                    x: 0 0x173-0x173.7 (1)
     |                                               |                |                  [30]{}: instr 0x174-0x174.7 (1)
0x170|            0b                                 |    .           |                    end: 0xb (valid) 0x174-0x174.7 (1)
     |                                               |                |          [9]{}: code 0x175-0x17c.7 (8)
0x170|               07                              |     .          |            size: 7 0x175-0x175.7 (1)
     |                                               |                |            code{}: 0x176-0x17c.7 (7)
     |                                               |                |              locals{}: 0x176-0x176.7 (1)
0x170|                  00                           |      .         |                n: 0 0x176-0x176.7 (1)
     |                                               |                |                items[0:0]: 0x177-NA (0)
     |                                               |                |              expr{}: 0x177-0x17c.7 (6)
     |                                               |                |                instructions[0:3]: 0x177-0x17c.7 (6)
     |                                               |                |                  [0]{}: instr 0x177-0x178.7 (2)
0x170|                     41                        |       A        |                    i32.const: 0x41 (valid) 0x177-0x177.7 (1)
0x170|                        01                     |        .       |                    n: 1 0x178-0x178.7 (1)
     |                                               |                |                  [1]{}: instr 0x179-0x17b.7 (3)
0x170|                           11                  |         .      |                    call: 0x11 (valid) 0x179-0x179.7 (1)
0x170|                              01               |          .     |                    y: 1 0x17a-0x17a.7 (1)
0x170|                                 00            |           .    |                    x: 0 0x17b-0x17b.7 (1)
     |                                               |                |                  [2]{}: instr 0x17c-0x17c.7 (1)
0x170|                                    0b         |            .   |                    end: 0xb (valid) 0x17c-0x17c.7 (1)
     |                                               |                |          [10]{}: code 0x17d-0x1cb.7 (79)
0x170|                                       4e      |             N  |            size: 78 0x17d-0x17d.7 (1)
     |                                               |                |            code{}: 0x17e-0x1cb.7 (78)
     |                                               |                |              locals{}: 0x17e-0x17e.7 (1)
0x170|                                          00   |              . |                n: 0 0x17e-0x17e.7 (1)
     |                                               |                |                items[0:0]: 0x17f-NA (0)
     |                                               |                |              expr{}: 0x17f-0x1cb.7 (77)
     |                                               |                |                instructions[0:21]: 0x17f-0x1cb.7 (77)
     |                                               |                |                  [0]{}: instr 0x17f-0x180.7 (2)
0x170|                                             42|               B|                    i64.const: 0x42 (valid) 0x17f-0x17f.7 (1)
0x180|00                                             |.               |                    n: 0 0x180-0x180.7 (1)
     |                                               |                |                  [1]{}: instr 0x181-0x182.7 (2)
0x180|   42                                          | B              |                    i64.const: 0x42 (valid) 0x181-0x181.7 (1)
0x180|      00                                       |  .             |                    n: 0 0x182-0x182.7 (1)
     |                                               |                |                  [2]{}: instr 0x183-0x18b.7 (9)
0x180|         44                                    |   D            |                    f64.const: 0x44 (valid) 0x183-0x183.7 (1)
0x180|            00 00 00 00 00 00 00 00            |    ........    |                    z: 0 0x184-0x18b.7 (8)
     |                                               |                |                  [3]{}: instr 0x18c-0x18d.7 (2)
0x180|                                    42         |            B   |                    i64.const: 0x42 (valid) 0x18c-0x18c.7 (1)
0x180|                                       00      |             .  |                    n: 0 0x18d-0x18d.7 (1)
     |                                               |                |                  [4]{}: instr 0x18e-0x196.7 (9)
0x180|                                          44   |              D |                    f64.const: 0x44 (valid) 0x18e-0x18e.7 (1)
0x180|                                             00|               .|                    z: 0 0x18f-0x196.7 (8)
0x190|00 00 00 00 00 00 00                           |.......         |
     |                                               |                |                  [5]{}: instr 0x197-0x198.7 (2)
0x190|                     42                        |       B        |                    i64.const: 0x42 (valid) 0x197-0x197.7 (1)
0x190|                        00                     |        .       |                    n: 0 0x198-0x198.7 (1)
     |                                               |                |                  [6]{}: instr 0x199-0x19d.7 (5)
0x190|                           43                  |         C      |                    f32.const: 0x43 (valid) 0x199-0x199.7 (1)
0x190|                              00 00 00 00      |          ....  |                    z: 0 0x19a-0x19d.7 (4)
     |                                               |                |                  [7]{}: instr 0x19e-0x19f.7 (2)
0x190|                                          41   |              A |                    i32.const: 0x41 (valid) 0x19e-0x19e.7 (1)
0x190|                                             00|               .|                    n: 0 0x19f-0x19f.7 (1)
     |                                               |                |                  [8]{}: instr 0x1a0-0x1a1.7 (2)
0x1a0|41                                             |A               |                    i32.const: 0x41 (valid) 0x1a0-0x1a0.7 (1)
0x1a0|   05                                          | .              |                    n: 5 0x1a1-0x1a1.7 (1)
     |                                               |                |                  [9]{}: instr 0x1a2-0x1a4.7 (3)
0x1a0|      11                                       |  .             |                    call: 0x11 (valid) 0x1a2-0x1a2.7 (1)
0x1a0|         02                                    |   .            |                    y: 2 0x1a3-0x1a3.7 (1)
0x1a0|            00                                 |    .           |                    x: 0 0x1a4-0x1a4.7 (1)
     |                                               |                |                  [10]{}: instr 0x1a5-0x1a6.7 (2)
0x1a0|               42                              |     B          |                    i64.const: 0x42 (valid) 0x1a5-0x1a5.7 (1)
0x1a0|                  00                           |      .         |                    n: 0 0x1a6-0x1a6.7 (1)
     |                                               |                |                  [11]{}: instr 0x1a7-0x1a8.7 (2)
0x1a0|                     42                        |       B        |                    i64.const: 0x42 (valid) 0x1a7-0x1a7.7 (1)
0x1a0|                        00                     |        .       |                    n: 0 0x1a8-0x1a8.7 (1)
     |                                               |                |                  [12]{}: instr 0x1a9-0x1b1.7 (9)
0x1a0|                           44                  |         D      |                    f64.const: 0x44 (valid) 0x1a9-0x1a9.7 (1)
0x1a0|                              00 00 00 00 00 00|          ......|                    z: 0 0x1aa-0x1b1.7 (8)
0x1b0|00 00                                          |..              |
     |                                               |                |                  [13]{}: instr 0x1b2-0x1b3.7 (2)
0x1b0|      42                                       |  B             |                    i64.const: 0x42 (valid) 0x1b2-0x1b2.7 (1)
0x1b0|         00                                    |   .            |                    n: 0 0x1b3-0x1b3.7 (1)
     |                                               |                |                  [14]{}: instr 0x1b4-0x1bc.7 (9)
0x1b0|            44                                 |    D           |                    f64.const: 0x44 (valid) 0x1b4-0x1b4.7 (1)
0x1b0|               00 00 00 00 00 00 00 00         |     ........   |                    z: 0 0x1b5-0x1bc.7 (8)
     |                                               |                |                  [15]{}: instr 0x1bd-0x1be.7 (2)
0x1b0|                                       42      |             B  |                    i64.const: 0x42 (valid) 0x1bd-0x1bd.7 (1)
0x1b0|                                          00   |              . |                    n: 0 0x1be-0x1be.7 (1)
     |                                               |                |                  [16]{}: instr 0x1bf-0x1c3.7 (5)
0x1b0|                                             43|               C|                    f32.const: 0x43 (valid) 0x1bf-0x1bf.7 (1)
0x1c0|00 00 00 00                                    |....            |                    z: 0 0x1c0-0x1c3.7 (4)
     |                                               |                |                  [17]{}: instr 0x1c4-0x1c5.7 (2)
0x1c0|            41                                 |    A           |                    i32.const: 0x41 (valid) 0x1c4-0x1c4.7 (1)
0x1c0|               00                              |     .          |                    n: 0 0x1c5-0x1c5.7 (1)
     |                                               |                |                  [18]{}: instr 0x1c6-0x1c7.7 (2)
0x1c0|                  41                           |      A         |                    i32.const: 0x41 (valid) 0x1c6-0x1c6.7 (1)
0x1c0|                     06                        |       .        |                    n: 6 0x1c7-0x1c7.7 (1)
     |                                               |                |                  [19]{}: instr 0x1c8-0x1ca.7 (3)
0x1c0|                        11                     |        .       |                    call: 0x11 (valid) 0x1c8-0x1c8.7 (1)
0x1c0|                           02                  |         .      |                    y: 2 0x1c9-0x1c9.7 (1)
0x1c0|                              00               |          .     |                    x: 0 0x1ca-0x1ca.7 (1)
     |                                               |                |                  [20]{}: instr 0x1cb-0x1cb.7 (1)
0x1c0|                                 0b|           |           .|   |                    end: 0xb (valid) 0x1cb-0x1cb.7 (1)
