$ fq -d wasm dv func_ptrs-2.wasm
    |00 01 02 03 04 05 06 07 08 09 0a 0b 0c 0d 0e 0f|0123456789abcdef|.{}: func_ptrs-2.wasm (wasm) 0x0-0x4a.7 (75)
0x00|00 61 73 6d                                    |.asm            |  magic: raw bits (valid) 0x0-0x3.7 (4)
0x00|            01 00 00 00                        |    ....        |  version: 1 0x4-0x7.7 (4)
    |                                               |                |  sections[0:6]: 0x8-0x4a.7 (67)
    |                                               |                |    [0]{}: section 0x8-0x13.7 (12)
0x00|                        01                     |        .       |      id: "type section" (1) 0x8-0x8.7 (1)
0x00|                           0a                  |         .      |      size: 10 0x9-0x9.7 (1)
    |                                               |                |      content{}: 0xa-0x13.7 (10)
0x00|                              02               |          .     |        n: 2 0xa-0xa.7 (1)
    |                                               |                |        items[0:2]: 0xb-0x13.7 (9)
    |                                               |                |          [0]{}: functype 0xb-0xe.7 (4)
0x00|                                 60            |           `    |            tag: 0x60 (valid) 0xb-0xb.7 (1)
    |                                               |                |            rt1{}: 0xc-0xc.7 (1)
0x00|                                    00         |            .   |              n: 0 0xc-0xc.7 (1)
    |                                               |                |              items[0:0]: 0xd-NA (0)
    |                                               |                |            rt2{}: 0xd-0xe.7 (2)
0x00|                                       01      |             .  |              n: 1 0xd-0xd.7 (1)
    |                                               |                |              items[0:1]: 0xe-0xe.7 (1)
0x00|                                          7f   |              . |                [0]: "i32" (127) valtype 0xe-0xe.7 (1)
    |                                               |                |          [1]{}: functype 0xf-0x13.7 (5)
0x00|                                             60|               `|            tag: 0x60 (valid) 0xf-0xf.7 (1)
    |                                               |                |            rt1{}: 0x10-0x11.7 (2)
0x10|01                                             |.               |              n: 1 0x10-0x10.7 (1)
    |                                               |                |              items[0:1]: 0x11-0x11.7 (1)
0x10|   7f                                          | .              |                [0]: "i32" (127) valtype 0x11-0x11.7 (1)
    |                                               |                |            rt2{}: 0x12-0x13.7 (2)
0x10|      01                                       |  .             |              n: 1 0x12-0x12.7 (1)
    |                                               |                |              items[0:1]: 0x13-0x13.7 (1)
0x10|         7f                                    |   .            |                [0]: "i32" (127) valtype 0x13-0x13.7 (1)
    |                                               |                |    [1]{}: section 0x14-0x19.7 (6)
0x10|            03                                 |    .           |      id: "function section" (3) 0x14-0x14.7 (1)
0x10|               04                              |     .          |      size: 4 0x15-0x15.7 (1)
    |                                               |                |      content{}: 0x16-0x19.7 (4)
0x10|                  03                           |      .         |        n: 3 0x16-0x16.7 (1)
    |                                               |                |        items[0:3]: 0x17-0x19.7 (3)
0x10|                     00                        |       .        |          [0]: 0 x 0x17-0x17.7 (1)
0x10|                        00                     |        .       |          [1]: 0 x 0x18-0x18.7 (1)
0x10|                           01                  |         .      |          [2]: 1 x 0x19-0x19.7 (1)
    |                                               |                |    [2]{}: section 0x1a-0x20.7 (7)
0x10|                              04               |          .     |      id: "table section" (4) 0x1a-0x1a.7 (1)
0x10|                                 05            |           .    |      size: 5 0x1b-0x1b.7 (1)
    |                                               |                |      content{}: 0x1c-0x20.7 (5)
0x10|                                    01         |            .   |        n: 1 0x1c-0x1c.7 (1)
    |                                               |                |        items[0:1]: 0x1d-0x20.7 (4)
    |                                               |                |          [0]{}: table 0x1d-0x20.7 (4)
0x10|                                       70      |             p  |            reftype: "funcref" (112) 0x1d-0x1d.7 (1)
    |                                               |                |            limits{}: 0x1e-0x20.7 (3)
0x10|                                          01   |              . |              tag: 0x1 0x1e-0x1e.7 (1)
0x10|                                             02|               .|              min: 2 0x1f-0x1f.7 (1)
0x20|02                                             |.               |              max: 2 0x20-0x20.7 (1)
    |                                               |                |    [3]{}: section 0x21-0x2b.7 (11)
0x20|   07                                          | .              |      id: "export section" (7) 0x21-0x21.7 (1)
0x20|      09                                       |  .             |      size: 9 0x22-0x22.7 (1)
    |                                               |                |      content{}: 0x23-0x2b.7 (9)
0x20|         01                                    |   .            |        n: 1 0x23-0x23.7 (1)
    |                                               |                |        items[0:1]: 0x24-0x2b.7 (8)
    |                                               |                |          [0]{}: export 0x24-0x2b.7 (8)
    |                                               |                |            name{}: 0x24-0x29.7 (6)
0x20|            05                                 |    .           |              len: 5 0x24-0x24.7 (1)
0x20|               63 61 6c 6c 74                  |     callt      |              utf8bytes: "callt" 0x25-0x29.7 (5)
    |                                               |                |            expr{}: 0x2a-0x2b.7 (2)
0x20|                              00               |          .     |              tag: "funcidx" (0x0) 0x2a-0x2a.7 (1)
0x20|                                 02            |           .    |              x: 2 0x2b-0x2b.7 (1)
    |                                               |                |    [4]{}: section 0x2c-0x35.7 (10)
0x20|                                    09         |            .   |      id: "element section" (9) 0x2c-0x2c.7 (1)
0x20|                                       08      |             .  |      size: 8 0x2d-0x2d.7 (1)
    |                                               |                |      element{}: 0x2e-0x35.7 (8)
0x20|                                          01   |              . |        n: 1 0x2e-0x2e.7 (1)
    |                                               |                |        items[0:1]: 0x2f-0x35.7 (7)
    |                                               |                |          [0]{}: elem 0x2f-0x35.7 (7)
0x20|                                             00|               .|            tag: 0 0x2f-0x2f.7 (1)
    |                                               |                |            instructions[0:2]: 0x30-0x32.7 (3)
    |                                               |                |              [0]{}: instr 0x30-0x31.7 (2)
0x30|41                                             |A               |                i32.const: 0x41 (valid) 0x30-0x30.7 (1)
0x30|   00                                          | .              |                n: 0 0x31-0x31.7 (1)
    |                                               |                |              [1]{}: instr 0x32-0x32.7 (1)
0x30|      0b                                       |  .             |                end: 0xb (valid) 0x32-0x32.7 (1)
0x30|         02                                    |   .            |            n: 2 0x33-0x33.7 (1)
    |                                               |                |            items[0:2]: 0x34-0x35.7 (2)
0x30|            00                                 |    .           |              [0]: 0 y 0x34-0x34.7 (1)
0x30|               01                              |     .          |              [1]: 1 y 0x35-0x35.7 (1)
    |                                               |                |    [5]{}: section 0x36-0x4a.7 (21)
0x30|                  0a                           |      .         |      id: "code section" (10) 0x36-0x36.7 (1)
0x30|                     13                        |       .        |      size: 19 0x37-0x37.7 (1)
    |                                               |                |      content{}: 0x38-0x4a.7 (19)
0x30|                        03                     |        .       |        n: 3 0x38-0x38.7 (1)
    |                                               |                |        items[0:3]: 0x39-0x4a.7 (18)
    |                                               |                |          [0]{}: code 0x39-0x3d.7 (5)
0x30|                           04                  |         .      |            size: 4 0x39-0x39.7 (1)
    |                                               |                |            code{}: 0x3a-0x3d.7 (4)
    |                                               |                |              locals{}: 0x3a-0x3a.7 (1)
0x30|                              00               |          .     |                n: 0 0x3a-0x3a.7 (1)
    |                                               |                |                items[0:0]: 0x3b-NA (0)
    |                                               |                |              expr{}: 0x3b-0x3d.7 (3)
    |                                               |                |                instructions[0:2]: 0x3b-0x3d.7 (3)
    |                                               |                |                  [0]{}: instr 0x3b-0x3c.7 (2)
0x30|                                 41            |           A    |                    i32.const: 0x41 (valid) 0x3b-0x3b.7 (1)
0x30|                                    01         |            .   |                    n: 1 0x3c-0x3c.7 (1)
    |                                               |                |                  [1]{}: instr 0x3d-0x3d.7 (1)
0x30|                                       0b      |             .  |                    end: 0xb (valid) 0x3d-0x3d.7 (1)
    |                                               |                |          [1]{}: code 0x3e-0x42.7 (5)
0x30|                                          04   |              . |            size: 4 0x3e-0x3e.7 (1)
    |                                               |                |            code{}: 0x3f-0x42.7 (4)
    |                                               |                |              locals{}: 0x3f-0x3f.7 (1)
0x30|                                             00|               .|                n: 0 0x3f-0x3f.7 (1)
    |                                               |                |                items[0:0]: 0x40-NA (0)
    |                                               |                |              expr{}: 0x40-0x42.7 (3)
    |                                               |                |                instructions[0:2]: 0x40-0x42.7 (3)
    |                                               |                |                  [0]{}: instr 0x40-0x41.7 (2)
0x40|41                                             |A               |                    i32.const: 0x41 (valid) 0x40-0x40.7 (1)
0x40|   02                                          | .              |                    n: 2 0x41-0x41.7 (1)
    |                                               |                |                  [1]{}: instr 0x42-0x42.7 (1)
0x40|      0b                                       |  .             |                    end: 0xb (valid) 0x42-0x42.7 (1)
    |                                               |                |          [2]{}: code 0x43-0x4a.7 (8)
0x40|         07                                    |   .            |            size: 7 0x43-0x43.7 (1)
    |                                               |                |            code{}: 0x44-0x4a.7 (7)
    |                                               |                |              locals{}: 0x44-0x44.7 (1)
0x40|            00                                 |    .           |                n: 0 0x44-0x44.7 (1)
    |                                               |                |                items[0:0]: 0x45-NA (0)
    |                                               |                |              expr{}: 0x45-0x4a.7 (6)
    |                                               |                |                instructions[0:3]: 0x45-0x4a.7 (6)
    |                                               |                |                  [0]{}: instr 0x45-0x46.7 (2)
0x40|               20                              |                |                    local.get: 0x20 (valid) 0x45-0x45.7 (1)
0x40|                  00                           |      .         |                    x: 0 0x46-0x46.7 (1)
    |                                               |                |                  [1]{}: instr 0x47-0x49.7 (3)
0x40|                     11                        |       .        |                    call: 0x11 (valid) 0x47-0x47.7 (1)
0x40|                        00                     |        .       |                    y: 0 0x48-0x48.7 (1)
0x40|                           00                  |         .      |                    x: 0 0x49-0x49.7 (1)
    |                                               |                |                  [2]{}: instr 0x4a-0x4a.7 (1)
0x40|                              0b|              |          .|    |                    end: 0xb (valid) 0x4a-0x4a.7 (1)
