$ fq -d wasm dv i64-0.wasm
     |00 01 02 03 04 05 06 07 08 09 0a 0b 0c 0d 0e 0f|0123456789abcdef|.{}: i64-0.wasm (wasm) 0x0-0x227.7 (552)
0x000|00 61 73 6d                                    |.asm            |  magic: raw bits (valid) 0x0-0x3.7 (4)
0x000|            01 00 00 00                        |    ....        |  version: 1 0x4-0x7.7 (4)
     |                                               |                |  sections[0:4]: 0x8-0x227.7 (544)
     |                                               |                |    [0]{}: section 0x8-0x20.7 (25)
0x000|                        01                     |        .       |      id: "type section" (1) 0x8-0x8.7 (1)
0x000|                           17                  |         .      |      size: 23 0x9-0x9.7 (1)
     |                                               |                |      content{}: 0xa-0x20.7 (23)
0x000|                              04               |          .     |        n: 4 0xa-0xa.7 (1)
     |                                               |                |        items[0:4]: 0xb-0x20.7 (22)
     |                                               |                |          [0]{}: functype 0xb-0x10.7 (6)
0x000|                                 60            |           `    |            tag: 0x60 (valid) 0xb-0xb.7 (1)
     |                                               |                |            rt1{}: 0xc-0xe.7 (3)
0x000|                                    02         |            .   |              n: 2 0xc-0xc.7 (1)
     |                                               |                |              items[0:2]: 0xd-0xe.7 (2)
0x000|                                       7e      |             ~  |                [0]: "i64" (126) valtype 0xd-0xd.7 (1)
0x000|                                          7e   |              ~ |                [1]: "i64" (126) valtype 0xe-0xe.7 (1)
     |                                               |                |            rt2{}: 0xf-0x10.7 (2)
0x000|                                             01|               .|              n: 1 0xf-0xf.7 (1)
     |                                               |                |              items[0:1]: 0x10-0x10.7 (1)
0x010|7e                                             |~               |                [0]: "i64" (126) valtype 0x10-0x10.7 (1)
     |                                               |                |          [1]{}: functype 0x11-0x15.7 (5)
0x010|   60                                          | `              |            tag: 0x60 (valid) 0x11-0x11.7 (1)
     |                                               |                |            rt1{}: 0x12-0x13.7 (2)
0x010|      01                                       |  .             |              n: 1 0x12-0x12.7 (1)
     |                                               |                |              items[0:1]: 0x13-0x13.7 (1)
0x010|         7e                                    |   ~            |                [0]: "i64" (126) valtype 0x13-0x13.7 (1)
     |                                               |                |            rt2{}: 0x14-0x15.7 (2)
0x010|            01                                 |    .           |              n: 1 0x14-0x14.7 (1)
     |                                               |                |              items[0:1]: 0x15-0x15.7 (1)
0x010|               7e                              |     ~          |                [0]: "i64" (126) valtype 0x15-0x15.7 (1)
     |                                               |                |          [2]{}: functype 0x16-0x1a.7 (5)
0x010|                  60                           |      `         |            tag: 0x60 (valid) 0x16-0x16.7 (1)
     |                                               |                |            rt1{}: 0x17-0x18.7 (2)
0x010|                     01                        |       .        |              n: 1 0x17-0x17.7 (1)
     |                                               |                |              items[0:1]: 0x18-0x18.7 (1)
0x010|                        7e                     |        ~       |                [0]: "i64" (126) valtype 0x18-0x18.7 (1)
     |                                               |                |            rt2{}: 0x19-0x1a.7 (2)
0x010|                           01                  |         .      |              n: 1 0x19-0x19.7 (1)
     |                                               |                |              items[0:1]: 0x1a-0x1a.7 (1)
0x010|                              7f               |          .     |                [0]: "i32" (127) valtype 0x1a-0x1a.7 (1)
     |                                               |                |          [3]{}: functype 0x1b-0x20.7 (6)
0x010|                                 60            |           `    |            tag: 0x60 (valid) 0x1b-0x1b.7 (1)
     |                                               |                |            rt1{}: 0x1c-0x1e.7 (3)
0x010|                                    02         |            .   |              n: 2 0x1c-0x1c.7 (1)
     |                                               |                |              items[0:2]: 0x1d-0x1e.7 (2)
0x010|                                       7e      |             ~  |                [0]: "i64" (126) valtype 0x1d-0x1d.7 (1)
0x010|                                          7e   |              ~ |                [1]: "i64" (126) valtype 0x1e-0x1e.7 (1)
     |                                               |                |            rt2{}: 0x1f-0x20.7 (2)
0x010|                                             01|               .|              n: 1 0x1f-0x1f.7 (1)
     |                                               |                |              items[0:1]: 0x20-0x20.7 (1)
0x020|7f                                             |.               |                [0]: "i32" (127) valtype 0x20-0x20.7 (1)
     |                                               |                |    [1]{}: section 0x21-0x43.7 (35)
0x020|   03                                          | .              |      id: "function section" (3) 0x21-0x21.7 (1)
0x020|      21                                       |  !             |      size: 33 0x22-0x22.7 (1)
     |                                               |                |      content{}: 0x23-0x43.7 (33)
0x020|         20                                    |                |        n: 32 0x23-0x23.7 (1)
     |                                               |                |        items[0:32]: 0x24-0x43.7 (32)
0x020|            00                                 |    .           |          [0]: 0 x 0x24-0x24.7 (1)
0x020|               00                              |     .          |          [1]: 0 x 0x25-0x25.7 (1)
0x020|                  00                           |      .         |          [2]: 0 x 0x26-0x26.7 (1)
0x020|                     00                        |       .        |          [3]: 0 x 0x27-0x27.7 (1)
0x020|                        00                     |        .       |          [4]: 0 x 0x28-0x28.7 (1)
0x020|                           00                  |         .      |          [5]: 0 x 0x29-0x29.7 (1)
0x020|                              00               |          .     |          [6]: 0 x 0x2a-0x2a.7 (1)
0x020|                                 00            |           .    |          [7]: 0 x 0x2b-0x2b.7 (1)
0x020|                                    00         |            .   |          [8]: 0 x 0x2c-0x2c.7 (1)
0x020|                                       00      |             .  |          [9]: 0 x 0x2d-0x2d.7 (1)
0x020|                                          00   |              . |          [10]: 0 x 0x2e-0x2e.7 (1)
0x020|                                             00|               .|          [11]: 0 x 0x2f-0x2f.7 (1)
0x030|00                                             |.               |          [12]: 0 x 0x30-0x30.7 (1)
0x030|   00                                          | .              |          [13]: 0 x 0x31-0x31.7 (1)
0x030|      00                                       |  .             |          [14]: 0 x 0x32-0x32.7 (1)
0x030|         01                                    |   .            |          [15]: 1 x 0x33-0x33.7 (1)
0x030|            01                                 |    .           |          [16]: 1 x 0x34-0x34.7 (1)
0x030|               01                              |     .          |          [17]: 1 x 0x35-0x35.7 (1)
0x030|                  01                           |      .         |          [18]: 1 x 0x36-0x36.7 (1)
0x030|                     01                        |       .        |          [19]: 1 x 0x37-0x37.7 (1)
0x030|                        01                     |        .       |          [20]: 1 x 0x38-0x38.7 (1)
0x030|                           02                  |         .      |          [21]: 2 x 0x39-0x39.7 (1)
0x030|                              03               |          .     |          [22]: 3 x 0x3a-0x3a.7 (1)
0x030|                                 03            |           .    |          [23]: 3 x 0x3b-0x3b.7 (1)
0x030|                                    03         |            .   |          [24]: 3 x 0x3c-0x3c.7 (1)
0x030|                                       03      |             .  |          [25]: 3 x 0x3d-0x3d.7 (1)
0x030|                                          03   |              . |          [26]: 3 x 0x3e-0x3e.7 (1)
0x030|                                             03|               .|          [27]: 3 x 0x3f-0x3f.7 (1)
0x040|03                                             |.               |          [28]: 3 x 0x40-0x40.7 (1)
0x040|   03                                          | .              |          [29]: 3 x 0x41-0x41.7 (1)
0x040|      03                                       |  .             |          [30]: 3 x 0x42-0x42.7 (1)
0x040|         03                                    |   .            |          [31]: 3 x 0x43-0x43.7 (1)
     |                                               |                |    [2]{}: section 0x44-0x131.7 (238)
0x040|            07                                 |    .           |      id: "export section" (7) 0x44-0x44.7 (1)
0x040|               eb 01                           |     ..         |      size: 235 0x45-0x46.7 (2)
     |                                               |                |      content{}: 0x47-0x131.7 (235)
0x040|                     20                        |                |        n: 32 0x47-0x47.7 (1)
     |                                               |                |        items[0:32]: 0x48-0x131.7 (234)
     |                                               |                |          [0]{}: export 0x48-0x4d.7 (6)
     |                                               |                |            name{}: 0x48-0x4b.7 (4)
0x040|                        03                     |        .       |              len: 3 0x48-0x48.7 (1)
0x040|                           61 64 64            |         add    |              utf8bytes: "add" 0x49-0x4b.7 (3)
     |                                               |                |            expr{}: 0x4c-0x4d.7 (2)
0x040|                                    00         |            .   |              tag: "funcidx" (0x0) 0x4c-0x4c.7 (1)
0x040|                                       00      |             .  |              x: 0 0x4d-0x4d.7 (1)
     |                                               |                |          [1]{}: export 0x4e-0x53.7 (6)
     |                                               |                |            name{}: 0x4e-0x51.7 (4)
0x040|                                          03   |              . |              len: 3 0x4e-0x4e.7 (1)
0x040|                                             73|               s|              utf8bytes: "sub" 0x4f-0x51.7 (3)
0x050|75 62                                          |ub              |
     |                                               |                |            expr{}: 0x52-0x53.7 (2)
0x050|      00                                       |  .             |              tag: "funcidx" (0x0) 0x52-0x52.7 (1)
0x050|         01                                    |   .            |              x: 1 0x53-0x53.7 (1)
     |                                               |                |          [2]{}: export 0x54-0x59.7 (6)
     |                                               |                |            name{}: 0x54-0x57.7 (4)
0x050|            03                                 |    .           |              len: 3 0x54-0x54.7 (1)
0x050|               6d 75 6c                        |     mul        |              utf8bytes: "mul" 0x55-0x57.7 (3)
     |                                               |                |            expr{}: 0x58-0x59.7 (2)
0x050|                        00                     |        .       |              tag: "funcidx" (0x0) 0x58-0x58.7 (1)
0x050|                           02                  |         .      |              x: 2 0x59-0x59.7 (1)
     |                                               |                |          [3]{}: export 0x5a-0x61.7 (8)
     |                                               |                |            name{}: 0x5a-0x5f.7 (6)
0x050|                              05               |          .     |              len: 5 0x5a-0x5a.7 (1)
0x050|                                 64 69 76 5f 73|           div_s|              utf8bytes: "div_s" 0x5b-0x5f.7 (5)
     |                                               |                |            expr{}: 0x60-0x61.7 (2)
0x060|00                                             |.               |              tag: "funcidx" (0x0) 0x60-0x60.7 (1)
0x060|   03                                          | .              |              x: 3 0x61-0x61.7 (1)
     |                                               |                |          [4]{}: export 0x62-0x69.7 (8)
     |                                               |                |            name{}: 0x62-0x67.7 (6)
0x060|      05                                       |  .             |              len: 5 0x62-0x62.7 (1)
0x060|         64 69 76 5f 75                        |   div_u        |              utf8bytes: "div_u" 0x63-0x67.7 (5)
     |                                               |                |            expr{}: 0x68-0x69.7 (2)
0x060|                        00                     |        .       |              tag: "funcidx" (0x0) 0x68-0x68.7 (1)
0x060|                           04                  |         .      |              x: 4 0x69-0x69.7 (1)
     |                                               |                |          [5]{}: export 0x6a-0x71.7 (8)
     |                                               |                |            name{}: 0x6a-0x6f.7 (6)
0x060|                              05               |          .     |              len: 5 0x6a-0x6a.7 (1)
0x060|                                 72 65 6d 5f 73|           rem_s|              utf8bytes: "rem_s" 0x6b-0x6f.7 (5)
     |                                               |                |            expr{}: 0x70-0x71.7 (2)
0x070|00                                             |.               |              tag: "funcidx" (0x0) 0x70-0x70.7 (1)
0x070|   05                                          | .              |              x: 5 0x71-0x71.7 (1)
     |                                               |                |          [6]{}: export 0x72-0x79.7 (8)
     |                                               |                |            name{}: 0x72-0x77.7 (6)
0x070|      05                                       |  .             |              len: 5 0x72-0x72.7 (1)
0x070|         72 65 6d 5f 75                        |   rem_u        |              utf8bytes: "rem_u" 0x73-0x77.7 (5)
     |                                               |                |            expr{}: 0x78-0x79.7 (2)
0x070|                        00                     |        .       |              tag: "funcidx" (0x0) 0x78-0x78.7 (1)
0x070|                           06                  |         .      |              x: 6 0x79-0x79.7 (1)
     |                                               |                |          [7]{}: export 0x7a-0x7f.7 (6)
     |                                               |                |            name{}: 0x7a-0x7d.7 (4)
0x070|                              03               |          .     |              len: 3 0x7a-0x7a.7 (1)
0x070|                                 61 6e 64      |           and  |              utf8bytes: "and" 0x7b-0x7d.7 (3)
     |                                               |                |            expr{}: 0x7e-0x7f.7 (2)
0x070|                                          00   |              . |              tag: "funcidx" (0x0) 0x7e-0x7e.7 (1)
0x070|                                             07|               .|              x: 7 0x7f-0x7f.7 (1)
     |                                               |                |          [8]{}: export 0x80-0x84.7 (5)
     |                                               |                |            name{}: 0x80-0x82.7 (3)
0x080|02                                             |.               |              len: 2 0x80-0x80.7 (1)
0x080|   6f 72                                       | or             |              utf8bytes: "or" 0x81-0x82.7 (2)
     |                                               |                |            expr{}: 0x83-0x84.7 (2)
0x080|         00                                    |   .            |              tag: "funcidx" (0x0) 0x83-0x83.7 (1)
0x080|            08                                 |    .           |              x: 8 0x84-0x84.7 (1)
     |                                               |                |          [9]{}: export 0x85-0x8a.7 (6)
     |                                               |                |            name{}: 0x85-0x88.7 (4)
0x080|               03                              |     .          |              len: 3 0x85-0x85.7 (1)
0x080|                  78 6f 72                     |      xor       |              utf8bytes: "xor" 0x86-0x88.7 (3)
     |                                               |                |            expr{}: 0x89-0x8a.7 (2)
0x080|                           00                  |         .      |              tag: "funcidx" (0x0) 0x89-0x89.7 (1)
0x080|                              09               |          .     |              x: 9 0x8a-0x8a.7 (1)
     |                                               |                |          [10]{}: export 0x8b-0x90.7 (6)
     |                                               |                |            name{}: 0x8b-0x8e.7 (4)
0x080|                                 03            |           .    |              len: 3 0x8b-0x8b.7 (1)
0x080|                                    73 68 6c   |            shl |              utf8bytes: "shl" 0x8c-0x8e.7 (3)
     |                                               |                |            expr{}: 0x8f-0x90.7 (2)
0x080|                                             00|               .|              tag: "funcidx" (0x0) 0x8f-0x8f.7 (1)
0x090|0a                                             |.               |              x: 10 0x90-0x90.7 (1)
     |                                               |                |          [11]{}: export 0x91-0x98.7 (8)
     |                                               |                |            name{}: 0x91-0x96.7 (6)
0x090|   05                                          | .              |              len: 5 0x91-0x91.7 (1)
0x090|      73 68 72 5f 73                           |  shr_s         |              utf8bytes: "shr_s" 0x92-0x96.7 (5)
     |                                               |                |            expr{}: 0x97-0x98.7 (2)
0x090|                     00                        |       .        |              tag: "funcidx" (0x0) 0x97-0x97.7 (1)
0x090|                        0b                     |        .       |              x: 11 0x98-0x98.7 (1)
     |                                               |                |          [12]{}: export 0x99-0xa0.7 (8)
     |                                               |                |            name{}: 0x99-0x9e.7 (6)
0x090|                           05                  |         .      |              len: 5 0x99-0x99.7 (1)
0x090|                              73 68 72 5f 75   |          shr_u |              utf8bytes: "shr_u" 0x9a-0x9e.7 (5)
     |                                               |                |            expr{}: 0x9f-0xa0.7 (2)
0x090|                                             00|               .|              tag: "funcidx" (0x0) 0x9f-0x9f.7 (1)
0x0a0|0c                                             |.               |              x: 12 0xa0-0xa0.7 (1)
     |                                               |                |          [13]{}: export 0xa1-0xa7.7 (7)
     |                                               |                |            name{}: 0xa1-0xa5.7 (5)
0x0a0|   04                                          | .              |              len: 4 0xa1-0xa1.7 (1)
0x0a0|      72 6f 74 6c                              |  rotl          |              utf8bytes: "rotl" 0xa2-0xa5.7 (4)
     |                                               |                |            expr{}: 0xa6-0xa7.7 (2)
0x0a0|                  00                           |      .         |              tag: "funcidx" (0x0) 0xa6-0xa6.7 (1)
0x0a0|                     0d                        |       .        |              x: 13 0xa7-0xa7.7 (1)
     |                                               |                |          [14]{}: export 0xa8-0xae.7 (7)
     |                                               |                |            name{}: 0xa8-0xac.7 (5)
0x0a0|                        04                     |        .       |              len: 4 0xa8-0xa8.7 (1)
0x0a0|                           72 6f 74 72         |         rotr   |              utf8bytes: "rotr" 0xa9-0xac.7 (4)
     |                                               |                |            expr{}: 0xad-0xae.7 (2)
0x0a0|                                       00      |             .  |              tag: "funcidx" (0x0) 0xad-0xad.7 (1)
0x0a0|                                          0e   |              . |              x: 14 0xae-0xae.7 (1)
     |                                               |                |          [15]{}: export 0xaf-0xb4.7 (6)
     |                                               |                |            name{}: 0xaf-0xb2.7 (4)
0x0a0|                                             03|               .|              len: 3 0xaf-0xaf.7 (1)
0x0b0|63 6c 7a                                       |clz             |              utf8bytes: "clz" 0xb0-0xb2.7 (3)
     |                                               |                |            expr{}: 0xb3-0xb4.7 (2)
0x0b0|         00                                    |   .            |              tag: "funcidx" (0x0) 0xb3-0xb3.7 (1)
0x0b0|            0f                                 |    .           |              x: 15 0xb4-0xb4.7 (1)
     |                                               |                |          [16]{}: export 0xb5-0xba.7 (6)
     |                                               |                |            name{}: 0xb5-0xb8.7 (4)
0x0b0|               03                              |     .          |              len: 3 0xb5-0xb5.7 (1)
0x0b0|                  63 74 7a                     |      ctz       |              utf8bytes: "ctz" 0xb6-0xb8.7 (3)
     |                                               |                |            expr{}: 0xb9-0xba.7 (2)
0x0b0|                           00                  |         .      |              tag: "funcidx" (0x0) 0xb9-0xb9.7 (1)
0x0b0|                              10               |          .     |              x: 16 0xba-0xba.7 (1)
     |                                               |                |          [17]{}: export 0xbb-0xc3.7 (9)
     |                                               |                |            name{}: 0xbb-0xc1.7 (7)
0x0b0|                                 06            |           .    |              len: 6 0xbb-0xbb.7 (1)
0x0b0|                                    70 6f 70 63|            popc|              utf8bytes: "popcnt" 0xbc-0xc1.7 (6)
0x0c0|6e 74                                          |nt              |
     |                                               |                |            expr{}: 0xc2-0xc3.7 (2)
0x0c0|      00                                       |  .             |              tag: "funcidx" (0x0) 0xc2-0xc2.7 (1)
0x0c0|         11                                    |   .            |              x: 17 0xc3-0xc3.7 (1)
     |                                               |                |          [18]{}: export 0xc4-0xcf.7 (12)
     |                                               |                |            name{}: 0xc4-0xcd.7 (10)
0x0c0|            09                                 |    .           |              len: 9 0xc4-0xc4.7 (1)
0x0c0|               65 78 74 65 6e 64 38 5f 73      |     extend8_s  |              utf8bytes: "extend8_s" 0xc5-0xcd.7 (9)
     |                                               |                |            expr{}: 0xce-0xcf.7 (2)
0x0c0|                                          00   |              . |              tag: "funcidx" (0x0) 0xce-0xce.7 (1)
0x0c0|                                             12|               .|              x: 18 0xcf-0xcf.7 (1)
     |                                               |                |          [19]{}: export 0xd0-0xdc.7 (13)
     |                                               |                |            name{}: 0xd0-0xda.7 (11)
0x0d0|0a                                             |.               |              len: 10 0xd0-0xd0.7 (1)
0x0d0|   65 78 74 65 6e 64 31 36 5f 73               | extend16_s     |              utf8bytes: "extend16_s" 0xd1-0xda.7 (10)
     |                                               |                |            expr{}: 0xdb-0xdc.7 (2)
0x0d0|                                 00            |           .    |              tag: "funcidx" (0x0) 0xdb-0xdb.7 (1)
0x0d0|                                    13         |            .   |              x: 19 0xdc-0xdc.7 (1)
     |                                               |                |          [20]{}: export 0xdd-0xe9.7 (13)
     |                                               |                |            name{}: 0xdd-0xe7.7 (11)
0x0d0|                                       0a      |             .  |              len: 10 0xdd-0xdd.7 (1)
0x0d0|                                          65 78|              ex|              utf8bytes: "extend32_s" 0xde-0xe7.7 (10)
0x0e0|74 65 6e 64 33 32 5f 73                        |tend32_s        |
     |                                               |                |            expr{}: 0xe8-0xe9.7 (2)
0x0e0|                        00                     |        .       |              tag: "funcidx" (0x0) 0xe8-0xe8.7 (1)
0x0e0|                           14                  |         .      |              x: 20 0xe9-0xe9.7 (1)
     |                                               |                |          [21]{}: export 0xea-0xef.7 (6)
     |                                               |                |            name{}: 0xea-0xed.7 (4)
0x0e0|                              03               |          .     |              len: 3 0xea-0xea.7 (1)
0x0e0|                                 65 71 7a      |           eqz  |              utf8bytes: "eqz" 0xeb-0xed.7 (3)
     |                                               |                |            expr{}: 0xee-0xef.7 (2)
0x0e0|                                          00   |              . |              tag: "funcidx" (0x0) 0xee-0xee.7 (1)
0x0e0|                                             15|               .|              x: 21 0xef-0xef.7 (1)
     |                                               |                |          [22]{}: export 0xf0-0xf4.7 (5)
     |                                               |                |            name{}: 0xf0-0xf2.7 (3)
0x0f0|02                                             |.               |              len: 2 0xf0-0xf0.7 (1)
0x0f0|   65 71                                       | eq             |              utf8bytes: "eq" 0xf1-0xf2.7 (2)
     |                                               |                |            expr{}: 0xf3-0xf4.7 (2)
0x0f0|         00                                    |   .            |              tag: "funcidx" (0x0) 0xf3-0xf3.7 (1)
0x0f0|            16                                 |    .           |              x: 22 0xf4-0xf4.7 (1)
     |                                               |                |          [23]{}: export 0xf5-0xf9.7 (5)
     |                                               |                |            name{}: 0xf5-0xf7.7 (3)
0x0f0|               02                              |     .          |              len: 2 0xf5-0xf5.7 (1)
0x0f0|                  6e 65                        |      ne        |              utf8bytes: "ne" 0xf6-0xf7.7 (2)
     |                                               |                |            expr{}: 0xf8-0xf9.7 (2)
0x0f0|                        00                     |        .       |              tag: "funcidx" (0x0) 0xf8-0xf8.7 (1)
0x0f0|                           17                  |         .      |              x: 23 0xf9-0xf9.7 (1)
     |                                               |                |          [24]{}: export 0xfa-0x100.7 (7)
     |                                               |                |            name{}: 0xfa-0xfe.7 (5)
0x0f0|                              04               |          .     |              len: 4 0xfa-0xfa.7 (1)
0x0f0|                                 6c 74 5f 73   |           lt_s |              utf8bytes: "lt_s" 0xfb-0xfe.7 (4)
     |                                               |                |            expr{}: 0xff-0x100.7 (2)
0x0f0|                                             00|               .|              tag: "funcidx" (0x0) 0xff-0xff.7 (1)
0x100|18                                             |.               |              x: 24 0x100-0x100.7 (1)
     |                                               |                |          [25]{}: export 0x101-0x107.7 (7)
     |                                               |                |            name{}: 0x101-0x105.7 (5)
0x100|   04                                          | .              |              len: 4 0x101-0x101.7 (1)
0x100|      6c 74 5f 75                              |  lt_u          |              utf8bytes: "lt_u" 0x102-0x105.7 (4)
     |                                               |                |            expr{}: 0x106-0x107.7 (2)
0x100|                  00                           |      .         |              tag: "funcidx" (0x0) 0x106-0x106.7 (1)
0x100|                     19                        |       .        |              x: 25 0x107-0x107.7 (1)
     |                                               |                |          [26]{}: export 0x108-0x10e.7 (7)
     |                                               |                |            name{}: 0x108-0x10c.7 (5)
0x100|                        04                     |        .       |              len: 4 0x108-0x108.7 (1)
0x100|                           6c 65 5f 73         |         le_s   |              utf8bytes: "le_s" 0x109-0x10c.7 (4)
     |                                               |                |            expr{}: 0x10d-0x10e.7 (2)
0x100|                                       00      |             .  |              tag: "funcidx" (0x0) 0x10d-0x10d.7 (1)
0x100|                                          1a   |              . |              x: 26 0x10e-0x10e.7 (1)
     |                                               |                |          [27]{}: export 0x10f-0x115.7 (7)
     |                                               |                |            name{}: 0x10f-0x113.7 (5)
0x100|                                             04|               .|              len: 4 0x10f-0x10f.7 (1)
0x110|6c 65 5f 75                                    |le_u            |              utf8bytes: "le_u" 0x110-0x113.7 (4)
     |                                               |                |            expr{}: 0x114-0x115.7 (2)
0x110|            00                                 |    .           |              tag: "funcidx" (0x0) 0x114-0x114.7 (1)
0x110|               1b                              |     .          |              x: 27 0x115-0x115.7 (1)
     |                                               |                |          [28]{}: export 0x116-0x11c.7 (7)
     |                                               |                |            name{}: 0x116-0x11a.7 (5)
0x110|                  04                           |      .         |              len: 4 0x116-0x116.7 (1)
0x110|                     67 74 5f 73               |       gt_s     |              utf8bytes: "gt_s" 0x117-0x11a.7 (4)
     |                                               |                |            expr{}: 0x11b-0x11c.7 (2)
0x110|                                 00            |           .    |              tag: "funcidx" (0x0) 0x11b-0x11b.7 (1)
0x110|                                    1c         |            .   |              x: 28 0x11c-0x11c.7 (1)
     |                                               |                |          [29]{}: export 0x11d-0x123.7 (7)
     |                                               |                |            name{}: 0x11d-0x121.7 (5)
0x110|                                       04      |             .  |              len: 4 0x11d-0x11d.7 (1)
0x110|                                          67 74|              gt|              utf8bytes: "gt_u" 0x11e-0x121.7 (4)
0x120|5f 75                                          |_u              |
     |                                               |                |            expr{}: 0x122-0x123.7 (2)
0x120|      00                                       |  .             |              tag: "funcidx" (0x0) 0x122-0x122.7 (1)
0x120|         1d                                    |   .            |              x: 29 0x123-0x123.7 (1)
     |                                               |                |          [30]{}: export 0x124-0x12a.7 (7)
     |                                               |                |            name{}: 0x124-0x128.7 (5)
0x120|            04                                 |    .           |              len: 4 0x124-0x124.7 (1)
0x120|               67 65 5f 73                     |     ge_s       |              utf8bytes: "ge_s" 0x125-0x128.7 (4)
     |                                               |                |            expr{}: 0x129-0x12a.7 (2)
0x120|                           00                  |         .      |              tag: "funcidx" (0x0) 0x129-0x129.7 (1)
0x120|                              1e               |          .     |              x: 30 0x12a-0x12a.7 (1)
     |                                               |                |          [31]{}: export 0x12b-0x131.7 (7)
     |                                               |                |            name{}: 0x12b-0x12f.7 (5)
0x120|                                 04            |           .    |              len: 4 0x12b-0x12b.7 (1)
0x120|                                    67 65 5f 75|            ge_u|              utf8bytes: "ge_u" 0x12c-0x12f.7 (4)
     |                                               |                |            expr{}: 0x130-0x131.7 (2)
0x130|00                                             |.               |              tag: "funcidx" (0x0) 0x130-0x130.7 (1)
0x130|   1f                                          | .              |              x: 31 0x131-0x131.7 (1)
     |                                               |                |    [3]{}: section 0x132-0x227.7 (246)
0x130|      0a                                       |  .             |      id: "code section" (10) 0x132-0x132.7 (1)
0x130|         f3 01                                 |   ..           |      size: 243 0x133-0x134.7 (2)
     |                                               |                |      content{}: 0x135-0x227.7 (243)
0x130|               20                              |                |        n: 32 0x135-0x135.7 (1)
     |                                               |                |        items[0:32]: 0x136-0x227.7 (242)
     |                                               |                |          [0]{}: code 0x136-0x13d.7 (8)
0x130|                  07                           |      .         |            size: 7 0x136-0x136.7 (1)
     |                                               |                |            code{}: 0x137-0x13d.7 (7)
     |                                               |                |              locals{}: 0x137-0x137.7 (1)
0x130|                     00                        |       .        |                n: 0 0x137-0x137.7 (1)
     |                                               |                |                items[0:0]: 0x138-NA (0)
     |                                               |                |              expr{}: 0x138-0x13d.7 (6)
     |                                               |                |                instructions[0:4]: 0x138-0x13d.7 (6)
     |                                               |                |                  [0]{}: instr 0x138-0x139.7 (2)
0x130|                        20                     |                |                    local.get: 0x20 (valid) 0x138-0x138.7 (1)
0x130|                           00                  |         .      |                    x: 0 0x139-0x139.7 (1)
     |                                               |                |                  [1]{}: instr 0x13a-0x13b.7 (2)
0x130|                              20               |                |                    local.get: 0x20 (valid) 0x13a-0x13a.7 (1)
0x130|                                 01            |           .    |                    x: 1 0x13b-0x13b.7 (1)
     |                                               |                |                  [2]{}: instr 0x13c-0x13c.7 (1)
0x130|                                    7c         |            |   |                    i64.add: 0x7c (valid) 0x13c-0x13c.7 (1)
     |                                               |                |                  [3]{}: instr 0x13d-0x13d.7 (1)
0x130|                                       0b      |             .  |                    end: 0xb (valid) 0x13d-0x13d.7 (1)
     |                                               |                |          [1]{}: code 0x13e-0x145.7 (8)
0x130|                                          07   |              . |            size: 7 0x13e-0x13e.7 (1)
     |                                               |                |            code{}: 0x13f-0x145.7 (7)
     |                                               |                |              locals{}: 0x13f-0x13f.7 (1)
0x130|                                             00|               .|                n: 0 0x13f-0x13f.7 (1)
     |                                               |                |                items[0:0]: 0x140-NA (0)
     |                                               |                |              expr{}: 0x140-0x145.7 (6)
     |                                               |                |                instructions[0:4]: 0x140-0x145.7 (6)
     |                                               |                |                  [0]{}: instr 0x140-0x141.7 (2)
0x140|20                                             |                |                    local.get: 0x20 (valid) 0x140-0x140.7 (1)
0x140|   00                                          | .              |                    x: 0 0x141-0x141.7 (1)
     |                                               |                |                  [1]{}: instr 0x142-0x143.7 (2)
0x140|      20                                       |                |                    local.get: 0x20 (valid) 0x142-0x142.7 (1)
0x140|         01                                    |   .            |                    x: 1 0x143-0x143.7 (1)
     |                                               |                |                  [2]{}: instr 0x144-0x144.7 (1)
0x140|            7d                                 |    }           |                    i64.sub: 0x7d (valid) 0x144-0x144.7 (1)
     |                                               |                |                  [3]{}: instr 0x145-0x145.7 (1)
0x140|               0b                              |     .          |                    end: 0xb (valid) 0x145-0x145.7 (1)
     |                                               |                |          [2]{}: code 0x146-0x14d.7 (8)
0x140|                  07                           |      .         |            size: 7 0x146-0x146.7 (1)
     |                                               |                |            code{}: 0x147-0x14d.7 (7)
     |                                               |                |              locals{}: 0x147-0x147.7 (1)
0x140|                     00                        |       .        |                n: 0 0x147-0x147.7 (1)
     |                                               |                |                items[0:0]: 0x148-NA (0)
     |                                               |                |              expr{}: 0x148-0x14d.7 (6)
     |                                               |                |                instructions[0:4]: 0x148-0x14d.7 (6)
     |                                               |                |                  [0]{}: instr 0x148-0x149.7 (2)
0x140|                        20                     |                |                    local.get: 0x20 (valid) 0x148-0x148.7 (1)
0x140|                           00                  |         .      |                    x: 0 0x149-0x149.7 (1)
     |                                               |                |                  [1]{}: instr 0x14a-0x14b.7 (2)
0x140|                              20               |                |                    local.get: 0x20 (valid) 0x14a-0x14a.7 (1)
0x140|                                 01            |           .    |                    x: 1 0x14b-0x14b.7 (1)
     |                                               |                |                  [2]{}: instr 0x14c-0x14c.7 (1)
0x140|                                    7e         |            ~   |                    i64.mul: 0x7e (valid) 0x14c-0x14c.7 (1)
     |                                               |                |                  [3]{}: instr 0x14d-0x14d.7 (1)
0x140|                                       0b      |             .  |                    end: 0xb (valid) 0x14d-0x14d.7 (1)
     |                                               |                |          [3]{}: code 0x14e-0x155.7 (8)
0x140|                                          07   |              . |            size: 7 0x14e-0x14e.7 (1)
     |                                               |                |            code{}: 0x14f-0x155.7 (7)
     |                                               |                |              locals{}: 0x14f-0x14f.7 (1)
0x140|                                             00|               .|                n: 0 0x14f-0x14f.7 (1)
     |                                               |                |                items[0:0]: 0x150-NA (0)
     |                                               |                |              expr{}: 0x150-0x155.7 (6)
     |                                               |                |                instructions[0:4]: 0x150-0x155.7 (6)
     |                                               |                |                  [0]{}: instr 0x150-0x151.7 (2)
0x150|20                                             |                |                    local.get: 0x20 (valid) 0x150-0x150.7 (1)
0x150|   00                                          | .              |                    x: 0 0x151-0x151.7 (1)
     |                                               |                |                  [1]{}: instr 0x152-0x153.7 (2)
0x150|      20                                       |                |                    local.get: 0x20 (valid) 0x152-0x152.7 (1)
0x150|         01                                    |   .            |                    x: 1 0x153-0x153.7 (1)
     |                                               |                |                  [2]{}: instr 0x154-0x154.7 (1)
0x150|            7f                                 |    .           |                    i64.div_s: 0x7f (valid) 0x154-0x154.7 (1)
     |                                               |                |                  [3]{}: instr 0x155-0x155.7 (1)
0x150|               0b                              |     .          |                    end: 0xb (valid) 0x155-0x155.7 (1)
     |                                               |                |          [4]{}: code 0x156-0x15d.7 (8)
0x150|                  07                           |      .         |            size: 7 0x156-0x156.7 (1)
     |                                               |                |            code{}: 0x157-0x15d.7 (7)
     |                                               |                |              locals{}: 0x157-0x157.7 (1)
0x150|                     00                        |       .        |                n: 0 0x157-0x157.7 (1)
     |                                               |                |                items[0:0]: 0x158-NA (0)
     |                                               |                |              expr{}: 0x158-0x15d.7 (6)
     |                                               |                |                instructions[0:4]: 0x158-0x15d.7 (6)
     |                                               |                |                  [0]{}: instr 0x158-0x159.7 (2)
0x150|                        20                     |                |                    local.get: 0x20 (valid) 0x158-0x158.7 (1)
0x150|                           00                  |         .      |                    x: 0 0x159-0x159.7 (1)
     |                                               |                |                  [1]{}: instr 0x15a-0x15b.7 (2)
0x150|                              20               |                |                    local.get: 0x20 (valid) 0x15a-0x15a.7 (1)
0x150|                                 01            |           .    |                    x: 1 0x15b-0x15b.7 (1)
     |                                               |                |                  [2]{}: instr 0x15c-0x15c.7 (1)
0x150|                                    80         |            .   |                    i64.div_u: 0x80 (valid) 0x15c-0x15c.7 (1)
     |                                               |                |                  [3]{}: instr 0x15d-0x15d.7 (1)
0x150|                                       0b      |             .  |                    end: 0xb (valid) 0x15d-0x15d.7 (1)
     |                                               |                |          [5]{}: code 0x15e-0x165.7 (8)
0x150|                                          07   |              . |            size: 7 0x15e-0x15e.7 (1)
     |                                               |                |            code{}: 0x15f-0x165.7 (7)
     |                                               |                |              locals{}: 0x15f-0x15f.7 (1)
0x150|                                             00|               .|                n: 0 0x15f-0x15f.7 (1)
     |                                               |                |                items[0:0]: 0x160-NA (0)
     |                                               |                |              expr{}: 0x160-0x165.7 (6)
     |                                               |                |                instructions[0:4]: 0x160-0x165.7 (6)
     |                                               |                |                  [0]{}: instr 0x160-0x161.7 (2)
0x160|20                                             |                |                    local.get: 0x20 (valid) 0x160-0x160.7 (1)
0x160|   00                                          | .              |                    x: 0 0x161-0x161.7 (1)
     |                                               |                |                  [1]{}: instr 0x162-0x163.7 (2)
0x160|      20                                       |                |                    local.get: 0x20 (valid) 0x162-0x162.7 (1)
0x160|         01                                    |   .            |                    x: 1 0x163-0x163.7 (1)
     |                                               |                |                  [2]{}: instr 0x164-0x164.7 (1)
0x160|            81                                 |    .           |                    i64.rem_s: 0x81 (valid) 0x164-0x164.7 (1)
     |                                               |                |                  [3]{}: instr 0x165-0x165.7 (1)
0x160|               0b                              |     .          |                    end: 0xb (valid) 0x165-0x165.7 (1)
     |                                               |                |          [6]{}: code 0x166-0x16d.7 (8)
0x160|                  07                           |      .         |            size: 7 0x166-0x166.7 (1)
     |                                               |                |            code{}: 0x167-0x16d.7 (7)
     |                                               |                |              locals{}: 0x167-0x167.7 (1)
0x160|                     00                        |       .        |                n: 0 0x167-0x167.7 (1)
     |                                               |                |                items[0:0]: 0x168-NA (0)
     |                                               |                |              expr{}: 0x168-0x16d.7 (6)
     |                                               |                |                instructions[0:4]: 0x168-0x16d.7 (6)
     |                                               |                |                  [0]{}: instr 0x168-0x169.7 (2)
0x160|                        20                     |                |                    local.get: 0x20 (valid) 0x168-0x168.7 (1)
0x160|                           00                  |         .      |                    x: 0 0x169-0x169.7 (1)
     |                                               |                |                  [1]{}: instr 0x16a-0x16b.7 (2)
0x160|                              20               |                |                    local.get: 0x20 (valid) 0x16a-0x16a.7 (1)
0x160|                                 01            |           .    |                    x: 1 0x16b-0x16b.7 (1)
     |                                               |                |                  [2]{}: instr 0x16c-0x16c.7 (1)
0x160|                                    82         |            .   |                    i64.rem_u: 0x82 (valid) 0x16c-0x16c.7 (1)
     |                                               |                |                  [3]{}: instr 0x16d-0x16d.7 (1)
0x160|                                       0b      |             .  |                    end: 0xb (valid) 0x16d-0x16d.7 (1)
     |                                               |                |          [7]{}: code 0x16e-0x175.7 (8)
0x160|                                          07   |              . |            size: 7 0x16e-0x16e.7 (1)
     |                                               |                |            code{}: 0x16f-0x175.7 (7)
     |                                               |                |              locals{}: 0x16f-0x16f.7 (1)
0x160|                                             00|               .|                n: 0 0x16f-0x16f.7 (1)
     |                                               |                |                items[0:0]: 0x170-NA (0)
     |                                               |                |              expr{}: 0x170-0x175.7 (6)
     |                                               |                |                instructions[0:4]: 0x170-0x175.7 (6)
     |                                               |                |                  [0]{}: instr 0x170-0x171.7 (2)
0x170|20                                             |                |                    local.get: 0x20 (valid) 0x170-0x170.7 (1)
0x170|   00                                          | .              |                    x: 0 0x171-0x171.7 (1)
     |                                               |                |                  [1]{}: instr 0x172-0x173.7 (2)
0x170|      20                                       |                |                    local.get: 0x20 (valid) 0x172-0x172.7 (1)
0x170|         01                                    |   .            |                    x: 1 0x173-0x173.7 (1)
     |                                               |                |                  [2]{}: instr 0x174-0x174.7 (1)
0x170|            83                                 |    .           |                    i64.and: 0x83 (valid) 0x174-0x174.7 (1)
     |                                               |                |                  [3]{}: instr 0x175-0x175.7 (1)
0x170|               0b                              |     .          |                    end: 0xb (valid) 0x175-0x175.7 (1)
     |                                               |                |          [8]{}: code 0x176-0x17d.7 (8)
0x170|                  07                           |      .         |            size: 7 0x176-0x176.7 (1)
     |                                               |                |            code{}: 0x177-0x17d.7 (7)
     |                                               |                |              locals{}: 0x177-0x177.7 (1)
0x170|                     00                        |       .        |                n: 0 0x177-0x177.7 (1)
     |                                               |                |                items[0:0]: 0x178-NA (0)
     |                                               |                |              expr{}: 0x178-0x17d.7 (6)
     |                                               |                |                instructions[0:4]: 0x178-0x17d.7 (6)
     |                                               |                |                  [0]{}: instr 0x178-0x179.7 (2)
0x170|                        20                     |                |                    local.get: 0x20 (valid) 0x178-0x178.7 (1)
0x170|                           00                  |         .      |                    x: 0 0x179-0x179.7 (1)
     |                                               |                |                  [1]{}: instr 0x17a-0x17b.7 (2)
0x170|                              20               |                |                    local.get: 0x20 (valid) 0x17a-0x17a.7 (1)
0x170|                                 01            |           .    |                    x: 1 0x17b-0x17b.7 (1)
     |                                               |                |                  [2]{}: instr 0x17c-0x17c.7 (1)
0x170|                                    84         |            .   |                    i64.or: 0x84 (valid) 0x17c-0x17c.7 (1)
     |                                               |                |                  [3]{}: instr 0x17d-0x17d.7 (1)
0x170|                                       0b      |             .  |                    end: 0xb (valid) 0x17d-0x17d.7 (1)
     |                                               |                |          [9]{}: code 0x17e-0x185.7 (8)
0x170|                                          07   |              . |            size: 7 0x17e-0x17e.7 (1)
     |                                               |                |            code{}: 0x17f-0x185.7 (7)
     |                                               |                |              locals{}: 0x17f-0x17f.7 (1)
0x170|                                             00|               .|                n: 0 0x17f-0x17f.7 (1)
     |                                               |                |                items[0:0]: 0x180-NA (0)
     |                                               |                |              expr{}: 0x180-0x185.7 (6)
     |                                               |                |                instructions[0:4]: 0x180-0x185.7 (6)
     |                                               |                |                  [0]{}: instr 0x180-0x181.7 (2)
0x180|20                                             |                |                    local.get: 0x20 (valid) 0x180-0x180.7 (1)
0x180|   00                                          | .              |                    x: 0 0x181-0x181.7 (1)
     |                                               |                |                  [1]{}: instr 0x182-0x183.7 (2)
0x180|      20                                       |                |                    local.get: 0x20 (valid) 0x182-0x182.7 (1)
0x180|         01                                    |   .            |                    x: 1 0x183-0x183.7 (1)
     |                                               |                |                  [2]{}: instr 0x184-0x184.7 (1)
0x180|            85                                 |    .           |                    i64.xor: 0x85 (valid) 0x184-0x184.7 (1)
     |                                               |                |                  [3]{}: instr 0x185-0x185.7 (1)
0x180|               0b                              |     .          |                    end: 0xb (valid) 0x185-0x185.7 (1)
     |                                               |                |          [10]{}: code 0x186-0x18d.7 (8)
0x180|                  07                           |      .         |            size: 7 0x186-0x186.7 (1)
     |                                               |                |            code{}: 0x187-0x18d.7 (7)
     |                                               |                |              locals{}: 0x187-0x187.7 (1)
0x180|                     00                        |       .        |                n: 0 0x187-0x187.7 (1)
     |                                               |                |                items[0:0]: 0x188-NA (0)
     |                                               |                |              expr{}: 0x188-0x18d.7 (6)
     |                                               |                |                instructions[0:4]: 0x188-0x18d.7 (6)
     |                                               |                |                  [0]{}: instr 0x188-0x189.7 (2)
0x180|                        20                     |                |                    local.get: 0x20 (valid) 0x188-0x188.7 (1)
0x180|                           00                  |         .      |                    x: 0 0x189-0x189.7 (1)
     |                                               |                |                  [1]{}: instr 0x18a-0x18b.7 (2)
0x180|                              20               |                |                    local.get: 0x20 (valid) 0x18a-0x18a.7 (1)
0x180|                                 01            |           .    |                    x: 1 0x18b-0x18b.7 (1)
     |                                               |                |                  [2]{}: instr 0x18c-0x18c.7 (1)
0x180|                                    86         |            .   |                    i64.shl: 0x86 (valid) 0x18c-0x18c.7 (1)
     |                                               |                |                  [3]{}: instr 0x18d-0x18d.7 (1)
0x180|                                       0b      |             .  |                    end: 0xb (valid) 0x18d-0x18d.7 (1)
     |                                               |                |          [11]{}: code 0x18e-0x195.7 (8)
0x180|                                          07   |              . |            size: 7 0x18e-0x18e.7 (1)
     |                                               |                |            code{}: 0x18f-0x195.7 (7)
     |                                               |                |              locals{}: 0x18f-0x18f.7 (1)
0x180|                                             00|               .|                n: 0 0x18f-0x18f.7 (1)
     |                                               |                |                items[0:0]: 0x190-NA (0)
     |                                               |                |              expr{}: 0x190-0x195.7 (6)
     |                                               |                |                instructions[0:4]: 0x190-0x195.7 (6)
     |                                               |                |                  [0]{}: instr 0x190-0x191.7 (2)
0x190|20                                             |                |                    local.get: 0x20 (valid) 0x190-0x190.7 (1)
0x190|   00                                          | .              |                    x: 0 0x191-0x191.7 (1)
     |                                               |                |                  [1]{}: instr 0x192-0x193.7 (2)
0x190|      20                                       |                |                    local.get: 0x20 (valid) 0x192-0x192.7 (1)
0x190|         01                                    |   .            |                    x: 1 0x193-0x193.7 (1)
     |                                               |                |                  [2]{}: instr 0x194-0x194.7 (1)
0x190|            87                                 |    .           |                    i64.shr_s: 0x87 (valid) 0x194-0x194.7 (1)
     |                                               |                |                  [3]{}: instr 0x195-0x195.7 (1)
0x190|               0b                              |     .          |                    end: 0xb (valid) 0x195-0x195.7 (1)
     |                                               |                |          [12]{}: code 0x196-0x19d.7 (8)
0x190|                  07                           |      .         |            size: 7 0x196-0x196.7 (1)
     |                                               |                |            code{}: 0x197-0x19d.7 (7)
     |                                               |                |              locals{}: 0x197-0x197.7 (1)
0x190|                     00                        |       .        |                n: 0 0x197-0x197.7 (1)
     |                                               |                |                items[0:0]: 0x198-NA (0)
     |                                               |                |              expr{}: 0x198-0x19d.7 (6)
     |                                               |                |                instructions[0:4]: 0x198-0x19d.7 (6)
     |                                               |                |                  [0]{}: instr 0x198-0x199.7 (2)
0x190|                        20                     |                |                    local.get: 0x20 (valid) 0x198-0x198.7 (1)
0x190|                           00                  |         .      |                    x: 0 0x199-0x199.7 (1)
     |                                               |                |                  [1]{}: instr 0x19a-0x19b.7 (2)
0x190|                              20               |                |                    local.get: 0x20 (valid) 0x19a-0x19a.7 (1)
0x190|                                 01            |           .    |                    x: 1 0x19b-0x19b.7 (1)
     |                                               |                |                  [2]{}: instr 0x19c-0x19c.7 (1)
0x190|                                    88         |            .   |                    i64.shr_u: 0x88 (valid) 0x19c-0x19c.7 (1)
     |                                               |                |                  [3]{}: instr 0x19d-0x19d.7 (1)
0x190|                                       0b      |             .  |                    end: 0xb (valid) 0x19d-0x19d.7 (1)
     |                                               |                |          [13]{}: code 0x19e-0x1a5.7 (8)
0x190|                                          07   |              . |            size: 7 0x19e-0x19e.7 (1)
     |                                               |                |            code{}: 0x19f-0x1a5.7 (7)
     |                                               |                |              locals{}: 0x19f-0x19f.7 (1)
0x190|                                             00|               .|                n: 0 0x19f-0x19f.7 (1)
     |                                               |                |                items[0:0]: 0x1a0-NA (0)
     |                                               |                |              expr{}: 0x1a0-0x1a5.7 (6)
     |                                               |                |                instructions[0:4]: 0x1a0-0x1a5.7 (6)
     |                                               |                |                  [0]{}: instr 0x1a0-0x1a1.7 (2)
0x1a0|20                                             |                |                    local.get: 0x20 (valid) 0x1a0-0x1a0.7 (1)
0x1a0|   00                                          | .              |                    x: 0 0x1a1-0x1a1.7 (1)
     |                                               |                |                  [1]{}: instr 0x1a2-0x1a3.7 (2)
0x1a0|      20                                       |                |                    local.get: 0x20 (valid) 0x1a2-0x1a2.7 (1)
0x1a0|         01                                    |   .            |                    x: 1 0x1a3-0x1a3.7 (1)
     |                                               |                |                  [2]{}: instr 0x1a4-0x1a4.7 (1)
0x1a0|            89                                 |    .           |                    i64.rotl: 0x89 (valid) 0x1a4-0x1a4.7 (1)
     |                                               |                |                  [3]{}: instr 0x1a5-0x1a5.7 (1)
0x1a0|               0b                              |     .          |                    end: 0xb (valid) 0x1a5-0x1a5.7 (1)
     |                                               |                |          [14]{}: code 0x1a6-0x1ad.7 (8)
0x1a0|                  07                           |      .         |            size: 7 0x1a6-0x1a6.7 (1)
     |                                               |                |            code{}: 0x1a7-0x1ad.7 (7)
     |                                               |                |              locals{}: 0x1a7-0x1a7.7 (1)
0x1a0|                     00                        |       .        |                n: 0 0x1a7-0x1a7.7 (1)
     |                                               |                |                items[0:0]: 0x1a8-NA (0)
     |                                               |                |              expr{}: 0x1a8-0x1ad.7 (6)
     |                                               |                |                instructions[0:4]: 0x1a8-0x1ad.7 (6)
     |                                               |                |                  [0]{}: instr 0x1a8-0x1a9.7 (2)
0x1a0|                        20                     |                |                    local.get: 0x20 (valid) 0x1a8-0x1a8.7 (1)
0x1a0|                           00                  |         .      |                    x: 0 0x1a9-0x1a9.7 (1)
     |                                               |                |                  [1]{}: instr 0x1aa-0x1ab.7 (2)
0x1a0|                              20               |                |                    local.get: 0x20 (valid) 0x1aa-0x1aa.7 (1)
0x1a0|                                 01            |           .    |                    x: 1 0x1ab-0x1ab.7 (1)
     |                                               |                |                  [2]{}: instr 0x1ac-0x1ac.7 (1)
0x1a0|                                    8a         |            .   |                    i64.rotr: 0x8a (valid) 0x1ac-0x1ac.7 (1)
     |                                               |                |                  [3]{}: instr 0x1ad-0x1ad.7 (1)
0x1a0|                                       0b      |             .  |                    end: 0xb (valid) 0x1ad-0x1ad.7 (1)
     |                                               |                |          [15]{}: code 0x1ae-0x1b3.7 (6)
0x1a0|                                          05   |              . |            size: 5 0x1ae-0x1ae.7 (1)
     |                                               |                |            code{}: 0x1af-0x1b3.7 (5)
     |                                               |                |              locals{}: 0x1af-0x1af.7 (1)
0x1a0|                                             00|               .|                n: 0 0x1af-0x1af.7 (1)
     |                                               |                |                items[0:0]: 0x1b0-NA (0)
     |                                               |                |              expr{}: 0x1b0-0x1b3.7 (4)
     |                                               |                |                instructions[0:3]: 0x1b0-0x1b3.7 (4)
     |                                               |                |                  [0]{}: instr 0x1b0-0x1b1.7 (2)
0x1b0|20                                             |                |                    local.get: 0x20 (valid) 0x1b0-0x1b0.7 (1)
0x1b0|   00                                          | .              |                    x: 0 0x1b1-0x1b1.7 (1)
     |                                               |                |                  [1]{}: instr 0x1b2-0x1b2.7 (1)
0x1b0|      79                                       |  y             |                    i64.clz: 0x79 (valid) 0x1b2-0x1b2.7 (1)
     |                                               |                |                  [2]{}: instr 0x1b3-0x1b3.7 (1)
0x1b0|         0b                                    |   .            |                    end: 0xb (valid) 0x1b3-0x1b3.7 (1)
     |                                               |                |          [16]{}: code 0x1b4-0x1b9.7 (6)
0x1b0|            05                                 |    .           |            size: 5 0x1b4-0x1b4.7 (1)
     |                                               |                |            code{}: 0x1b5-0x1b9.7 (5)
     |                                               |                |              locals{}: 0x1b5-0x1b5.7 (1)
0x1b0|               00                              |     .          |                n: 0 0x1b5-0x1b5.7 (1)
     |                                               |                |                items[0:0]: 0x1b6-NA (0)
     |                                               |                |              expr{}: 0x1b6-0x1b9.7 (4)
     |                                               |                |                instructions[0:3]: 0x1b6-0x1b9.7 (4)
     |                                               |                |                  [0]{}: instr 0x1b6-0x1b7.7 (2)
0x1b0|                  20                           |                |                    local.get: 0x20 (valid) 0x1b6-0x1b6.7 (1)
0x1b0|                     00                        |       .        |                    x: 0 0x1b7-0x1b7.7 (1)
     |                                               |                |                  [1]{}: instr 0x1b8-0x1b8.7 (1)
0x1b0|                        7a                     |        z       |                    i64.ctz: 0x7a (valid) 0x1b8-0x1b8.7 (1)
     |                                               |                |                  [2]{}: instr 0x1b9-0x1b9.7 (1)
0x1b0|                           0b                  |         .      |                    end: 0xb (valid) 0x1b9-0x1b9.7 (1)
     |                                               |                |          [17]{}: code 0x1ba-0x1bf.7 (6)
0x1b0|                              05               |          .     |            size: 5 0x1ba-0x1ba.7 (1)
     |                                               |                |            code{}: 0x1bb-0x1bf.7 (5)
     |                                               |                |              locals{}: 0x1bb-0x1bb.7 (1)
0x1b0|                                 00            |           .    |                n: 0 0x1bb-0x1bb.7 (1)
     |                                               |                |                items[0:0]: 0x1bc-NA (0)
     |                                               |                |              expr{}: 0x1bc-0x1bf.7 (4)
     |                                               |                |                instructions[0:3]: 0x1bc-0x1bf.7 (4)
     |                                               |                |                  [0]{}: instr 0x1bc-0x1bd.7 (2)
0x1b0|                                    20         |                |                    local.get: 0x20 (valid) 0x1bc-0x1bc.7 (1)
0x1b0|                                       00      |             .  |                    x: 0 0x1bd-0x1bd.7 (1)
     |                                               |                |                  [1]{}: instr 0x1be-0x1be.7 (1)
0x1b0|                                          7b   |              { |                    i64.popcnt: 0x7b (valid) 0x1be-0x1be.7 (1)
     |                                               |                |                  [2]{}: instr 0x1bf-0x1bf.7 (1)
0x1b0|                                             0b|               .|                    end: 0xb (valid) 0x1bf-0x1bf.7 (1)
     |                                               |                |          [18]{}: code 0x1c0-0x1c5.7 (6)
0x1c0|05                                             |.               |            size: 5 0x1c0-0x1c0.7 (1)
     |                                               |                |            code{}: 0x1c1-0x1c5.7 (5)
     |                                               |                |              locals{}: 0x1c1-0x1c1.7 (1)
0x1c0|   00                                          | .              |                n: 0 0x1c1-0x1c1.7 (1)
     |                                               |                |                items[0:0]: 0x1c2-NA (0)
     |                                               |                |              expr{}: 0x1c2-0x1c5.7 (4)
     |                                               |                |                instructions[0:3]: 0x1c2-0x1c5.7 (4)
     |                                               |                |                  [0]{}: instr 0x1c2-0x1c3.7 (2)
0x1c0|      20                                       |                |                    local.get: 0x20 (valid) 0x1c2-0x1c2.7 (1)
0x1c0|         00                                    |   .            |                    x: 0 0x1c3-0x1c3.7 (1)
     |                                               |                |                  [1]{}: instr 0x1c4-0x1c4.7 (1)
0x1c0|            c2                                 |    .           |                    i64.extend8_s: 0xc2 (valid) 0x1c4-0x1c4.7 (1)
     |                                               |                |                  [2]{}: instr 0x1c5-0x1c5.7 (1)
0x1c0|               0b                              |     .          |                    end: 0xb (valid) 0x1c5-0x1c5.7 (1)
     |                                               |                |          [19]{}: code 0x1c6-0x1cb.7 (6)
0x1c0|                  05                           |      .         |            size: 5 0x1c6-0x1c6.7 (1)
     |                                               |                |            code{}: 0x1c7-0x1cb.7 (5)
     |                                               |                |              locals{}: 0x1c7-0x1c7.7 (1)
0x1c0|                     00                        |       .        |                n: 0 0x1c7-0x1c7.7 (1)
     |                                               |                |                items[0:0]: 0x1c8-NA (0)
     |                                               |                |              expr{}: 0x1c8-0x1cb.7 (4)
     |                                               |                |                instructions[0:3]: 0x1c8-0x1cb.7 (4)
     |                                               |                |                  [0]{}: instr 0x1c8-0x1c9.7 (2)
0x1c0|                        20                     |                |                    local.get: 0x20 (valid) 0x1c8-0x1c8.7 (1)
0x1c0|                           00                  |         .      |                    x: 0 0x1c9-0x1c9.7 (1)
     |                                               |                |                  [1]{}: instr 0x1ca-0x1ca.7 (1)
0x1c0|                              c3               |          .     |                    i64.extend16_s: 0xc3 (valid) 0x1ca-0x1ca.7 (1)
     |                                               |                |                  [2]{}: instr 0x1cb-0x1cb.7 (1)
0x1c0|                                 0b            |           .    |                    end: 0xb (valid) 0x1cb-0x1cb.7 (1)
     |                                               |                |          [20]{}: code 0x1cc-0x1d1.7 (6)
0x1c0|                                    05         |            .   |            size: 5 0x1cc-0x1cc.7 (1)
     |                                               |                |            code{}: 0x1cd-0x1d1.7 (5)
     |                                               |                |              locals{}: 0x1cd-0x1cd.7 (1)
0x1c0|                                       00      |             .  |                n: 0 0x1cd-0x1cd.7 (1)
     |                                               |                |                items[0:0]: 0x1ce-NA (0)
     |                                               |                |              expr{}: 0x1ce-0x1d1.7 (4)
     |                                               |                |                instructions[0:3]: 0x1ce-0x1d1.7 (4)
     |                                               |                |                  [0]{}: instr 0x1ce-0x1cf.7 (2)
0x1c0|                                          20   |                |                    local.get: 0x20 (valid) 0x1ce-0x1ce.7 (1)
0x1c0|                                             00|               .|                    x: 0 0x1cf-0x1cf.7 (1)
     |                                               |                |                  [1]{}: instr 0x1d0-0x1d0.7 (1)
0x1d0|c4                                             |.               |                    i64.extend32_s: 0xc4 (valid) 0x1d0-0x1d0.7 (1)
     |                                               |                |                  [2]{}: instr 0x1d1-0x1d1.7 (1)
0x1d0|   0b                                          | .              |                    end: 0xb (valid) 0x1d1-0x1d1.7 (1)
     |                                               |                |          [21]{}: code 0x1d2-0x1d7.7 (6)
0x1d0|      05                                       |  .             |            size: 5 0x1d2-0x1d2.7 (1)
     |                                               |                |            code{}: 0x1d3-0x1d7.7 (5)
     |                                               |                |              locals{}: 0x1d3-0x1d3.7 (1)
0x1d0|         00                                    |   .            |                n: 0 0x1d3-0x1d3.7 (1)
     |                                               |                |                items[0:0]: 0x1d4-NA (0)
     |                                               |                |              expr{}: 0x1d4-0x1d7.7 (4)
     |                                               |                |                instructions[0:3]: 0x1d4-0x1d7.7 (4)
     |                                               |                |                  [0]{}: instr 0x1d4-0x1d5.7 (2)
0x1d0|            20                                 |                |                    local.get: 0x20 (valid) 0x1d4-0x1d4.7 (1)
0x1d0|               00                              |     .          |                    x: 0 0x1d5-0x1d5.7 (1)
     |                                               |                |                  [1]{}: instr 0x1d6-0x1d6.7 (1)
0x1d0|                  50                           |      P         |                    i64.eqz: 0x50 (valid) 0x1d6-0x1d6.7 (1)
     |                                               |                |                  [2]{}: instr 0x1d7-0x1d7.7 (1)
0x1d0|                     0b                        |       .        |                    end: 0xb (valid) 0x1d7-0x1d7.7 (1)
     |                                               |                |          [22]{}: code 0x1d8-0x1df.7 (8)
0x1d0|                        07                     |        .       |            size: 7 0x1d8-0x1d8.7 (1)
     |                                               |                |            code{}: 0x1d9-0x1df.7 (7)
     |                                               |                |              locals{}: 0x1d9-0x1d9.7 (1)
0x1d0|                           00                  |         .      |                n: 0 0x1d9-0x1d9.7 (1)
     |                                               |                |                items[0:0]: 0x1da-NA (0)
     |                                               |                |              expr{}: 0x1da-0x1df.7 (6)
     |                                               |                |                instructions[0:4]: 0x1da-0x1df.7 (6)
     |                                               |                |                  [0]{}: instr 0x1da-0x1db.7 (2)
0x1d0|                              20               |                |                    local.get: 0x20 (valid) 0x1da-0x1da.7 (1)
0x1d0|                                 00            |           .    |                    x: 0 0x1db-0x1db.7 (1)
     |                                               |                |                  [1]{}: instr 0x1dc-0x1dd.7 (2)
0x1d0|                                    20         |                |                    local.get: 0x20 (valid) 0x1dc-0x1dc.7 (1)
0x1d0|                                       01      |             .  |                    x: 1 0x1dd-0x1dd.7 (1)
     |                                               |                |                  [2]{}: instr 0x1de-0x1de.7 (1)
0x1d0|                                          51   |              Q |                    i64.eq: 0x51 (valid) 0x1de-0x1de.7 (1)
     |                                               |                |                  [3]{}: instr 0x1df-0x1df.7 (1)
0x1d0|                                             0b|               .|                    end: 0xb (valid) 0x1df-0x1df.7 (1)
     |                                               |                |          [23]{}: code 0x1e0-0x1e7.7 (8)
0x1e0|07                                             |.               |            size: 7 0x1e0-0x1e0.7 (1)
     |                                               |                |            code{}: 0x1e1-0x1e7.7 (7)
     |                                               |                |              locals{}: 0x1e1-0x1e1.7 (1)
0x1e0|   00                                          | .              |                n: 0 0x1e1-0x1e1.7 (1)
     |                                               |                |                items[0:0]: 0x1e2-NA (0)
     |                                               |                |              expr{}: 0x1e2-0x1e7.7 (6)
     |                                               |                |                instructions[0:4]: 0x1e2-0x1e7.7 (6)
     |                                               |                |                  [0]{}: instr 0x1e2-0x1e3.7 (2)
0x1e0|      20                                       |                |                    local.get: 0x20 (valid) 0x1e2-0x1e2.7 (1)
0x1e0|         00                                    |   .            |                    x: 0 0x1e3-0x1e3.7 (1)
     |                                               |                |                  [1]{}: instr 0x1e4-0x1e5.7 (2)
0x1e0|            20                                 |                |                    local.get: 0x20 (valid) 0x1e4-0x1e4.7 (1)
0x1e0|               01                              |     .          |                    x: 1 0x1e5-0x1e5.7 (1)
     |                                               |                |                  [2]{}: instr 0x1e6-0x1e6.7 (1)
0x1e0|                  52                           |      R         |                    i64.ne: 0x52 (valid) 0x1e6-0x1e6.7 (1)
     |                                               |                |                  [3]{}: instr 0x1e7-0x1e7.7 (1)
0x1e0|                     0b                        |       .        |                    end: 0xb (valid) 0x1e7-0x1e7.7 (1)
     |                                               |                |          [24]{}: code 0x1e8-0x1ef.7 (8)
0x1e0|                        07                     |        .       |            size: 7 0x1e8-0x1e8.7 (1)
     |                                               |                |            code{}: 0x1e9-0x1ef.7 (7)
     |                                               |                |              locals{}: 0x1e9-0x1e9.7 (1)
0x1e0|                           00                  |         .      |                n: 0 0x1e9-0x1e9.7 (1)
     |                                               |                |                items[0:0]: 0x1ea-NA (0)
     |                                               |                |              expr{}: 0x1ea-0x1ef.7 (6)
     |                                               |                |                instructions[0:4]: 0x1ea-0x1ef.7 (6)
     |                                               |                |                  [0]{}: instr 0x1ea-0x1eb.7 (2)
0x1e0|                              20               |                |                    local.get: 0x20 (valid) 0x1ea-0x1ea.7 (1)
0x1e0|                                 00            |           .    |                    x: 0 0x1eb-0x1eb.7 (1)
     |                                               |                |                  [1]{}: instr 0x1ec-0x1ed.7 (2)
0x1e0|                                    20         |                |                    local.get: 0x20 (valid) 0x1ec-0x1ec.7 (1)
0x1e0|                                       01      |             .  |                    x: 1 0x1ed-0x1ed.7 (1)
     |                                               |                |                  [2]{}: instr 0x1ee-0x1ee.7 (1)
0x1e0|                                          53   |              S |                    i64.lt_s: 0x53 (valid) 0x1ee-0x1ee.7 (1)
     |                                               |                |                  [3]{}: instr 0x1ef-0x1ef.7 (1)
0x1e0|                                             0b|               .|                    end: 0xb (valid) 0x1ef-0x1ef.7 (1)
     |                                               |                |          [25]{}: code 0x1f0-0x1f7.7 (8)
0x1f0|07                                             |.               |            size: 7 0x1f0-0x1f0.7 (1)
     |                                               |                |            code{}: 0x1f1-0x1f7.7 (7)
     |                                               |                |              locals{}: 0x1f1-0x1f1.7 (1)
0x1f0|   00                                          | .              |                n: 0 0x1f1-0x1f1.7 (1)
     |                                               |                |                items[0:0]: 0x1f2-NA (0)
     |                                               |                |              expr{}: 0x1f2-0x1f7.7 (6)
     |                                               |                |                instructions[0:4]: 0x1f2-0x1f7.7 (6)
     |                                               |                |                  [0]{}: instr 0x1f2-0x1f3.7 (2)
0x1f0|      20                                       |                |                    local.get: 0x20 (valid) 0x1f2-0x1f2.7 (1)
0x1f0|         00                                    |   .            |                    x: 0 0x1f3-0x1f3.7 (1)
     |                                               |                |                  [1]{}: instr 0x1f4-0x1f5.7 (2)
0x1f0|            20                                 |                |                    local.get: 0x20 (valid) 0x1f4-0x1f4.7 (1)
0x1f0|               01                              |     .          |                    x: 1 0x1f5-0x1f5.7 (1)
     |                                               |                |                  [2]{}: instr 0x1f6-0x1f6.7 (1)
0x1f0|                  54                           |      T         |                    i64.lt_u: 0x54 (valid) 0x1f6-0x1f6.7 (1)
     |                                               |                |                  [3]{}: instr 0x1f7-0x1f7.7 (1)
0x1f0|                     0b                        |       .        |                    end: 0xb (valid) 0x1f7-0x1f7.7 (1)
     |                                               |                |          [26]{}: code 0x1f8-0x1ff.7 (8)
0x1f0|                        07                     |        .       |            size: 7 0x1f8-0x1f8.7 (1)
     |                                               |                |            code{}: 0x1f9-0x1ff.7 (7)
     |                                               |                |              locals{}: 0x1f9-0x1f9.7 (1)
0x1f0|                           00                  |         .      |                n: 0 0x1f9-0x1f9.7 (1)
     |                                               |                |                items[0:0]: 0x1fa-NA (0)
     |                                               |                |              expr{}: 0x1fa-0x1ff.7 (6)
     |                                               |                |                instructions[0:4]: 0x1fa-0x1ff.7 (6)
     |                                               |                |                  [0]{}: instr 0x1fa-0x1fb.7 (2)
0x1f0|                              20               |                |                    local.get: 0x20 (valid) 0x1fa-0x1fa.7 (1)
0x1f0|                                 00            |           .    |                    x: 0 0x1fb-0x1fb.7 (1)
     |                                               |                |                  [1]{}: instr 0x1fc-0x1fd.7 (2)
0x1f0|                                    20         |                |                    local.get: 0x20 (valid) 0x1fc-0x1fc.7 (1)
0x1f0|                                       01      |             .  |                    x: 1 0x1fd-0x1fd.7 (1)
     |                                               |                |                  [2]{}: instr 0x1fe-0x1fe.7 (1)
0x1f0|                                          57   |              W |                    i64.le_s: 0x57 (valid) 0x1fe-0x1fe.7 (1)
     |                                               |                |                  [3]{}: instr 0x1ff-0x1ff.7 (1)
0x1f0|                                             0b|               .|                    end: 0xb (valid) 0x1ff-0x1ff.7 (1)
     |                                               |                |          [27]{}: code 0x200-0x207.7 (8)
0x200|07                                             |.               |            size: 7 0x200-0x200.7 (1)
     |                                               |                |            code{}: 0x201-0x207.7 (7)
     |                                               |                |              locals{}: 0x201-0x201.7 (1)
0x200|   00                                          | .              |                n: 0 0x201-0x201.7 (1)
     |                                               |                |                items[0:0]: 0x202-NA (0)
     |                                               |                |              expr{}: 0x202-0x207.7 (6)
     |                                               |                |                instructions[0:4]: 0x202-0x207.7 (6)
     |                                               |                |                  [0]{}: instr 0x202-0x203.7 (2)
0x200|      20                                       |                |                    local.get: 0x20 (valid) 0x202-0x202.7 (1)
0x200|         00                                    |   .            |                    x: 0 0x203-0x203.7 (1)
     |                                               |                |                  [1]{}: instr 0x204-0x205.7 (2)
0x200|            20                                 |                |                    local.get: 0x20 (valid) 0x204-0x204.7 (1)
0x200|               01                              |     .          |                    x: 1 0x205-0x205.7 (1)
     |                                               |                |                  [2]{}: instr 0x206-0x206.7 (1)
0x200|                  58                           |      X         |                    i64.le_u: 0x58 (valid) 0x206-0x206.7 (1)
     |                                               |                |                  [3]{}: instr 0x207-0x207.7 (1)
0x200|                     0b                        |       .        |                    end: 0xb (valid) 0x207-0x207.7 (1)
     |                                               |                |          [28]{}: code 0x208-0x20f.7 (8)
0x200|                        07                     |        .       |            size: 7 0x208-0x208.7 (1)
     |                                               |                |            code{}: 0x209-0x20f.7 (7)
     |                                               |                |              locals{}: 0x209-0x209.7 (1)
0x200|                           00                  |         .      |                n: 0 0x209-0x209.7 (1)
     |                                               |                |                items[0:0]: 0x20a-NA (0)
     |                                               |                |              expr{}: 0x20a-0x20f.7 (6)
     |                                               |                |                instructions[0:4]: 0x20a-0x20f.7 (6)
     |                                               |                |                  [0]{}: instr 0x20a-0x20b.7 (2)
0x200|                              20               |                |                    local.get: 0x20 (valid) 0x20a-0x20a.7 (1)
0x200|                                 00            |           .    |                    x: 0 0x20b-0x20b.7 (1)
     |                                               |                |                  [1]{}: instr 0x20c-0x20d.7 (2)
0x200|                                    20         |                |                    local.get: 0x20 (valid) 0x20c-0x20c.7 (1)
0x200|                                       01      |             .  |                    x: 1 0x20d-0x20d.7 (1)
     |                                               |                |                  [2]{}: instr 0x20e-0x20e.7 (1)
0x200|                                          55   |              U |                    i64.gt_s: 0x55 (valid) 0x20e-0x20e.7 (1)
     |                                               |                |                  [3]{}: instr 0x20f-0x20f.7 (1)
0x200|                                             0b|               .|                    end: 0xb (valid) 0x20f-0x20f.7 (1)
     |                                               |                |          [29]{}: code 0x210-0x217.7 (8)
0x210|07                                             |.               |            size: 7 0x210-0x210.7 (1)
     |                                               |                |            code{}: 0x211-0x217.7 (7)
     |                                               |                |              locals{}: 0x211-0x211.7 (1)
0x210|   00                                          | .              |                n: 0 0x211-0x211.7 (1)
     |                                               |                |                items[0:0]: 0x212-NA (0)
     |                                               |                |              expr{}: 0x212-0x217.7 (6)
     |                                               |                |                instructions[0:4]: 0x212-0x217.7 (6)
     |                                               |                |                  [0]{}: instr 0x212-0x213.7 (2)
0x210|      20                                       |                |                    local.get: 0x20 (valid) 0x212-0x212.7 (1)
0x210|         00                                    |   .            |                    x: 0 0x213-0x213.7 (1)
     |                                               |                |                  [1]{}: instr 0x214-0x215.7 (2)
0x210|            20                                 |                |                    local.get: 0x20 (valid) 0x214-0x214.7 (1)
0x210|               01                              |     .          |                    x: 1 0x215-0x215.7 (1)
     |                                               |                |                  [2]{}: instr 0x216-0x216.7 (1)
0x210|                  56                           |      V         |                    i64.gt_u: 0x56 (valid) 0x216-0x216.7 (1)
     |                                               |                |                  [3]{}: instr 0x217-0x217.7 (1)
0x210|                     0b                        |       .        |                    end: 0xb (valid) 0x217-0x217.7 (1)
     |                                               |                |          [30]{}: code 0x218-0x21f.7 (8)
0x210|                        07                     |        .       |            size: 7 0x218-0x218.7 (1)
     |                                               |                |            code{}: 0x219-0x21f.7 (7)
     |                                               |                |              locals{}: 0x219-0x219.7 (1)
0x210|                           00                  |         .      |                n: 0 0x219-0x219.7 (1)
     |                                               |                |                items[0:0]: 0x21a-NA (0)
     |                                               |                |              expr{}: 0x21a-0x21f.7 (6)
     |                                               |                |                instructions[0:4]: 0x21a-0x21f.7 (6)
     |                                               |                |                  [0]{}: instr 0x21a-0x21b.7 (2)
0x210|                              20               |                |                    local.get: 0x20 (valid) 0x21a-0x21a.7 (1)
0x210|                                 00            |           .    |                    x: 0 0x21b-0x21b.7 (1)
     |                                               |                |                  [1]{}: instr 0x21c-0x21d.7 (2)
0x210|                                    20         |                |                    local.get: 0x20 (valid) 0x21c-0x21c.7 (1)
0x210|                                       01      |             .  |                    x: 1 0x21d-0x21d.7 (1)
     |                                               |                |                  [2]{}: instr 0x21e-0x21e.7 (1)
0x210|                                          59   |              Y |                    i64.ge_s: 0x59 (valid) 0x21e-0x21e.7 (1)
     |                                               |                |                  [3]{}: instr 0x21f-0x21f.7 (1)
0x210|                                             0b|               .|                    end: 0xb (valid) 0x21f-0x21f.7 (1)
     |                                               |                |          [31]{}: code 0x220-0x227.7 (8)
0x220|07                                             |.               |            size: 7 0x220-0x220.7 (1)
     |                                               |                |            code{}: 0x221-0x227.7 (7)
     |                                               |                |              locals{}: 0x221-0x221.7 (1)
0x220|   00                                          | .              |                n: 0 0x221-0x221.7 (1)
     |                                               |                |                items[0:0]: 0x222-NA (0)
     |                                               |                |              expr{}: 0x222-0x227.7 (6)
     |                                               |                |                instructions[0:4]: 0x222-0x227.7 (6)
     |                                               |                |                  [0]{}: instr 0x222-0x223.7 (2)
0x220|      20                                       |                |                    local.get: 0x20 (valid) 0x222-0x222.7 (1)
0x220|         00                                    |   .            |                    x: 0 0x223-0x223.7 (1)
     |                                               |                |                  [1]{}: instr 0x224-0x225.7 (2)
0x220|            20                                 |                |                    local.get: 0x20 (valid) 0x224-0x224.7 (1)
0x220|               01                              |     .          |                    x: 1 0x225-0x225.7 (1)
     |                                               |                |                  [2]{}: instr 0x226-0x226.7 (1)
0x220|                  5a                           |      Z         |                    i64.ge_u: 0x5a (valid) 0x226-0x226.7 (1)
     |                                               |                |                  [3]{}: instr 0x227-0x227.7 (1)
0x220|                     0b|                       |       .|       |                    end: 0xb (valid) 0x227-0x227.7 (1)
