$ fq -d wasm dv imports-15.wasm
    |00 01 02 03 04 05 06 07 08 09 0a 0b 0c 0d 0e 0f|0123456789abcdef|.{}: imports-15.wasm (wasm) 0x0-0x59.7 (90)
0x00|00 61 73 6d                                    |.asm            |  magic: raw bits (valid) 0x0-0x3.7 (4)
0x00|            01 00 00 00                        |    ....        |  version: 1 0x4-0x7.7 (4)
    |                                               |                |  sections[0:6]: 0x8-0x59.7 (82)
    |                                               |                |    [0]{}: section 0x8-0x13.7 (12)
0x00|                        01                     |        .       |      id: "type section" (1) 0x8-0x8.7 (1)
0x00|                           0a                  |         .      |      size: 10 0x9-0x9.7 (1)
    |                                               |                |      content{}: 0xa-0x13.7 (10)
0x00|                              02               |          .     |        n: 2 0xa-0xa.7 (1)
    |                                               |                |        items[0:2]: 0xb-0x13.7 (9)
    |                                               |                |          [0]{}: functype 0xb-0xe.7 (4)
0x00|                                 60            |           `    |            tag: 0x60 (valid) 0xb-0xb.7 (1)
    |                                               |                |            rt1{}: 0xc-0xc.7 (1)
0x00|                                    00         |            .   |              n: 0 0xc-0xc.7 (1)
    |                                               |                |              items[0:0]: 0xd-NA (0)
    |                                               |                |            rt2{}: 0xd-0xe.7 (2)
0x00|                                       01      |             .  |              n: 1 0xd-0xd.7 (1)
    |                                               |                |              items[0:1]: 0xe-0xe.7 (1)
0x00|                                          7f   |              . |                [0]: "i32" (127) valtype 0xe-0xe.7 (1)
    |                                               |                |          [1]{}: functype 0xf-0x13.7 (5)
0x00|                                             60|               `|            tag: 0x60 (valid) 0xf-0xf.7 (1)
    |                                               |                |            rt1{}: 0x10-0x11.7 (2)
0x10|01                                             |.               |              n: 1 0x10-0x10.7 (1)
    |                                               |                |              items[0:1]: 0x11-0x11.7 (1)
0x10|   7f                                          | .              |                [0]: "i32" (127) valtype 0x11-0x11.7 (1)
    |                                               |                |            rt2{}: 0x12-0x13.7 (2)
0x10|      01                                       |  .             |              n: 1 0x12-0x12.7 (1)
    |                                               |                |              items[0:1]: 0x13-0x13.7 (1)
0x10|         7f                                    |   .            |                [0]: "i32" (127) valtype 0x13-0x13.7 (1)
    |                                               |                |    [1]{}: section 0x14-0x2a.7 (23)
0x10|            02                                 |    .           |      id: "import section" (2) 0x14-0x14.7 (1)
0x10|               15                              |     .          |      size: 21 0x15-0x15.7 (1)
    |                                               |                |      content{}: 0x16-0x2a.7 (21)
0x10|                  01                           |      .         |        n: 1 0x16-0x16.7 (1)
    |                                               |                |        items[0:1]: 0x17-0x2a.7 (20)
    |                                               |                |          [0]{}: import 0x17-0x2a.7 (20)
    |                                               |                |            mod{}: 0x17-0x1f.7 (9)
0x10|                     08                        |       .        |              len: 8 0x17-0x17.7 (1)
0x10|                        73 70 65 63 74 65 73 74|        spectest|              utf8bytes: "spectest" 0x18-0x1f.7 (8)
    |                                               |                |            nm{}: 0x20-0x25.7 (6)
0x20|05                                             |.               |              len: 5 0x20-0x20.7 (1)
0x20|   74 61 62 6c 65                              | table          |              utf8bytes: "table" 0x21-0x25.7 (5)
    |                                               |                |            importdesc{}: 0x26-0x2a.7 (5)
0x20|                  01                           |      .         |              tag: "table" (0x1) 0x26-0x26.7 (1)
    |                                               |                |              tabletype{}: 0x27-0x2a.7 (4)
0x20|                     70                        |       p        |                reftype: "funcref" (112) 0x27-0x27.7 (1)
    |                                               |                |                limits{}: 0x28-0x2a.7 (3)
0x20|                        01                     |        .       |                  tag: 0x1 0x28-0x28.7 (1)
0x20|                           0a                  |         .      |                  min: 10 0x29-0x29.7 (1)
0x20|                              14               |          .     |                  max: 20 0x2a-0x2a.7 (1)
    |                                               |                |    [2]{}: section 0x2b-0x30.7 (6)
0x20|                                 03            |           .    |      id: "function section" (3) 0x2b-0x2b.7 (1)
0x20|                                    04         |            .   |      size: 4 0x2c-0x2c.7 (1)
    |                                               |                |      content{}: 0x2d-0x30.7 (4)
0x20|                                       03      |             .  |        n: 3 0x2d-0x2d.7 (1)
    |                                               |                |        items[0:3]: 0x2e-0x30.7 (3)
0x20|                                          01   |              . |          [0]: 1 x 0x2e-0x2e.7 (1)
0x20|                                             00|               .|          [1]: 0 x 0x2f-0x2f.7 (1)
0x30|00                                             |.               |          [2]: 0 x 0x30-0x30.7 (1)
    |                                               |                |    [3]{}: section 0x31-0x3a.7 (10)
0x30|   07                                          | .              |      id: "export section" (7) 0x31-0x31.7 (1)
0x30|      08                                       |  .             |      size: 8 0x32-0x32.7 (1)
    |                                               |                |      content{}: 0x33-0x3a.7 (8)
0x30|         01                                    |   .            |        n: 1 0x33-0x33.7 (1)
    |                                               |                |        items[0:1]: 0x34-0x3a.7 (7)
    |                                               |                |          [0]{}: export 0x34-0x3a.7 (7)
    |                                               |                |            name{}: 0x34-0x38.7 (5)
0x30|            04                                 |    .           |              len: 4 0x34-0x34.7 (1)
0x30|               63 61 6c 6c                     |     call       |              utf8bytes: "call" 0x35-0x38.7 (4)
    |                                               |                |            expr{}: 0x39-0x3a.7 (2)
0x30|                           00                  |         .      |              tag: "funcidx" (0x0) 0x39-0x39.7 (1)
0x30|                              00               |          .     |              x: 0 0x3a-0x3a.7 (1)
    |                                               |                |    [4]{}: section 0x3b-0x44.7 (10)
0x30|                                 09            |           .    |      id: "element section" (9) 0x3b-0x3b.7 (1)
0x30|                                    08         |            .   |      size: 8 0x3c-0x3c.7 (1)
    |                                               |                |      element{}: 0x3d-0x44.7 (8)
0x30|                                       01      |             .  |        n: 1 0x3d-0x3d.7 (1)
    |                                               |                |        items[0:1]: 0x3e-0x44.7 (7)
    |                                               |                |          [0]{}: elem 0x3e-0x44.7 (7)
0x30|                                          00   |              . |            tag: 0 0x3e-0x3e.7 (1)
    |                                               |                |            instructions[0:2]: 0x3f-0x41.7 (3)
    |                                               |                |              [0]{}: instr 0x3f-0x40.7 (2)
0x30|                                             41|               A|                i32.const: 0x41 (valid) 0x3f-0x3f.7 (1)
0x40|01                                             |.               |                n: 1 0x40-0x40.7 (1)
    |                                               |                |              [1]{}: instr 0x41-0x41.7 (1)
0x40|   0b                                          | .              |                end: 0xb (valid) 0x41-0x41.7 (1)
0x40|      02                                       |  .             |            n: 2 0x42-0x42.7 (1)
    |                                               |                |            items[0:2]: 0x43-0x44.7 (2)
0x40|         01                                    |   .            |              [0]: 1 y 0x43-0x43.7 (1)
0x40|            02                                 |    .           |              [1]: 2 y 0x44-0x44.7 (1)
    |                                               |                |    [5]{}: section 0x45-0x59.7 (21)
0x40|               0a                              |     .          |      id: "code section" (10) 0x45-0x45.7 (1)
0x40|                  13                           |      .         |      size: 19 0x46-0x46.7 (1)
    |                                               |                |      content{}: 0x47-0x59.7 (19)
0x40|                     03                        |       .        |        n: 3 0x47-0x47.7 (1)
    |                                               |                |        items[0:3]: 0x48-0x59.7 (18)
    |                                               |                |          [0]{}: code 0x48-0x4f.7 (8)
0x40|                        07                     |        .       |            size: 7 0x48-0x48.7 (1)
    |                                               |                |            code{}: 0x49-0x4f.7 (7)
    |                                               |                |              locals{}: 0x49-0x49.7 (1)
0x40|                           00                  |         .      |                n: 0 0x49-0x49.7 (1)
    |                                               |                |                items[0:0]: 0x4a-NA (0)
    |                                               |                |              expr{}: 0x4a-0x4f.7 (6)
    |                                               |                |                instructions[0:3]: 0x4a-0x4f.7 (6)
    |                                               |                |                  [0]{}: instr 0x4a-0x4b.7 (2)
0x40|                              20               |                |                    local.get: 0x20 (valid) 0x4a-0x4a.7 (1)
0x40|                                 00            |           .    |                    x: 0 0x4b-0x4b.7 (1)
    |                                               |                |                  [1]{}: instr 0x4c-0x4e.7 (3)
0x40|                                    11         |            .   |                    call: 0x11 (valid) 0x4c-0x4c.7 (1)
0x40|                                       00      |             .  |                    y: 0 0x4d-0x4d.7 (1)
0x40|                                          00   |              . |                    x: 0 0x4e-0x4e.7 (1)
    |                                               |                |                  [2]{}: instr 0x4f-0x4f.7 (1)
0x40|                                             0b|               .|                    end: 0xb (valid) 0x4f-0x4f.7 (1)
    |                                               |                |          [1]{}: code 0x50-0x54.7 (5)
0x50|04                                             |.               |            size: 4 0x50-0x50.7 (1)
    |                                               |                |            code{}: 0x51-0x54.7 (4)
    |                                               |                |              locals{}: 0x51-0x51.7 (1)
0x50|   00                                          | .              |                n: 0 0x51-0x51.7 (1)
    |                                               |                |                items[0:0]: 0x52-NA (0)
    |                                               |                |              expr{}: 0x52-0x54.7 (3)
    |                                               |                |                instructions[0:2]: 0x52-0x54.7 (3)
    |                                               |                |                  [0]{}: instr 0x52-0x53.7 (2)
0x50|      41                                       |  A             |                    i32.const: 0x41 (valid) 0x52-0x52.7 (1)
0x50|         0b                                    |   .            |                    n: 11 0x53-0x53.7 (1)
    |                                               |                |                  [1]{}: instr 0x54-0x54.7 (1)
0x50|            0b                                 |    .           |                    end: 0xb (valid) 0x54-0x54.7 (1)
    |                                               |                |          [2]{}: code 0x55-0x59.7 (5)
0x50|               04                              |     .          |            size: 4 0x55-0x55.7 (1)
    |                                               |                |            code{}: 0x56-0x59.7 (4)
    |                                               |                |              locals{}: 0x56-0x56.7 (1)
0x50|                  00                           |      .         |                n: 0 0x56-0x56.7 (1)
    |                                               |                |                items[0:0]: 0x57-NA (0)
    |                                               |                |              expr{}: 0x57-0x59.7 (3)
    |                                               |                |                instructions[0:2]: 0x57-0x59.7 (3)
    |                                               |                |                  [0]{}: instr 0x57-0x58.7 (2)
0x50|                     41                        |       A        |                    i32.const: 0x41 (valid) 0x57-0x57.7 (1)
0x50|                        16                     |        .       |                    n: 22 0x58-0x58.7 (1)
    |                                               |                |                  [1]{}: instr 0x59-0x59.7 (1)
0x50|                           0b|                 |         .|     |                    end: 0xb (valid) 0x59-0x59.7 (1)
