$ fq -d wasm dv imports-39.wasm
    |00 01 02 03 04 05 06 07 08 09 0a 0b 0c 0d 0e 0f|0123456789abcdef|.{}: imports-39.wasm (wasm) 0x0-0x48.7 (73)
0x00|00 61 73 6d                                    |.asm            |  magic: raw bits (valid) 0x0-0x3.7 (4)
0x00|            01 00 00 00                        |    ....        |  version: 1 0x4-0x7.7 (4)
    |                                               |                |  sections[0:6]: 0x8-0x48.7 (65)
    |                                               |                |    [0]{}: section 0x8-0xf.7 (8)
0x00|                        01                     |        .       |      id: "type section" (1) 0x8-0x8.7 (1)
0x00|                           06                  |         .      |      size: 6 0x9-0x9.7 (1)
    |                                               |                |      content{}: 0xa-0xf.7 (6)
0x00|                              01               |          .     |        n: 1 0xa-0xa.7 (1)
    |                                               |                |        items[0:1]: 0xb-0xf.7 (5)
    |                                               |                |          [0]{}: functype 0xb-0xf.7 (5)
0x00|                                 60            |           `    |            tag: 0x60 (valid) 0xb-0xb.7 (1)
    |                                               |                |            rt1{}: 0xc-0xd.7 (2)
0x00|                                    01         |            .   |              n: 1 0xc-0xc.7 (1)
    |                                               |                |              items[0:1]: 0xd-0xd.7 (1)
0x00|                                       7f      |             .  |                [0]: "i32" (127) valtype 0xd-0xd.7 (1)
    |                                               |                |            rt2{}: 0xe-0xf.7 (2)
0x00|                                          01   |              . |              n: 1 0xe-0xe.7 (1)
    |                                               |                |              items[0:1]: 0xf-0xf.7 (1)
0x00|                                             7f|               .|                [0]: "i32" (127) valtype 0xf-0xf.7 (1)
    |                                               |                |    [1]{}: section 0x10-0x26.7 (23)
0x10|02                                             |.               |      id: "import section" (2) 0x10-0x10.7 (1)
0x10|   15                                          | .              |      size: 21 0x11-0x11.7 (1)
    |                                               |                |      content{}: 0x12-0x26.7 (21)
0x10|      01                                       |  .             |        n: 1 0x12-0x12.7 (1)
    |                                               |                |        items[0:1]: 0x13-0x26.7 (20)
    |                                               |                |          [0]{}: import 0x13-0x26.7 (20)
    |                                               |                |            mod{}: 0x13-0x1b.7 (9)
0x10|         08                                    |   .            |              len: 8 0x13-0x13.7 (1)
0x10|            73 70 65 63 74 65 73 74            |    spectest    |              utf8bytes: "spectest" 0x14-0x1b.7 (8)
    |                                               |                |            nm{}: 0x1c-0x22.7 (7)
0x10|                                    06         |            .   |              len: 6 0x1c-0x1c.7 (1)
0x10|                                       6d 65 6d|             mem|              utf8bytes: "memory" 0x1d-0x22.7 (6)
0x20|6f 72 79                                       |ory             |
    |                                               |                |            importdesc{}: 0x23-0x26.7 (4)
0x20|         02                                    |   .            |              tag: "mem" (0x2) 0x23-0x23.7 (1)
    |                                               |                |              memtype{}: 0x24-0x26.7 (3)
    |                                               |                |                limits{}: 0x24-0x26.7 (3)
0x20|            01                                 |    .           |                  tag: 0x1 0x24-0x24.7 (1)
0x20|               01                              |     .          |                  min: 1 0x25-0x25.7 (1)
0x20|                  02                           |      .         |                  max: 2 0x26-0x26.7 (1)
    |                                               |                |    [2]{}: section 0x27-0x2a.7 (4)
0x20|                     03                        |       .        |      id: "function section" (3) 0x27-0x27.7 (1)
0x20|                        02                     |        .       |      size: 2 0x28-0x28.7 (1)
    |                                               |                |      content{}: 0x29-0x2a.7 (2)
0x20|                           01                  |         .      |        n: 1 0x29-0x29.7 (1)
    |                                               |                |        items[0:1]: 0x2a-0x2a.7 (1)
0x20|                              00               |          .     |          [0]: 0 x 0x2a-0x2a.7 (1)
    |                                               |                |    [3]{}: section 0x2b-0x34.7 (10)
0x20|                                 07            |           .    |      id: "export section" (7) 0x2b-0x2b.7 (1)
0x20|                                    08         |            .   |      size: 8 0x2c-0x2c.7 (1)
    |                                               |                |      content{}: 0x2d-0x34.7 (8)
0x20|                                       01      |             .  |        n: 1 0x2d-0x2d.7 (1)
    |                                               |                |        items[0:1]: 0x2e-0x34.7 (7)
    |                                               |                |          [0]{}: export 0x2e-0x34.7 (7)
    |                                               |                |            name{}: 0x2e-0x32.7 (5)
0x20|                                          04   |              . |              len: 4 0x2e-0x2e.7 (1)
0x20|                                             6c|               l|              utf8bytes: "load" 0x2f-0x32.7 (4)
0x30|6f 61 64                                       |oad             |
    |                                               |                |            expr{}: 0x33-0x34.7 (2)
0x30|         00                                    |   .            |              tag: "funcidx" (0x0) 0x33-0x33.7 (1)
0x30|            00                                 |    .           |              x: 0 0x34-0x34.7 (1)
    |                                               |                |    [4]{}: section 0x35-0x3f.7 (11)
0x30|               0a                              |     .          |      id: "code section" (10) 0x35-0x35.7 (1)
0x30|                  09                           |      .         |      size: 9 0x36-0x36.7 (1)
    |                                               |                |      content{}: 0x37-0x3f.7 (9)
0x30|                     01                        |       .        |        n: 1 0x37-0x37.7 (1)
    |                                               |                |        items[0:1]: 0x38-0x3f.7 (8)
    |                                               |                |          [0]{}: code 0x38-0x3f.7 (8)
0x30|                        07                     |        .       |            size: 7 0x38-0x38.7 (1)
    |                                               |                |            code{}: 0x39-0x3f.7 (7)
    |                                               |                |              locals{}: 0x39-0x39.7 (1)
0x30|                           00                  |         .      |                n: 0 0x39-0x39.7 (1)
    |                                               |                |                items[0:0]: 0x3a-NA (0)
    |                                               |                |              expr{}: 0x3a-0x3f.7 (6)
    |                                               |                |                instructions[0:3]: 0x3a-0x3f.7 (6)
    |                                               |                |                  [0]{}: instr 0x3a-0x3b.7 (2)
0x30|                              20               |                |                    local.get: 0x20 (valid) 0x3a-0x3a.7 (1)
0x30|                                 00            |           .    |                    x: 0 0x3b-0x3b.7 (1)
    |                                               |                |                  [1]{}: instr 0x3c-0x3e.7 (3)
0x30|                                    28         |            (   |                    i32.load: 0x28 (valid) 0x3c-0x3c.7 (1)
0x30|                                       02      |             .  |                    align: 2 0x3d-0x3d.7 (1)
0x30|                                          00   |              . |                    offset: 0 0x3e-0x3e.7 (1)
    |                                               |                |                  [2]{}: instr 0x3f-0x3f.7 (1)
0x30|                                             0b|               .|                    end: 0xb (valid) 0x3f-0x3f.7 (1)
    |                                               |                |    [5]{}: section 0x40-0x48.7 (9)
0x40|0b                                             |.               |      id: "data section" (11) 0x40-0x40.7 (1)
0x40|   07                                          | .              |      size: 7 0x41-0x41.7 (1)
    |                                               |                |      content{}: 0x42-0x48.7 (7)
0x40|      01                                       |  .             |        n: 1 0x42-0x42.7 (1)
    |                                               |                |        items[0:1]: 0x43-0x48.7 (6)
    |                                               |                |          [0]{}: data 0x43-0x48.7 (6)
0x40|         00                                    |   .            |            tag: 0 0x43-0x43.7 (1)
    |                                               |                |            instructions[0:2]: 0x44-0x46.7 (3)
    |                                               |                |              [0]{}: instr 0x44-0x45.7 (2)
0x40|            41                                 |    A           |                i32.const: 0x41 (valid) 0x44-0x44.7 (1)
0x40|               0a                              |     .          |                n: 10 0x45-0x45.7 (1)
    |                                               |                |              [1]{}: instr 0x46-0x46.7 (1)
0x40|                  0b                           |      .         |                end: 0xb (valid) 0x46-0x46.7 (1)
0x40|                     01                        |       .        |            n: 1 0x47-0x47.7 (1)
0x40|                        10|                    |        .|      |            bytes: raw bits 0x48-0x48.7 (1)
