$ fq -d wasm dv imports-40.wasm
    |00 01 02 03 04 05 06 07 08 09 0a 0b 0c 0d 0e 0f|0123456789abcdef|.{}: imports-40.wasm (wasm) 0x0-0x1f.7 (32)
0x00|00 61 73 6d                                    |.asm            |  magic: raw bits (valid) 0x0-0x3.7 (4)
0x00|            01 00 00 00                        |    ....        |  version: 1 0x4-0x7.7 (4)
    |                                               |                |  sections[0:1]: 0x8-0x1f.7 (24)
    |                                               |                |    [0]{}: section 0x8-0x1f.7 (24)
0x00|                        02                     |        .       |      id: "import section" (2) 0x8-0x8.7 (1)
0x00|                           16                  |         .      |      size: 22 0x9-0x9.7 (1)
    |                                               |                |      content{}: 0xa-0x1f.7 (22)
0x00|                              01               |          .     |        n: 1 0xa-0xa.7 (1)
    |                                               |                |        items[0:1]: 0xb-0x1f.7 (21)
    |                                               |                |          [0]{}: import 0xb-0x1f.7 (21)
    |                                               |                |            mod{}: 0xb-0xf.7 (5)
0x00|                                 04            |           .    |              len: 4 0xb-0xb.7 (1)
0x00|                                    74 65 73 74|            test|              utf8bytes: "test" 0xc-0xf.7 (4)
    |                                               |                |            nm{}: 0x10-0x1c.7 (13)
0x10|0c                                             |.               |              len: 12 0x10-0x10.7 (1)
0x10|   6d 65 6d 6f 72 79 2d 32 2d 69 6e 66         | memory-2-inf   |              utf8bytes: "memory-2-inf" 0x11-0x1c.7 (12)
    |                                               |                |            importdesc{}: 0x1d-0x1f.7 (3)
0x10|                                       02      |             .  |              tag: "mem" (0x2) 0x1d-0x1d.7 (1)
    |                                               |                |              memtype{}: 0x1e-0x1f.7 (2)
    |                                               |                |                limits{}: 0x1e-0x1f.7 (2)
0x10|                                          00   |              . |                  tag: 0x0 0x1e-0x1e.7 (1)
0x10|                                             02|               .|                  min: 2 0x1f-0x1f.7 (1)
