$ fq -d wasm dv imports-44.wasm
    |00 01 02 03 04 05 06 07 08 09 0a 0b 0c 0d 0e 0f|0123456789abcdef|.{}: imports-44.wasm (wasm) 0x0-0x1d.7 (30)
0x00|00 61 73 6d                                    |.asm            |  magic: raw bits (valid) 0x0-0x3.7 (4)
0x00|            01 00 00 00                        |    ....        |  version: 1 0x4-0x7.7 (4)
    |                                               |                |  sections[0:1]: 0x8-0x1d.7 (22)
    |                                               |                |    [0]{}: section 0x8-0x1d.7 (22)
0x00|                        02                     |        .       |      id: "import section" (2) 0x8-0x8.7 (1)
0x00|                           14                  |         .      |      size: 20 0x9-0x9.7 (1)
    |                                               |                |      content{}: 0xa-0x1d.7 (20)
0x00|                              01               |          .     |        n: 1 0xa-0xa.7 (1)
    |                                               |                |        items[0:1]: 0xb-0x1d.7 (19)
    |                                               |                |          [0]{}: import 0xb-0x1d.7 (19)
    |                                               |                |            mod{}: 0xb-0x13.7 (9)
0x00|                                 08            |           .    |              len: 8 0xb-0xb.7 (1)
0x00|                                    73 70 65 63|            spec|              utf8bytes: "spectest" 0xc-0x13.7 (8)
0x10|74 65 73 74                                    |test            |
    |                                               |                |            nm{}: 0x14-0x1a.7 (7)
0x10|            06                                 |    .           |              len: 6 0x14-0x14.7 (1)
0x10|               6d 65 6d 6f 72 79               |     memory     |              utf8bytes: "memory" 0x15-0x1a.7 (6)
    |                                               |                |            importdesc{}: 0x1b-0x1d.7 (3)
0x10|                                 02            |           .    |              tag: "mem" (0x2) 0x1b-0x1b.7 (1)
    |                                               |                |              memtype{}: 0x1c-0x1d.7 (2)
    |                                               |                |                limits{}: 0x1c-0x1d.7 (2)
0x10|                                    00         |            .   |                  tag: 0x0 0x1c-0x1c.7 (1)
0x10|                                       00|     |             .| |                  min: 0 0x1d-0x1d.7 (1)
