$ fq -d wasm dv imports-2.wasm
    |00 01 02 03 04 05 06 07 08 09 0a 0b 0c 0d 0e 0f|0123456789abcdef|.{}: imports-2.wasm (wasm) 0x0-0x43.7 (68)
0x00|00 61 73 6d                                    |.asm            |  magic: raw bits (valid) 0x0-0x3.7 (4)
0x00|            01 00 00 00                        |    ....        |  version: 1 0x4-0x7.7 (4)
    |                                               |                |  sections[0:5]: 0x8-0x43.7 (60)
    |                                               |                |    [0]{}: section 0x8-0xe.7 (7)
0x00|                        01                     |        .       |      id: "type section" (1) 0x8-0x8.7 (1)
0x00|                           05                  |         .      |      size: 5 0x9-0x9.7 (1)
    |                                               |                |      content{}: 0xa-0xe.7 (5)
0x00|                              01               |          .     |        n: 1 0xa-0xa.7 (1)
    |                                               |                |        items[0:1]: 0xb-0xe.7 (4)
    |                                               |                |          [0]{}: functype 0xb-0xe.7 (4)
0x00|                                 60            |           `    |            tag: 0x60 (valid) 0xb-0xb.7 (1)
    |                                               |                |            rt1{}: 0xc-0xd.7 (2)
0x00|                                    01         |            .   |              n: 1 0xc-0xc.7 (1)
    |                                               |                |              items[0:1]: 0xd-0xd.7 (1)
0x00|                                       7f      |             .  |                [0]: "i32" (127) valtype 0xd-0xd.7 (1)
    |                                               |                |            rt2{}: 0xe-0xe.7 (1)
0x00|                                          00   |              . |              n: 0 0xe-0xe.7 (1)
    |                                               |                |              items[0:0]: 0xf-NA (0)
    |                                               |                |    [1]{}: section 0xf-0x26.7 (24)
0x00|                                             02|               .|      id: "import section" (2) 0xf-0xf.7 (1)
0x10|16                                             |.               |      size: 22 0x10-0x10.7 (1)
    |                                               |                |      content{}: 0x11-0x26.7 (22)
0x10|   01                                          | .              |        n: 1 0x11-0x11.7 (1)
    |                                               |                |        items[0:1]: 0x12-0x26.7 (21)
    |                                               |                |          [0]{}: import 0x12-0x26.7 (21)
    |                                               |                |            mod{}: 0x12-0x1a.7 (9)
0x10|      08                                       |  .             |              len: 8 0x12-0x12.7 (1)
0x10|         73 70 65 63 74 65 73 74               |   spectest     |              utf8bytes: "spectest" 0x13-0x1a.7 (8)
    |                                               |                |            nm{}: 0x1b-0x24.7 (10)
0x10|                                 09            |           .    |              len: 9 0x1b-0x1b.7 (1)
0x10|                                    70 72 69 6e|            prin|              utf8bytes: "print_i32" 0x1c-0x24.7 (9)
0x20|74 5f 69 33 32                                 |t_i32           |
    |                                               |                |            importdesc{}: 0x25-0x26.7 (2)
0x20|               00                              |     .          |              tag: "func" (0x0) 0x25-0x25.7 (1)
0x20|                  00                           |      .         |              x: 0 0x26-0x26.7 (1)
    |                                               |                |    [2]{}: section 0x27-0x2a.7 (4)
0x20|                     03                        |       .        |      id: "function section" (3) 0x27-0x27.7 (1)
0x20|                        02                     |        .       |      size: 2 0x28-0x28.7 (1)
    |                                               |                |      content{}: 0x29-0x2a.7 (2)
0x20|                           01                  |         .      |        n: 1 0x29-0x29.7 (1)
    |                                               |                |        items[0:1]: 0x2a-0x2a.7 (1)
0x20|                              00               |          .     |          [0]: 0 x 0x2a-0x2a.7 (1)
    |                                               |                |    [3]{}: section 0x2b-0x39.7 (15)
0x20|                                 07            |           .    |      id: "export section" (7) 0x2b-0x2b.7 (1)
0x20|                                    0d         |            .   |      size: 13 0x2c-0x2c.7 (1)
    |                                               |                |      content{}: 0x2d-0x39.7 (13)
0x20|                                       01      |             .  |        n: 1 0x2d-0x2d.7 (1)
    |                                               |                |        items[0:1]: 0x2e-0x39.7 (12)
    |                                               |                |          [0]{}: export 0x2e-0x39.7 (12)
    |                                               |                |            name{}: 0x2e-0x37.7 (10)
0x20|                                          09   |              . |              len: 9 0x2e-0x2e.7 (1)
0x20|                                             70|               p|              utf8bytes: "print_i32" 0x2f-0x37.7 (9)
0x30|72 69 6e 74 5f 69 33 32                        |rint_i32        |
    |                                               |                |            expr{}: 0x38-0x39.7 (2)
0x30|                        00                     |        .       |              tag: "funcidx" (0x0) 0x38-0x38.7 (1)
0x30|                           01                  |         .      |              x: 1 0x39-0x39.7 (1)
    |                                               |                |    [4]{}: section 0x3a-0x43.7 (10)
0x30|                              0a               |          .     |      id: "code section" (10) 0x3a-0x3a.7 (1)
0x30|                                 08            |           .    |      size: 8 0x3b-0x3b.7 (1)
    |                                               |                |      content{}: 0x3c-0x43.7 (8)
0x30|                                    01         |            .   |        n: 1 0x3c-0x3c.7 (1)
    |                                               |                |        items[0:1]: 0x3d-0x43.7 (7)
    |                                               |                |          [0]{}: code 0x3d-0x43.7 (7)
0x30|                                       06      |             .  |            size: 6 0x3d-0x3d.7 (1)
    |                                               |                |            code{}: 0x3e-0x43.7 (6)
    |                                               |                |              locals{}: 0x3e-0x3e.7 (1)
0x30|                                          00   |              . |                n: 0 0x3e-0x3e.7 (1)
    |                                               |                |                items[0:0]: 0x3f-NA (0)
    |                                               |                |              expr{}: 0x3f-0x43.7 (5)
    |                                               |                |                instructions[0:3]: 0x3f-0x43.7 (5)
    |                                               |                |                  [0]{}: instr 0x3f-0x40.7 (2)
0x30|                                             20|                |                    local.get: 0x20 (valid) 0x3f-0x3f.7 (1)
0x40|00                                             |.               |                    x: 0 0x40-0x40.7 (1)
    |                                               |                |                  [1]{}: instr 0x41-0x42.7 (2)
0x40|   10                                          | .              |                    call: 0x10 (valid) 0x41-0x41.7 (1)
0x40|      00                                       |  .             |                    x: 0 0x42-0x42.7 (1)
    |                                               |                |                  [2]{}: instr 0x43-0x43.7 (1)
0x40|         0b|                                   |   .|           |                    end: 0xb (valid) 0x43-0x43.7 (1)
