$ fq -d wasm dv imports-19.wasm
    |00 01 02 03 04 05 06 07 08 09 0a 0b 0c 0d 0e 0f|0123456789abcdef|.{}: imports-19.wasm (wasm) 0x0-0x20.7 (33)
0x00|00 61 73 6d                                    |.asm            |  magic: raw bits (valid) 0x0-0x3.7 (4)
0x00|            01 00 00 00                        |    ....        |  version: 1 0x4-0x7.7 (4)
    |                                               |                |  sections[0:1]: 0x8-0x20.7 (25)
    |                                               |                |    [0]{}: section 0x8-0x20.7 (25)
0x00|                        02                     |        .       |      id: "import section" (2) 0x8-0x8.7 (1)
0x00|                           17                  |         .      |      size: 23 0x9-0x9.7 (1)
    |                                               |                |      content{}: 0xa-0x20.7 (23)
0x00|                              01               |          .     |        n: 1 0xa-0xa.7 (1)
    |                                               |                |        items[0:1]: 0xb-0x20.7 (22)
    |                                               |                |          [0]{}: import 0xb-0x20.7 (22)
    |                                               |                |            mod{}: 0xb-0xf.7 (5)
0x00|                                 04            |           .    |              len: 4 0xb-0xb.7 (1)
0x00|                                    74 65 73 74|            test|              utf8bytes: "test" 0xc-0xf.7 (4)
    |                                               |                |            nm{}: 0x10-0x1c.7 (13)
0x10|0c                                             |.               |              len: 12 0x10-0x10.7 (1)
0x10|   74 61 62 6c 65 2d 31 30 2d 69 6e 66         | table-10-inf   |              utf8bytes: "table-10-inf" 0x11-0x1c.7 (12)
    |                                               |                |            importdesc{}: 0x1d-0x20.7 (4)
0x10|                                       01      |             .  |              tag: "table" (0x1) 0x1d-0x1d.7 (1)
    |                                               |                |              tabletype{}: 0x1e-0x20.7 (3)
0x10|                                          70   |              p |                reftype: "funcref" (112) 0x1e-0x1e.7 (1)
    |                                               |                |                limits{}: 0x1f-0x20.7 (2)
0x10|                                             00|               .|                  tag: 0x0 0x1f-0x1f.7 (1)
0x20|05|                                            |.|              |                  min: 5 0x20-0x20.7 (1)
