$ fq -d wasm dv imports-51.wasm
    |00 01 02 03 04 05 06 07 08 09 0a 0b 0c 0d 0e 0f|0123456789abcdef|.{}: imports-51.wasm (wasm) 0x0-0x49.7 (74)
0x00|00 61 73 6d                                    |.asm            |  magic: raw bits (valid) 0x0-0x3.7 (4)
0x00|            01 00 00 00                        |    ....        |  version: 1 0x4-0x7.7 (4)
    |                                               |                |  sections[0:5]: 0x8-0x49.7 (66)
    |                                               |                |    [0]{}: section 0x8-0xe.7 (7)
0x00|                        01                     |        .       |      id: "type section" (1) 0x8-0x8.7 (1)
0x00|                           05                  |         .      |      size: 5 0x9-0x9.7 (1)
    |                                               |                |      content{}: 0xa-0xe.7 (5)
0x00|                              01               |          .     |        n: 1 0xa-0xa.7 (1)
    |                                               |                |        items[0:1]: 0xb-0xe.7 (4)
    |                                               |                |          [0]{}: functype 0xb-0xe.7 (4)
0x00|                                 60            |           `    |            tag: 0x60 (valid) 0xb-0xb.7 (1)
    |                                               |                |            rt1{}: 0xc-0xc.7 (1)
0x00|                                    00         |            .   |              n: 0 0xc-0xc.7 (1)
    |                                               |                |              items[0:0]: 0xd-NA (0)
    |                                               |                |            rt2{}: 0xd-0xe.7 (2)
0x00|                                       01      |             .  |              n: 1 0xd-0xd.7 (1)
    |                                               |                |              items[0:1]: 0xe-0xe.7 (1)
0x00|                                          7f   |              . |                [0]: "i32" (127) valtype 0xe-0xe.7 (1)
    |                                               |                |    [1]{}: section 0xf-0x28.7 (26)
0x00|                                             02|               .|      id: "import section" (2) 0xf-0xf.7 (1)
0x10|18                                             |.               |      size: 24 0x10-0x10.7 (1)
    |                                               |                |      content{}: 0x11-0x28.7 (24)
0x10|   01                                          | .              |        n: 1 0x11-0x11.7 (1)
    |                                               |                |        items[0:1]: 0x12-0x28.7 (23)
    |                                               |                |          [0]{}: import 0x12-0x28.7 (23)
    |                                               |                |            mod{}: 0x12-0x1e.7 (13)
0x10|      0c                                       |  .             |              len: 12 0x12-0x12.7 (1)
0x10|         67 72 6f 77 6e 2d 6d 65 6d 6f 72 79   |   grown-memory |              utf8bytes: "grown-memory" 0x13-0x1e.7 (12)
    |                                               |                |            nm{}: 0x1f-0x25.7 (7)
0x10|                                             06|               .|              len: 6 0x1f-0x1f.7 (1)
0x20|6d 65 6d 6f 72 79                              |memory          |              utf8bytes: "memory" 0x20-0x25.7 (6)
    |                                               |                |            importdesc{}: 0x26-0x28.7 (3)
0x20|                  02                           |      .         |              tag: "mem" (0x2) 0x26-0x26.7 (1)
    |                                               |                |              memtype{}: 0x27-0x28.7 (2)
    |                                               |                |                limits{}: 0x27-0x28.7 (2)
0x20|                     00                        |       .        |                  tag: 0x0 0x27-0x27.7 (1)
0x20|                        02                     |        .       |                  min: 2 0x28-0x28.7 (1)
    |                                               |                |    [2]{}: section 0x29-0x2c.7 (4)
0x20|                           03                  |         .      |      id: "function section" (3) 0x29-0x29.7 (1)
0x20|                              02               |          .     |      size: 2 0x2a-0x2a.7 (1)
    |                                               |                |      content{}: 0x2b-0x2c.7 (2)
0x20|                                 01            |           .    |        n: 1 0x2b-0x2b.7 (1)
    |                                               |                |        items[0:1]: 0x2c-0x2c.7 (1)
0x20|                                    00         |            .   |          [0]: 0 x 0x2c-0x2c.7 (1)
    |                                               |                |    [3]{}: section 0x2d-0x3f.7 (19)
0x20|                                       07      |             .  |      id: "export section" (7) 0x2d-0x2d.7 (1)
0x20|                                          11   |              . |      size: 17 0x2e-0x2e.7 (1)
    |                                               |                |      content{}: 0x2f-0x3f.7 (17)
0x20|                                             02|               .|        n: 2 0x2f-0x2f.7 (1)
    |                                               |                |        items[0:2]: 0x30-0x3f.7 (16)
    |                                               |                |          [0]{}: export 0x30-0x38.7 (9)
    |                                               |                |            name{}: 0x30-0x36.7 (7)
0x30|06                                             |.               |              len: 6 0x30-0x30.7 (1)
0x30|   6d 65 6d 6f 72 79                           | memory         |              utf8bytes: "memory" 0x31-0x36.7 (6)
    |                                               |                |            expr{}: 0x37-0x38.7 (2)
0x30|                     02                        |       .        |              tag: "memidx" (0x2) 0x37-0x37.7 (1)
0x30|                        00                     |        .       |              x: 0 0x38-0x38.7 (1)
    |                                               |                |          [1]{}: export 0x39-0x3f.7 (7)
    |                                               |                |            name{}: 0x39-0x3d.7 (5)
0x30|                           04                  |         .      |              len: 4 0x39-0x39.7 (1)
0x30|                              67 72 6f 77      |          grow  |              utf8bytes: "grow" 0x3a-0x3d.7 (4)
    |                                               |                |            expr{}: 0x3e-0x3f.7 (2)
0x30|                                          00   |              . |              tag: "funcidx" (0x0) 0x3e-0x3e.7 (1)
0x30|                                             00|               .|              x: 0 0x3f-0x3f.7 (1)
    |                                               |                |    [4]{}: section 0x40-0x49.7 (10)
0x40|0a                                             |.               |      id: "code section" (10) 0x40-0x40.7 (1)
0x40|   08                                          | .              |      size: 8 0x41-0x41.7 (1)
    |                                               |                |      content{}: 0x42-0x49.7 (8)
0x40|      01                                       |  .             |        n: 1 0x42-0x42.7 (1)
    |                                               |                |        items[0:1]: 0x43-0x49.7 (7)
    |                                               |                |          [0]{}: code 0x43-0x49.7 (7)
0x40|         06                                    |   .            |            size: 6 0x43-0x43.7 (1)
    |                                               |                |            code{}: 0x44-0x49.7 (6)
    |                                               |                |              locals{}: 0x44-0x44.7 (1)
0x40|            00                                 |    .           |                n: 0 0x44-0x44.7 (1)
    |                                               |                |                items[0:0]: 0x45-NA (0)
    |                                               |                |              expr{}: 0x45-0x49.7 (5)
    |                                               |                |                instructions[0:3]: 0x45-0x49.7 (5)
    |                                               |                |                  [0]{}: instr 0x45-0x46.7 (2)
0x40|               41                              |     A          |                    i32.const: 0x41 (valid) 0x45-0x45.7 (1)
0x40|                  01                           |      .         |                    n: 1 0x46-0x46.7 (1)
    |                                               |                |                  [1]{}: instr 0x47-0x48.7 (2)
0x40|                     40                        |       @        |                    memory.grow: 0x40 (valid) 0x47-0x47.7 (1)
0x40|                        00                     |        .       |                    reserved: 0x0 (valid) 0x48-0x48.7 (1)
    |                                               |                |                  [2]{}: instr 0x49-0x49.7 (1)
0x40|                           0b|                 |         .|     |                    end: 0xb (valid) 0x49-0x49.7 (1)
