$ fq -d wasm dv int_exprs-2.wasm
    |00 01 02 03 04 05 06 07 08 09 0a 0b 0c 0d 0e 0f|0123456789abcdef|.{}: int_exprs-2.wasm (wasm) 0x0-0x3c.7 (61)
0x00|00 61 73 6d                                    |.asm            |  magic: raw bits (valid) 0x0-0x3.7 (4)
0x00|            01 00 00 00                        |    ....        |  version: 1 0x4-0x7.7 (4)
    |                                               |                |  sections[0:4]: 0x8-0x3c.7 (53)
    |                                               |                |    [0]{}: section 0x8-0xf.7 (8)
0x00|                        01                     |        .       |      id: "type section" (1) 0x8-0x8.7 (1)
0x00|                           06                  |         .      |      size: 6 0x9-0x9.7 (1)
    |                                               |                |      content{}: 0xa-0xf.7 (6)
0x00|                              01               |          .     |        n: 1 0xa-0xa.7 (1)
    |                                               |                |        items[0:1]: 0xb-0xf.7 (5)
    |                                               |                |          [0]{}: functype 0xb-0xf.7 (5)
0x00|                                 60            |           `    |            tag: 0x60 (valid) 0xb-0xb.7 (1)
    |                                               |                |            rt1{}: 0xc-0xd.7 (2)
0x00|                                    01         |            .   |              n: 1 0xc-0xc.7 (1)
    |                                               |                |              items[0:1]: 0xd-0xd.7 (1)
0x00|                                       7e      |             ~  |                [0]: "i64" (126) valtype 0xd-0xd.7 (1)
    |                                               |                |            rt2{}: 0xe-0xf.7 (2)
0x00|                                          01   |              . |              n: 1 0xe-0xe.7 (1)
    |                                               |                |              items[0:1]: 0xf-0xf.7 (1)
0x00|                                             7e|               ~|                [0]: "i64" (126) valtype 0xf-0xf.7 (1)
    |                                               |                |    [1]{}: section 0x10-0x13.7 (4)
0x10|03                                             |.               |      id: "function section" (3) 0x10-0x10.7 (1)
0x10|   02                                          | .              |      size: 2 0x11-0x11.7 (1)
    |                                               |                |      content{}: 0x12-0x13.7 (2)
0x10|      01                                       |  .             |        n: 1 0x12-0x12.7 (1)
    |                                               |                |        items[0:1]: 0x13-0x13.7 (1)
0x10|         00                                    |   .            |          [0]: 0 x 0x13-0x13.7 (1)
    |                                               |                |    [2]{}: section 0x14-0x32.7 (31)
0x10|            07                                 |    .           |      id: "export section" (7) 0x14-0x14.7 (1)
0x10|               1d                              |     .          |      size: 29 0x15-0x15.7 (1)
    |                                               |                |      content{}: 0x16-0x32.7 (29)
0x10|                  01                           |      .         |        n: 1 0x16-0x16.7 (1)
    |                                               |                |        items[0:1]: 0x17-0x32.7 (28)
    |                                               |                |          [0]{}: export 0x17-0x32.7 (28)
    |                                               |                |            name{}: 0x17-0x30.7 (26)
0x10|                     19                        |       .        |              len: 25 0x17-0x17.7 (1)
0x10|                        69 36 34 2e 6e 6f 5f 66|        i64.no_f|              utf8bytes: "i64.no_fold_wrap_extend_u" 0x18-0x30.7 (25)
0x20|6f 6c 64 5f 77 72 61 70 5f 65 78 74 65 6e 64 5f|old_wrap_extend_|
0x30|75                                             |u               |
    |                                               |                |            expr{}: 0x31-0x32.7 (2)
0x30|   00                                          | .              |              tag: "funcidx" (0x0) 0x31-0x31.7 (1)
0x30|      00                                       |  .             |              x: 0 0x32-0x32.7 (1)
    |                                               |                |    [3]{}: section 0x33-0x3c.7 (10)
0x30|         0a                                    |   .            |      id: "code section" (10) 0x33-0x33.7 (1)
0x30|            08                                 |    .           |      size: 8 0x34-0x34.7 (1)
    |                                               |                |      content{}: 0x35-0x3c.7 (8)
0x30|               01                              |     .          |        n: 1 0x35-0x35.7 (1)
    |                                               |                |        items[0:1]: 0x36-0x3c.7 (7)
    |                                               |                |          [0]{}: code 0x36-0x3c.7 (7)
0x30|                  06                           |      .         |            size: 6 0x36-0x36.7 (1)
    |                                               |                |            code{}: 0x37-0x3c.7 (6)
    |                                               |                |              locals{}: 0x37-0x37.7 (1)
0x30|                     00                        |       .        |                n: 0 0x37-0x37.7 (1)
    |                                               |                |                items[0:0]: 0x38-NA (0)
    |                                               |                |              expr{}: 0x38-0x3c.7 (5)
    |                                               |                |                instructions[0:4]: 0x38-0x3c.7 (5)
    |                                               |                |                  [0]{}: instr 0x38-0x39.7 (2)
0x30|                        20                     |                |                    local.get: 0x20 (valid) 0x38-0x38.7 (1)
0x30|                           00                  |         .      |                    x: 0 0x39-0x39.7 (1)
    |                                               |                |                  [1]{}: instr 0x3a-0x3a.7 (1)
0x30|                              a7               |          .     |                    i32.wrap_i64: 0xa7 (valid) 0x3a-0x3a.7 (1)
    |                                               |                |                  [2]{}: instr 0x3b-0x3b.7 (1)
0x30|                                 ad            |           .    |                    i64.extend_i32_u: 0xad (valid) 0x3b-0x3b.7 (1)
    |                                               |                |                  [3]{}: instr 0x3c-0x3c.7 (1)
0x30|                                    0b|        |            .|  |                    end: 0xb (valid) 0x3c-0x3c.7 (1)
