$ fq -d wasm dv linking-12.wasm
    |00 01 02 03 04 05 06 07 08 09 0a 0b 0c 0d 0e 0f|0123456789abcdef|.{}: linking-12.wasm (wasm) 0x0-0x21.7 (34)
0x00|00 61 73 6d                                    |.asm            |  magic: raw bits (valid) 0x0-0x3.7 (4)
0x00|            01 00 00 00                        |    ....        |  version: 1 0x4-0x7.7 (4)
    |                                               |                |  sections[0:3]: 0x8-0x21.7 (26)
    |                                               |                |    [0]{}: section 0x8-0x12.7 (11)
0x00|                        02                     |        .       |      id: "import section" (2) 0x8-0x8.7 (1)
0x00|                           09                  |         .      |      size: 9 0x9-0x9.7 (1)
    |                                               |                |      content{}: 0xa-0x12.7 (9)
0x00|                              01               |          .     |        n: 1 0xa-0xa.7 (1)
    |                                               |                |        items[0:1]: 0xb-0x12.7 (8)
    |                                               |                |          [0]{}: import 0xb-0x12.7 (8)
    |                                               |                |            mod{}: 0xb-0xd.7 (3)
0x00|                                 02            |           .    |              len: 2 0xb-0xb.7 (1)
0x00|                                    47 31      |            G1  |              utf8bytes: "G1" 0xc-0xd.7 (2)
    |                                               |                |            nm{}: 0xe-0xf.7 (2)
0x00|                                          01   |              . |              len: 1 0xe-0xe.7 (1)
0x00|                                             67|               g|              utf8bytes: "g" 0xf-0xf.7 (1)
    |                                               |                |            importdesc{}: 0x10-0x12.7 (3)
0x10|03                                             |.               |              tag: "global" (0x3) 0x10-0x10.7 (1)
    |                                               |                |              globaltype{}: 0x11-0x12.7 (2)
0x10|   7f                                          | .              |                valtype: "i32" (127) 0x11-0x11.7 (1)
0x10|      00                                       |  .             |                mut: "const" (0) 0x12-0x12.7 (1)
    |                                               |                |    [1]{}: section 0x13-0x1a.7 (8)
0x10|         06                                    |   .            |      id: "global section" (6) 0x13-0x13.7 (1)
0x10|            06                                 |    .           |      size: 6 0x14-0x14.7 (1)
    |                                               |                |      content{}: 0x15-0x1a.7 (6)
0x10|               01                              |     .          |        n: 1 0x15-0x15.7 (1)
    |                                               |                |        items[0:1]: 0x16-0x1a.7 (5)
    |                                               |                |          [0]{}: global 0x16-0x1a.7 (5)
    |                                               |                |            globaltype{}: 0x16-0x17.7 (2)
0x10|                  7f                           |      .         |              valtype: "i32" (127) 0x16-0x16.7 (1)
0x10|                     00                        |       .        |              mut: "const" (0) 0x17-0x17.7 (1)
    |                                               |                |            expr{}: 0x18-0x1a.7 (3)
    |                                               |                |              instructions[0:2]: 0x18-0x1a.7 (3)
    |                                               |                |                [0]{}: instr 0x18-0x19.7 (2)
0x10|                        23                     |        #       |                  global.get: 0x23 (valid) 0x18-0x18.7 (1)
0x10|                           00                  |         .      |                  x: 0 0x19-0x19.7 (1)
    |                                               |                |                [1]{}: instr 0x1a-0x1a.7 (1)
0x10|                              0b               |          .     |                  end: 0xb (valid) 0x1a-0x1a.7 (1)
    |                                               |                |    [2]{}: section 0x1b-0x21.7 (7)
0x10|                                 07            |           .    |      id: "export section" (7) 0x1b-0x1b.7 (1)
0x10|                                    05         |            .   |      size: 5 0x1c-0x1c.7 (1)
    |                                               |                |      content{}: 0x1d-0x21.7 (5)
0x10|                                       01      |             .  |        n: 1 0x1d-0x1d.7 (1)
    |                                               |                |        items[0:1]: 0x1e-0x21.7 (4)
    |                                               |                |          [0]{}: export 0x1e-0x21.7 (4)
    |                                               |                |            name{}: 0x1e-0x1f.7 (2)
0x10|                                          01   |              . |              len: 1 0x1e-0x1e.7 (1)
0x10|                                             67|               g|              utf8bytes: "g" 0x1f-0x1f.7 (1)
    |                                               |                |            expr{}: 0x20-0x21.7 (2)
0x20|03                                             |.               |              tag: "globalidx" (0x3) 0x20-0x20.7 (1)
0x20|   01|                                         | .|             |              x: 1 0x21-0x21.7 (1)
