$ fq -d wasm dv linking-9.wasm
    |00 01 02 03 04 05 06 07 08 09 0a 0b 0c 0d 0e 0f|0123456789abcdef|.{}: linking-9.wasm (wasm) 0x0-0x51.7 (82)
0x00|00 61 73 6d                                    |.asm            |  magic: raw bits (valid) 0x0-0x3.7 (4)
0x00|            01 00 00 00                        |    ....        |  version: 1 0x4-0x7.7 (4)
    |                                               |                |  sections[0:6]: 0x8-0x51.7 (74)
    |                                               |                |    [0]{}: section 0x8-0x13.7 (12)
0x00|                        01                     |        .       |      id: "type section" (1) 0x8-0x8.7 (1)
0x00|                           0a                  |         .      |      size: 10 0x9-0x9.7 (1)
    |                                               |                |      content{}: 0xa-0x13.7 (10)
0x00|                              02               |          .     |        n: 2 0xa-0xa.7 (1)
    |                                               |                |        items[0:2]: 0xb-0x13.7 (9)
    |                                               |                |          [0]{}: functype 0xb-0xe.7 (4)
0x00|                                 60            |           `    |            tag: 0x60 (valid) 0xb-0xb.7 (1)
    |                                               |                |            rt1{}: 0xc-0xc.7 (1)
0x00|                                    00         |            .   |              n: 0 0xc-0xc.7 (1)
    |                                               |                |              items[0:0]: 0xd-NA (0)
    |                                               |                |            rt2{}: 0xd-0xe.7 (2)
0x00|                                       01      |             .  |              n: 1 0xd-0xd.7 (1)
    |                                               |                |              items[0:1]: 0xe-0xe.7 (1)
0x00|                                          7f   |              . |                [0]: "i32" (127) valtype 0xe-0xe.7 (1)
    |                                               |                |          [1]{}: functype 0xf-0x13.7 (5)
0x00|                                             60|               `|            tag: 0x60 (valid) 0xf-0xf.7 (1)
    |                                               |                |            rt1{}: 0x10-0x11.7 (2)
0x10|01                                             |.               |              n: 1 0x10-0x10.7 (1)
    |                                               |                |              items[0:1]: 0x11-0x11.7 (1)
0x10|   7f                                          | .              |                [0]: "i32" (127) valtype 0x11-0x11.7 (1)
    |                                               |                |            rt2{}: 0x12-0x13.7 (2)
0x10|      01                                       |  .             |              n: 1 0x12-0x12.7 (1)
    |                                               |                |              items[0:1]: 0x13-0x13.7 (1)
0x10|         7f                                    |   .            |                [0]: "i32" (127) valtype 0x13-0x13.7 (1)
    |                                               |                |    [1]{}: section 0x14-0x28.7 (21)
0x10|            02                                 |    .           |      id: "import section" (2) 0x14-0x14.7 (1)
0x10|               13                              |     .          |      size: 19 0x15-0x15.7 (1)
    |                                               |                |      content{}: 0x16-0x28.7 (19)
0x10|                  02                           |      .         |        n: 2 0x16-0x16.7 (1)
    |                                               |                |        items[0:2]: 0x17-0x28.7 (18)
    |                                               |                |          [0]{}: import 0x17-0x1d.7 (7)
    |                                               |                |            mod{}: 0x17-0x19.7 (3)
0x10|                     02                        |       .        |              len: 2 0x17-0x17.7 (1)
0x10|                        4d 74                  |        Mt      |              utf8bytes: "Mt" 0x18-0x19.7 (2)
    |                                               |                |            nm{}: 0x1a-0x1b.7 (2)
0x10|                              01               |          .     |              len: 1 0x1a-0x1a.7 (1)
0x10|                                 68            |           h    |              utf8bytes: "h" 0x1b-0x1b.7 (1)
    |                                               |                |            importdesc{}: 0x1c-0x1d.7 (2)
0x10|                                    00         |            .   |              tag: "func" (0x0) 0x1c-0x1c.7 (1)
0x10|                                       00      |             .  |              x: 0 0x1d-0x1d.7 (1)
    |                                               |                |          [1]{}: import 0x1e-0x28.7 (11)
    |                                               |                |            mod{}: 0x1e-0x20.7 (3)
0x10|                                          02   |              . |              len: 2 0x1e-0x1e.7 (1)
0x10|                                             4d|               M|              utf8bytes: "Mt" 0x1f-0x20.7 (2)
0x20|74                                             |t               |
    |                                               |                |            nm{}: 0x21-0x24.7 (4)
0x20|   03                                          | .              |              len: 3 0x21-0x21.7 (1)
0x20|      74 61 62                                 |  tab           |              utf8bytes: "tab" 0x22-0x24.7 (3)
    |                                               |                |            importdesc{}: 0x25-0x28.7 (4)
0x20|               01                              |     .          |              tag: "table" (0x1) 0x25-0x25.7 (1)
    |                                               |                |              tabletype{}: 0x26-0x28.7 (3)
0x20|                  70                           |      p         |                reftype: "funcref" (112) 0x26-0x26.7 (1)
    |                                               |                |                limits{}: 0x27-0x28.7 (2)
0x20|                     00                        |       .        |                  tag: 0x0 0x27-0x27.7 (1)
0x20|                        05                     |        .       |                  min: 5 0x28-0x28.7 (1)
    |                                               |                |    [2]{}: section 0x29-0x2d.7 (5)
0x20|                           03                  |         .      |      id: "function section" (3) 0x29-0x29.7 (1)
0x20|                              03               |          .     |      size: 3 0x2a-0x2a.7 (1)
    |                                               |                |      content{}: 0x2b-0x2d.7 (3)
0x20|                                 02            |           .    |        n: 2 0x2b-0x2b.7 (1)
    |                                               |                |        items[0:2]: 0x2c-0x2d.7 (2)
0x20|                                    00         |            .   |          [0]: 0 x 0x2c-0x2c.7 (1)
0x20|                                       01      |             .  |          [1]: 1 x 0x2d-0x2d.7 (1)
    |                                               |                |    [3]{}: section 0x2e-0x37.7 (10)
0x20|                                          07   |              . |      id: "export section" (7) 0x2e-0x2e.7 (1)
0x20|                                             08|               .|      size: 8 0x2f-0x2f.7 (1)
    |                                               |                |      content{}: 0x30-0x37.7 (8)
0x30|01                                             |.               |        n: 1 0x30-0x30.7 (1)
    |                                               |                |        items[0:1]: 0x31-0x37.7 (7)
    |                                               |                |          [0]{}: export 0x31-0x37.7 (7)
    |                                               |                |            name{}: 0x31-0x35.7 (5)
0x30|   04                                          | .              |              len: 4 0x31-0x31.7 (1)
0x30|      63 61 6c 6c                              |  call          |              utf8bytes: "call" 0x32-0x35.7 (4)
    |                                               |                |            expr{}: 0x36-0x37.7 (2)
0x30|                  00                           |      .         |              tag: "funcidx" (0x0) 0x36-0x36.7 (1)
0x30|                     02                        |       .        |              x: 2 0x37-0x37.7 (1)
    |                                               |                |    [4]{}: section 0x38-0x41.7 (10)
0x30|                        09                     |        .       |      id: "element section" (9) 0x38-0x38.7 (1)
0x30|                           08                  |         .      |      size: 8 0x39-0x39.7 (1)
    |                                               |                |      element{}: 0x3a-0x41.7 (8)
0x30|                              01               |          .     |        n: 1 0x3a-0x3a.7 (1)
    |                                               |                |        items[0:1]: 0x3b-0x41.7 (7)
    |                                               |                |          [0]{}: elem 0x3b-0x41.7 (7)
0x30|                                 00            |           .    |            tag: 0 0x3b-0x3b.7 (1)
    |                                               |                |            instructions[0:2]: 0x3c-0x3e.7 (3)
    |                                               |                |              [0]{}: instr 0x3c-0x3d.7 (2)
0x30|                                    41         |            A   |                i32.const: 0x41 (valid) 0x3c-0x3c.7 (1)
0x30|                                       01      |             .  |                n: 1 0x3d-0x3d.7 (1)
    |                                               |                |              [1]{}: instr 0x3e-0x3e.7 (1)
0x30|                                          0b   |              . |                end: 0xb (valid) 0x3e-0x3e.7 (1)
0x30|                                             02|               .|            n: 2 0x3f-0x3f.7 (1)
    |                                               |                |            items[0:2]: 0x40-0x41.7 (2)
0x40|01                                             |.               |              [0]: 1 y 0x40-0x40.7 (1)
0x40|   00                                          | .              |              [1]: 0 y 0x41-0x41.7 (1)
    |                                               |                |    [5]{}: section 0x42-0x51.7 (16)
0x40|      0a                                       |  .             |      id: "code section" (10) 0x42-0x42.7 (1)
0x40|         0e                                    |   .            |      size: 14 0x43-0x43.7 (1)
    |                                               |                |      content{}: 0x44-0x51.7 (14)
0x40|            02                                 |    .           |        n: 2 0x44-0x44.7 (1)
    |                                               |                |        items[0:2]: 0x45-0x51.7 (13)
    |                                               |                |          [0]{}: code 0x45-0x49.7 (5)
0x40|               04                              |     .          |            size: 4 0x45-0x45.7 (1)
    |                                               |                |            code{}: 0x46-0x49.7 (4)
    |                                               |                |              locals{}: 0x46-0x46.7 (1)
0x40|                  00                           |      .         |                n: 0 0x46-0x46.7 (1)
    |                                               |                |                items[0:0]: 0x47-NA (0)
    |                                               |                |              expr{}: 0x47-0x49.7 (3)
    |                                               |                |                instructions[0:2]: 0x47-0x49.7 (3)
    |                                               |                |                  [0]{}: instr 0x47-0x48.7 (2)
0x40|                     41                        |       A        |                    i32.const: 0x41 (valid) 0x47-0x47.7 (1)
0x40|                        06                     |        .       |                    n: 6 0x48-0x48.7 (1)
    |                                               |                |                  [1]{}: instr 0x49-0x49.7 (1)
0x40|                           0b                  |         .      |                    end: 0xb (valid) 0x49-0x49.7 (1)
    |                                               |                |          [1]{}: code 0x4a-0x51.7 (8)
0x40|                              07               |          .     |            size: 7 0x4a-0x4a.7 (1)
    |                                               |                |            code{}: 0x4b-0x51.7 (7)
    |                                               |                |              locals{}: 0x4b-0x4b.7 (1)
0x40|                                 00            |           .    |                n: 0 0x4b-0x4b.7 (1)
    |                                               |                |                items[0:0]: 0x4c-NA (0)
    |                                               |                |              expr{}: 0x4c-0x51.7 (6)
    |                                               |                |                instructions[0:3]: 0x4c-0x51.7 (6)
    |                                               |                |                  [0]{}: instr 0x4c-0x4d.7 (2)
0x40|                                    20         |                |                    local.get: 0x20 (valid) 0x4c-0x4c.7 (1)
0x40|                                       00      |             .  |                    x: 0 0x4d-0x4d.7 (1)
    |                                               |                |                  [1]{}: instr 0x4e-0x50.7 (3)
0x40|                                          11   |              . |                    call: 0x11 (valid) 0x4e-0x4e.7 (1)
0x40|                                             00|               .|                    y: 0 0x4f-0x4f.7 (1)
0x50|00                                             |.               |                    x: 0 0x50-0x50.7 (1)
    |                                               |                |                  [2]{}: instr 0x51-0x51.7 (1)
0x50|   0b|                                         | .|             |                    end: 0xb (valid) 0x51-0x51.7 (1)
