$ fq -d wasm dv linking-17.wasm
    |00 01 02 03 04 05 06 07 08 09 0a 0b 0c 0d 0e 0f|0123456789abcdef|.{}: linking-17.wasm (wasm) 0x0-0x45.7 (70)
0x00|00 61 73 6d                                    |.asm            |  magic: raw bits (valid) 0x0-0x3.7 (4)
0x00|            01 00 00 00                        |    ....        |  version: 1 0x4-0x7.7 (4)
    |                                               |                |  sections[0:6]: 0x8-0x45.7 (62)
    |                                               |                |    [0]{}: section 0x8-0xf.7 (8)
0x00|                        01                     |        .       |      id: "type section" (1) 0x8-0x8.7 (1)
0x00|                           06                  |         .      |      size: 6 0x9-0x9.7 (1)
    |                                               |                |      content{}: 0xa-0xf.7 (6)
0x00|                              01               |          .     |        n: 1 0xa-0xa.7 (1)
    |                                               |                |        items[0:1]: 0xb-0xf.7 (5)
    |                                               |                |          [0]{}: functype 0xb-0xf.7 (5)
0x00|                                 60            |           `    |            tag: 0x60 (valid) 0xb-0xb.7 (1)
    |                                               |                |            rt1{}: 0xc-0xd.7 (2)
0x00|                                    01         |            .   |              n: 1 0xc-0xc.7 (1)
    |                                               |                |              items[0:1]: 0xd-0xd.7 (1)
0x00|                                       7f      |             .  |                [0]: "i32" (127) valtype 0xd-0xd.7 (1)
    |                                               |                |            rt2{}: 0xe-0xf.7 (2)
0x00|                                          01   |              . |              n: 1 0xe-0xe.7 (1)
    |                                               |                |              items[0:1]: 0xf-0xf.7 (1)
0x00|                                             7f|               .|                [0]: "i32" (127) valtype 0xf-0xf.7 (1)
    |                                               |                |    [1]{}: section 0x10-0x1c.7 (13)
0x10|02                                             |.               |      id: "import section" (2) 0x10-0x10.7 (1)
0x10|   0b                                          | .              |      size: 11 0x11-0x11.7 (1)
    |                                               |                |      content{}: 0x12-0x1c.7 (11)
0x10|      01                                       |  .             |        n: 1 0x12-0x12.7 (1)
    |                                               |                |        items[0:1]: 0x13-0x1c.7 (10)
    |                                               |                |          [0]{}: import 0x13-0x1c.7 (10)
    |                                               |                |            mod{}: 0x13-0x15.7 (3)
0x10|         02                                    |   .            |              len: 2 0x13-0x13.7 (1)
0x10|            4d 6d                              |    Mm          |              utf8bytes: "Mm" 0x14-0x15.7 (2)
    |                                               |                |            nm{}: 0x16-0x19.7 (4)
0x10|                  03                           |      .         |              len: 3 0x16-0x16.7 (1)
0x10|                     6d 65 6d                  |       mem      |              utf8bytes: "mem" 0x17-0x19.7 (3)
    |                                               |                |            importdesc{}: 0x1a-0x1c.7 (3)
0x10|                              02               |          .     |              tag: "mem" (0x2) 0x1a-0x1a.7 (1)
    |                                               |                |              memtype{}: 0x1b-0x1c.7 (2)
    |                                               |                |                limits{}: 0x1b-0x1c.7 (2)
0x10|                                 00            |           .    |                  tag: 0x0 0x1b-0x1b.7 (1)
0x10|                                    01         |            .   |                  min: 1 0x1c-0x1c.7 (1)
    |                                               |                |    [2]{}: section 0x1d-0x20.7 (4)
0x10|                                       03      |             .  |      id: "function section" (3) 0x1d-0x1d.7 (1)
0x10|                                          02   |              . |      size: 2 0x1e-0x1e.7 (1)
    |                                               |                |      content{}: 0x1f-0x20.7 (2)
0x10|                                             01|               .|        n: 1 0x1f-0x1f.7 (1)
    |                                               |                |        items[0:1]: 0x20-0x20.7 (1)
0x20|00                                             |.               |          [0]: 0 x 0x20-0x20.7 (1)
    |                                               |                |    [3]{}: section 0x21-0x2a.7 (10)
0x20|   07                                          | .              |      id: "export section" (7) 0x21-0x21.7 (1)
0x20|      08                                       |  .             |      size: 8 0x22-0x22.7 (1)
    |                                               |                |      content{}: 0x23-0x2a.7 (8)
0x20|         01                                    |   .            |        n: 1 0x23-0x23.7 (1)
    |                                               |                |        items[0:1]: 0x24-0x2a.7 (7)
    |                                               |                |          [0]{}: export 0x24-0x2a.7 (7)
    |                                               |                |            name{}: 0x24-0x28.7 (5)
0x20|            04                                 |    .           |              len: 4 0x24-0x24.7 (1)
0x20|               6c 6f 61 64                     |     load       |              utf8bytes: "load" 0x25-0x28.7 (4)
    |                                               |                |            expr{}: 0x29-0x2a.7 (2)
0x20|                           00                  |         .      |              tag: "funcidx" (0x0) 0x29-0x29.7 (1)
0x20|                              00               |          .     |              x: 0 0x2a-0x2a.7 (1)
    |                                               |                |    [4]{}: section 0x2b-0x35.7 (11)
0x20|                                 0a            |           .    |      id: "code section" (10) 0x2b-0x2b.7 (1)
0x20|                                    09         |            .   |      size: 9 0x2c-0x2c.7 (1)
    |                                               |                |      content{}: 0x2d-0x35.7 (9)
0x20|                                       01      |             .  |        n: 1 0x2d-0x2d.7 (1)
    |                                               |                |        items[0:1]: 0x2e-0x35.7 (8)
    |                                               |                |          [0]{}: code 0x2e-0x35.7 (8)
0x20|                                          07   |              . |            size: 7 0x2e-0x2e.7 (1)
    |                                               |                |            code{}: 0x2f-0x35.7 (7)
    |                                               |                |              locals{}: 0x2f-0x2f.7 (1)
0x20|                                             00|               .|                n: 0 0x2f-0x2f.7 (1)
    |                                               |                |                items[0:0]: 0x30-NA (0)
    |                                               |                |              expr{}: 0x30-0x35.7 (6)
    |                                               |                |                instructions[0:3]: 0x30-0x35.7 (6)
    |                                               |                |                  [0]{}: instr 0x30-0x31.7 (2)
0x30|20                                             |                |                    local.get: 0x20 (valid) 0x30-0x30.7 (1)
0x30|   00                                          | .              |                    x: 0 0x31-0x31.7 (1)
    |                                               |                |                  [1]{}: instr 0x32-0x34.7 (3)
0x30|      2d                                       |  -             |                    i32.load8_u: 0x2d (valid) 0x32-0x32.7 (1)
0x30|         00                                    |   .            |                    align: 0 0x33-0x33.7 (1)
0x30|            00                                 |    .           |                    offset: 0 0x34-0x34.7 (1)
    |                                               |                |                  [2]{}: instr 0x35-0x35.7 (1)
0x30|               0b                              |     .          |                    end: 0xb (valid) 0x35-0x35.7 (1)
    |                                               |                |    [5]{}: section 0x36-0x45.7 (16)
0x30|                  0b                           |      .         |      id: "data section" (11) 0x36-0x36.7 (1)
0x30|                     0e                        |       .        |      size: 14 0x37-0x37.7 (1)
    |                                               |                |      content{}: 0x38-0x45.7 (14)
0x30|                        01                     |        .       |        n: 1 0x38-0x38.7 (1)
    |                                               |                |        items[0:1]: 0x39-0x45.7 (13)
    |                                               |                |          [0]{}: data 0x39-0x45.7 (13)
0x30|                           00                  |         .      |            tag: 0 0x39-0x39.7 (1)
    |                                               |                |            instructions[0:2]: 0x3a-0x3c.7 (3)
    |                                               |                |              [0]{}: instr 0x3a-0x3b.7 (2)
0x30|                              41               |          A     |                i32.const: 0x41 (valid) 0x3a-0x3a.7 (1)
0x30|                                 05            |           .    |                n: 5 0x3b-0x3b.7 (1)
    |                                               |                |              [1]{}: instr 0x3c-0x3c.7 (1)
0x30|                                    0b         |            .   |                end: 0xb (valid) 0x3c-0x3c.7 (1)
0x30|                                       08      |             .  |            n: 8 0x3d-0x3d.7 (1)
0x30|                                          a0 a1|              ..|            bytes: raw bits 0x3e-0x45.7 (8)
0x40|a2 a3 a4 a5 a6 a7|                             |......|         |
