$ fq -d wasm dv linking-13.wasm
    |00 01 02 03 04 05 06 07 08 09 0a 0b 0c 0d 0e 0f|0123456789abcdef|.{}: linking-13.wasm (wasm) 0x0-0x27.7 (40)
0x00|00 61 73 6d                                    |.asm            |  magic: raw bits (valid) 0x0-0x3.7 (4)
0x00|            01 00 00 00                        |    ....        |  version: 1 0x4-0x7.7 (4)
    |                                               |                |  sections[0:2]: 0x8-0x27.7 (32)
    |                                               |                |    [0]{}: section 0x8-0x10.7 (9)
0x00|                        04                     |        .       |      id: "table section" (4) 0x8-0x8.7 (1)
0x00|                           07                  |         .      |      size: 7 0x9-0x9.7 (1)
    |                                               |                |      content{}: 0xa-0x10.7 (7)
0x00|                              02               |          .     |        n: 2 0xa-0xa.7 (1)
    |                                               |                |        items[0:2]: 0xb-0x10.7 (6)
    |                                               |                |          [0]{}: table 0xb-0xd.7 (3)
0x00|                                 70            |           p    |            reftype: "funcref" (112) 0xb-0xb.7 (1)
    |                                               |                |            limits{}: 0xc-0xd.7 (2)
0x00|                                    00         |            .   |              tag: 0x0 0xc-0xc.7 (1)
0x00|                                       01      |             .  |              min: 1 0xd-0xd.7 (1)
    |                                               |                |          [1]{}: table 0xe-0x10.7 (3)
0x00|                                          6f   |              o |            reftype: "externref" (111) 0xe-0xe.7 (1)
    |                                               |                |            limits{}: 0xf-0x10.7 (2)
0x00|                                             00|               .|              tag: 0x0 0xf-0xf.7 (1)
0x10|01                                             |.               |              min: 1 0x10-0x10.7 (1)
    |                                               |                |    [1]{}: section 0x11-0x27.7 (23)
0x10|   07                                          | .              |      id: "export section" (7) 0x11-0x11.7 (1)
0x10|      15                                       |  .             |      size: 21 0x12-0x12.7 (1)
    |                                               |                |      content{}: 0x13-0x27.7 (21)
0x10|         02                                    |   .            |        n: 2 0x13-0x13.7 (1)
    |                                               |                |        items[0:2]: 0x14-0x27.7 (20)
    |                                               |                |          [0]{}: export 0x14-0x1c.7 (9)
    |                                               |                |            name{}: 0x14-0x1a.7 (7)
0x10|            06                                 |    .           |              len: 6 0x14-0x14.7 (1)
0x10|               74 2d 66 75 6e 63               |     t-func     |              utf8bytes: "t-func" 0x15-0x1a.7 (6)
    |                                               |                |            expr{}: 0x1b-0x1c.7 (2)
0x10|                                 01            |           .    |              tag: "tableidx" (0x1) 0x1b-0x1b.7 (1)
0x10|                                    00         |            .   |              x: 0 0x1c-0x1c.7 (1)
    |                                               |                |          [1]{}: export 0x1d-0x27.7 (11)
    |                                               |                |            name{}: 0x1d-0x25.7 (9)
0x10|                                       08      |             .  |              len: 8 0x1d-0x1d.7 (1)
0x10|                                          74 2d|              t-|              utf8bytes: "t-extern" 0x1e-0x25.7 (8)
0x20|65 78 74 65 72 6e                              |extern          |
    |                                               |                |            expr{}: 0x26-0x27.7 (2)
0x20|                  01                           |      .         |              tag: "tableidx" (0x1) 0x26-0x26.7 (1)
0x20|                     01|                       |       .|       |              x: 1 0x27-0x27.7 (1)
