$ fq -d wasm dv linking-19.wasm
    |00 01 02 03 04 05 06 07 08 09 0a 0b 0c 0d 0e 0f|0123456789abcdef|.{}: linking-19.wasm (wasm) 0x0-0x35.7 (54)
0x00|00 61 73 6d                                    |.asm            |  magic: raw bits (valid) 0x0-0x3.7 (4)
0x00|            01 00 00 00                        |    ....        |  version: 1 0x4-0x7.7 (4)
    |                                               |                |  sections[0:5]: 0x8-0x35.7 (46)
    |                                               |                |    [0]{}: section 0x8-0xf.7 (8)
0x00|                        01                     |        .       |      id: "type section" (1) 0x8-0x8.7 (1)
0x00|                           06                  |         .      |      size: 6 0x9-0x9.7 (1)
    |                                               |                |      content{}: 0xa-0xf.7 (6)
0x00|                              01               |          .     |        n: 1 0xa-0xa.7 (1)
    |                                               |                |        items[0:1]: 0xb-0xf.7 (5)
    |                                               |                |          [0]{}: functype 0xb-0xf.7 (5)
0x00|                                 60            |           `    |            tag: 0x60 (valid) 0xb-0xb.7 (1)
    |                                               |                |            rt1{}: 0xc-0xd.7 (2)
0x00|                                    01         |            .   |              n: 1 0xc-0xc.7 (1)
    |                                               |                |              items[0:1]: 0xd-0xd.7 (1)
0x00|                                       7f      |             .  |                [0]: "i32" (127) valtype 0xd-0xd.7 (1)
    |                                               |                |            rt2{}: 0xe-0xf.7 (2)
0x00|                                          01   |              . |              n: 1 0xe-0xe.7 (1)
    |                                               |                |              items[0:1]: 0xf-0xf.7 (1)
0x00|                                             7f|               .|                [0]: "i32" (127) valtype 0xf-0xf.7 (1)
    |                                               |                |    [1]{}: section 0x10-0x1d.7 (14)
0x10|02                                             |.               |      id: "import section" (2) 0x10-0x10.7 (1)
0x10|   0c                                          | .              |      size: 12 0x11-0x11.7 (1)
    |                                               |                |      content{}: 0x12-0x1d.7 (12)
0x10|      01                                       |  .             |        n: 1 0x12-0x12.7 (1)
    |                                               |                |        items[0:1]: 0x13-0x1d.7 (11)
    |                                               |                |          [0]{}: import 0x13-0x1d.7 (11)
    |                                               |                |            mod{}: 0x13-0x15.7 (3)
0x10|         02                                    |   .            |              len: 2 0x13-0x13.7 (1)
0x10|            4d 6d                              |    Mm          |              utf8bytes: "Mm" 0x14-0x15.7 (2)
    |                                               |                |            nm{}: 0x16-0x19.7 (4)
0x10|                  03                           |      .         |              len: 3 0x16-0x16.7 (1)
0x10|                     6d 65 6d                  |       mem      |              utf8bytes: "mem" 0x17-0x19.7 (3)
    |                                               |                |            importdesc{}: 0x1a-0x1d.7 (4)
0x10|                              02               |          .     |              tag: "mem" (0x2) 0x1a-0x1a.7 (1)
    |                                               |                |              memtype{}: 0x1b-0x1d.7 (3)
    |                                               |                |                limits{}: 0x1b-0x1d.7 (3)
0x10|                                 01            |           .    |                  tag: 0x1 0x1b-0x1b.7 (1)
0x10|                                    01         |            .   |                  min: 1 0x1c-0x1c.7 (1)
0x10|                                       08      |             .  |                  max: 8 0x1d-0x1d.7 (1)
    |                                               |                |    [2]{}: section 0x1e-0x21.7 (4)
0x10|                                          03   |              . |      id: "function section" (3) 0x1e-0x1e.7 (1)
0x10|                                             02|               .|      size: 2 0x1f-0x1f.7 (1)
    |                                               |                |      content{}: 0x20-0x21.7 (2)
0x20|01                                             |.               |        n: 1 0x20-0x20.7 (1)
    |                                               |                |        items[0:1]: 0x21-0x21.7 (1)
0x20|   00                                          | .              |          [0]: 0 x 0x21-0x21.7 (1)
    |                                               |                |    [3]{}: section 0x22-0x2b.7 (10)
0x20|      07                                       |  .             |      id: "export section" (7) 0x22-0x22.7 (1)
0x20|         08                                    |   .            |      size: 8 0x23-0x23.7 (1)
    |                                               |                |      content{}: 0x24-0x2b.7 (8)
0x20|            01                                 |    .           |        n: 1 0x24-0x24.7 (1)
    |                                               |                |        items[0:1]: 0x25-0x2b.7 (7)
    |                                               |                |          [0]{}: export 0x25-0x2b.7 (7)
    |                                               |                |            name{}: 0x25-0x29.7 (5)
0x20|               04                              |     .          |              len: 4 0x25-0x25.7 (1)
0x20|                  67 72 6f 77                  |      grow      |              utf8bytes: "grow" 0x26-0x29.7 (4)
    |                                               |                |            expr{}: 0x2a-0x2b.7 (2)
0x20|                              00               |          .     |              tag: "funcidx" (0x0) 0x2a-0x2a.7 (1)
0x20|                                 00            |           .    |              x: 0 0x2b-0x2b.7 (1)
    |                                               |                |    [4]{}: section 0x2c-0x35.7 (10)
0x20|                                    0a         |            .   |      id: "code section" (10) 0x2c-0x2c.7 (1)
0x20|                                       08      |             .  |      size: 8 0x2d-0x2d.7 (1)
    |                                               |                |      content{}: 0x2e-0x35.7 (8)
0x20|                                          01   |              . |        n: 1 0x2e-0x2e.7 (1)
    |                                               |                |        items[0:1]: 0x2f-0x35.7 (7)
    |                                               |                |          [0]{}: code 0x2f-0x35.7 (7)
0x20|                                             06|               .|            size: 6 0x2f-0x2f.7 (1)
    |                                               |                |            code{}: 0x30-0x35.7 (6)
    |                                               |                |              locals{}: 0x30-0x30.7 (1)
0x30|00                                             |.               |                n: 0 0x30-0x30.7 (1)
    |                                               |                |                items[0:0]: 0x31-NA (0)
    |                                               |                |              expr{}: 0x31-0x35.7 (5)
    |                                               |                |                instructions[0:3]: 0x31-0x35.7 (5)
    |                                               |                |                  [0]{}: instr 0x31-0x32.7 (2)
0x30|   20                                          |                |                    local.get: 0x20 (valid) 0x31-0x31.7 (1)
0x30|      00                                       |  .             |                    x: 0 0x32-0x32.7 (1)
    |                                               |                |                  [1]{}: instr 0x33-0x34.7 (2)
0x30|         40                                    |   @            |                    memory.grow: 0x40 (valid) 0x33-0x33.7 (1)
0x30|            00                                 |    .           |                    reserved: 0x0 (valid) 0x34-0x34.7 (1)
    |                                               |                |                  [2]{}: instr 0x35-0x35.7 (1)
0x30|               0b|                             |     .|         |                    end: 0xb (valid) 0x35-0x35.7 (1)
