$ fq -d wasm dv linking-8.wasm
    |00 01 02 03 04 05 06 07 08 09 0a 0b 0c 0d 0e 0f|0123456789abcdef|.{}: linking-8.wasm (wasm) 0x0-0x7e.7 (127)
0x00|00 61 73 6d                                    |.asm            |  magic: raw bits (valid) 0x0-0x3.7 (4)
0x00|            01 00 00 00                        |    ....        |  version: 1 0x4-0x7.7 (4)
    |                                               |                |  sections[0:7]: 0x8-0x7e.7 (119)
    |                                               |                |    [0]{}: section 0x8-0x16.7 (15)
0x00|                        01                     |        .       |      id: "type section" (1) 0x8-0x8.7 (1)
0x00|                           0d                  |         .      |      size: 13 0x9-0x9.7 (1)
    |                                               |                |      content{}: 0xa-0x16.7 (13)
0x00|                              03               |          .     |        n: 3 0xa-0xa.7 (1)
    |                                               |                |        items[0:3]: 0xb-0x16.7 (12)
    |                                               |                |          [0]{}: functype 0xb-0xd.7 (3)
0x00|                                 60            |           `    |            tag: 0x60 (valid) 0xb-0xb.7 (1)
    |                                               |                |            rt1{}: 0xc-0xc.7 (1)
0x00|                                    00         |            .   |              n: 0 0xc-0xc.7 (1)
    |                                               |                |              items[0:0]: 0xd-NA (0)
    |                                               |                |            rt2{}: 0xd-0xd.7 (1)
0x00|                                       00      |             .  |              n: 0 0xd-0xd.7 (1)
    |                                               |                |              items[0:0]: 0xe-NA (0)
    |                                               |                |          [1]{}: functype 0xe-0x11.7 (4)
0x00|                                          60   |              ` |            tag: 0x60 (valid) 0xe-0xe.7 (1)
    |                                               |                |            rt1{}: 0xf-0xf.7 (1)
0x00|                                             00|               .|              n: 0 0xf-0xf.7 (1)
    |                                               |                |              items[0:0]: 0x10-NA (0)
    |                                               |                |            rt2{}: 0x10-0x11.7 (2)
0x10|01                                             |.               |              n: 1 0x10-0x10.7 (1)
    |                                               |                |              items[0:1]: 0x11-0x11.7 (1)
0x10|   7f                                          | .              |                [0]: "i32" (127) valtype 0x11-0x11.7 (1)
    |                                               |                |          [2]{}: functype 0x12-0x16.7 (5)
0x10|      60                                       |  `             |            tag: 0x60 (valid) 0x12-0x12.7 (1)
    |                                               |                |            rt1{}: 0x13-0x14.7 (2)
0x10|         01                                    |   .            |              n: 1 0x13-0x13.7 (1)
    |                                               |                |              items[0:1]: 0x14-0x14.7 (1)
0x10|            7f                                 |    .           |                [0]: "i32" (127) valtype 0x14-0x14.7 (1)
    |                                               |                |            rt2{}: 0x15-0x16.7 (2)
0x10|               01                              |     .          |              n: 1 0x15-0x15.7 (1)
    |                                               |                |              items[0:1]: 0x16-0x16.7 (1)
0x10|                  7f                           |      .         |                [0]: "i32" (127) valtype 0x16-0x16.7 (1)
    |                                               |                |    [1]{}: section 0x17-0x2a.7 (20)
0x10|                     02                        |       .        |      id: "import section" (2) 0x17-0x17.7 (1)
0x10|                        12                     |        .       |      size: 18 0x18-0x18.7 (1)
    |                                               |                |      content{}: 0x19-0x2a.7 (18)
0x10|                           02                  |         .      |        n: 2 0x19-0x19.7 (1)
    |                                               |                |        items[0:2]: 0x1a-0x2a.7 (17)
    |                                               |                |          [0]{}: import 0x1a-0x23.7 (10)
    |                                               |                |            mod{}: 0x1a-0x1c.7 (3)
0x10|                              02               |          .     |              len: 2 0x1a-0x1a.7 (1)
0x10|                                 4d 74         |           Mt   |              utf8bytes: "Mt" 0x1b-0x1c.7 (2)
    |                                               |                |            nm{}: 0x1d-0x21.7 (5)
0x10|                                       04      |             .  |              len: 4 0x1d-0x1d.7 (1)
0x10|                                          63 61|              ca|              utf8bytes: "call" 0x1e-0x21.7 (4)
0x20|6c 6c                                          |ll              |
    |                                               |                |            importdesc{}: 0x22-0x23.7 (2)
0x20|      00                                       |  .             |              tag: "func" (0x0) 0x22-0x22.7 (1)
0x20|         02                                    |   .            |              x: 2 0x23-0x23.7 (1)
    |                                               |                |          [1]{}: import 0x24-0x2a.7 (7)
    |                                               |                |            mod{}: 0x24-0x26.7 (3)
0x20|            02                                 |    .           |              len: 2 0x24-0x24.7 (1)
0x20|               4d 74                           |     Mt         |              utf8bytes: "Mt" 0x25-0x26.7 (2)
    |                                               |                |            nm{}: 0x27-0x28.7 (2)
0x20|                     01                        |       .        |              len: 1 0x27-0x27.7 (1)
0x20|                        68                     |        h       |              utf8bytes: "h" 0x28-0x28.7 (1)
    |                                               |                |            importdesc{}: 0x29-0x2a.7 (2)
0x20|                           00                  |         .      |              tag: "func" (0x0) 0x29-0x29.7 (1)
0x20|                              01               |          .     |              x: 1 0x2a-0x2a.7 (1)
    |                                               |                |    [2]{}: section 0x2b-0x30.7 (6)
0x20|                                 03            |           .    |      id: "function section" (3) 0x2b-0x2b.7 (1)
0x20|                                    04         |            .   |      size: 4 0x2c-0x2c.7 (1)
    |                                               |                |      content{}: 0x2d-0x30.7 (4)
0x20|                                       03      |             .  |        n: 3 0x2d-0x2d.7 (1)
    |                                               |                |        items[0:3]: 0x2e-0x30.7 (3)
0x20|                                          01   |              . |          [0]: 1 x 0x2e-0x2e.7 (1)
0x20|                                             02|               .|          [1]: 2 x 0x2f-0x2f.7 (1)
0x30|02                                             |.               |          [2]: 2 x 0x30-0x30.7 (1)
    |                                               |                |    [3]{}: section 0x31-0x37.7 (7)
0x30|   04                                          | .              |      id: "table section" (4) 0x31-0x31.7 (1)
0x30|      05                                       |  .             |      size: 5 0x32-0x32.7 (1)
    |                                               |                |      content{}: 0x33-0x37.7 (5)
0x30|         01                                    |   .            |        n: 1 0x33-0x33.7 (1)
    |                                               |                |        items[0:1]: 0x34-0x37.7 (4)
    |                                               |                |          [0]{}: table 0x34-0x37.7 (4)
0x30|            70                                 |    p           |            reftype: "funcref" (112) 0x34-0x34.7 (1)
    |                                               |                |            limits{}: 0x35-0x37.7 (3)
0x30|               01                              |     .          |              tag: 0x1 0x35-0x35.7 (1)
0x30|                  05                           |      .         |              min: 5 0x36-0x36.7 (1)
0x30|                     05                        |       .        |              max: 5 0x37-0x37.7 (1)
    |                                               |                |    [4]{}: section 0x38-0x5a.7 (35)
0x30|                        07                     |        .       |      id: "export section" (7) 0x38-0x38.7 (1)
0x30|                           21                  |         !      |      size: 33 0x39-0x39.7 (1)
    |                                               |                |      content{}: 0x3a-0x5a.7 (33)
0x30|                              03               |          .     |        n: 3 0x3a-0x3a.7 (1)
    |                                               |                |        items[0:3]: 0x3b-0x5a.7 (32)
    |                                               |                |          [0]{}: export 0x3b-0x44.7 (10)
    |                                               |                |            name{}: 0x3b-0x42.7 (8)
0x30|                                 07            |           .    |              len: 7 0x3b-0x3b.7 (1)
0x30|                                    4d 74 2e 63|            Mt.c|              utf8bytes: "Mt.call" 0x3c-0x42.7 (7)
0x40|61 6c 6c                                       |all             |
    |                                               |                |            expr{}: 0x43-0x44.7 (2)
0x40|         00                                    |   .            |              tag: "funcidx" (0x0) 0x43-0x43.7 (1)
0x40|            00                                 |    .           |              x: 0 0x44-0x44.7 (1)
    |                                               |                |          [1]{}: export 0x45-0x53.7 (15)
    |                                               |                |            name{}: 0x45-0x51.7 (13)
0x40|               0c                              |     .          |              len: 12 0x45-0x45.7 (1)
0x40|                  63 61 6c 6c 20 4d 74 2e 63 61|      call Mt.ca|              utf8bytes: "call Mt.call" 0x46-0x51.7 (12)
0x50|6c 6c                                          |ll              |
    |                                               |                |            expr{}: 0x52-0x53.7 (2)
0x50|      00                                       |  .             |              tag: "funcidx" (0x0) 0x52-0x52.7 (1)
0x50|         03                                    |   .            |              x: 3 0x53-0x53.7 (1)
    |                                               |                |          [2]{}: export 0x54-0x5a.7 (7)
    |                                               |                |            name{}: 0x54-0x58.7 (5)
0x50|            04                                 |    .           |              len: 4 0x54-0x54.7 (1)
0x50|               63 61 6c 6c                     |     call       |              utf8bytes: "call" 0x55-0x58.7 (4)
    |                                               |                |            expr{}: 0x59-0x5a.7 (2)
0x50|                           00                  |         .      |              tag: "funcidx" (0x0) 0x59-0x59.7 (1)
0x50|                              04               |          .     |              x: 4 0x5a-0x5a.7 (1)
    |                                               |                |    [5]{}: section 0x5b-0x67.7 (13)
0x50|                                 09            |           .    |      id: "element section" (9) 0x5b-0x5b.7 (1)
0x50|                                    0b         |            .   |      size: 11 0x5c-0x5c.7 (1)
    |                                               |                |      element{}: 0x5d-0x67.7 (11)
0x50|                                       01      |             .  |        n: 1 0x5d-0x5d.7 (1)
    |                                               |                |        items[0:1]: 0x5e-0x67.7 (10)
    |                                               |                |          [0]{}: elem 0x5e-0x67.7 (10)
0x50|                                          00   |              . |            tag: 0 0x5e-0x5e.7 (1)
    |                                               |                |            instructions[0:2]: 0x5f-0x61.7 (3)
    |                                               |                |              [0]{}: instr 0x5f-0x60.7 (2)
0x50|                                             41|               A|                i32.const: 0x41 (valid) 0x5f-0x5f.7 (1)
0x60|00                                             |.               |                n: 0 0x60-0x60.7 (1)
    |                                               |                |              [1]{}: instr 0x61-0x61.7 (1)
0x60|   0b                                          | .              |                end: 0xb (valid) 0x61-0x61.7 (1)
0x60|      05                                       |  .             |            n: 5 0x62-0x62.7 (1)
    |                                               |                |            items[0:5]: 0x63-0x67.7 (5)
0x60|         02                                    |   .            |              [0]: 2 y 0x63-0x63.7 (1)
0x60|            02                                 |    .           |              [1]: 2 y 0x64-0x64.7 (1)
0x60|               02                              |     .          |              [2]: 2 y 0x65-0x65.7 (1)
0x60|                  01                           |      .         |              [3]: 1 y 0x66-0x66.7 (1)
0x60|                     00                        |       .        |              [4]: 0 y 0x67-0x67.7 (1)
    |                                               |                |    [6]{}: section 0x68-0x7e.7 (23)
0x60|                        0a                     |        .       |      id: "code section" (10) 0x68-0x68.7 (1)
0x60|                           15                  |         .      |      size: 21 0x69-0x69.7 (1)
    |                                               |                |      content{}: 0x6a-0x7e.7 (21)
0x60|                              03               |          .     |        n: 3 0x6a-0x6a.7 (1)
    |                                               |                |        items[0:3]: 0x6b-0x7e.7 (20)
    |                                               |                |          [0]{}: code 0x6b-0x6f.7 (5)
0x60|                                 04            |           .    |            size: 4 0x6b-0x6b.7 (1)
    |                                               |                |            code{}: 0x6c-0x6f.7 (4)
    |                                               |                |              locals{}: 0x6c-0x6c.7 (1)
0x60|                                    00         |            .   |                n: 0 0x6c-0x6c.7 (1)
    |                                               |                |                items[0:0]: 0x6d-NA (0)
    |                                               |                |              expr{}: 0x6d-0x6f.7 (3)
    |                                               |                |                instructions[0:2]: 0x6d-0x6f.7 (3)
    |                                               |                |                  [0]{}: instr 0x6d-0x6e.7 (2)
0x60|                                       41      |             A  |                    i32.const: 0x41 (valid) 0x6d-0x6d.7 (1)
0x60|                                          05   |              . |                    n: 5 0x6e-0x6e.7 (1)
    |                                               |                |                  [1]{}: instr 0x6f-0x6f.7 (1)
0x60|                                             0b|               .|                    end: 0xb (valid) 0x6f-0x6f.7 (1)
    |                                               |                |          [1]{}: code 0x70-0x76.7 (7)
0x70|06                                             |.               |            size: 6 0x70-0x70.7 (1)
    |                                               |                |            code{}: 0x71-0x76.7 (6)
    |                                               |                |              locals{}: 0x71-0x71.7 (1)
0x70|   00                                          | .              |                n: 0 0x71-0x71.7 (1)
    |                                               |                |                items[0:0]: 0x72-NA (0)
    |                                               |                |              expr{}: 0x72-0x76.7 (5)
    |                                               |                |                instructions[0:3]: 0x72-0x76.7 (5)
    |                                               |                |                  [0]{}: instr 0x72-0x73.7 (2)
0x70|      20                                       |                |                    local.get: 0x20 (valid) 0x72-0x72.7 (1)
0x70|         00                                    |   .            |                    x: 0 0x73-0x73.7 (1)
    |                                               |                |                  [1]{}: instr 0x74-0x75.7 (2)
0x70|            10                                 |    .           |                    call: 0x10 (valid) 0x74-0x74.7 (1)
0x70|               00                              |     .          |                    x: 0 0x75-0x75.7 (1)
    |                                               |                |                  [2]{}: instr 0x76-0x76.7 (1)
0x70|                  0b                           |      .         |                    end: 0xb (valid) 0x76-0x76.7 (1)
    |                                               |                |          [2]{}: code 0x77-0x7e.7 (8)
0x70|                     07                        |       .        |            size: 7 0x77-0x77.7 (1)
    |                                               |                |            code{}: 0x78-0x7e.7 (7)
    |                                               |                |              locals{}: 0x78-0x78.7 (1)
0x70|                        00                     |        .       |                n: 0 0x78-0x78.7 (1)
    |                                               |                |                items[0:0]: 0x79-NA (0)
    |                                               |                |              expr{}: 0x79-0x7e.7 (6)
    |                                               |                |                instructions[0:3]: 0x79-0x7e.7 (6)
    |                                               |                |                  [0]{}: instr 0x79-0x7a.7 (2)
0x70|                           20                  |                |                    local.get: 0x20 (valid) 0x79-0x79.7 (1)
0x70|                              00               |          .     |                    x: 0 0x7a-0x7a.7 (1)
    |                                               |                |                  [1]{}: instr 0x7b-0x7d.7 (3)
0x70|                                 11            |           .    |                    call: 0x11 (valid) 0x7b-0x7b.7 (1)
0x70|                                    01         |            .   |                    y: 1 0x7c-0x7c.7 (1)
0x70|                                       00      |             .  |                    x: 0 0x7d-0x7d.7 (1)
    |                                               |                |                  [2]{}: instr 0x7e-0x7e.7 (1)
0x70|                                          0b|  |              .||                    end: 0xb (valid) 0x7e-0x7e.7 (1)
