$ fq -d wasm dv local_get-0.wasm
     |00 01 02 03 04 05 06 07 08 09 0a 0b 0c 0d 0e 0f|0123456789abcdef|.{}: local_get-0.wasm (wasm) 0x0-0x29c.7 (669)
0x000|00 61 73 6d                                    |.asm            |  magic: raw bits (valid) 0x0-0x3.7 (4)
0x000|            01 00 00 00                        |    ....        |  version: 1 0x4-0x7.7 (4)
     |                                               |                |  sections[0:4]: 0x8-0x29c.7 (661)
     |                                               |                |    [0]{}: section 0x8-0x3f.7 (56)
0x000|                        01                     |        .       |      id: "type section" (1) 0x8-0x8.7 (1)
0x000|                           36                  |         6      |      size: 54 0x9-0x9.7 (1)
     |                                               |                |      content{}: 0xa-0x3f.7 (54)
0x000|                              0a               |          .     |        n: 10 0xa-0xa.7 (1)
     |                                               |                |        items[0:10]: 0xb-0x3f.7 (53)
     |                                               |                |          [0]{}: functype 0xb-0xe.7 (4)
0x000|                                 60            |           `    |            tag: 0x60 (valid) 0xb-0xb.7 (1)
     |                                               |                |            rt1{}: 0xc-0xc.7 (1)
0x000|                                    00         |            .   |              n: 0 0xc-0xc.7 (1)
     |                                               |                |              items[0:0]: 0xd-NA (0)
     |                                               |                |            rt2{}: 0xd-0xe.7 (2)
0x000|                                       01      |             .  |              n: 1 0xd-0xd.7 (1)
     |                                               |                |              items[0:1]: 0xe-0xe.7 (1)
0x000|                                          7f   |              . |                [0]: "i32" (127) valtype 0xe-0xe.7 (1)
     |                                               |                |          [1]{}: functype 0xf-0x12.7 (4)
0x000|                                             60|               `|            tag: 0x60 (valid) 0xf-0xf.7 (1)
     |                                               |                |            rt1{}: 0x10-0x10.7 (1)
0x010|00                                             |.               |              n: 0 0x10-0x10.7 (1)
     |                                               |                |              items[0:0]: 0x11-NA (0)
     |                                               |                |            rt2{}: 0x11-0x12.7 (2)
0x010|   01                                          | .              |              n: 1 0x11-0x11.7 (1)
     |                                               |                |              items[0:1]: 0x12-0x12.7 (1)
0x010|      7e                                       |  ~             |                [0]: "i64" (126) valtype 0x12-0x12.7 (1)
     |                                               |                |          [2]{}: functype 0x13-0x16.7 (4)
0x010|         60                                    |   `            |            tag: 0x60 (valid) 0x13-0x13.7 (1)
     |                                               |                |            rt1{}: 0x14-0x14.7 (1)
0x010|            00                                 |    .           |              n: 0 0x14-0x14.7 (1)
     |                                               |                |              items[0:0]: 0x15-NA (0)
     |                                               |                |            rt2{}: 0x15-0x16.7 (2)
0x010|               01                              |     .          |              n: 1 0x15-0x15.7 (1)
     |                                               |                |              items[0:1]: 0x16-0x16.7 (1)
0x010|                  7d                           |      }         |                [0]: "f32" (125) valtype 0x16-0x16.7 (1)
     |                                               |                |          [3]{}: functype 0x17-0x1a.7 (4)
0x010|                     60                        |       `        |            tag: 0x60 (valid) 0x17-0x17.7 (1)
     |                                               |                |            rt1{}: 0x18-0x18.7 (1)
0x010|                        00                     |        .       |              n: 0 0x18-0x18.7 (1)
     |                                               |                |              items[0:0]: 0x19-NA (0)
     |                                               |                |            rt2{}: 0x19-0x1a.7 (2)
0x010|                           01                  |         .      |              n: 1 0x19-0x19.7 (1)
     |                                               |                |              items[0:1]: 0x1a-0x1a.7 (1)
0x010|                              7c               |          |     |                [0]: "f64" (124) valtype 0x1a-0x1a.7 (1)
     |                                               |                |          [4]{}: functype 0x1b-0x1f.7 (5)
0x010|                                 60            |           `    |            tag: 0x60 (valid) 0x1b-0x1b.7 (1)
     |                                               |                |            rt1{}: 0x1c-0x1d.7 (2)
0x010|                                    01         |            .   |              n: 1 0x1c-0x1c.7 (1)
     |                                               |                |              items[0:1]: 0x1d-0x1d.7 (1)
0x010|                                       7f      |             .  |                [0]: "i32" (127) valtype 0x1d-0x1d.7 (1)
     |                                               |                |            rt2{}: 0x1e-0x1f.7 (2)
0x010|                                          01   |              . |              n: 1 0x1e-0x1e.7 (1)
     |                                               |                |              items[0:1]: 0x1f-0x1f.7 (1)
0x010|                                             7f|               .|                [0]: "i32" (127) valtype 0x1f-0x1f.7 (1)
     |                                               |                |          [5]{}: functype 0x20-0x24.7 (5)
0x020|60                                             |`               |            tag: 0x60 (valid) 0x20-0x20.7 (1)
     |                                               |                |            rt1{}: 0x21-0x22.7 (2)
0x020|   01                                          | .              |              n: 1 0x21-0x21.7 (1)
     |                                               |                |              items[0:1]: 0x22-0x22.7 (1)
0x020|      7e                                       |  ~             |                [0]: "i64" (126) valtype 0x22-0x22.7 (1)
     |                                               |                |            rt2{}: 0x23-0x24.7 (2)
0x020|         01                                    |   .            |              n: 1 0x23-0x23.7 (1)
     |                                               |                |              items[0:1]: 0x24-0x24.7 (1)
0x020|            7e                                 |    ~           |                [0]: "i64" (126) valtype 0x24-0x24.7 (1)
     |                                               |                |          [6]{}: functype 0x25-0x29.7 (5)
0x020|               60                              |     `          |            tag: 0x60 (valid) 0x25-0x25.7 (1)
     |                                               |                |            rt1{}: 0x26-0x27.7 (2)
0x020|                  01                           |      .         |              n: 1 0x26-0x26.7 (1)
     |                                               |                |              items[0:1]: 0x27-0x27.7 (1)
0x020|                     7d                        |       }        |                [0]: "f32" (125) valtype 0x27-0x27.7 (1)
     |                                               |                |            rt2{}: 0x28-0x29.7 (2)
0x020|                        01                     |        .       |              n: 1 0x28-0x28.7 (1)
     |                                               |                |              items[0:1]: 0x29-0x29.7 (1)
0x020|                           7d                  |         }      |                [0]: "f32" (125) valtype 0x29-0x29.7 (1)
     |                                               |                |          [7]{}: functype 0x2a-0x2e.7 (5)
0x020|                              60               |          `     |            tag: 0x60 (valid) 0x2a-0x2a.7 (1)
     |                                               |                |            rt1{}: 0x2b-0x2c.7 (2)
0x020|                                 01            |           .    |              n: 1 0x2b-0x2b.7 (1)
     |                                               |                |              items[0:1]: 0x2c-0x2c.7 (1)
0x020|                                    7c         |            |   |                [0]: "f64" (124) valtype 0x2c-0x2c.7 (1)
     |                                               |                |            rt2{}: 0x2d-0x2e.7 (2)
0x020|                                       01      |             .  |              n: 1 0x2d-0x2d.7 (1)
     |                                               |                |              items[0:1]: 0x2e-0x2e.7 (1)
0x020|                                          7c   |              | |                [0]: "f64" (124) valtype 0x2e-0x2e.7 (1)
     |                                               |                |          [8]{}: functype 0x2f-0x36.7 (8)
0x020|                                             60|               `|            tag: 0x60 (valid) 0x2f-0x2f.7 (1)
     |                                               |                |            rt1{}: 0x30-0x35.7 (6)
0x030|05                                             |.               |              n: 5 0x30-0x30.7 (1)
     |                                               |                |              items[0:5]: 0x31-0x35.7 (5)
0x030|   7e                                          | ~              |                [0]: "i64" (126) valtype 0x31-0x31.7 (1)
0x030|      7d                                       |  }             |                [1]: "f32" (125) valtype 0x32-0x32.7 (1)
0x030|         7c                                    |   |            |                [2]: "f64" (124) valtype 0x33-0x33.7 (1)
0x030|            7f                                 |    .           |                [3]: "i32" (127) valtype 0x34-0x34.7 (1)
0x030|               7f                              |     .          |                [4]: "i32" (127) valtype 0x35-0x35.7 (1)
     |                                               |                |            rt2{}: 0x36-0x36.7 (1)
0x030|                  00                           |      .         |              n: 0 0x36-0x36.7 (1)
     |                                               |                |              items[0:0]: 0x37-NA (0)
     |                                               |                |          [9]{}: functype 0x37-0x3f.7 (9)
0x030|                     60                        |       `        |            tag: 0x60 (valid) 0x37-0x37.7 (1)
     |                                               |                |            rt1{}: 0x38-0x3d.7 (6)
0x030|                        05                     |        .       |              n: 5 0x38-0x38.7 (1)
     |                                               |                |              items[0:5]: 0x39-0x3d.7 (5)
0x030|                           7e                  |         ~      |                [0]: "i64" (126) valtype 0x39-0x39.7 (1)
0x030|                              7d               |          }     |                [1]: "f32" (125) valtype 0x3a-0x3a.7 (1)
0x030|                                 7c            |           |    |                [2]: "f64" (124) valtype 0x3b-0x3b.7 (1)
0x030|                                    7f         |            .   |                [3]: "i32" (127) valtype 0x3c-0x3c.7 (1)
0x030|                                       7f      |             .  |                [4]: "i32" (127) valtype 0x3d-0x3d.7 (1)
     |                                               |                |            rt2{}: 0x3e-0x3f.7 (2)
0x030|                                          01   |              . |              n: 1 0x3e-0x3e.7 (1)
     |                                               |                |              items[0:1]: 0x3f-0x3f.7 (1)
0x030|                                             7c|               ||                [0]: "f64" (124) valtype 0x3f-0x3f.7 (1)
     |                                               |                |    [1]{}: section 0x40-0x55.7 (22)
0x040|03                                             |.               |      id: "function section" (3) 0x40-0x40.7 (1)
0x040|   14                                          | .              |      size: 20 0x41-0x41.7 (1)
     |                                               |                |      content{}: 0x42-0x55.7 (20)
0x040|      13                                       |  .             |        n: 19 0x42-0x42.7 (1)
     |                                               |                |        items[0:19]: 0x43-0x55.7 (19)
0x040|         00                                    |   .            |          [0]: 0 x 0x43-0x43.7 (1)
0x040|            01                                 |    .           |          [1]: 1 x 0x44-0x44.7 (1)
0x040|               02                              |     .          |          [2]: 2 x 0x45-0x45.7 (1)
0x040|                  03                           |      .         |          [3]: 3 x 0x46-0x46.7 (1)
0x040|                     04                        |       .        |          [4]: 4 x 0x47-0x47.7 (1)
0x040|                        05                     |        .       |          [5]: 5 x 0x48-0x48.7 (1)
0x040|                           06                  |         .      |          [6]: 6 x 0x49-0x49.7 (1)
0x040|                              07               |          .     |          [7]: 7 x 0x4a-0x4a.7 (1)
0x040|                                 08            |           .    |          [8]: 8 x 0x4b-0x4b.7 (1)
0x040|                                    09         |            .   |          [9]: 9 x 0x4c-0x4c.7 (1)
0x040|                                       04      |             .  |          [10]: 4 x 0x4d-0x4d.7 (1)
0x040|                                          04   |              . |          [11]: 4 x 0x4e-0x4e.7 (1)
0x040|                                             04|               .|          [12]: 4 x 0x4f-0x4f.7 (1)
0x050|04                                             |.               |          [13]: 4 x 0x50-0x50.7 (1)
0x050|   04                                          | .              |          [14]: 4 x 0x51-0x51.7 (1)
0x050|      04                                       |  .             |          [15]: 4 x 0x52-0x52.7 (1)
0x050|         04                                    |   .            |          [16]: 4 x 0x53-0x53.7 (1)
0x050|            04                                 |    .           |          [17]: 4 x 0x54-0x54.7 (1)
0x050|               04                              |     .          |          [18]: 4 x 0x55-0x55.7 (1)
     |                                               |                |    [2]{}: section 0x56-0x18b.7 (310)
0x050|                  07                           |      .         |      id: "export section" (7) 0x56-0x56.7 (1)
0x050|                     b3 02                     |       ..       |      size: 307 0x57-0x58.7 (2)
     |                                               |                |      content{}: 0x59-0x18b.7 (307)
0x050|                           13                  |         .      |        n: 19 0x59-0x59.7 (1)
     |                                               |                |        items[0:19]: 0x5a-0x18b.7 (306)
     |                                               |                |          [0]{}: export 0x5a-0x6a.7 (17)
     |                                               |                |            name{}: 0x5a-0x68.7 (15)
0x050|                              0e               |          .     |              len: 14 0x5a-0x5a.7 (1)
0x050|                                 74 79 70 65 2d|           type-|              utf8bytes: "type-local-i32" 0x5b-0x68.7 (14)
0x060|6c 6f 63 61 6c 2d 69 33 32                     |local-i32       |
     |                                               |                |            expr{}: 0x69-0x6a.7 (2)
0x060|                           00                  |         .      |              tag: "funcidx" (0x0) 0x69-0x69.7 (1)
0x060|                              00               |          .     |              x: 0 0x6a-0x6a.7 (1)
     |                                               |                |          [1]{}: export 0x6b-0x7b.7 (17)
     |                                               |                |            name{}: 0x6b-0x79.7 (15)
0x060|                                 0e            |           .    |              len: 14 0x6b-0x6b.7 (1)
0x060|                                    74 79 70 65|            type|              utf8bytes: "type-local-i64" 0x6c-0x79.7 (14)
0x070|2d 6c 6f 63 61 6c 2d 69 36 34                  |-local-i64      |
     |                                               |                |            expr{}: 0x7a-0x7b.7 (2)
0x070|                              00               |          .     |              tag: "funcidx" (0x0) 0x7a-0x7a.7 (1)
0x070|                                 01            |           .    |              x: 1 0x7b-0x7b.7 (1)
     |                                               |                |          [2]{}: export 0x7c-0x8c.7 (17)
     |                                               |                |            name{}: 0x7c-0x8a.7 (15)
0x070|                                    0e         |            .   |              len: 14 0x7c-0x7c.7 (1)
0x070|                                       74 79 70|             typ|              utf8bytes: "type-local-f32" 0x7d-0x8a.7 (14)
0x080|65 2d 6c 6f 63 61 6c 2d 66 33 32               |e-local-f32     |
     |                                               |                |            expr{}: 0x8b-0x8c.7 (2)
0x080|                                 00            |           .    |              tag: "funcidx" (0x0) 0x8b-0x8b.7 (1)
0x080|                                    02         |            .   |              x: 2 0x8c-0x8c.7 (1)
     |                                               |                |          [3]{}: export 0x8d-0x9d.7 (17)
     |                                               |                |            name{}: 0x8d-0x9b.7 (15)
0x080|                                       0e      |             .  |              len: 14 0x8d-0x8d.7 (1)
0x080|                                          74 79|              ty|              utf8bytes: "type-local-f64" 0x8e-0x9b.7 (14)
0x090|70 65 2d 6c 6f 63 61 6c 2d 66 36 34            |pe-local-f64    |
     |                                               |                |            expr{}: 0x9c-0x9d.7 (2)
0x090|                                    00         |            .   |              tag: "funcidx" (0x0) 0x9c-0x9c.7 (1)
0x090|                                       03      |             .  |              x: 3 0x9d-0x9d.7 (1)
     |                                               |                |          [4]{}: export 0x9e-0xae.7 (17)
     |                                               |                |            name{}: 0x9e-0xac.7 (15)
0x090|                                          0e   |              . |              len: 14 0x9e-0x9e.7 (1)
0x090|                                             74|               t|              utf8bytes: "type-param-i32" 0x9f-0xac.7 (14)
0x0a0|79 70 65 2d 70 61 72 61 6d 2d 69 33 32         |ype-param-i32   |
     |                                               |                |            expr{}: 0xad-0xae.7 (2)
0x0a0|                                       00      |             .  |              tag: "funcidx" (0x0) 0xad-0xad.7 (1)
0x0a0|                                          04   |              . |              x: 4 0xae-0xae.7 (1)
     |                                               |                |          [5]{}: export 0xaf-0xbf.7 (17)
     |                                               |                |            name{}: 0xaf-0xbd.7 (15)
0x0a0|                                             0e|               .|              len: 14 0xaf-0xaf.7 (1)
0x0b0|74 79 70 65 2d 70 61 72 61 6d 2d 69 36 34      |type-param-i64  |              utf8bytes: "type-param-i64" 0xb0-0xbd.7 (14)
     |                                               |                |            expr{}: 0xbe-0xbf.7 (2)
0x0b0|                                          00   |              . |              tag: "funcidx" (0x0) 0xbe-0xbe.7 (1)
0x0b0|                                             05|               .|              x: 5 0xbf-0xbf.7 (1)
     |                                               |                |          [6]{}: export 0xc0-0xd0.7 (17)
     |                                               |                |            name{}: 0xc0-0xce.7 (15)
0x0c0|0e                                             |.               |              len: 14 0xc0-0xc0.7 (1)
0x0c0|   74 79 70 65 2d 70 61 72 61 6d 2d 66 33 32   | type-param-f32 |              utf8bytes: "type-param-f32" 0xc1-0xce.7 (14)
     |                                               |                |            expr{}: 0xcf-0xd0.7 (2)
0x0c0|                                             00|               .|              tag: "funcidx" (0x0) 0xcf-0xcf.7 (1)
0x0d0|06                                             |.               |              x: 6 0xd0-0xd0.7 (1)
     |                                               |                |          [7]{}: export 0xd1-0xe1.7 (17)
     |                                               |                |            name{}: 0xd1-0xdf.7 (15)
0x0d0|   0e                                          | .              |              len: 14 0xd1-0xd1.7 (1)
0x0d0|      74 79 70 65 2d 70 61 72 61 6d 2d 66 36 34|  type-param-f64|              utf8bytes: "type-param-f64" 0xd2-0xdf.7 (14)
     |                                               |                |            expr{}: 0xe0-0xe1.7 (2)
0x0e0|00                                             |.               |              tag: "funcidx" (0x0) 0xe0-0xe0.7 (1)
0x0e0|   07                                          | .              |              x: 7 0xe1-0xe1.7 (1)
     |                                               |                |          [8]{}: export 0xe2-0xee.7 (13)
     |                                               |                |            name{}: 0xe2-0xec.7 (11)
0x0e0|      0a                                       |  .             |              len: 10 0xe2-0xe2.7 (1)
0x0e0|         74 79 70 65 2d 6d 69 78 65 64         |   type-mixed   |              utf8bytes: "type-mixed" 0xe3-0xec.7 (10)
     |                                               |                |            expr{}: 0xed-0xee.7 (2)
0x0e0|                                       00      |             .  |              tag: "funcidx" (0x0) 0xed-0xed.7 (1)
0x0e0|                                          08   |              . |              x: 8 0xee-0xee.7 (1)
     |                                               |                |          [9]{}: export 0xef-0xf5.7 (7)
     |                                               |                |            name{}: 0xef-0xf3.7 (5)
0x0e0|                                             04|               .|              len: 4 0xef-0xef.7 (1)
0x0f0|72 65 61 64                                    |read            |              utf8bytes: "read" 0xf0-0xf3.7 (4)
     |                                               |                |            expr{}: 0xf4-0xf5.7 (2)
0x0f0|            00                                 |    .           |              tag: "funcidx" (0x0) 0xf4-0xf4.7 (1)
0x0f0|               09                              |     .          |              x: 9 0xf5-0xf5.7 (1)
     |                                               |                |          [10]{}: export 0xf6-0x106.7 (17)
     |                                               |                |            name{}: 0xf6-0x104.7 (15)
0x0f0|                  0e                           |      .         |              len: 14 0xf6-0xf6.7 (1)
0x0f0|                     61 73 2d 62 6c 6f 63 6b 2d|       as-block-|              utf8bytes: "as-block-value" 0xf7-0x104.7 (14)
0x100|76 61 6c 75 65                                 |value           |
     |                                               |                |            expr{}: 0x105-0x106.7 (2)
0x100|               00                              |     .          |              tag: "funcidx" (0x0) 0x105-0x105.7 (1)
0x100|                  0a                           |      .         |              x: 10 0x106-0x106.7 (1)
     |                                               |                |          [11]{}: export 0x107-0x116.7 (16)
     |                                               |                |            name{}: 0x107-0x114.7 (14)
0x100|                     0d                        |       .        |              len: 13 0x107-0x107.7 (1)
0x100|                        61 73 2d 6c 6f 6f 70 2d|        as-loop-|              utf8bytes: "as-loop-value" 0x108-0x114.7 (13)
0x110|76 61 6c 75 65                                 |value           |
     |                                               |                |            expr{}: 0x115-0x116.7 (2)
0x110|               00                              |     .          |              tag: "funcidx" (0x0) 0x115-0x115.7 (1)
0x110|                  0b                           |      .         |              x: 11 0x116-0x116.7 (1)
     |                                               |                |          [12]{}: export 0x117-0x124.7 (14)
     |                                               |                |            name{}: 0x117-0x122.7 (12)
0x110|                     0b                        |       .        |              len: 11 0x117-0x117.7 (1)
0x110|                        61 73 2d 62 72 2d 76 61|        as-br-va|              utf8bytes: "as-br-value" 0x118-0x122.7 (11)
0x120|6c 75 65                                       |lue             |
     |                                               |                |            expr{}: 0x123-0x124.7 (2)
0x120|         00                                    |   .            |              tag: "funcidx" (0x0) 0x123-0x123.7 (1)
0x120|            0c                                 |    .           |              x: 12 0x124-0x124.7 (1)
     |                                               |                |          [13]{}: export 0x125-0x135.7 (17)
     |                                               |                |            name{}: 0x125-0x133.7 (15)
0x120|               0e                              |     .          |              len: 14 0x125-0x125.7 (1)
0x120|                  61 73 2d 62 72 5f 69 66 2d 76|      as-br_if-v|              utf8bytes: "as-br_if-value" 0x126-0x133.7 (14)
0x130|61 6c 75 65                                    |alue            |
     |                                               |                |            expr{}: 0x134-0x135.7 (2)
0x130|            00                                 |    .           |              tag: "funcidx" (0x0) 0x134-0x134.7 (1)
0x130|               0d                              |     .          |              x: 13 0x135-0x135.7 (1)
     |                                               |                |          [14]{}: export 0x136-0x14b.7 (22)
     |                                               |                |            name{}: 0x136-0x149.7 (20)
0x130|                  13                           |      .         |              len: 19 0x136-0x136.7 (1)
0x130|                     61 73 2d 62 72 5f 69 66 2d|       as-br_if-|              utf8bytes: "as-br_if-value-cond" 0x137-0x149.7 (19)
0x140|76 61 6c 75 65 2d 63 6f 6e 64                  |value-cond      |
     |                                               |                |            expr{}: 0x14a-0x14b.7 (2)
0x140|                              00               |          .     |              tag: "funcidx" (0x0) 0x14a-0x14a.7 (1)
0x140|                                 0e            |           .    |              x: 14 0x14b-0x14b.7 (1)
     |                                               |                |          [15]{}: export 0x14c-0x15f.7 (20)
     |                                               |                |            name{}: 0x14c-0x15d.7 (18)
0x140|                                    11         |            .   |              len: 17 0x14c-0x14c.7 (1)
0x140|                                       61 73 2d|             as-|              utf8bytes: "as-br_table-value" 0x14d-0x15d.7 (17)
0x150|62 72 5f 74 61 62 6c 65 2d 76 61 6c 75 65      |br_table-value  |
     |                                               |                |            expr{}: 0x15e-0x15f.7 (2)
0x150|                                          00   |              . |              tag: "funcidx" (0x0) 0x15e-0x15e.7 (1)
0x150|                                             0f|               .|              x: 15 0x15f-0x15f.7 (1)
     |                                               |                |          [16]{}: export 0x160-0x171.7 (18)
     |                                               |                |            name{}: 0x160-0x16f.7 (16)
0x160|0f                                             |.               |              len: 15 0x160-0x160.7 (1)
0x160|   61 73 2d 72 65 74 75 72 6e 2d 76 61 6c 75 65| as-return-value|              utf8bytes: "as-return-value" 0x161-0x16f.7 (15)
     |                                               |                |            expr{}: 0x170-0x171.7 (2)
0x170|00                                             |.               |              tag: "funcidx" (0x0) 0x170-0x170.7 (1)
0x170|   10                                          | .              |              x: 16 0x171-0x171.7 (1)
     |                                               |                |          [17]{}: export 0x172-0x17e.7 (13)
     |                                               |                |            name{}: 0x172-0x17c.7 (11)
0x170|      0a                                       |  .             |              len: 10 0x172-0x172.7 (1)
0x170|         61 73 2d 69 66 2d 74 68 65 6e         |   as-if-then   |              utf8bytes: "as-if-then" 0x173-0x17c.7 (10)
     |                                               |                |            expr{}: 0x17d-0x17e.7 (2)
0x170|                                       00      |             .  |              tag: "funcidx" (0x0) 0x17d-0x17d.7 (1)
0x170|                                          11   |              . |              x: 17 0x17e-0x17e.7 (1)
     |                                               |                |          [18]{}: export 0x17f-0x18b.7 (13)
     |                                               |                |            name{}: 0x17f-0x189.7 (11)
0x170|                                             0a|               .|              len: 10 0x17f-0x17f.7 (1)
0x180|61 73 2d 69 66 2d 65 6c 73 65                  |as-if-else      |              utf8bytes: "as-if-else" 0x180-0x189.7 (10)
     |                                               |                |            expr{}: 0x18a-0x18b.7 (2)
0x180|                              00               |          .     |              tag: "funcidx" (0x0) 0x18a-0x18a.7 (1)
0x180|                                 12            |           .    |              x: 18 0x18b-0x18b.7 (1)
     |                                               |                |    [3]{}: section 0x18c-0x29c.7 (273)
0x180|                                    0a         |            .   |      id: "code section" (10) 0x18c-0x18c.7 (1)
0x180|                                       8e 02   |             .. |      size: 270 0x18d-0x18e.7 (2)
     |                                               |                |      content{}: 0x18f-0x29c.7 (270)
0x180|                                             13|               .|        n: 19 0x18f-0x18f.7 (1)
     |                                               |                |        items[0:19]: 0x190-0x29c.7 (269)
     |                                               |                |          [0]{}: code 0x190-0x196.7 (7)
0x190|06                                             |.               |            size: 6 0x190-0x190.7 (1)
     |                                               |                |            code{}: 0x191-0x196.7 (6)
     |                                               |                |              locals{}: 0x191-0x193.7 (3)
0x190|   01                                          | .              |                n: 1 0x191-0x191.7 (1)
     |                                               |                |                items[0:1]: 0x192-0x193.7 (2)
     |                                               |                |                  [0]{}: locals 0x192-0x193.7 (2)
0x190|      01                                       |  .             |                    n: 1 0x192-0x192.7 (1)
0x190|         7f                                    |   .            |                    valtype: "i32" (127) 0x193-0x193.7 (1)
     |                                               |                |              expr{}: 0x194-0x196.7 (3)
     |                                               |                |                instructions[0:2]: 0x194-0x196.7 (3)
     |                                               |                |                  [0]{}: instr 0x194-0x195.7 (2)
0x190|            20                                 |                |                    local.get: 0x20 (valid) 0x194-0x194.7 (1)
0x190|               00                              |     .          |                    x: 0 0x195-0x195.7 (1)
     |                                               |                |                  [1]{}: instr 0x196-0x196.7 (1)
0x190|                  0b                           |      .         |                    end: 0xb (valid) 0x196-0x196.7 (1)
     |                                               |                |          [1]{}: code 0x197-0x19d.7 (7)
0x190|                     06                        |       .        |            size: 6 0x197-0x197.7 (1)
     |                                               |                |            code{}: 0x198-0x19d.7 (6)
     |                                               |                |              locals{}: 0x198-0x19a.7 (3)
0x190|                        01                     |        .       |                n: 1 0x198-0x198.7 (1)
     |                                               |                |                items[0:1]: 0x199-0x19a.7 (2)
     |                                               |                |                  [0]{}: locals 0x199-0x19a.7 (2)
0x190|                           01                  |         .      |                    n: 1 0x199-0x199.7 (1)
0x190|                              7e               |          ~     |                    valtype: "i64" (126) 0x19a-0x19a.7 (1)
     |                                               |                |              expr{}: 0x19b-0x19d.7 (3)
     |                                               |                |                instructions[0:2]: 0x19b-0x19d.7 (3)
     |                                               |                |                  [0]{}: instr 0x19b-0x19c.7 (2)
0x190|                                 20            |                |                    local.get: 0x20 (valid) 0x19b-0x19b.7 (1)
0x190|                                    00         |            .   |                    x: 0 0x19c-0x19c.7 (1)
     |                                               |                |                  [1]{}: instr 0x19d-0x19d.7 (1)
0x190|                                       0b      |             .  |                    end: 0xb (valid) 0x19d-0x19d.7 (1)
     |                                               |                |          [2]{}: code 0x19e-0x1a4.7 (7)
0x190|                                          06   |              . |            size: 6 0x19e-0x19e.7 (1)
     |                                               |                |            code{}: 0x19f-0x1a4.7 (6)
     |                                               |                |              locals{}: 0x19f-0x1a1.7 (3)
0x190|                                             01|               .|                n: 1 0x19f-0x19f.7 (1)
     |                                               |                |                items[0:1]: 0x1a0-0x1a1.7 (2)
     |                                               |                |                  [0]{}: locals 0x1a0-0x1a1.7 (2)
0x1a0|01                                             |.               |                    n: 1 0x1a0-0x1a0.7 (1)
0x1a0|   7d                                          | }              |                    valtype: "f32" (125) 0x1a1-0x1a1.7 (1)
     |                                               |                |              expr{}: 0x1a2-0x1a4.7 (3)
     |                                               |                |                instructions[0:2]: 0x1a2-0x1a4.7 (3)
     |                                               |                |                  [0]{}: instr 0x1a2-0x1a3.7 (2)
0x1a0|      20                                       |                |                    local.get: 0x20 (valid) 0x1a2-0x1a2.7 (1)
0x1a0|         00                                    |   .            |                    x: 0 0x1a3-0x1a3.7 (1)
     |                                               |                |                  [1]{}: instr 0x1a4-0x1a4.7 (1)
0x1a0|            0b                                 |    .           |                    end: 0xb (valid) 0x1a4-0x1a4.7 (1)
     |                                               |                |          [3]{}: code 0x1a5-0x1ab.7 (7)
0x1a0|               06                              |     .          |            size: 6 0x1a5-0x1a5.7 (1)
     |                                               |                |            code{}: 0x1a6-0x1ab.7 (6)
     |                                               |                |              locals{}: 0x1a6-0x1a8.7 (3)
0x1a0|                  01                           |      .         |                n: 1 0x1a6-0x1a6.7 (1)
     |                                               |                |                items[0:1]: 0x1a7-0x1a8.7 (2)
     |                                               |                |                  [0]{}: locals 0x1a7-0x1a8.7 (2)
0x1a0|                     01                        |       .        |                    n: 1 0x1a7-0x1a7.7 (1)
0x1a0|                        7c                     |        |       |                    valtype: "f64" (124) 0x1a8-0x1a8.7 (1)
     |                                               |                |              expr{}: 0x1a9-0x1ab.7 (3)
     |                                               |                |                instructions[0:2]: 0x1a9-0x1ab.7 (3)
     |                                               |                |                  [0]{}: instr 0x1a9-0x1aa.7 (2)
0x1a0|                           20                  |                |                    local.get: 0x20 (valid) 0x1a9-0x1a9.7 (1)
0x1a0|                              00               |          .     |                    x: 0 0x1aa-0x1aa.7 (1)
     |                                               |                |                  [1]{}: instr 0x1ab-0x1ab.7 (1)
0x1a0|                                 0b            |           .    |                    end: 0xb (valid) 0x1ab-0x1ab.7 (1)
     |                                               |                |          [4]{}: code 0x1ac-0x1b0.7 (5)
0x1a0|                                    04         |            .   |            size: 4 0x1ac-0x1ac.7 (1)
     |                                               |                |            code{}: 0x1ad-0x1b0.7 (4)
     |                                               |                |              locals{}: 0x1ad-0x1ad.7 (1)
0x1a0|                                       00      |             .  |                n: 0 0x1ad-0x1ad.7 (1)
     |                                               |                |                items[0:0]: 0x1ae-NA (0)
     |                                               |                |              expr{}: 0x1ae-0x1b0.7 (3)
     |                                               |                |                instructions[0:2]: 0x1ae-0x1b0.7 (3)
     |                                               |                |                  [0]{}: instr 0x1ae-0x1af.7 (2)
0x1a0|                                          20   |                |                    local.get: 0x20 (valid) 0x1ae-0x1ae.7 (1)
0x1a0|                                             00|               .|                    x: 0 0x1af-0x1af.7 (1)
     |                                               |                |                  [1]{}: instr 0x1b0-0x1b0.7 (1)
0x1b0|0b                                             |.               |                    end: 0xb (valid) 0x1b0-0x1b0.7 (1)
     |                                               |                |          [5]{}: code 0x1b1-0x1b5.7 (5)
0x1b0|   04                                          | .              |            size: 4 0x1b1-0x1b1.7 (1)
     |                                               |                |            code{}: 0x1b2-0x1b5.7 (4)
     |                                               |                |              locals{}: 0x1b2-0x1b2.7 (1)
0x1b0|      00                                       |  .             |                n: 0 0x1b2-0x1b2.7 (1)
     |                                               |                |                items[0:0]: 0x1b3-NA (0)
     |                                               |                |              expr{}: 0x1b3-0x1b5.7 (3)
     |                                               |                |                instructions[0:2]: 0x1b3-0x1b5.7 (3)
     |                                               |                |                  [0]{}: instr 0x1b3-0x1b4.7 (2)
0x1b0|         20                                    |                |                    local.get: 0x20 (valid) 0x1b3-0x1b3.7 (1)
0x1b0|            00                                 |    .           |                    x: 0 0x1b4-0x1b4.7 (1)
     |                                               |                |                  [1]{}: instr 0x1b5-0x1b5.7 (1)
0x1b0|               0b                              |     .          |                    end: 0xb (valid) 0x1b5-0x1b5.7 (1)
     |                                               |                |          [6]{}: code 0x1b6-0x1ba.7 (5)
0x1b0|                  04                           |      .         |            size: 4 0x1b6-0x1b6.7 (1)
     |                                               |                |            code{}: 0x1b7-0x1ba.7 (4)
     |                                               |                |              locals{}: 0x1b7-0x1b7.7 (1)
0x1b0|                     00                        |       .        |                n: 0 0x1b7-0x1b7.7 (1)
     |                                               |                |                items[0:0]: 0x1b8-NA (0)
     |                                               |                |              expr{}: 0x1b8-0x1ba.7 (3)
     |                                               |                |                instructions[0:2]: 0x1b8-0x1ba.7 (3)
     |                                               |                |                  [0]{}: instr 0x1b8-0x1b9.7 (2)
0x1b0|                        20                     |                |                    local.get: 0x20 (valid) 0x1b8-0x1b8.7 (1)
0x1b0|                           00                  |         .      |                    x: 0 0x1b9-0x1b9.7 (1)
     |                                               |                |                  [1]{}: instr 0x1ba-0x1ba.7 (1)
0x1b0|                              0b               |          .     |                    end: 0xb (valid) 0x1ba-0x1ba.7 (1)
     |                                               |                |          [7]{}: code 0x1bb-0x1bf.7 (5)
0x1b0|                                 04            |           .    |            size: 4 0x1bb-0x1bb.7 (1)
     |                                               |                |            code{}: 0x1bc-0x1bf.7 (4)
     |                                               |                |              locals{}: 0x1bc-0x1bc.7 (1)
0x1b0|                                    00         |            .   |                n: 0 0x1bc-0x1bc.7 (1)
     |                                               |                |                items[0:0]: 0x1bd-NA (0)
     |                                               |                |              expr{}: 0x1bd-0x1bf.7 (3)
     |                                               |                |                instructions[0:2]: 0x1bd-0x1bf.7 (3)
     |                                               |                |                  [0]{}: instr 0x1bd-0x1be.7 (2)
0x1b0|                                       20      |                |                    local.get: 0x20 (valid) 0x1bd-0x1bd.7 (1)
0x1b0|                                          00   |              . |                    x: 0 0x1be-0x1be.7 (1)
     |                                               |                |                  [1]{}: instr 0x1bf-0x1bf.7 (1)
0x1b0|                                             0b|               .|                    end: 0xb (valid) 0x1bf-0x1bf.7 (1)
     |                                               |                |          [8]{}: code 0x1c0-0x1ec.7 (45)
0x1c0|2c                                             |,               |            size: 44 0x1c0-0x1c0.7 (1)
     |                                               |                |            code{}: 0x1c1-0x1ec.7 (44)
     |                                               |                |              locals{}: 0x1c1-0x1c7.7 (7)
0x1c0|   03                                          | .              |                n: 3 0x1c1-0x1c1.7 (1)
     |                                               |                |                items[0:3]: 0x1c2-0x1c7.7 (6)
     |                                               |                |                  [0]{}: locals 0x1c2-0x1c3.7 (2)
0x1c0|      01                                       |  .             |                    n: 1 0x1c2-0x1c2.7 (1)
0x1c0|         7d                                    |   }            |                    valtype: "f32" (125) 0x1c3-0x1c3.7 (1)
     |                                               |                |                  [1]{}: locals 0x1c4-0x1c5.7 (2)
0x1c0|            02                                 |    .           |                    n: 2 0x1c4-0x1c4.7 (1)
0x1c0|               7e                              |     ~          |                    valtype: "i64" (126) 0x1c5-0x1c5.7 (1)
     |                                               |                |                  [2]{}: locals 0x1c6-0x1c7.7 (2)
0x1c0|                  01                           |      .         |                    n: 1 0x1c6-0x1c6.7 (1)
0x1c0|                     7c                        |       |        |                    valtype: "f64" (124) 0x1c7-0x1c7.7 (1)
     |                                               |                |              expr{}: 0x1c8-0x1ec.7 (37)
     |                                               |                |                instructions[0:28]: 0x1c8-0x1ec.7 (37)
     |                                               |                |                  [0]{}: instr 0x1c8-0x1c9.7 (2)
0x1c0|                        20                     |                |                    local.get: 0x20 (valid) 0x1c8-0x1c8.7 (1)
0x1c0|                           00                  |         .      |                    x: 0 0x1c9-0x1c9.7 (1)
     |                                               |                |                  [1]{}: instr 0x1ca-0x1ca.7 (1)
0x1c0|                              50               |          P     |                    i64.eqz: 0x50 (valid) 0x1ca-0x1ca.7 (1)
     |                                               |                |                  [2]{}: instr 0x1cb-0x1cb.7 (1)
0x1c0|                                 1a            |           .    |                    drop: 0x1a (valid) 0x1cb-0x1cb.7 (1)
     |                                               |                |                  [3]{}: instr 0x1cc-0x1cd.7 (2)
0x1c0|                                    20         |                |                    local.get: 0x20 (valid) 0x1cc-0x1cc.7 (1)
0x1c0|                                       01      |             .  |                    x: 1 0x1cd-0x1cd.7 (1)
     |                                               |                |                  [4]{}: instr 0x1ce-0x1ce.7 (1)
0x1c0|                                          8c   |              . |                    f32.neg: 0x8c (valid) 0x1ce-0x1ce.7 (1)
     |                                               |                |                  [5]{}: instr 0x1cf-0x1cf.7 (1)
0x1c0|                                             1a|               .|                    drop: 0x1a (valid) 0x1cf-0x1cf.7 (1)
     |                                               |                |                  [6]{}: instr 0x1d0-0x1d1.7 (2)
0x1d0|20                                             |                |                    local.get: 0x20 (valid) 0x1d0-0x1d0.7 (1)
0x1d0|   02                                          | .              |                    x: 2 0x1d1-0x1d1.7 (1)
     |                                               |                |                  [7]{}: instr 0x1d2-0x1d2.7 (1)
0x1d0|      9a                                       |  .             |                    f64.neg: 0x9a (valid) 0x1d2-0x1d2.7 (1)
     |                                               |                |                  [8]{}: instr 0x1d3-0x1d3.7 (1)
0x1d0|         1a                                    |   .            |                    drop: 0x1a (valid) 0x1d3-0x1d3.7 (1)
     |                                               |                |                  [9]{}: instr 0x1d4-0x1d5.7 (2)
0x1d0|            20                                 |                |                    local.get: 0x20 (valid) 0x1d4-0x1d4.7 (1)
0x1d0|               03                              |     .          |                    x: 3 0x1d5-0x1d5.7 (1)
     |                                               |                |                  [10]{}: instr 0x1d6-0x1d6.7 (1)
0x1d0|                  45                           |      E         |                    i32.eqz: 0x45 (valid) 0x1d6-0x1d6.7 (1)
     |                                               |                |                  [11]{}: instr 0x1d7-0x1d7.7 (1)
0x1d0|                     1a                        |       .        |                    drop: 0x1a (valid) 0x1d7-0x1d7.7 (1)
     |                                               |                |                  [12]{}: instr 0x1d8-0x1d9.7 (2)
0x1d0|                        20                     |                |                    local.get: 0x20 (valid) 0x1d8-0x1d8.7 (1)
0x1d0|                           04                  |         .      |                    x: 4 0x1d9-0x1d9.7 (1)
     |                                               |                |                  [13]{}: instr 0x1da-0x1da.7 (1)
0x1d0|                              45               |          E     |                    i32.eqz: 0x45 (valid) 0x1da-0x1da.7 (1)
     |                                               |                |                  [14]{}: instr 0x1db-0x1db.7 (1)
0x1d0|                                 1a            |           .    |                    drop: 0x1a (valid) 0x1db-0x1db.7 (1)
     |                                               |                |                  [15]{}: instr 0x1dc-0x1dd.7 (2)
0x1d0|                                    20         |                |                    local.get: 0x20 (valid) 0x1dc-0x1dc.7 (1)
0x1d0|                                       05      |             .  |                    x: 5 0x1dd-0x1dd.7 (1)
     |                                               |                |                  [16]{}: instr 0x1de-0x1de.7 (1)
0x1d0|                                          8c   |              . |                    f32.neg: 0x8c (valid) 0x1de-0x1de.7 (1)
     |                                               |                |                  [17]{}: instr 0x1df-0x1df.7 (1)
0x1d0|                                             1a|               .|                    drop: 0x1a (valid) 0x1df-0x1df.7 (1)
     |                                               |                |                  [18]{}: instr 0x1e0-0x1e1.7 (2)
0x1e0|20                                             |                |                    local.get: 0x20 (valid) 0x1e0-0x1e0.7 (1)
0x1e0|   06                                          | .              |                    x: 6 0x1e1-0x1e1.7 (1)
     |                                               |                |                  [19]{}: instr 0x1e2-0x1e2.7 (1)
0x1e0|      50                                       |  P             |                    i64.eqz: 0x50 (valid) 0x1e2-0x1e2.7 (1)
     |                                               |                |                  [20]{}: instr 0x1e3-0x1e3.7 (1)
0x1e0|         1a                                    |   .            |                    drop: 0x1a (valid) 0x1e3-0x1e3.7 (1)
     |                                               |                |                  [21]{}: instr 0x1e4-0x1e5.7 (2)
0x1e0|            20                                 |                |                    local.get: 0x20 (valid) 0x1e4-0x1e4.7 (1)
0x1e0|               07                              |     .          |                    x: 7 0x1e5-0x1e5.7 (1)
     |                                               |                |                  [22]{}: instr 0x1e6-0x1e6.7 (1)
0x1e0|                  50                           |      P         |                    i64.eqz: 0x50 (valid) 0x1e6-0x1e6.7 (1)
     |                                               |                |                  [23]{}: instr 0x1e7-0x1e7.7 (1)
0x1e0|                     1a                        |       .        |                    drop: 0x1a (valid) 0x1e7-0x1e7.7 (1)
     |                                               |                |                  [24]{}: instr 0x1e8-0x1e9.7 (2)
0x1e0|                        20                     |                |                    local.get: 0x20 (valid) 0x1e8-0x1e8.7 (1)
0x1e0|                           08                  |         .      |                    x: 8 0x1e9-0x1e9.7 (1)
     |                                               |                |                  [25]{}: instr 0x1ea-0x1ea.7 (1)
0x1e0|                              9a               |          .     |                    f64.neg: 0x9a (valid) 0x1ea-0x1ea.7 (1)
     |                                               |                |                  [26]{}: instr 0x1eb-0x1eb.7 (1)
0x1e0|                                 1a            |           .    |                    drop: 0x1a (valid) 0x1eb-0x1eb.7 (1)
     |                                               |                |                  [27]{}: instr 0x1ec-0x1ec.7 (1)
0x1e0|                                    0b         |            .   |                    end: 0xb (valid) 0x1ec-0x1ec.7 (1)
     |                                               |                |          [9]{}: code 0x1ed-0x22c.7 (64)
0x1e0|                                       3f      |             ?  |            size: 63 0x1ed-0x1ed.7 (1)
     |                                               |                |            code{}: 0x1ee-0x22c.7 (63)
     |                                               |                |              locals{}: 0x1ee-0x1f4.7 (7)
0x1e0|                                          03   |              . |                n: 3 0x1ee-0x1ee.7 (1)
     |                                               |                |                items[0:3]: 0x1ef-0x1f4.7 (6)
     |                                               |                |                  [0]{}: locals 0x1ef-0x1f0.7 (2)
0x1e0|                                             01|               .|                    n: 1 0x1ef-0x1ef.7 (1)
0x1f0|7d                                             |}               |                    valtype: "f32" (125) 0x1f0-0x1f0.7 (1)
     |                                               |                |                  [1]{}: locals 0x1f1-0x1f2.7 (2)
0x1f0|   02                                          | .              |                    n: 2 0x1f1-0x1f1.7 (1)
0x1f0|      7e                                       |  ~             |                    valtype: "i64" (126) 0x1f2-0x1f2.7 (1)
     |                                               |                |                  [2]{}: locals 0x1f3-0x1f4.7 (2)
0x1f0|         01                                    |   .            |                    n: 1 0x1f3-0x1f3.7 (1)
0x1f0|            7c                                 |    |           |                    valtype: "f64" (124) 0x1f4-0x1f4.7 (1)
     |                                               |                |              expr{}: 0x1f5-0x22c.7 (56)
     |                                               |                |                instructions[0:31]: 0x1f5-0x22c.7 (56)
     |                                               |                |                  [0]{}: instr 0x1f5-0x1f9.7 (5)
0x1f0|               43                              |     C          |                    f32.const: 0x43 (valid) 0x1f5-0x1f5.7 (1)
0x1f0|                  00 00 b0 40                  |      ...@      |                    z: 5.5 0x1f6-0x1f9.7 (4)
     |                                               |                |                  [1]{}: instr 0x1fa-0x1fb.7 (2)
0x1f0|                              21               |          !     |                    local.set: 0x21 (valid) 0x1fa-0x1fa.7 (1)
0x1f0|                                 05            |           .    |                    x: 5 0x1fb-0x1fb.7 (1)
     |                                               |                |                  [2]{}: instr 0x1fc-0x1fd.7 (2)
0x1f0|                                    42         |            B   |                    i64.const: 0x42 (valid) 0x1fc-0x1fc.7 (1)
0x1f0|                                       06      |             .  |                    n: 6 0x1fd-0x1fd.7 (1)
     |                                               |                |                  [3]{}: instr 0x1fe-0x1ff.7 (2)
0x1f0|                                          21   |              ! |                    local.set: 0x21 (valid) 0x1fe-0x1fe.7 (1)
0x1f0|                                             06|               .|                    x: 6 0x1ff-0x1ff.7 (1)
     |                                               |                |                  [4]{}: instr 0x200-0x208.7 (9)
0x200|44                                             |D               |                    f64.const: 0x44 (valid) 0x200-0x200.7 (1)
0x200|   00 00 00 00 00 00 20 40                     | ...... @       |                    z: 8 0x201-0x208.7 (8)
     |                                               |                |                  [5]{}: instr 0x209-0x20a.7 (2)
0x200|                           21                  |         !      |                    local.set: 0x21 (valid) 0x209-0x209.7 (1)
0x200|                              08               |          .     |                    x: 8 0x20a-0x20a.7 (1)
     |                                               |                |                  [6]{}: instr 0x20b-0x20c.7 (2)
0x200|                                 20            |                |                    local.get: 0x20 (valid) 0x20b-0x20b.7 (1)
0x200|                                    00         |            .   |                    x: 0 0x20c-0x20c.7 (1)
     |                                               |                |                  [7]{}: instr 0x20d-0x20d.7 (1)
0x200|                                       ba      |             .  |                    f64.convert_i64_u: 0xba (valid) 0x20d-0x20d.7 (1)
     |                                               |                |                  [8]{}: instr 0x20e-0x20f.7 (2)
0x200|                                          20   |                |                    local.get: 0x20 (valid) 0x20e-0x20e.7 (1)
0x200|                                             01|               .|                    x: 1 0x20f-0x20f.7 (1)
     |                                               |                |                  [9]{}: instr 0x210-0x210.7 (1)
0x210|bb                                             |.               |                    f64.promote_f32: 0xbb (valid) 0x210-0x210.7 (1)
     |                                               |                |                  [10]{}: instr 0x211-0x212.7 (2)
0x210|   20                                          |                |                    local.get: 0x20 (valid) 0x211-0x211.7 (1)
0x210|      02                                       |  .             |                    x: 2 0x212-0x212.7 (1)
     |                                               |                |                  [11]{}: instr 0x213-0x214.7 (2)
0x210|         20                                    |                |                    local.get: 0x20 (valid) 0x213-0x213.7 (1)
0x210|            03                                 |    .           |                    x: 3 0x214-0x214.7 (1)
     |                                               |                |                  [12]{}: instr 0x215-0x215.7 (1)
0x210|               b8                              |     .          |                    f64.convert_i32_u: 0xb8 (valid) 0x215-0x215.7 (1)
     |                                               |                |                  [13]{}: instr 0x216-0x217.7 (2)
0x210|                  20                           |                |                    local.get: 0x20 (valid) 0x216-0x216.7 (1)
0x210|                     04                        |       .        |                    x: 4 0x217-0x217.7 (1)
     |                                               |                |                  [14]{}: instr 0x218-0x218.7 (1)
0x210|                        b7                     |        .       |                    f64.convert_i32_s: 0xb7 (valid) 0x218-0x218.7 (1)
     |                                               |                |                  [15]{}: instr 0x219-0x21a.7 (2)
0x210|                           20                  |                |                    local.get: 0x20 (valid) 0x219-0x219.7 (1)
0x210|                              05               |          .     |                    x: 5 0x21a-0x21a.7 (1)
     |                                               |                |                  [16]{}: instr 0x21b-0x21b.7 (1)
0x210|                                 bb            |           .    |                    f64.promote_f32: 0xbb (valid) 0x21b-0x21b.7 (1)
     |                                               |                |                  [17]{}: instr 0x21c-0x21d.7 (2)
0x210|                                    20         |                |                    local.get: 0x20 (valid) 0x21c-0x21c.7 (1)
0x210|                                       06      |             .  |                    x: 6 0x21d-0x21d.7 (1)
     |                                               |                |                  [18]{}: instr 0x21e-0x21e.7 (1)
0x210|                                          ba   |              . |                    f64.convert_i64_u: 0xba (valid) 0x21e-0x21e.7 (1)
     |                                               |                |                  [19]{}: instr 0x21f-0x220.7 (2)
0x210|                                             20|                |                    local.get: 0x20 (valid) 0x21f-0x21f.7 (1)
0x220|07                                             |.               |                    x: 7 0x220-0x220.7 (1)
     |                                               |                |                  [20]{}: instr 0x221-0x221.7 (1)
0x220|   ba                                          | .              |                    f64.convert_i64_u: 0xba (valid) 0x221-0x221.7 (1)
     |                                               |                |                  [21]{}: instr 0x222-0x223.7 (2)
0x220|      20                                       |                |                    local.get: 0x20 (valid) 0x222-0x222.7 (1)
0x220|         08                                    |   .            |                    x: 8 0x223-0x223.7 (1)
     |                                               |                |                  [22]{}: instr 0x224-0x224.7 (1)
0x220|            a0                                 |    .           |                    f64.add: 0xa0 (valid) 0x224-0x224.7 (1)
     |                                               |                |                  [23]{}: instr 0x225-0x225.7 (1)
0x220|               a0                              |     .          |                    f64.add: 0xa0 (valid) 0x225-0x225.7 (1)
     |                                               |                |                  [24]{}: instr 0x226-0x226.7 (1)
0x220|                  a0                           |      .         |                    f64.add: 0xa0 (valid) 0x226-0x226.7 (1)
     |                                               |                |                  [25]{}: instr 0x227-0x227.7 (1)
0x220|                     a0                        |       .        |                    f64.add: 0xa0 (valid) 0x227-0x227.7 (1)
     |                                               |                |                  [26]{}: instr 0x228-0x228.7 (1)
0x220|                        a0                     |        .       |                    f64.add: 0xa0 (valid) 0x228-0x228.7 (1)
     |                                               |                |                  [27]{}: instr 0x229-0x229.7 (1)
0x220|                           a0                  |         .      |                    f64.add: 0xa0 (valid) 0x229-0x229.7 (1)
     |                                               |                |                  [28]{}: instr 0x22a-0x22a.7 (1)
0x220|                              a0               |          .     |                    f64.add: 0xa0 (valid) 0x22a-0x22a.7 (1)
     |                                               |                |                  [29]{}: instr 0x22b-0x22b.7 (1)
0x220|                                 a0            |           .    |                    f64.add: 0xa0 (valid) 0x22b-0x22b.7 (1)
     |                                               |                |                  [30]{}: instr 0x22c-0x22c.7 (1)
0x220|                                    0b         |            .   |                    end: 0xb (valid) 0x22c-0x22c.7 (1)
     |                                               |                |          [10]{}: code 0x22d-0x234.7 (8)
0x220|                                       07      |             .  |            size: 7 0x22d-0x22d.7 (1)
     |                                               |                |            code{}: 0x22e-0x234.7 (7)
     |                                               |                |              locals{}: 0x22e-0x22e.7 (1)
0x220|                                          00   |              . |                n: 0 0x22e-0x22e.7 (1)
     |                                               |                |                items[0:0]: 0x22f-NA (0)
     |                                               |                |              expr{}: 0x22f-0x234.7 (6)
     |                                               |                |                instructions[0:2]: 0x22f-0x234.7 (6)
     |                                               |                |                  [0]{}: instr 0x22f-0x233.7 (5)
0x220|                                             02|               .|                    block: 0x2 (valid) 0x22f-0x22f.7 (1)
0x230|7f                                             |.               |                    valtype: "i32" (127) 0x230-0x230.7 (1)
     |                                               |                |                    instructions[0:1]: 0x231-0x232.7 (2)
     |                                               |                |                      [0]{}: instr 0x231-0x232.7 (2)
0x230|   20                                          |                |                        local.get: 0x20 (valid) 0x231-0x231.7 (1)
0x230|      00                                       |  .             |                        x: 0 0x232-0x232.7 (1)
0x230|         0b                                    |   .            |                    end: 11 (valid) 0x233-0x233.7 (1)
     |                                               |                |                  [1]{}: instr 0x234-0x234.7 (1)
0x230|            0b                                 |    .           |                    end: 0xb (valid) 0x234-0x234.7 (1)
     |                                               |                |          [11]{}: code 0x235-0x23c.7 (8)
0x230|               07                              |     .          |            size: 7 0x235-0x235.7 (1)
     |                                               |                |            code{}: 0x236-0x23c.7 (7)
     |                                               |                |              locals{}: 0x236-0x236.7 (1)
0x230|                  00                           |      .         |                n: 0 0x236-0x236.7 (1)
     |                                               |                |                items[0:0]: 0x237-NA (0)
     |                                               |                |              expr{}: 0x237-0x23c.7 (6)
     |                                               |                |                instructions[0:2]: 0x237-0x23c.7 (6)
     |                                               |                |                  [0]{}: instr 0x237-0x23b.7 (5)
0x230|                     03                        |       .        |                    loop: 0x3 (valid) 0x237-0x237.7 (1)
0x230|                        7f                     |        .       |                    valtype: "i32" (127) 0x238-0x238.7 (1)
     |                                               |                |                    instructions[0:1]: 0x239-0x23a.7 (2)
     |                                               |                |                      [0]{}: instr 0x239-0x23a.7 (2)
0x230|                           20                  |                |                        local.get: 0x20 (valid) 0x239-0x239.7 (1)
0x230|                              00               |          .     |                        x: 0 0x23a-0x23a.7 (1)
0x230|                                 0b            |           .    |                    end: 11 (valid) 0x23b-0x23b.7 (1)
     |                                               |                |                  [1]{}: instr 0x23c-0x23c.7 (1)
0x230|                                    0b         |            .   |                    end: 0xb (valid) 0x23c-0x23c.7 (1)
     |                                               |                |          [12]{}: code 0x23d-0x246.7 (10)
0x230|                                       09      |             .  |            size: 9 0x23d-0x23d.7 (1)
     |                                               |                |            code{}: 0x23e-0x246.7 (9)
     |                                               |                |              locals{}: 0x23e-0x23e.7 (1)
0x230|                                          00   |              . |                n: 0 0x23e-0x23e.7 (1)
     |                                               |                |                items[0:0]: 0x23f-NA (0)
     |                                               |                |              expr{}: 0x23f-0x246.7 (8)
     |                                               |                |                instructions[0:2]: 0x23f-0x246.7 (8)
     |                                               |                |                  [0]{}: instr 0x23f-0x245.7 (7)
0x230|                                             02|               .|                    block: 0x2 (valid) 0x23f-0x23f.7 (1)
0x240|7f                                             |.               |                    valtype: "i32" (127) 0x240-0x240.7 (1)
     |                                               |                |                    instructions[0:2]: 0x241-0x244.7 (4)
     |                                               |                |                      [0]{}: instr 0x241-0x242.7 (2)
0x240|   20                                          |                |                        local.get: 0x20 (valid) 0x241-0x241.7 (1)
0x240|      00                                       |  .             |                        x: 0 0x242-0x242.7 (1)
     |                                               |                |                      [1]{}: instr 0x243-0x244.7 (2)
0x240|         0c                                    |   .            |                        br: 0xc (valid) 0x243-0x243.7 (1)
0x240|            00                                 |    .           |                        l: 0 0x244-0x244.7 (1)
0x240|               0b                              |     .          |                    end: 11 (valid) 0x245-0x245.7 (1)
     |                                               |                |                  [1]{}: instr 0x246-0x246.7 (1)
0x240|                  0b                           |      .         |                    end: 0xb (valid) 0x246-0x246.7 (1)
     |                                               |                |          [13]{}: code 0x247-0x252.7 (12)
0x240|                     0b                        |       .        |            size: 11 0x247-0x247.7 (1)
     |                                               |                |            code{}: 0x248-0x252.7 (11)
     |                                               |                |              locals{}: 0x248-0x248.7 (1)
0x240|                        00                     |        .       |                n: 0 0x248-0x248.7 (1)
     |                                               |                |                items[0:0]: 0x249-NA (0)
     |                                               |                |              expr{}: 0x249-0x252.7 (10)
     |                                               |                |                instructions[0:2]: 0x249-0x252.7 (10)
     |                                               |                |                  [0]{}: instr 0x249-0x251.7 (9)
0x240|                           02                  |         .      |                    block: 0x2 (valid) 0x249-0x249.7 (1)
0x240|                              7f               |          .     |                    valtype: "i32" (127) 0x24a-0x24a.7 (1)
     |                                               |                |                    instructions[0:3]: 0x24b-0x250.7 (6)
     |                                               |                |                      [0]{}: instr 0x24b-0x24c.7 (2)
0x240|                                 20            |                |                        local.get: 0x20 (valid) 0x24b-0x24b.7 (1)
0x240|                                    00         |            .   |                        x: 0 0x24c-0x24c.7 (1)
     |                                               |                |                      [1]{}: instr 0x24d-0x24e.7 (2)
0x240|                                       41      |             A  |                        i32.const: 0x41 (valid) 0x24d-0x24d.7 (1)
0x240|                                          01   |              . |                        n: 1 0x24e-0x24e.7 (1)
     |                                               |                |                      [2]{}: instr 0x24f-0x250.7 (2)
0x240|                                             0d|               .|                        br_if: 0xd (valid) 0x24f-0x24f.7 (1)
0x250|00                                             |.               |                        l: 0 0x250-0x250.7 (1)
0x250|   0b                                          | .              |                    end: 11 (valid) 0x251-0x251.7 (1)
     |                                               |                |                  [1]{}: instr 0x252-0x252.7 (1)
0x250|      0b                                       |  .             |                    end: 0xb (valid) 0x252-0x252.7 (1)
     |                                               |                |          [14]{}: code 0x253-0x25e.7 (12)
0x250|         0b                                    |   .            |            size: 11 0x253-0x253.7 (1)
     |                                               |                |            code{}: 0x254-0x25e.7 (11)
     |                                               |                |              locals{}: 0x254-0x254.7 (1)
0x250|            00                                 |    .           |                n: 0 0x254-0x254.7 (1)
     |                                               |                |                items[0:0]: 0x255-NA (0)
     |                                               |                |              expr{}: 0x255-0x25e.7 (10)
     |                                               |                |                instructions[0:2]: 0x255-0x25e.7 (10)
     |                                               |                |                  [0]{}: instr 0x255-0x25d.7 (9)
0x250|               02                              |     .          |                    block: 0x2 (valid) 0x255-0x255.7 (1)
0x250|                  7f                           |      .         |                    valtype: "i32" (127) 0x256-0x256.7 (1)
     |                                               |                |                    instructions[0:3]: 0x257-0x25c.7 (6)
     |                                               |                |                      [0]{}: instr 0x257-0x258.7 (2)
0x250|                     20                        |                |                        local.get: 0x20 (valid) 0x257-0x257.7 (1)
0x250|                        00                     |        .       |                        x: 0 0x258-0x258.7 (1)
     |                                               |                |                      [1]{}: instr 0x259-0x25a.7 (2)
0x250|                           20                  |                |                        local.get: 0x20 (valid) 0x259-0x259.7 (1)
0x250|                              00               |          .     |                        x: 0 0x25a-0x25a.7 (1)
     |                                               |                |                      [2]{}: instr 0x25b-0x25c.7 (2)
0x250|                                 0d            |           .    |                        br_if: 0xd (valid) 0x25b-0x25b.7 (1)
0x250|                                    00         |            .   |                        l: 0 0x25c-0x25c.7 (1)
0x250|                                       0b      |             .  |                    end: 11 (valid) 0x25d-0x25d.7 (1)
     |                                               |                |                  [1]{}: instr 0x25e-0x25e.7 (1)
0x250|                                          0b   |              . |                    end: 0xb (valid) 0x25e-0x25e.7 (1)
     |                                               |                |          [15]{}: code 0x25f-0x27c.7 (30)
0x250|                                             1d|               .|            size: 29 0x25f-0x25f.7 (1)
     |                                               |                |            code{}: 0x260-0x27c.7 (29)
     |                                               |                |              locals{}: 0x260-0x260.7 (1)
0x260|00                                             |.               |                n: 0 0x260-0x260.7 (1)
     |                                               |                |                items[0:0]: 0x261-NA (0)
     |                                               |                |              expr{}: 0x261-0x27c.7 (28)
     |                                               |                |                instructions[0:3]: 0x261-0x27c.7 (28)
     |                                               |                |                  [0]{}: instr 0x261-0x279.7 (25)
0x260|   02                                          | .              |                    block: 0x2 (valid) 0x261-0x261.7 (1)
0x260|      40                                       |  @             |                    empty: 64 0x262-0x262.7 (1)
     |                                               |                |                    instructions[0:3]: 0x263-0x278.7 (22)
     |                                               |                |                      [0]{}: instr 0x263-0x275.7 (19)
0x260|         02                                    |   .            |                        block: 0x2 (valid) 0x263-0x263.7 (1)
0x260|            40                                 |    @           |                        empty: 64 0x264-0x264.7 (1)
     |                                               |                |                        instructions[0:3]: 0x265-0x274.7 (16)
     |                                               |                |                          [0]{}: instr 0x265-0x271.7 (13)
0x260|               02                              |     .          |                            block: 0x2 (valid) 0x265-0x265.7 (1)
0x260|                  40                           |      @         |                            empty: 64 0x266-0x266.7 (1)
     |                                               |                |                            instructions[0:4]: 0x267-0x270.7 (10)
     |                                               |                |                              [0]{}: instr 0x267-0x268.7 (2)
0x260|                     20                        |                |                                local.get: 0x20 (valid) 0x267-0x267.7 (1)
0x260|                        00                     |        .       |                                x: 0 0x268-0x268.7 (1)
     |                                               |                |                              [1]{}: instr 0x269-0x26d.7 (5)
0x260|                           0e                  |         .      |                                br_table: 0xe (valid) 0x269-0x269.7 (1)
     |                                               |                |                                table{}: 0x26a-0x26c.7 (3)
0x260|                              02               |          .     |                                  n: 2 0x26a-0x26a.7 (1)
     |                                               |                |                                  items[0:2]: 0x26b-0x26c.7 (2)
0x260|                                 00            |           .    |                                    [0]: 0 l 0x26b-0x26b.7 (1)
0x260|                                    01         |            .   |                                    [1]: 1 l 0x26c-0x26c.7 (1)
0x260|                                       02      |             .  |                                l: 2 0x26d-0x26d.7 (1)
     |                                               |                |                              [2]{}: instr 0x26e-0x26f.7 (2)
0x260|                                          41   |              A |                                i32.const: 0x41 (valid) 0x26e-0x26e.7 (1)
0x260|                                             00|               .|                                n: 0 0x26f-0x26f.7 (1)
     |                                               |                |                              [3]{}: instr 0x270-0x270.7 (1)
0x270|0f                                             |.               |                                return: 0xf (valid) 0x270-0x270.7 (1)
0x270|   0b                                          | .              |                            end: 11 (valid) 0x271-0x271.7 (1)
     |                                               |                |                          [1]{}: instr 0x272-0x273.7 (2)
0x270|      41                                       |  A             |                            i32.const: 0x41 (valid) 0x272-0x272.7 (1)
0x270|         01                                    |   .            |                            n: 1 0x273-0x273.7 (1)
     |                                               |                |                          [2]{}: instr 0x274-0x274.7 (1)
0x270|            0f                                 |    .           |                            return: 0xf (valid) 0x274-0x274.7 (1)
0x270|               0b                              |     .          |                        end: 11 (valid) 0x275-0x275.7 (1)
     |                                               |                |                      [1]{}: instr 0x276-0x277.7 (2)
0x270|                  41                           |      A         |                        i32.const: 0x41 (valid) 0x276-0x276.7 (1)
0x270|                     02                        |       .        |                        n: 2 0x277-0x277.7 (1)
     |                                               |                |                      [2]{}: instr 0x278-0x278.7 (1)
0x270|                        0f                     |        .       |                        return: 0xf (valid) 0x278-0x278.7 (1)
0x270|                           0b                  |         .      |                    end: 11 (valid) 0x279-0x279.7 (1)
     |                                               |                |                  [1]{}: instr 0x27a-0x27b.7 (2)
0x270|                              41               |          A     |                    i32.const: 0x41 (valid) 0x27a-0x27a.7 (1)
0x270|                                 03            |           .    |                    n: 3 0x27b-0x27b.7 (1)
     |                                               |                |                  [2]{}: instr 0x27c-0x27c.7 (1)
0x270|                                    0b         |            .   |                    end: 0xb (valid) 0x27c-0x27c.7 (1)
     |                                               |                |          [16]{}: code 0x27d-0x282.7 (6)
0x270|                                       05      |             .  |            size: 5 0x27d-0x27d.7 (1)
     |                                               |                |            code{}: 0x27e-0x282.7 (5)
     |                                               |                |              locals{}: 0x27e-0x27e.7 (1)
0x270|                                          00   |              . |                n: 0 0x27e-0x27e.7 (1)
     |                                               |                |                items[0:0]: 0x27f-NA (0)
     |                                               |                |              expr{}: 0x27f-0x282.7 (4)
     |                                               |                |                instructions[0:3]: 0x27f-0x282.7 (4)
     |                                               |                |                  [0]{}: instr 0x27f-0x280.7 (2)
0x270|                                             20|                |                    local.get: 0x20 (valid) 0x27f-0x27f.7 (1)
0x280|00                                             |.               |                    x: 0 0x280-0x280.7 (1)
     |                                               |                |                  [1]{}: instr 0x281-0x281.7 (1)
0x280|   0f                                          | .              |                    return: 0xf (valid) 0x281-0x281.7 (1)
     |                                               |                |                  [2]{}: instr 0x282-0x282.7 (1)
0x280|      0b                                       |  .             |                    end: 0xb (valid) 0x282-0x282.7 (1)
     |                                               |                |          [17]{}: code 0x283-0x28f.7 (13)
0x280|         0c                                    |   .            |            size: 12 0x283-0x283.7 (1)
     |                                               |                |            code{}: 0x284-0x28f.7 (12)
     |                                               |                |              locals{}: 0x284-0x284.7 (1)
0x280|            00                                 |    .           |                n: 0 0x284-0x284.7 (1)
     |                                               |                |                items[0:0]: 0x285-NA (0)
     |                                               |                |              expr{}: 0x285-0x28f.7 (11)
     |                                               |                |                instructions[0:3]: 0x285-0x28f.7 (11)
     |                                               |                |                  [0]{}: instr 0x285-0x286.7 (2)
0x280|               20                              |                |                    local.get: 0x20 (valid) 0x285-0x285.7 (1)
0x280|                  00                           |      .         |                    x: 0 0x286-0x286.7 (1)
     |                                               |                |                  [1]{}: instr 0x287-0x28e.7 (8)
0x280|                     04                        |       .        |                    if: 0x4 (valid) 0x287-0x287.7 (1)
0x280|                        7f                     |        .       |                    valtype: "i32" (127) 0x288-0x288.7 (1)
     |                                               |                |                    in1[0:1]: 0x289-0x28a.7 (2)
     |                                               |                |                      [0]{}: instr 0x289-0x28a.7 (2)
0x280|                           20                  |                |                        local.get: 0x20 (valid) 0x289-0x289.7 (1)
0x280|                              00               |          .     |                        x: 0 0x28a-0x28a.7 (1)
0x280|                                 05            |           .    |                    else: 0x5 (valid) 0x28b-0x28b.7 (1)
     |                                               |                |                    in2[0:1]: 0x28c-0x28d.7 (2)
     |                                               |                |                      [0]{}: instr 0x28c-0x28d.7 (2)
0x280|                                    41         |            A   |                        i32.const: 0x41 (valid) 0x28c-0x28c.7 (1)
0x280|                                       00      |             .  |                        n: 0 0x28d-0x28d.7 (1)
0x280|                                          0b   |              . |                    end: 11 (valid) 0x28e-0x28e.7 (1)
     |                                               |                |                  [2]{}: instr 0x28f-0x28f.7 (1)
0x280|                                             0b|               .|                    end: 0xb (valid) 0x28f-0x28f.7 (1)
     |                                               |                |          [18]{}: code 0x290-0x29c.7 (13)
0x290|0c                                             |.               |            size: 12 0x290-0x290.7 (1)
     |                                               |                |            code{}: 0x291-0x29c.7 (12)
     |                                               |                |              locals{}: 0x291-0x291.7 (1)
0x290|   00                                          | .              |                n: 0 0x291-0x291.7 (1)
     |                                               |                |                items[0:0]: 0x292-NA (0)
     |                                               |                |              expr{}: 0x292-0x29c.7 (11)
     |                                               |                |                instructions[0:3]: 0x292-0x29c.7 (11)
     |                                               |                |                  [0]{}: instr 0x292-0x293.7 (2)
0x290|      20                                       |                |                    local.get: 0x20 (valid) 0x292-0x292.7 (1)
0x290|         00                                    |   .            |                    x: 0 0x293-0x293.7 (1)
     |                                               |                |                  [1]{}: instr 0x294-0x29b.7 (8)
0x290|            04                                 |    .           |                    if: 0x4 (valid) 0x294-0x294.7 (1)
0x290|               7f                              |     .          |                    valtype: "i32" (127) 0x295-0x295.7 (1)
     |                                               |                |                    in1[0:1]: 0x296-0x297.7 (2)
     |                                               |                |                      [0]{}: instr 0x296-0x297.7 (2)
0x290|                  41                           |      A         |                        i32.const: 0x41 (valid) 0x296-0x296.7 (1)
0x290|                     01                        |       .        |                        n: 1 0x297-0x297.7 (1)
0x290|                        05                     |        .       |                    else: 0x5 (valid) 0x298-0x298.7 (1)
     |                                               |                |                    in2[0:1]: 0x299-0x29a.7 (2)
     |                                               |                |                      [0]{}: instr 0x299-0x29a.7 (2)
0x290|                           20                  |                |                        local.get: 0x20 (valid) 0x299-0x299.7 (1)
0x290|                              00               |          .     |                        x: 0 0x29a-0x29a.7 (1)
0x290|                                 0b            |           .    |                    end: 11 (valid) 0x29b-0x29b.7 (1)
     |                                               |                |                  [2]{}: instr 0x29c-0x29c.7 (1)
0x290|                                    0b|        |            .|  |                    end: 0xb (valid) 0x29c-0x29c.7 (1)
