$ fq -d wasm dv memory-4.wasm
   |00 01 02 03 04 05 06 07 08 09 0a 0b 0c 0d 0e 0f|0123456789abcdef|.{}: memory-4.wasm (wasm) 0x0-0xe.7 (15)
0x0|00 61 73 6d                                    |.asm            |  magic: raw bits (valid) 0x0-0x3.7 (4)
0x0|            01 00 00 00                        |    ....        |  version: 1 0x4-0x7.7 (4)
   |                                               |                |  sections[0:1]: 0x8-0xe.7 (7)
   |                                               |                |    [0]{}: section 0x8-0xe.7 (7)
0x0|                        05                     |        .       |      id: "memory section" (5) 0x8-0x8.7 (1)
0x0|                           05                  |         .      |      size: 5 0x9-0x9.7 (1)
   |                                               |                |      content{}: 0xa-0xe.7 (5)
0x0|                              01               |          .     |        n: 1 0xa-0xa.7 (1)
   |                                               |                |        items[0:1]: 0xb-0xe.7 (4)
   |                                               |                |          [0]{}: mem 0xb-0xe.7 (4)
   |                                               |                |            limits{}: 0xb-0xe.7 (4)
0x0|                                 01            |           .    |              tag: 0x1 0xb-0xb.7 (1)
0x0|                                    01         |            .   |              min: 1 0xc-0xc.7 (1)
0x0|                                       80 02|  |             ..||              max: 256 0xd-0xe.7 (2)
