$ fq -d wasm dv memory_init-3.wasm
    |00 01 02 03 04 05 06 07 08 09 0a 0b 0c 0d 0e 0f|0123456789abcdef|.{}: memory_init-3.wasm (wasm) 0x0-0xbb.7 (188)
0x00|00 61 73 6d                                    |.asm            |  magic: raw bits (valid) 0x0-0x3.7 (4)
0x00|            01 00 00 00                        |    ....        |  version: 1 0x4-0x7.7 (4)
    |                                               |                |  sections[0:7]: 0x8-0xbb.7 (180)
    |                                               |                |    [0]{}: section 0x8-0x12.7 (11)
0x00|                        01                     |        .       |      id: "type section" (1) 0x8-0x8.7 (1)
0x00|                           09                  |         .      |      size: 9 0x9-0x9.7 (1)
    |                                               |                |      content{}: 0xa-0x12.7 (9)
0x00|                              02               |          .     |        n: 2 0xa-0xa.7 (1)
    |                                               |                |        items[0:2]: 0xb-0x12.7 (8)
    |                                               |                |          [0]{}: functype 0xb-0xd.7 (3)
0x00|                                 60            |           `    |            tag: 0x60 (valid) 0xb-0xb.7 (1)
    |                                               |                |            rt1{}: 0xc-0xc.7 (1)
0x00|                                    00         |            .   |              n: 0 0xc-0xc.7 (1)
    |                                               |                |              items[0:0]: 0xd-NA (0)
    |                                               |                |            rt2{}: 0xd-0xd.7 (1)
0x00|                                       00      |             .  |              n: 0 0xd-0xd.7 (1)
    |                                               |                |              items[0:0]: 0xe-NA (0)
    |                                               |                |          [1]{}: functype 0xe-0x12.7 (5)
0x00|                                          60   |              ` |            tag: 0x60 (valid) 0xe-0xe.7 (1)
    |                                               |                |            rt1{}: 0xf-0x10.7 (2)
0x00|                                             01|               .|              n: 1 0xf-0xf.7 (1)
    |                                               |                |              items[0:1]: 0x10-0x10.7 (1)
0x10|7f                                             |.               |                [0]: "i32" (127) valtype 0x10-0x10.7 (1)
    |                                               |                |            rt2{}: 0x11-0x12.7 (2)
0x10|   01                                          | .              |              n: 1 0x11-0x11.7 (1)
    |                                               |                |              items[0:1]: 0x12-0x12.7 (1)
0x10|      7f                                       |  .             |                [0]: "i32" (127) valtype 0x12-0x12.7 (1)
    |                                               |                |    [1]{}: section 0x13-0x17.7 (5)
0x10|         03                                    |   .            |      id: "function section" (3) 0x13-0x13.7 (1)
0x10|            03                                 |    .           |      size: 3 0x14-0x14.7 (1)
    |                                               |                |      content{}: 0x15-0x17.7 (3)
0x10|               02                              |     .          |        n: 2 0x15-0x15.7 (1)
    |                                               |                |        items[0:2]: 0x16-0x17.7 (2)
0x10|                  00                           |      .         |          [0]: 0 x 0x16-0x16.7 (1)
0x10|                     01                        |       .        |          [1]: 1 x 0x17-0x17.7 (1)
    |                                               |                |    [2]{}: section 0x18-0x1d.7 (6)
0x10|                        05                     |        .       |      id: "memory section" (5) 0x18-0x18.7 (1)
0x10|                           04                  |         .      |      size: 4 0x19-0x19.7 (1)
    |                                               |                |      content{}: 0x1a-0x1d.7 (4)
0x10|                              01               |          .     |        n: 1 0x1a-0x1a.7 (1)
    |                                               |                |        items[0:1]: 0x1b-0x1d.7 (3)
    |                                               |                |          [0]{}: mem 0x1b-0x1d.7 (3)
    |                                               |                |            limits{}: 0x1b-0x1d.7 (3)
0x10|                                 01            |           .    |              tag: 0x1 0x1b-0x1b.7 (1)
0x10|                                    01         |            .   |              min: 1 0x1c-0x1c.7 (1)
0x10|                                       01      |             .  |              max: 1 0x1d-0x1d.7 (1)
    |                                               |                |    [3]{}: section 0x1e-0x3b.7 (30)
0x10|                                          07   |              . |      id: "export section" (7) 0x1e-0x1e.7 (1)
0x10|                                             1c|               .|      size: 28 0x1f-0x1f.7 (1)
    |                                               |                |      content{}: 0x20-0x3b.7 (28)
0x20|03                                             |.               |        n: 3 0x20-0x20.7 (1)
    |                                               |                |        items[0:3]: 0x21-0x3b.7 (27)
    |                                               |                |          [0]{}: export 0x21-0x2a.7 (10)
    |                                               |                |            name{}: 0x21-0x28.7 (8)
0x20|   07                                          | .              |              len: 7 0x21-0x21.7 (1)
0x20|      6d 65 6d 6f 72 79 30                     |  memory0       |              utf8bytes: "memory0" 0x22-0x28.7 (7)
    |                                               |                |            expr{}: 0x29-0x2a.7 (2)
0x20|                           02                  |         .      |              tag: "memidx" (0x2) 0x29-0x29.7 (1)
0x20|                              00               |          .     |              x: 0 0x2a-0x2a.7 (1)
    |                                               |                |          [1]{}: export 0x2b-0x31.7 (7)
    |                                               |                |            name{}: 0x2b-0x2f.7 (5)
0x20|                                 04            |           .    |              len: 4 0x2b-0x2b.7 (1)
0x20|                                    74 65 73 74|            test|              utf8bytes: "test" 0x2c-0x2f.7 (4)
    |                                               |                |            expr{}: 0x30-0x31.7 (2)
0x30|00                                             |.               |              tag: "funcidx" (0x0) 0x30-0x30.7 (1)
0x30|   00                                          | .              |              x: 0 0x31-0x31.7 (1)
    |                                               |                |          [2]{}: export 0x32-0x3b.7 (10)
    |                                               |                |            name{}: 0x32-0x39.7 (8)
0x30|      07                                       |  .             |              len: 7 0x32-0x32.7 (1)
0x30|         6c 6f 61 64 38 5f 75                  |   load8_u      |              utf8bytes: "load8_u" 0x33-0x39.7 (7)
    |                                               |                |            expr{}: 0x3a-0x3b.7 (2)
0x30|                              00               |          .     |              tag: "funcidx" (0x0) 0x3a-0x3a.7 (1)
0x30|                                 01            |           .    |              x: 1 0x3b-0x3b.7 (1)
    |                                               |                |    [4]{}: section 0x3c-0x3e.7 (3)
0x30|                                    0c         |            .   |      id: "data count section" (12) 0x3c-0x3c.7 (1)
0x30|                                       01      |             .  |      size: 1 0x3d-0x3d.7 (1)
    |                                               |                |      content{}: 0x3e-0x3e.7 (1)
0x30|                                          04   |              . |        count: 4 0x3e-0x3e.7 (1)
    |                                               |                |    [5]{}: section 0x3f-0x98.7 (90)
0x30|                                             0a|               .|      id: "code section" (10) 0x3f-0x3f.7 (1)
0x40|58                                             |X               |      size: 88 0x40-0x40.7 (1)
    |                                               |                |      content{}: 0x41-0x98.7 (88)
0x40|   02                                          | .              |        n: 2 0x41-0x41.7 (1)
    |                                               |                |        items[0:2]: 0x42-0x98.7 (87)
    |                                               |                |          [0]{}: code 0x42-0x90.7 (79)
0x40|      4e                                       |  N             |            size: 78 0x42-0x42.7 (1)
    |                                               |                |            code{}: 0x43-0x90.7 (78)
    |                                               |                |              locals{}: 0x43-0x43.7 (1)
0x40|         00                                    |   .            |                n: 0 0x43-0x43.7 (1)
    |                                               |                |                items[0:0]: 0x44-NA (0)
    |                                               |                |              expr{}: 0x44-0x90.7 (77)
    |                                               |                |                instructions[0:31]: 0x44-0x90.7 (77)
    |                                               |                |                  [0]{}: instr 0x44-0x45.7 (2)
0x40|            41                                 |    A           |                    i32.const: 0x41 (valid) 0x44-0x44.7 (1)
0x40|               07                              |     .          |                    n: 7 0x45-0x45.7 (1)
    |                                               |                |                  [1]{}: instr 0x46-0x47.7 (2)
0x40|                  41                           |      A         |                    i32.const: 0x41 (valid) 0x46-0x46.7 (1)
0x40|                     00                        |       .        |                    n: 0 0x47-0x47.7 (1)
    |                                               |                |                  [2]{}: instr 0x48-0x49.7 (2)
0x40|                        41                     |        A       |                    i32.const: 0x41 (valid) 0x48-0x48.7 (1)
0x40|                           04                  |         .      |                    n: 4 0x49-0x49.7 (1)
    |                                               |                |                  [3]{}: instr 0x4a-0x4d.7 (4)
0x40|                              fc               |          .     |                    prefix: 0xfc (valid) 0x4a-0x4a.7 (1)
0x40|                                 08            |           .    |                    memory.init: 8 (valid) 0x4b-0x4b.7 (1)
0x40|                                    01         |            .   |                    x: 1 0x4c-0x4c.7 (1)
0x40|                                       00      |             .  |                    reserved: 0x0 (valid) 0x4d-0x4d.7 (1)
    |                                               |                |                  [4]{}: instr 0x4e-0x50.7 (3)
0x40|                                          fc   |              . |                    prefix: 0xfc (valid) 0x4e-0x4e.7 (1)
0x40|                                             09|               .|                    data.drop: 9 (valid) 0x4f-0x4f.7 (1)
0x50|01                                             |.               |                    x: 1 0x50-0x50.7 (1)
    |                                               |                |                  [5]{}: instr 0x51-0x52.7 (2)
0x50|   41                                          | A              |                    i32.const: 0x41 (valid) 0x51-0x51.7 (1)
0x50|      0f                                       |  .             |                    n: 15 0x52-0x52.7 (1)
    |                                               |                |                  [6]{}: instr 0x53-0x54.7 (2)
0x50|         41                                    |   A            |                    i32.const: 0x41 (valid) 0x53-0x53.7 (1)
0x50|            01                                 |    .           |                    n: 1 0x54-0x54.7 (1)
    |                                               |                |                  [7]{}: instr 0x55-0x56.7 (2)
0x50|               41                              |     A          |                    i32.const: 0x41 (valid) 0x55-0x55.7 (1)
0x50|                  03                           |      .         |                    n: 3 0x56-0x56.7 (1)
    |                                               |                |                  [8]{}: instr 0x57-0x5a.7 (4)
0x50|                     fc                        |       .        |                    prefix: 0xfc (valid) 0x57-0x57.7 (1)
0x50|                        08                     |        .       |                    memory.init: 8 (valid) 0x58-0x58.7 (1)
0x50|                           03                  |         .      |                    x: 3 0x59-0x59.7 (1)
0x50|                              00               |          .     |                    reserved: 0x0 (valid) 0x5a-0x5a.7 (1)
    |                                               |                |                  [9]{}: instr 0x5b-0x5d.7 (3)
0x50|                                 fc            |           .    |                    prefix: 0xfc (valid) 0x5b-0x5b.7 (1)
0x50|                                    09         |            .   |                    data.drop: 9 (valid) 0x5c-0x5c.7 (1)
0x50|                                       03      |             .  |                    x: 3 0x5d-0x5d.7 (1)
    |                                               |                |                  [10]{}: instr 0x5e-0x5f.7 (2)
0x50|                                          41   |              A |                    i32.const: 0x41 (valid) 0x5e-0x5e.7 (1)
0x50|                                             14|               .|                    n: 20 0x5f-0x5f.7 (1)
    |                                               |                |                  [11]{}: instr 0x60-0x61.7 (2)
0x60|41                                             |A               |                    i32.const: 0x41 (valid) 0x60-0x60.7 (1)
0x60|   0f                                          | .              |                    n: 15 0x61-0x61.7 (1)
    |                                               |                |                  [12]{}: instr 0x62-0x63.7 (2)
0x60|      41                                       |  A             |                    i32.const: 0x41 (valid) 0x62-0x62.7 (1)
0x60|         05                                    |   .            |                    n: 5 0x63-0x63.7 (1)
    |                                               |                |                  [13]{}: instr 0x64-0x67.7 (4)
0x60|            fc                                 |    .           |                    prefix: 0xfc (valid) 0x64-0x64.7 (1)
0x60|               0a                              |     .          |                    memory.copy: 10 (valid) 0x65-0x65.7 (1)
0x60|                  00                           |      .         |                    reserved1: 0x0 (valid) 0x66-0x66.7 (1)
0x60|                     00                        |       .        |                    reserved2: 0x0 (valid) 0x67-0x67.7 (1)
    |                                               |                |                  [14]{}: instr 0x68-0x69.7 (2)
0x60|                        41                     |        A       |                    i32.const: 0x41 (valid) 0x68-0x68.7 (1)
0x60|                           15                  |         .      |                    n: 21 0x69-0x69.7 (1)
    |                                               |                |                  [15]{}: instr 0x6a-0x6b.7 (2)
0x60|                              41               |          A     |                    i32.const: 0x41 (valid) 0x6a-0x6a.7 (1)
0x60|                                 1d            |           .    |                    n: 29 0x6b-0x6b.7 (1)
    |                                               |                |                  [16]{}: instr 0x6c-0x6d.7 (2)
0x60|                                    41         |            A   |                    i32.const: 0x41 (valid) 0x6c-0x6c.7 (1)
0x60|                                       01      |             .  |                    n: 1 0x6d-0x6d.7 (1)
    |                                               |                |                  [17]{}: instr 0x6e-0x71.7 (4)
0x60|                                          fc   |              . |                    prefix: 0xfc (valid) 0x6e-0x6e.7 (1)
0x60|                                             0a|               .|                    memory.copy: 10 (valid) 0x6f-0x6f.7 (1)
0x70|00                                             |.               |                    reserved1: 0x0 (valid) 0x70-0x70.7 (1)
0x70|   00                                          | .              |                    reserved2: 0x0 (valid) 0x71-0x71.7 (1)
    |                                               |                |                  [18]{}: instr 0x72-0x73.7 (2)
0x70|      41                                       |  A             |                    i32.const: 0x41 (valid) 0x72-0x72.7 (1)
0x70|         18                                    |   .            |                    n: 24 0x73-0x73.7 (1)
    |                                               |                |                  [19]{}: instr 0x74-0x75.7 (2)
0x70|            41                                 |    A           |                    i32.const: 0x41 (valid) 0x74-0x74.7 (1)
0x70|               0a                              |     .          |                    n: 10 0x75-0x75.7 (1)
    |                                               |                |                  [20]{}: instr 0x76-0x77.7 (2)
0x70|                  41                           |      A         |                    i32.const: 0x41 (valid) 0x76-0x76.7 (1)
0x70|                     01                        |       .        |                    n: 1 0x77-0x77.7 (1)
    |                                               |                |                  [21]{}: instr 0x78-0x7b.7 (4)
0x70|                        fc                     |        .       |                    prefix: 0xfc (valid) 0x78-0x78.7 (1)
0x70|                           0a                  |         .      |                    memory.copy: 10 (valid) 0x79-0x79.7 (1)
0x70|                              00               |          .     |                    reserved1: 0x0 (valid) 0x7a-0x7a.7 (1)
0x70|                                 00            |           .    |                    reserved2: 0x0 (valid) 0x7b-0x7b.7 (1)
    |                                               |                |                  [22]{}: instr 0x7c-0x7d.7 (2)
0x70|                                    41         |            A   |                    i32.const: 0x41 (valid) 0x7c-0x7c.7 (1)
0x70|                                       0d      |             .  |                    n: 13 0x7d-0x7d.7 (1)
    |                                               |                |                  [23]{}: instr 0x7e-0x7f.7 (2)
0x70|                                          41   |              A |                    i32.const: 0x41 (valid) 0x7e-0x7e.7 (1)
0x70|                                             0b|               .|                    n: 11 0x7f-0x7f.7 (1)
    |                                               |                |                  [24]{}: instr 0x80-0x81.7 (2)
0x80|41                                             |A               |                    i32.const: 0x41 (valid) 0x80-0x80.7 (1)
0x80|   04                                          | .              |                    n: 4 0x81-0x81.7 (1)
    |                                               |                |                  [25]{}: instr 0x82-0x85.7 (4)
0x80|      fc                                       |  .             |                    prefix: 0xfc (valid) 0x82-0x82.7 (1)
0x80|         0a                                    |   .            |                    memory.copy: 10 (valid) 0x83-0x83.7 (1)
0x80|            00                                 |    .           |                    reserved1: 0x0 (valid) 0x84-0x84.7 (1)
0x80|               00                              |     .          |                    reserved2: 0x0 (valid) 0x85-0x85.7 (1)
    |                                               |                |                  [26]{}: instr 0x86-0x87.7 (2)
0x80|                  41                           |      A         |                    i32.const: 0x41 (valid) 0x86-0x86.7 (1)
0x80|                     13                        |       .        |                    n: 19 0x87-0x87.7 (1)
    |                                               |                |                  [27]{}: instr 0x88-0x89.7 (2)
0x80|                        41                     |        A       |                    i32.const: 0x41 (valid) 0x88-0x88.7 (1)
0x80|                           14                  |         .      |                    n: 20 0x89-0x89.7 (1)
    |                                               |                |                  [28]{}: instr 0x8a-0x8b.7 (2)
0x80|                              41               |          A     |                    i32.const: 0x41 (valid) 0x8a-0x8a.7 (1)
0x80|                                 05            |           .    |                    n: 5 0x8b-0x8b.7 (1)
    |                                               |                |                  [29]{}: instr 0x8c-0x8f.7 (4)
0x80|                                    fc         |            .   |                    prefix: 0xfc (valid) 0x8c-0x8c.7 (1)
0x80|                                       0a      |             .  |                    memory.copy: 10 (valid) 0x8d-0x8d.7 (1)
0x80|                                          00   |              . |                    reserved1: 0x0 (valid) 0x8e-0x8e.7 (1)
0x80|                                             00|               .|                    reserved2: 0x0 (valid) 0x8f-0x8f.7 (1)
    |                                               |                |                  [30]{}: instr 0x90-0x90.7 (1)
0x90|0b                                             |.               |                    end: 0xb (valid) 0x90-0x90.7 (1)
    |                                               |                |          [1]{}: code 0x91-0x98.7 (8)
0x90|   07                                          | .              |            size: 7 0x91-0x91.7 (1)
    |                                               |                |            code{}: 0x92-0x98.7 (7)
    |                                               |                |              locals{}: 0x92-0x92.7 (1)
0x90|      00                                       |  .             |                n: 0 0x92-0x92.7 (1)
    |                                               |                |                items[0:0]: 0x93-NA (0)
    |                                               |                |              expr{}: 0x93-0x98.7 (6)
    |                                               |                |                instructions[0:3]: 0x93-0x98.7 (6)
    |                                               |                |                  [0]{}: instr 0x93-0x94.7 (2)
0x90|         20                                    |                |                    local.get: 0x20 (valid) 0x93-0x93.7 (1)
0x90|            00                                 |    .           |                    x: 0 0x94-0x94.7 (1)
    |                                               |                |                  [1]{}: instr 0x95-0x97.7 (3)
0x90|               2d                              |     -          |                    i32.load8_u: 0x2d (valid) 0x95-0x95.7 (1)
0x90|                  00                           |      .         |                    align: 0 0x96-0x96.7 (1)
0x90|                     00                        |       .        |                    offset: 0 0x97-0x97.7 (1)
    |                                               |                |                  [2]{}: instr 0x98-0x98.7 (1)
0x90|                        0b                     |        .       |                    end: 0xb (valid) 0x98-0x98.7 (1)
    |                                               |                |    [6]{}: section 0x99-0xbb.7 (35)
0x90|                           0b                  |         .      |      id: "data section" (11) 0x99-0x99.7 (1)
0x90|                              21               |          !     |      size: 33 0x9a-0x9a.7 (1)
    |                                               |                |      content{}: 0x9b-0xbb.7 (33)
0x90|                                 04            |           .    |        n: 4 0x9b-0x9b.7 (1)
    |                                               |                |        items[0:4]: 0x9c-0xbb.7 (32)
    |                                               |                |          [0]{}: data 0x9c-0xa4.7 (9)
0x90|                                    00         |            .   |            tag: 0 0x9c-0x9c.7 (1)
    |                                               |                |            instructions[0:2]: 0x9d-0x9f.7 (3)
    |                                               |                |              [0]{}: instr 0x9d-0x9e.7 (2)
0x90|                                       41      |             A  |                i32.const: 0x41 (valid) 0x9d-0x9d.7 (1)
0x90|                                          02   |              . |                n: 2 0x9e-0x9e.7 (1)
    |                                               |                |              [1]{}: instr 0x9f-0x9f.7 (1)
0x90|                                             0b|               .|                end: 0xb (valid) 0x9f-0x9f.7 (1)
0xa0|04                                             |.               |            n: 4 0xa0-0xa0.7 (1)
0xa0|   03 01 04 01                                 | ....           |            bytes: raw bits 0xa1-0xa4.7 (4)
    |                                               |                |          [1]{}: data 0xa5-0xaa.7 (6)
0xa0|               01                              |     .          |            tag: 1 0xa5-0xa5.7 (1)
0xa0|                  04                           |      .         |            n: 4 0xa6-0xa6.7 (1)
0xa0|                     02 07 01 08               |       ....     |            bytes: raw bits 0xa7-0xaa.7 (4)
    |                                               |                |          [2]{}: data 0xab-0xb4.7 (10)
0xa0|                                 00            |           .    |            tag: 0 0xab-0xab.7 (1)
    |                                               |                |            instructions[0:2]: 0xac-0xae.7 (3)
    |                                               |                |              [0]{}: instr 0xac-0xad.7 (2)
0xa0|                                    41         |            A   |                i32.const: 0x41 (valid) 0xac-0xac.7 (1)
0xa0|                                       0c      |             .  |                n: 12 0xad-0xad.7 (1)
    |                                               |                |              [1]{}: instr 0xae-0xae.7 (1)
0xa0|                                          0b   |              . |                end: 0xb (valid) 0xae-0xae.7 (1)
0xa0|                                             05|               .|            n: 5 0xaf-0xaf.7 (1)
0xb0|07 05 02 03 06                                 |.....           |            bytes: raw bits 0xb0-0xb4.7 (5)
    |                                               |                |          [3]{}: data 0xb5-0xbb.7 (7)
0xb0|               01                              |     .          |            tag: 1 0xb5-0xb5.7 (1)
0xb0|                  05                           |      .         |            n: 5 0xb6-0xb6.7 (1)
0xb0|                     05 09 02 07 06|           |       .....|   |            bytes: raw bits 0xb7-0xbb.7 (5)
