$ fq -d wasm dv memory_grow-4.wasm
     |00 01 02 03 04 05 06 07 08 09 0a 0b 0c 0d 0e 0f|0123456789abcdef|.{}: memory_grow-4.wasm (wasm) 0x0-0x4fb.7 (1276)
0x000|00 61 73 6d                                    |.asm            |  magic: raw bits (valid) 0x0-0x3.7 (4)
0x000|            01 00 00 00                        |    ....        |  version: 1 0x4-0x7.7 (4)
     |                                               |                |  sections[0:8]: 0x8-0x4fb.7 (1268)
     |                                               |                |    [0]{}: section 0x8-0x1e.7 (23)
0x000|                        01                     |        .       |      id: "type section" (1) 0x8-0x8.7 (1)
0x000|                           15                  |         .      |      size: 21 0x9-0x9.7 (1)
     |                                               |                |      content{}: 0xa-0x1e.7 (21)
0x000|                              04               |          .     |        n: 4 0xa-0xa.7 (1)
     |                                               |                |        items[0:4]: 0xb-0x1e.7 (20)
     |                                               |                |          [0]{}: functype 0xb-0x11.7 (7)
0x000|                                 60            |           `    |            tag: 0x60 (valid) 0xb-0xb.7 (1)
     |                                               |                |            rt1{}: 0xc-0xf.7 (4)
0x000|                                    03         |            .   |              n: 3 0xc-0xc.7 (1)
     |                                               |                |              items[0:3]: 0xd-0xf.7 (3)
0x000|                                       7f      |             .  |                [0]: "i32" (127) valtype 0xd-0xd.7 (1)
0x000|                                          7f   |              . |                [1]: "i32" (127) valtype 0xe-0xe.7 (1)
0x000|                                             7f|               .|                [2]: "i32" (127) valtype 0xf-0xf.7 (1)
     |                                               |                |            rt2{}: 0x10-0x11.7 (2)
0x010|01                                             |.               |              n: 1 0x10-0x10.7 (1)
     |                                               |                |              items[0:1]: 0x11-0x11.7 (1)
0x010|   7f                                          | .              |                [0]: "i32" (127) valtype 0x11-0x11.7 (1)
     |                                               |                |          [1]{}: functype 0x12-0x15.7 (4)
0x010|      60                                       |  `             |            tag: 0x60 (valid) 0x12-0x12.7 (1)
     |                                               |                |            rt1{}: 0x13-0x13.7 (1)
0x010|         00                                    |   .            |              n: 0 0x13-0x13.7 (1)
     |                                               |                |              items[0:0]: 0x14-NA (0)
     |                                               |                |            rt2{}: 0x14-0x15.7 (2)
0x010|            01                                 |    .           |              n: 1 0x14-0x14.7 (1)
     |                                               |                |              items[0:1]: 0x15-0x15.7 (1)
0x010|               7f                              |     .          |                [0]: "i32" (127) valtype 0x15-0x15.7 (1)
     |                                               |                |          [2]{}: functype 0x16-0x18.7 (3)
0x010|                  60                           |      `         |            tag: 0x60 (valid) 0x16-0x16.7 (1)
     |                                               |                |            rt1{}: 0x17-0x17.7 (1)
0x010|                     00                        |       .        |              n: 0 0x17-0x17.7 (1)
     |                                               |                |              items[0:0]: 0x18-NA (0)
     |                                               |                |            rt2{}: 0x18-0x18.7 (1)
0x010|                        00                     |        .       |              n: 0 0x18-0x18.7 (1)
     |                                               |                |              items[0:0]: 0x19-NA (0)
     |                                               |                |          [3]{}: functype 0x19-0x1e.7 (6)
0x010|                           60                  |         `      |            tag: 0x60 (valid) 0x19-0x19.7 (1)
     |                                               |                |            rt1{}: 0x1a-0x1c.7 (3)
0x010|                              02               |          .     |              n: 2 0x1a-0x1a.7 (1)
     |                                               |                |              items[0:2]: 0x1b-0x1c.7 (2)
0x010|                                 7f            |           .    |                [0]: "i32" (127) valtype 0x1b-0x1b.7 (1)
0x010|                                    7f         |            .   |                [1]: "i32" (127) valtype 0x1c-0x1c.7 (1)
     |                                               |                |            rt2{}: 0x1d-0x1e.7 (2)
0x010|                                       01      |             .  |              n: 1 0x1d-0x1d.7 (1)
     |                                               |                |              items[0:1]: 0x1e-0x1e.7 (1)
0x010|                                          7f   |              . |                [0]: "i32" (127) valtype 0x1e-0x1e.7 (1)
     |                                               |                |    [1]{}: section 0x1f-0x47.7 (41)
0x010|                                             03|               .|      id: "function section" (3) 0x1f-0x1f.7 (1)
0x020|27                                             |'               |      size: 39 0x20-0x20.7 (1)
     |                                               |                |      content{}: 0x21-0x47.7 (39)
0x020|   26                                          | &              |        n: 38 0x21-0x21.7 (1)
     |                                               |                |        items[0:38]: 0x22-0x47.7 (38)
0x020|      01                                       |  .             |          [0]: 1 x 0x22-0x22.7 (1)
0x020|         02                                    |   .            |          [1]: 2 x 0x23-0x23.7 (1)
0x020|            01                                 |    .           |          [2]: 1 x 0x24-0x24.7 (1)
0x020|               01                              |     .          |          [3]: 1 x 0x25-0x25.7 (1)
0x020|                  02                           |      .         |          [4]: 2 x 0x26-0x26.7 (1)
0x020|                     01                        |       .        |          [5]: 1 x 0x27-0x27.7 (1)
0x020|                        01                     |        .       |          [6]: 1 x 0x28-0x28.7 (1)
0x020|                           01                  |         .      |          [7]: 1 x 0x29-0x29.7 (1)
0x020|                              01               |          .     |          [8]: 1 x 0x2a-0x2a.7 (1)
0x020|                                 01            |           .    |          [9]: 1 x 0x2b-0x2b.7 (1)
0x020|                                    01         |            .   |          [10]: 1 x 0x2c-0x2c.7 (1)
0x020|                                       03      |             .  |          [11]: 3 x 0x2d-0x2d.7 (1)
0x020|                                          03   |              . |          [12]: 3 x 0x2e-0x2e.7 (1)
0x020|                                             01|               .|          [13]: 1 x 0x2f-0x2f.7 (1)
0x030|00                                             |.               |          [14]: 0 x 0x30-0x30.7 (1)
0x030|   01                                          | .              |          [15]: 1 x 0x31-0x31.7 (1)
0x030|      01                                       |  .             |          [16]: 1 x 0x32-0x32.7 (1)
0x030|         01                                    |   .            |          [17]: 1 x 0x33-0x33.7 (1)
0x030|            01                                 |    .           |          [18]: 1 x 0x34-0x34.7 (1)
0x030|               01                              |     .          |          [19]: 1 x 0x35-0x35.7 (1)
0x030|                  01                           |      .         |          [20]: 1 x 0x36-0x36.7 (1)
0x030|                     01                        |       .        |          [21]: 1 x 0x37-0x37.7 (1)
0x030|                        02                     |        .       |          [22]: 2 x 0x38-0x38.7 (1)
0x030|                           01                  |         .      |          [23]: 1 x 0x39-0x39.7 (1)
0x030|                              02               |          .     |          [24]: 2 x 0x3a-0x3a.7 (1)
0x030|                                 01            |           .    |          [25]: 1 x 0x3b-0x3b.7 (1)
0x030|                                    01         |            .   |          [26]: 1 x 0x3c-0x3c.7 (1)
0x030|                                       02      |             .  |          [27]: 2 x 0x3d-0x3d.7 (1)
0x030|                                          02   |              . |          [28]: 2 x 0x3e-0x3e.7 (1)
0x030|                                             02|               .|          [29]: 2 x 0x3f-0x3f.7 (1)
0x040|02                                             |.               |          [30]: 2 x 0x40-0x40.7 (1)
0x040|   01                                          | .              |          [31]: 1 x 0x41-0x41.7 (1)
0x040|      01                                       |  .             |          [32]: 1 x 0x42-0x42.7 (1)
0x040|         01                                    |   .            |          [33]: 1 x 0x43-0x43.7 (1)
0x040|            01                                 |    .           |          [34]: 1 x 0x44-0x44.7 (1)
0x040|               01                              |     .          |          [35]: 1 x 0x45-0x45.7 (1)
0x040|                  01                           |      .         |          [36]: 1 x 0x46-0x46.7 (1)
0x040|                     01                        |       .        |          [37]: 1 x 0x47-0x47.7 (1)
     |                                               |                |    [2]{}: section 0x48-0x4e.7 (7)
0x040|                        04                     |        .       |      id: "table section" (4) 0x48-0x48.7 (1)
0x040|                           05                  |         .      |      size: 5 0x49-0x49.7 (1)
     |                                               |                |      content{}: 0x4a-0x4e.7 (5)
0x040|                              01               |          .     |        n: 1 0x4a-0x4a.7 (1)
     |                                               |                |        items[0:1]: 0x4b-0x4e.7 (4)
     |                                               |                |          [0]{}: table 0x4b-0x4e.7 (4)
0x040|                                 70            |           p    |            reftype: "funcref" (112) 0x4b-0x4b.7 (1)
     |                                               |                |            limits{}: 0x4c-0x4e.7 (3)
0x040|                                    01         |            .   |              tag: 0x1 0x4c-0x4c.7 (1)
0x040|                                       01      |             .  |              min: 1 0x4d-0x4d.7 (1)
0x040|                                          01   |              . |              max: 1 0x4e-0x4e.7 (1)
     |                                               |                |    [3]{}: section 0x4f-0x53.7 (5)
0x040|                                             05|               .|      id: "memory section" (5) 0x4f-0x4f.7 (1)
0x050|03                                             |.               |      size: 3 0x50-0x50.7 (1)
     |                                               |                |      content{}: 0x51-0x53.7 (3)
0x050|   01                                          | .              |        n: 1 0x51-0x51.7 (1)
     |                                               |                |        items[0:1]: 0x52-0x53.7 (2)
     |                                               |                |          [0]{}: mem 0x52-0x53.7 (2)
     |                                               |                |            limits{}: 0x52-0x53.7 (2)
0x050|      00                                       |  .             |              tag: 0x0 0x52-0x52.7 (1)
0x050|         01                                    |   .            |              min: 1 0x53-0x53.7 (1)
     |                                               |                |    [4]{}: section 0x54-0x5b.7 (8)
0x050|            06                                 |    .           |      id: "global section" (6) 0x54-0x54.7 (1)
0x050|               06                              |     .          |      size: 6 0x55-0x55.7 (1)
     |                                               |                |      content{}: 0x56-0x5b.7 (6)
0x050|                  01                           |      .         |        n: 1 0x56-0x56.7 (1)
     |                                               |                |        items[0:1]: 0x57-0x5b.7 (5)
     |                                               |                |          [0]{}: global 0x57-0x5b.7 (5)
     |                                               |                |            globaltype{}: 0x57-0x58.7 (2)
0x050|                     7f                        |       .        |              valtype: "i32" (127) 0x57-0x57.7 (1)
0x050|                        01                     |        .       |              mut: "var" (1) 0x58-0x58.7 (1)
     |                                               |                |            expr{}: 0x59-0x5b.7 (3)
     |                                               |                |              instructions[0:2]: 0x59-0x5b.7 (3)
     |                                               |                |                [0]{}: instr 0x59-0x5a.7 (2)
0x050|                           41                  |         A      |                  i32.const: 0x41 (valid) 0x59-0x59.7 (1)
0x050|                              00               |          .     |                  n: 0 0x5a-0x5a.7 (1)
     |                                               |                |                [1]{}: instr 0x5b-0x5b.7 (1)
0x050|                                 0b            |           .    |                  end: 0xb (valid) 0x5b-0x5b.7 (1)
     |                                               |                |    [5]{}: section 0x5c-0x315.7 (698)
0x050|                                    07         |            .   |      id: "export section" (7) 0x5c-0x5c.7 (1)
0x050|                                       b7 05   |             .. |      size: 695 0x5d-0x5e.7 (2)
     |                                               |                |      content{}: 0x5f-0x315.7 (695)
0x050|                                             25|               %|        n: 37 0x5f-0x5f.7 (1)
     |                                               |                |        items[0:37]: 0x60-0x315.7 (694)
     |                                               |                |          [0]{}: export 0x60-0x6d.7 (14)
     |                                               |                |            name{}: 0x60-0x6b.7 (12)
0x060|0b                                             |.               |              len: 11 0x60-0x60.7 (1)
0x060|   61 73 2d 62 72 2d 76 61 6c 75 65            | as-br-value    |              utf8bytes: "as-br-value" 0x61-0x6b.7 (11)
     |                                               |                |            expr{}: 0x6c-0x6d.7 (2)
0x060|                                    00         |            .   |              tag: "funcidx" (0x0) 0x6c-0x6c.7 (1)
0x060|                                       00      |             .  |              x: 0 0x6d-0x6d.7 (1)
     |                                               |                |          [1]{}: export 0x6e-0x7d.7 (16)
     |                                               |                |            name{}: 0x6e-0x7b.7 (14)
0x060|                                          0d   |              . |              len: 13 0x6e-0x6e.7 (1)
0x060|                                             61|               a|              utf8bytes: "as-br_if-cond" 0x6f-0x7b.7 (13)
0x070|73 2d 62 72 5f 69 66 2d 63 6f 6e 64            |s-br_if-cond    |
     |                                               |                |            expr{}: 0x7c-0x7d.7 (2)
0x070|                                    00         |            .   |              tag: "funcidx" (0x0) 0x7c-0x7c.7 (1)
0x070|                                       01      |             .  |              x: 1 0x7d-0x7d.7 (1)
     |                                               |                |          [2]{}: export 0x7e-0x8e.7 (17)
     |                                               |                |            name{}: 0x7e-0x8c.7 (15)
0x070|                                          0e   |              . |              len: 14 0x7e-0x7e.7 (1)
0x070|                                             61|               a|              utf8bytes: "as-br_if-value" 0x7f-0x8c.7 (14)
0x080|73 2d 62 72 5f 69 66 2d 76 61 6c 75 65         |s-br_if-value   |
     |                                               |                |            expr{}: 0x8d-0x8e.7 (2)
0x080|                                       00      |             .  |              tag: "funcidx" (0x0) 0x8d-0x8d.7 (1)
0x080|                                          02   |              . |              x: 2 0x8e-0x8e.7 (1)
     |                                               |                |          [3]{}: export 0x8f-0xa4.7 (22)
     |                                               |                |            name{}: 0x8f-0xa2.7 (20)
0x080|                                             13|               .|              len: 19 0x8f-0x8f.7 (1)
0x090|61 73 2d 62 72 5f 69 66 2d 76 61 6c 75 65 2d 63|as-br_if-value-c|              utf8bytes: "as-br_if-value-cond" 0x90-0xa2.7 (19)
0x0a0|6f 6e 64                                       |ond             |
     |                                               |                |            expr{}: 0xa3-0xa4.7 (2)
0x0a0|         00                                    |   .            |              tag: "funcidx" (0x0) 0xa3-0xa3.7 (1)
0x0a0|            03                                 |    .           |              x: 3 0xa4-0xa4.7 (1)
     |                                               |                |          [4]{}: export 0xa5-0xb8.7 (20)
     |                                               |                |            name{}: 0xa5-0xb6.7 (18)
0x0a0|               11                              |     .          |              len: 17 0xa5-0xa5.7 (1)
0x0a0|                  61 73 2d 62 72 5f 74 61 62 6c|      as-br_tabl|              utf8bytes: "as-br_table-index" 0xa6-0xb6.7 (17)
0x0b0|65 2d 69 6e 64 65 78                           |e-index         |
     |                                               |                |            expr{}: 0xb7-0xb8.7 (2)
0x0b0|                     00                        |       .        |              tag: "funcidx" (0x0) 0xb7-0xb7.7 (1)
0x0b0|                        04                     |        .       |              x: 4 0xb8-0xb8.7 (1)
     |                                               |                |          [5]{}: export 0xb9-0xcc.7 (20)
     |                                               |                |            name{}: 0xb9-0xca.7 (18)
0x0b0|                           11                  |         .      |              len: 17 0xb9-0xb9.7 (1)
0x0b0|                              61 73 2d 62 72 5f|          as-br_|              utf8bytes: "as-br_table-value" 0xba-0xca.7 (17)
0x0c0|74 61 62 6c 65 2d 76 61 6c 75 65               |table-value     |
     |                                               |                |            expr{}: 0xcb-0xcc.7 (2)
0x0c0|                                 00            |           .    |              tag: "funcidx" (0x0) 0xcb-0xcb.7 (1)
0x0c0|                                    05         |            .   |              x: 5 0xcc-0xcc.7 (1)
     |                                               |                |          [6]{}: export 0xcd-0xe6.7 (26)
     |                                               |                |            name{}: 0xcd-0xe4.7 (24)
0x0c0|                                       17      |             .  |              len: 23 0xcd-0xcd.7 (1)
0x0c0|                                          61 73|              as|              utf8bytes: "as-br_table-value-index" 0xce-0xe4.7 (23)
0x0d0|2d 62 72 5f 74 61 62 6c 65 2d 76 61 6c 75 65 2d|-br_table-value-|
0x0e0|69 6e 64 65 78                                 |index           |
     |                                               |                |            expr{}: 0xe5-0xe6.7 (2)
0x0e0|               00                              |     .          |              tag: "funcidx" (0x0) 0xe5-0xe5.7 (1)
0x0e0|                  06                           |      .         |              x: 6 0xe6-0xe6.7 (1)
     |                                               |                |          [7]{}: export 0xe7-0xf8.7 (18)
     |                                               |                |            name{}: 0xe7-0xf6.7 (16)
0x0e0|                     0f                        |       .        |              len: 15 0xe7-0xe7.7 (1)
0x0e0|                        61 73 2d 72 65 74 75 72|        as-retur|              utf8bytes: "as-return-value" 0xe8-0xf6.7 (15)
0x0f0|6e 2d 76 61 6c 75 65                           |n-value         |
     |                                               |                |            expr{}: 0xf7-0xf8.7 (2)
0x0f0|                     00                        |       .        |              tag: "funcidx" (0x0) 0xf7-0xf7.7 (1)
0x0f0|                        07                     |        .       |              x: 7 0xf8-0xf8.7 (1)
     |                                               |                |          [8]{}: export 0xf9-0x105.7 (13)
     |                                               |                |            name{}: 0xf9-0x103.7 (11)
0x0f0|                           0a                  |         .      |              len: 10 0xf9-0xf9.7 (1)
0x0f0|                              61 73 2d 69 66 2d|          as-if-|              utf8bytes: "as-if-cond" 0xfa-0x103.7 (10)
0x100|63 6f 6e 64                                    |cond            |
     |                                               |                |            expr{}: 0x104-0x105.7 (2)
0x100|            00                                 |    .           |              tag: "funcidx" (0x0) 0x104-0x104.7 (1)
0x100|               08                              |     .          |              x: 8 0x105-0x105.7 (1)
     |                                               |                |          [9]{}: export 0x106-0x112.7 (13)
     |                                               |                |            name{}: 0x106-0x110.7 (11)
0x100|                  0a                           |      .         |              len: 10 0x106-0x106.7 (1)
0x100|                     61 73 2d 69 66 2d 74 68 65|       as-if-the|              utf8bytes: "as-if-then" 0x107-0x110.7 (10)
0x110|6e                                             |n               |
     |                                               |                |            expr{}: 0x111-0x112.7 (2)
0x110|   00                                          | .              |              tag: "funcidx" (0x0) 0x111-0x111.7 (1)
0x110|      09                                       |  .             |              x: 9 0x112-0x112.7 (1)
     |                                               |                |          [10]{}: export 0x113-0x11f.7 (13)
     |                                               |                |            name{}: 0x113-0x11d.7 (11)
0x110|         0a                                    |   .            |              len: 10 0x113-0x113.7 (1)
0x110|            61 73 2d 69 66 2d 65 6c 73 65      |    as-if-else  |              utf8bytes: "as-if-else" 0x114-0x11d.7 (10)
     |                                               |                |            expr{}: 0x11e-0x11f.7 (2)
0x110|                                          00   |              . |              tag: "funcidx" (0x0) 0x11e-0x11e.7 (1)
0x110|                                             0a|               .|              x: 10 0x11f-0x11f.7 (1)
     |                                               |                |          [11]{}: export 0x120-0x131.7 (18)
     |                                               |                |            name{}: 0x120-0x12f.7 (16)
0x120|0f                                             |.               |              len: 15 0x120-0x120.7 (1)
0x120|   61 73 2d 73 65 6c 65 63 74 2d 66 69 72 73 74| as-select-first|              utf8bytes: "as-select-first" 0x121-0x12f.7 (15)
     |                                               |                |            expr{}: 0x130-0x131.7 (2)
0x130|00                                             |.               |              tag: "funcidx" (0x0) 0x130-0x130.7 (1)
0x130|   0b                                          | .              |              x: 11 0x131-0x131.7 (1)
     |                                               |                |          [12]{}: export 0x132-0x144.7 (19)
     |                                               |                |            name{}: 0x132-0x142.7 (17)
0x130|      10                                       |  .             |              len: 16 0x132-0x132.7 (1)
0x130|         61 73 2d 73 65 6c 65 63 74 2d 73 65 63|   as-select-sec|              utf8bytes: "as-select-second" 0x133-0x142.7 (16)
0x140|6f 6e 64                                       |ond             |
     |                                               |                |            expr{}: 0x143-0x144.7 (2)
0x140|         00                                    |   .            |              tag: "funcidx" (0x0) 0x143-0x143.7 (1)
0x140|            0c                                 |    .           |              x: 12 0x144-0x144.7 (1)
     |                                               |                |          [13]{}: export 0x145-0x155.7 (17)
     |                                               |                |            name{}: 0x145-0x153.7 (15)
0x140|               0e                              |     .          |              len: 14 0x145-0x145.7 (1)
0x140|                  61 73 2d 73 65 6c 65 63 74 2d|      as-select-|              utf8bytes: "as-select-cond" 0x146-0x153.7 (14)
0x150|63 6f 6e 64                                    |cond            |
     |                                               |                |            expr{}: 0x154-0x155.7 (2)
0x150|            00                                 |    .           |              tag: "funcidx" (0x0) 0x154-0x154.7 (1)
0x150|               0d                              |     .          |              x: 13 0x155-0x155.7 (1)
     |                                               |                |          [14]{}: export 0x156-0x165.7 (16)
     |                                               |                |            name{}: 0x156-0x163.7 (14)
0x150|                  0d                           |      .         |              len: 13 0x156-0x156.7 (1)
0x150|                     61 73 2d 63 61 6c 6c 2d 66|       as-call-f|              utf8bytes: "as-call-first" 0x157-0x163.7 (13)
0x160|69 72 73 74                                    |irst            |
     |                                               |                |            expr{}: 0x164-0x165.7 (2)
0x160|            00                                 |    .           |              tag: "funcidx" (0x0) 0x164-0x164.7 (1)
0x160|               0f                              |     .          |              x: 15 0x165-0x165.7 (1)
     |                                               |                |          [15]{}: export 0x166-0x173.7 (14)
     |                                               |                |            name{}: 0x166-0x171.7 (12)
0x160|                  0b                           |      .         |              len: 11 0x166-0x166.7 (1)
0x160|                     61 73 2d 63 61 6c 6c 2d 6d|       as-call-m|              utf8bytes: "as-call-mid" 0x167-0x171.7 (11)
0x170|69 64                                          |id              |
     |                                               |                |            expr{}: 0x172-0x173.7 (2)
0x170|      00                                       |  .             |              tag: "funcidx" (0x0) 0x172-0x172.7 (1)
0x170|         10                                    |   .            |              x: 16 0x173-0x173.7 (1)
     |                                               |                |          [16]{}: export 0x174-0x182.7 (15)
     |                                               |                |            name{}: 0x174-0x180.7 (13)
0x170|            0c                                 |    .           |              len: 12 0x174-0x174.7 (1)
0x170|               61 73 2d 63 61 6c 6c 2d 6c 61 73|     as-call-las|              utf8bytes: "as-call-last" 0x175-0x180.7 (12)
0x180|74                                             |t               |
     |                                               |                |            expr{}: 0x181-0x182.7 (2)
0x180|   00                                          | .              |              tag: "funcidx" (0x0) 0x181-0x181.7 (1)
0x180|      11                                       |  .             |              x: 17 0x182-0x182.7 (1)
     |                                               |                |          [17]{}: export 0x183-0x19b.7 (25)
     |                                               |                |            name{}: 0x183-0x199.7 (23)
0x180|         16                                    |   .            |              len: 22 0x183-0x183.7 (1)
0x180|            61 73 2d 63 61 6c 6c 5f 69 6e 64 69|    as-call_indi|              utf8bytes: "as-call_indirect-first" 0x184-0x199.7 (22)
0x190|72 65 63 74 2d 66 69 72 73 74                  |rect-first      |
     |                                               |                |            expr{}: 0x19a-0x19b.7 (2)
0x190|                              00               |          .     |              tag: "funcidx" (0x0) 0x19a-0x19a.7 (1)
0x190|                                 12            |           .    |              x: 18 0x19b-0x19b.7 (1)
     |                                               |                |          [18]{}: export 0x19c-0x1b2.7 (23)
     |                                               |                |            name{}: 0x19c-0x1b0.7 (21)
0x190|                                    14         |            .   |              len: 20 0x19c-0x19c.7 (1)
0x190|                                       61 73 2d|             as-|              utf8bytes: "as-call_indirect-mid" 0x19d-0x1b0.7 (20)
0x1a0|63 61 6c 6c 5f 69 6e 64 69 72 65 63 74 2d 6d 69|call_indirect-mi|
0x1b0|64                                             |d               |
     |                                               |                |            expr{}: 0x1b1-0x1b2.7 (2)
0x1b0|   00                                          | .              |              tag: "funcidx" (0x0) 0x1b1-0x1b1.7 (1)
0x1b0|      13                                       |  .             |              x: 19 0x1b2-0x1b2.7 (1)
     |                                               |                |          [19]{}: export 0x1b3-0x1ca.7 (24)
     |                                               |                |            name{}: 0x1b3-0x1c8.7 (22)
0x1b0|         15                                    |   .            |              len: 21 0x1b3-0x1b3.7 (1)
0x1b0|            61 73 2d 63 61 6c 6c 5f 69 6e 64 69|    as-call_indi|              utf8bytes: "as-call_indirect-last" 0x1b4-0x1c8.7 (21)
0x1c0|72 65 63 74 2d 6c 61 73 74                     |rect-last       |
     |                                               |                |            expr{}: 0x1c9-0x1ca.7 (2)
0x1c0|                           00                  |         .      |              tag: "funcidx" (0x0) 0x1c9-0x1c9.7 (1)
0x1c0|                              14               |          .     |              x: 20 0x1ca-0x1ca.7 (1)
     |                                               |                |          [20]{}: export 0x1cb-0x1e3.7 (25)
     |                                               |                |            name{}: 0x1cb-0x1e1.7 (23)
0x1c0|                                 16            |           .    |              len: 22 0x1cb-0x1cb.7 (1)
0x1c0|                                    61 73 2d 63|            as-c|              utf8bytes: "as-call_indirect-index" 0x1cc-0x1e1.7 (22)
0x1d0|61 6c 6c 5f 69 6e 64 69 72 65 63 74 2d 69 6e 64|all_indirect-ind|
0x1e0|65 78                                          |ex              |
     |                                               |                |            expr{}: 0x1e2-0x1e3.7 (2)
0x1e0|      00                                       |  .             |              tag: "funcidx" (0x0) 0x1e2-0x1e2.7 (1)
0x1e0|         15                                    |   .            |              x: 21 0x1e3-0x1e3.7 (1)
     |                                               |                |          [21]{}: export 0x1e4-0x1f8.7 (21)
     |                                               |                |            name{}: 0x1e4-0x1f6.7 (19)
0x1e0|            12                                 |    .           |              len: 18 0x1e4-0x1e4.7 (1)
0x1e0|               61 73 2d 6c 6f 63 61 6c 2e 73 65|     as-local.se|              utf8bytes: "as-local.set-value" 0x1e5-0x1f6.7 (18)
0x1f0|74 2d 76 61 6c 75 65                           |t-value         |
     |                                               |                |            expr{}: 0x1f7-0x1f8.7 (2)
0x1f0|                     00                        |       .        |              tag: "funcidx" (0x0) 0x1f7-0x1f7.7 (1)
0x1f0|                        16                     |        .       |              x: 22 0x1f8-0x1f8.7 (1)
     |                                               |                |          [22]{}: export 0x1f9-0x20d.7 (21)
     |                                               |                |            name{}: 0x1f9-0x20b.7 (19)
0x1f0|                           12                  |         .      |              len: 18 0x1f9-0x1f9.7 (1)
0x1f0|                              61 73 2d 6c 6f 63|          as-loc|              utf8bytes: "as-local.tee-value" 0x1fa-0x20b.7 (18)
0x200|61 6c 2e 74 65 65 2d 76 61 6c 75 65            |al.tee-value    |
     |                                               |                |            expr{}: 0x20c-0x20d.7 (2)
0x200|                                    00         |            .   |              tag: "funcidx" (0x0) 0x20c-0x20c.7 (1)
0x200|                                       17      |             .  |              x: 23 0x20d-0x20d.7 (1)
     |                                               |                |          [23]{}: export 0x20e-0x223.7 (22)
     |                                               |                |            name{}: 0x20e-0x221.7 (20)
0x200|                                          13   |              . |              len: 19 0x20e-0x20e.7 (1)
0x200|                                             61|               a|              utf8bytes: "as-global.set-value" 0x20f-0x221.7 (19)
0x210|73 2d 67 6c 6f 62 61 6c 2e 73 65 74 2d 76 61 6c|s-global.set-val|
0x220|75 65                                          |ue              |
     |                                               |                |            expr{}: 0x222-0x223.7 (2)
0x220|      00                                       |  .             |              tag: "funcidx" (0x0) 0x222-0x222.7 (1)
0x220|         18                                    |   .            |              x: 24 0x223-0x223.7 (1)
     |                                               |                |          [24]{}: export 0x224-0x235.7 (18)
     |                                               |                |            name{}: 0x224-0x233.7 (16)
0x220|            0f                                 |    .           |              len: 15 0x224-0x224.7 (1)
0x220|               61 73 2d 6c 6f 61 64 2d 61 64 64|     as-load-add|              utf8bytes: "as-load-address" 0x225-0x233.7 (15)
0x230|72 65 73 73                                    |ress            |
     |                                               |                |            expr{}: 0x234-0x235.7 (2)
0x230|            00                                 |    .           |              tag: "funcidx" (0x0) 0x234-0x234.7 (1)
0x230|               19                              |     .          |              x: 25 0x235-0x235.7 (1)
     |                                               |                |          [25]{}: export 0x236-0x248.7 (19)
     |                                               |                |            name{}: 0x236-0x246.7 (17)
0x230|                  10                           |      .         |              len: 16 0x236-0x236.7 (1)
0x230|                     61 73 2d 6c 6f 61 64 4e 2d|       as-loadN-|              utf8bytes: "as-loadN-address" 0x237-0x246.7 (16)
0x240|61 64 64 72 65 73 73                           |address         |
     |                                               |                |            expr{}: 0x247-0x248.7 (2)
0x240|                     00                        |       .        |              tag: "funcidx" (0x0) 0x247-0x247.7 (1)
0x240|                        1a                     |        .       |              x: 26 0x248-0x248.7 (1)
     |                                               |                |          [26]{}: export 0x249-0x25b.7 (19)
     |                                               |                |            name{}: 0x249-0x259.7 (17)
0x240|                           10                  |         .      |              len: 16 0x249-0x249.7 (1)
0x240|                              61 73 2d 73 74 6f|          as-sto|              utf8bytes: "as-store-address" 0x24a-0x259.7 (16)
0x250|72 65 2d 61 64 64 72 65 73 73                  |re-address      |
     |                                               |                |            expr{}: 0x25a-0x25b.7 (2)
0x250|                              00               |          .     |              tag: "funcidx" (0x0) 0x25a-0x25a.7 (1)
0x250|                                 1b            |           .    |              x: 27 0x25b-0x25b.7 (1)
     |                                               |                |          [27]{}: export 0x25c-0x26c.7 (17)
     |                                               |                |            name{}: 0x25c-0x26a.7 (15)
0x250|                                    0e         |            .   |              len: 14 0x25c-0x25c.7 (1)
0x250|                                       61 73 2d|             as-|              utf8bytes: "as-store-value" 0x25d-0x26a.7 (14)
0x260|73 74 6f 72 65 2d 76 61 6c 75 65               |store-value     |
     |                                               |                |            expr{}: 0x26b-0x26c.7 (2)
0x260|                                 00            |           .    |              tag: "funcidx" (0x0) 0x26b-0x26b.7 (1)
0x260|                                    1c         |            .   |              x: 28 0x26c-0x26c.7 (1)
     |                                               |                |          [28]{}: export 0x26d-0x280.7 (20)
     |                                               |                |            name{}: 0x26d-0x27e.7 (18)
0x260|                                       11      |             .  |              len: 17 0x26d-0x26d.7 (1)
0x260|                                          61 73|              as|              utf8bytes: "as-storeN-address" 0x26e-0x27e.7 (17)
0x270|2d 73 74 6f 72 65 4e 2d 61 64 64 72 65 73 73   |-storeN-address |
     |                                               |                |            expr{}: 0x27f-0x280.7 (2)
0x270|                                             00|               .|              tag: "funcidx" (0x0) 0x27f-0x27f.7 (1)
0x280|1d                                             |.               |              x: 29 0x280-0x280.7 (1)
     |                                               |                |          [29]{}: export 0x281-0x292.7 (18)
     |                                               |                |            name{}: 0x281-0x290.7 (16)
0x280|   0f                                          | .              |              len: 15 0x281-0x281.7 (1)
0x280|      61 73 2d 73 74 6f 72 65 4e 2d 76 61 6c 75|  as-storeN-valu|              utf8bytes: "as-storeN-value" 0x282-0x290.7 (15)
0x290|65                                             |e               |
     |                                               |                |            expr{}: 0x291-0x292.7 (2)
0x290|   00                                          | .              |              tag: "funcidx" (0x0) 0x291-0x291.7 (1)
0x290|      1e                                       |  .             |              x: 30 0x292-0x292.7 (1)
     |                                               |                |          [30]{}: export 0x293-0x2a5.7 (19)
     |                                               |                |            name{}: 0x293-0x2a3.7 (17)
0x290|         10                                    |   .            |              len: 16 0x293-0x293.7 (1)
0x290|            61 73 2d 75 6e 61 72 79 2d 6f 70 65|    as-unary-ope|              utf8bytes: "as-unary-operand" 0x294-0x2a3.7 (16)
0x2a0|72 61 6e 64                                    |rand            |
     |                                               |                |            expr{}: 0x2a4-0x2a5.7 (2)
0x2a0|            00                                 |    .           |              tag: "funcidx" (0x0) 0x2a4-0x2a4.7 (1)
0x2a0|               1f                              |     .          |              x: 31 0x2a5-0x2a5.7 (1)
     |                                               |                |          [31]{}: export 0x2a6-0x2b6.7 (17)
     |                                               |                |            name{}: 0x2a6-0x2b4.7 (15)
0x2a0|                  0e                           |      .         |              len: 14 0x2a6-0x2a6.7 (1)
0x2a0|                     61 73 2d 62 69 6e 61 72 79|       as-binary|              utf8bytes: "as-binary-left" 0x2a7-0x2b4.7 (14)
0x2b0|2d 6c 65 66 74                                 |-left           |
     |                                               |                |            expr{}: 0x2b5-0x2b6.7 (2)
0x2b0|               00                              |     .          |              tag: "funcidx" (0x0) 0x2b5-0x2b5.7 (1)
0x2b0|                  20                           |                |              x: 32 0x2b6-0x2b6.7 (1)
     |                                               |                |          [32]{}: export 0x2b7-0x2c8.7 (18)
     |                                               |                |            name{}: 0x2b7-0x2c6.7 (16)
0x2b0|                     0f                        |       .        |              len: 15 0x2b7-0x2b7.7 (1)
0x2b0|                        61 73 2d 62 69 6e 61 72|        as-binar|              utf8bytes: "as-binary-right" 0x2b8-0x2c6.7 (15)
0x2c0|79 2d 72 69 67 68 74                           |y-right         |
     |                                               |                |            expr{}: 0x2c7-0x2c8.7 (2)
0x2c0|                     00                        |       .        |              tag: "funcidx" (0x0) 0x2c7-0x2c7.7 (1)
0x2c0|                        21                     |        !       |              x: 33 0x2c8-0x2c8.7 (1)
     |                                               |                |          [33]{}: export 0x2c9-0x2da.7 (18)
     |                                               |                |            name{}: 0x2c9-0x2d8.7 (16)
0x2c0|                           0f                  |         .      |              len: 15 0x2c9-0x2c9.7 (1)
0x2c0|                              61 73 2d 74 65 73|          as-tes|              utf8bytes: "as-test-operand" 0x2ca-0x2d8.7 (15)
0x2d0|74 2d 6f 70 65 72 61 6e 64                     |t-operand       |
     |                                               |                |            expr{}: 0x2d9-0x2da.7 (2)
0x2d0|                           00                  |         .      |              tag: "funcidx" (0x0) 0x2d9-0x2d9.7 (1)
0x2d0|                              22               |          "     |              x: 34 0x2da-0x2da.7 (1)
     |                                               |                |          [34]{}: export 0x2db-0x2ec.7 (18)
     |                                               |                |            name{}: 0x2db-0x2ea.7 (16)
0x2d0|                                 0f            |           .    |              len: 15 0x2db-0x2db.7 (1)
0x2d0|                                    61 73 2d 63|            as-c|              utf8bytes: "as-compare-left" 0x2dc-0x2ea.7 (15)
0x2e0|6f 6d 70 61 72 65 2d 6c 65 66 74               |ompare-left     |
     |                                               |                |            expr{}: 0x2eb-0x2ec.7 (2)
0x2e0|                                 00            |           .    |              tag: "funcidx" (0x0) 0x2eb-0x2eb.7 (1)
0x2e0|                                    23         |            #   |              x: 35 0x2ec-0x2ec.7 (1)
     |                                               |                |          [35]{}: export 0x2ed-0x2ff.7 (19)
     |                                               |                |            name{}: 0x2ed-0x2fd.7 (17)
0x2e0|                                       10      |             .  |              len: 16 0x2ed-0x2ed.7 (1)
0x2e0|                                          61 73|              as|              utf8bytes: "as-compare-right" 0x2ee-0x2fd.7 (16)
0x2f0|2d 63 6f 6d 70 61 72 65 2d 72 69 67 68 74      |-compare-right  |
     |                                               |                |            expr{}: 0x2fe-0x2ff.7 (2)
0x2f0|                                          00   |              . |              tag: "funcidx" (0x0) 0x2fe-0x2fe.7 (1)
0x2f0|                                             24|               $|              x: 36 0x2ff-0x2ff.7 (1)
     |                                               |                |          [36]{}: export 0x300-0x315.7 (22)
     |                                               |                |            name{}: 0x300-0x313.7 (20)
0x300|13                                             |.               |              len: 19 0x300-0x300.7 (1)
0x300|   61 73 2d 6d 65 6d 6f 72 79 2e 67 72 6f 77 2d| as-memory.grow-|              utf8bytes: "as-memory.grow-size" 0x301-0x313.7 (19)
0x310|73 69 7a 65                                    |size            |
     |                                               |                |            expr{}: 0x314-0x315.7 (2)
0x310|            00                                 |    .           |              tag: "funcidx" (0x0) 0x314-0x314.7 (1)
0x310|               25                              |     %          |              x: 37 0x315-0x315.7 (1)
     |                                               |                |    [6]{}: section 0x316-0x31e.7 (9)
0x310|                  09                           |      .         |      id: "element section" (9) 0x316-0x316.7 (1)
0x310|                     07                        |       .        |      size: 7 0x317-0x317.7 (1)
     |                                               |                |      element{}: 0x318-0x31e.7 (7)
0x310|                        01                     |        .       |        n: 1 0x318-0x318.7 (1)
     |                                               |                |        items[0:1]: 0x319-0x31e.7 (6)
     |                                               |                |          [0]{}: elem 0x319-0x31e.7 (6)
0x310|                           00                  |         .      |            tag: 0 0x319-0x319.7 (1)
     |                                               |                |            instructions[0:2]: 0x31a-0x31c.7 (3)
     |                                               |                |              [0]{}: instr 0x31a-0x31b.7 (2)
0x310|                              41               |          A     |                i32.const: 0x41 (valid) 0x31a-0x31a.7 (1)
0x310|                                 00            |           .    |                n: 0 0x31b-0x31b.7 (1)
     |                                               |                |              [1]{}: instr 0x31c-0x31c.7 (1)
0x310|                                    0b         |            .   |                end: 0xb (valid) 0x31c-0x31c.7 (1)
0x310|                                       01      |             .  |            n: 1 0x31d-0x31d.7 (1)
     |                                               |                |            items[0:1]: 0x31e-0x31e.7 (1)
0x310|                                          0e   |              . |              [0]: 14 y 0x31e-0x31e.7 (1)
     |                                               |                |    [7]{}: section 0x31f-0x4fb.7 (477)
0x310|                                             0a|               .|      id: "code section" (10) 0x31f-0x31f.7 (1)
0x320|da 03                                          |..              |      size: 474 0x320-0x321.7 (2)
     |                                               |                |      content{}: 0x322-0x4fb.7 (474)
0x320|      26                                       |  &             |        n: 38 0x322-0x322.7 (1)
     |                                               |                |        items[0:38]: 0x323-0x4fb.7 (473)
     |                                               |                |          [0]{}: code 0x323-0x32e.7 (12)
0x320|         0b                                    |   .            |            size: 11 0x323-0x323.7 (1)
     |                                               |                |            code{}: 0x324-0x32e.7 (11)
     |                                               |                |              locals{}: 0x324-0x324.7 (1)
0x320|            00                                 |    .           |                n: 0 0x324-0x324.7 (1)
     |                                               |                |                items[0:0]: 0x325-NA (0)
     |                                               |                |              expr{}: 0x325-0x32e.7 (10)
     |                                               |                |                instructions[0:2]: 0x325-0x32e.7 (10)
     |                                               |                |                  [0]{}: instr 0x325-0x32d.7 (9)
0x320|               02                              |     .          |                    block: 0x2 (valid) 0x325-0x325.7 (1)
0x320|                  7f                           |      .         |                    valtype: "i32" (127) 0x326-0x326.7 (1)
     |                                               |                |                    instructions[0:3]: 0x327-0x32c.7 (6)
     |                                               |                |                      [0]{}: instr 0x327-0x328.7 (2)
0x320|                     41                        |       A        |                        i32.const: 0x41 (valid) 0x327-0x327.7 (1)
0x320|                        00                     |        .       |                        n: 0 0x328-0x328.7 (1)
     |                                               |                |                      [1]{}: instr 0x329-0x32a.7 (2)
0x320|                           40                  |         @      |                        memory.grow: 0x40 (valid) 0x329-0x329.7 (1)
0x320|                              00               |          .     |                        reserved: 0x0 (valid) 0x32a-0x32a.7 (1)
     |                                               |                |                      [2]{}: instr 0x32b-0x32c.7 (2)
0x320|                                 0c            |           .    |                        br: 0xc (valid) 0x32b-0x32b.7 (1)
0x320|                                    00         |            .   |                        l: 0 0x32c-0x32c.7 (1)
0x320|                                       0b      |             .  |                    end: 11 (valid) 0x32d-0x32d.7 (1)
     |                                               |                |                  [1]{}: instr 0x32e-0x32e.7 (1)
0x320|                                          0b   |              . |                    end: 0xb (valid) 0x32e-0x32e.7 (1)
     |                                               |                |          [1]{}: code 0x32f-0x33a.7 (12)
0x320|                                             0b|               .|            size: 11 0x32f-0x32f.7 (1)
     |                                               |                |            code{}: 0x330-0x33a.7 (11)
     |                                               |                |              locals{}: 0x330-0x330.7 (1)
0x330|00                                             |.               |                n: 0 0x330-0x330.7 (1)
     |                                               |                |                items[0:0]: 0x331-NA (0)
     |                                               |                |              expr{}: 0x331-0x33a.7 (10)
     |                                               |                |                instructions[0:2]: 0x331-0x33a.7 (10)
     |                                               |                |                  [0]{}: instr 0x331-0x339.7 (9)
0x330|   02                                          | .              |                    block: 0x2 (valid) 0x331-0x331.7 (1)
0x330|      40                                       |  @             |                    empty: 64 0x332-0x332.7 (1)
     |                                               |                |                    instructions[0:3]: 0x333-0x338.7 (6)
     |                                               |                |                      [0]{}: instr 0x333-0x334.7 (2)
0x330|         41                                    |   A            |                        i32.const: 0x41 (valid) 0x333-0x333.7 (1)
0x330|            00                                 |    .           |                        n: 0 0x334-0x334.7 (1)
     |                                               |                |                      [1]{}: instr 0x335-0x336.7 (2)
0x330|               40                              |     @          |                        memory.grow: 0x40 (valid) 0x335-0x335.7 (1)
0x330|                  00                           |      .         |                        reserved: 0x0 (valid) 0x336-0x336.7 (1)
     |                                               |                |                      [2]{}: instr 0x337-0x338.7 (2)
0x330|                     0d                        |       .        |                        br_if: 0xd (valid) 0x337-0x337.7 (1)
0x330|                        00                     |        .       |                        l: 0 0x338-0x338.7 (1)
0x330|                           0b                  |         .      |                    end: 11 (valid) 0x339-0x339.7 (1)
     |                                               |                |                  [1]{}: instr 0x33a-0x33a.7 (1)
0x330|                              0b               |          .     |                    end: 0xb (valid) 0x33a-0x33a.7 (1)
     |                                               |                |          [2]{}: code 0x33b-0x34b.7 (17)
0x330|                                 10            |           .    |            size: 16 0x33b-0x33b.7 (1)
     |                                               |                |            code{}: 0x33c-0x34b.7 (16)
     |                                               |                |              locals{}: 0x33c-0x33c.7 (1)
0x330|                                    00         |            .   |                n: 0 0x33c-0x33c.7 (1)
     |                                               |                |                items[0:0]: 0x33d-NA (0)
     |                                               |                |              expr{}: 0x33d-0x34b.7 (15)
     |                                               |                |                instructions[0:2]: 0x33d-0x34b.7 (15)
     |                                               |                |                  [0]{}: instr 0x33d-0x34a.7 (14)
0x330|                                       02      |             .  |                    block: 0x2 (valid) 0x33d-0x33d.7 (1)
0x330|                                          7f   |              . |                    valtype: "i32" (127) 0x33e-0x33e.7 (1)
     |                                               |                |                    instructions[0:6]: 0x33f-0x349.7 (11)
     |                                               |                |                      [0]{}: instr 0x33f-0x340.7 (2)
0x330|                                             41|               A|                        i32.const: 0x41 (valid) 0x33f-0x33f.7 (1)
0x340|00                                             |.               |                        n: 0 0x340-0x340.7 (1)
     |                                               |                |                      [1]{}: instr 0x341-0x342.7 (2)
0x340|   40                                          | @              |                        memory.grow: 0x40 (valid) 0x341-0x341.7 (1)
0x340|      00                                       |  .             |                        reserved: 0x0 (valid) 0x342-0x342.7 (1)
     |                                               |                |                      [2]{}: instr 0x343-0x344.7 (2)
0x340|         41                                    |   A            |                        i32.const: 0x41 (valid) 0x343-0x343.7 (1)
0x340|            01                                 |    .           |                        n: 1 0x344-0x344.7 (1)
     |                                               |                |                      [3]{}: instr 0x345-0x346.7 (2)
0x340|               0d                              |     .          |                        br_if: 0xd (valid) 0x345-0x345.7 (1)
0x340|                  00                           |      .         |                        l: 0 0x346-0x346.7 (1)
     |                                               |                |                      [4]{}: instr 0x347-0x347.7 (1)
0x340|                     1a                        |       .        |                        drop: 0x1a (valid) 0x347-0x347.7 (1)
     |                                               |                |                      [5]{}: instr 0x348-0x349.7 (2)
0x340|                        41                     |        A       |                        i32.const: 0x41 (valid) 0x348-0x348.7 (1)
0x340|                           07                  |         .      |                        n: 7 0x349-0x349.7 (1)
0x340|                              0b               |          .     |                    end: 11 (valid) 0x34a-0x34a.7 (1)
     |                                               |                |                  [1]{}: instr 0x34b-0x34b.7 (1)
0x340|                                 0b            |           .    |                    end: 0xb (valid) 0x34b-0x34b.7 (1)
     |                                               |                |          [3]{}: code 0x34c-0x35c.7 (17)
0x340|                                    10         |            .   |            size: 16 0x34c-0x34c.7 (1)
     |                                               |                |            code{}: 0x34d-0x35c.7 (16)
     |                                               |                |              locals{}: 0x34d-0x34d.7 (1)
0x340|                                       00      |             .  |                n: 0 0x34d-0x34d.7 (1)
     |                                               |                |                items[0:0]: 0x34e-NA (0)
     |                                               |                |              expr{}: 0x34e-0x35c.7 (15)
     |                                               |                |                instructions[0:2]: 0x34e-0x35c.7 (15)
     |                                               |                |                  [0]{}: instr 0x34e-0x35b.7 (14)
0x340|                                          02   |              . |                    block: 0x2 (valid) 0x34e-0x34e.7 (1)
0x340|                                             7f|               .|                    valtype: "i32" (127) 0x34f-0x34f.7 (1)
     |                                               |                |                    instructions[0:6]: 0x350-0x35a.7 (11)
     |                                               |                |                      [0]{}: instr 0x350-0x351.7 (2)
0x350|41                                             |A               |                        i32.const: 0x41 (valid) 0x350-0x350.7 (1)
0x350|   06                                          | .              |                        n: 6 0x351-0x351.7 (1)
     |                                               |                |                      [1]{}: instr 0x352-0x353.7 (2)
0x350|      41                                       |  A             |                        i32.const: 0x41 (valid) 0x352-0x352.7 (1)
0x350|         00                                    |   .            |                        n: 0 0x353-0x353.7 (1)
     |                                               |                |                      [2]{}: instr 0x354-0x355.7 (2)
0x350|            40                                 |    @           |                        memory.grow: 0x40 (valid) 0x354-0x354.7 (1)
0x350|               00                              |     .          |                        reserved: 0x0 (valid) 0x355-0x355.7 (1)
     |                                               |                |                      [3]{}: instr 0x356-0x357.7 (2)
0x350|                  0d                           |      .         |                        br_if: 0xd (valid) 0x356-0x356.7 (1)
0x350|                     00                        |       .        |                        l: 0 0x357-0x357.7 (1)
     |                                               |                |                      [4]{}: instr 0x358-0x358.7 (1)
0x350|                        1a                     |        .       |                        drop: 0x1a (valid) 0x358-0x358.7 (1)
     |                                               |                |                      [5]{}: instr 0x359-0x35a.7 (2)
0x350|                           41                  |         A      |                        i32.const: 0x41 (valid) 0x359-0x359.7 (1)
0x350|                              07               |          .     |                        n: 7 0x35a-0x35a.7 (1)
0x350|                                 0b            |           .    |                    end: 11 (valid) 0x35b-0x35b.7 (1)
     |                                               |                |                  [1]{}: instr 0x35c-0x35c.7 (1)
0x350|                                    0b         |            .   |                    end: 0xb (valid) 0x35c-0x35c.7 (1)
     |                                               |                |          [4]{}: code 0x35d-0x36b.7 (15)
0x350|                                       0e      |             .  |            size: 14 0x35d-0x35d.7 (1)
     |                                               |                |            code{}: 0x35e-0x36b.7 (14)
     |                                               |                |              locals{}: 0x35e-0x35e.7 (1)
0x350|                                          00   |              . |                n: 0 0x35e-0x35e.7 (1)
     |                                               |                |                items[0:0]: 0x35f-NA (0)
     |                                               |                |              expr{}: 0x35f-0x36b.7 (13)
     |                                               |                |                instructions[0:2]: 0x35f-0x36b.7 (13)
     |                                               |                |                  [0]{}: instr 0x35f-0x36a.7 (12)
0x350|                                             02|               .|                    block: 0x2 (valid) 0x35f-0x35f.7 (1)
0x360|40                                             |@               |                    empty: 64 0x360-0x360.7 (1)
     |                                               |                |                    instructions[0:3]: 0x361-0x369.7 (9)
     |                                               |                |                      [0]{}: instr 0x361-0x362.7 (2)
0x360|   41                                          | A              |                        i32.const: 0x41 (valid) 0x361-0x361.7 (1)
0x360|      00                                       |  .             |                        n: 0 0x362-0x362.7 (1)
     |                                               |                |                      [1]{}: instr 0x363-0x364.7 (2)
0x360|         40                                    |   @            |                        memory.grow: 0x40 (valid) 0x363-0x363.7 (1)
0x360|            00                                 |    .           |                        reserved: 0x0 (valid) 0x364-0x364.7 (1)
     |                                               |                |                      [2]{}: instr 0x365-0x369.7 (5)
0x360|               0e                              |     .          |                        br_table: 0xe (valid) 0x365-0x365.7 (1)
     |                                               |                |                        table{}: 0x366-0x368.7 (3)
0x360|                  02                           |      .         |                          n: 2 0x366-0x366.7 (1)
     |                                               |                |                          items[0:2]: 0x367-0x368.7 (2)
0x360|                     00                        |       .        |                            [0]: 0 l 0x367-0x367.7 (1)
0x360|                        00                     |        .       |                            [1]: 0 l 0x368-0x368.7 (1)
0x360|                           00                  |         .      |                        l: 0 0x369-0x369.7 (1)
0x360|                              0b               |          .     |                    end: 11 (valid) 0x36a-0x36a.7 (1)
     |                                               |                |                  [1]{}: instr 0x36b-0x36b.7 (1)
0x360|                                 0b            |           .    |                    end: 0xb (valid) 0x36b-0x36b.7 (1)
     |                                               |                |          [5]{}: code 0x36c-0x37e.7 (19)
0x360|                                    12         |            .   |            size: 18 0x36c-0x36c.7 (1)
     |                                               |                |            code{}: 0x36d-0x37e.7 (18)
     |                                               |                |              locals{}: 0x36d-0x36d.7 (1)
0x360|                                       00      |             .  |                n: 0 0x36d-0x36d.7 (1)
     |                                               |                |                items[0:0]: 0x36e-NA (0)
     |                                               |                |              expr{}: 0x36e-0x37e.7 (17)
     |                                               |                |                instructions[0:2]: 0x36e-0x37e.7 (17)
     |                                               |                |                  [0]{}: instr 0x36e-0x37d.7 (16)
0x360|                                          02   |              . |                    block: 0x2 (valid) 0x36e-0x36e.7 (1)
0x360|                                             7f|               .|                    valtype: "i32" (127) 0x36f-0x36f.7 (1)
     |                                               |                |                    instructions[0:5]: 0x370-0x37c.7 (13)
     |                                               |                |                      [0]{}: instr 0x370-0x371.7 (2)
0x370|41                                             |A               |                        i32.const: 0x41 (valid) 0x370-0x370.7 (1)
0x370|   00                                          | .              |                        n: 0 0x371-0x371.7 (1)
     |                                               |                |                      [1]{}: instr 0x372-0x373.7 (2)
0x370|      40                                       |  @             |                        memory.grow: 0x40 (valid) 0x372-0x372.7 (1)
0x370|         00                                    |   .            |                        reserved: 0x0 (valid) 0x373-0x373.7 (1)
     |                                               |                |                      [2]{}: instr 0x374-0x375.7 (2)
0x370|            41                                 |    A           |                        i32.const: 0x41 (valid) 0x374-0x374.7 (1)
0x370|               01                              |     .          |                        n: 1 0x375-0x375.7 (1)
     |                                               |                |                      [3]{}: instr 0x376-0x37a.7 (5)
0x370|                  0e                           |      .         |                        br_table: 0xe (valid) 0x376-0x376.7 (1)
     |                                               |                |                        table{}: 0x377-0x379.7 (3)
0x370|                     02                        |       .        |                          n: 2 0x377-0x377.7 (1)
     |                                               |                |                          items[0:2]: 0x378-0x379.7 (2)
0x370|                        00                     |        .       |                            [0]: 0 l 0x378-0x378.7 (1)
0x370|                           00                  |         .      |                            [1]: 0 l 0x379-0x379.7 (1)
0x370|                              00               |          .     |                        l: 0 0x37a-0x37a.7 (1)
     |                                               |                |                      [4]{}: instr 0x37b-0x37c.7 (2)
0x370|                                 41            |           A    |                        i32.const: 0x41 (valid) 0x37b-0x37b.7 (1)
0x370|                                    07         |            .   |                        n: 7 0x37c-0x37c.7 (1)
0x370|                                       0b      |             .  |                    end: 11 (valid) 0x37d-0x37d.7 (1)
     |                                               |                |                  [1]{}: instr 0x37e-0x37e.7 (1)
0x370|                                          0b   |              . |                    end: 0xb (valid) 0x37e-0x37e.7 (1)
     |                                               |                |          [6]{}: code 0x37f-0x390.7 (18)
0x370|                                             11|               .|            size: 17 0x37f-0x37f.7 (1)
     |                                               |                |            code{}: 0x380-0x390.7 (17)
     |                                               |                |              locals{}: 0x380-0x380.7 (1)
0x380|00                                             |.               |                n: 0 0x380-0x380.7 (1)
     |                                               |                |                items[0:0]: 0x381-NA (0)
     |                                               |                |              expr{}: 0x381-0x390.7 (16)
     |                                               |                |                instructions[0:2]: 0x381-0x390.7 (16)
     |                                               |                |                  [0]{}: instr 0x381-0x38f.7 (15)
0x380|   02                                          | .              |                    block: 0x2 (valid) 0x381-0x381.7 (1)
0x380|      7f                                       |  .             |                    valtype: "i32" (127) 0x382-0x382.7 (1)
     |                                               |                |                    instructions[0:5]: 0x383-0x38e.7 (12)
     |                                               |                |                      [0]{}: instr 0x383-0x384.7 (2)
0x380|         41                                    |   A            |                        i32.const: 0x41 (valid) 0x383-0x383.7 (1)
0x380|            06                                 |    .           |                        n: 6 0x384-0x384.7 (1)
     |                                               |                |                      [1]{}: instr 0x385-0x386.7 (2)
0x380|               41                              |     A          |                        i32.const: 0x41 (valid) 0x385-0x385.7 (1)
0x380|                  00                           |      .         |                        n: 0 0x386-0x386.7 (1)
     |                                               |                |                      [2]{}: instr 0x387-0x388.7 (2)
0x380|                     40                        |       @        |                        memory.grow: 0x40 (valid) 0x387-0x387.7 (1)
0x380|                        00                     |        .       |                        reserved: 0x0 (valid) 0x388-0x388.7 (1)
     |                                               |                |                      [3]{}: instr 0x389-0x38c.7 (4)
0x380|                           0e                  |         .      |                        br_table: 0xe (valid) 0x389-0x389.7 (1)
     |                                               |                |                        table{}: 0x38a-0x38b.7 (2)
0x380|                              01               |          .     |                          n: 1 0x38a-0x38a.7 (1)
     |                                               |                |                          items[0:1]: 0x38b-0x38b.7 (1)
0x380|                                 00            |           .    |                            [0]: 0 l 0x38b-0x38b.7 (1)
0x380|                                    00         |            .   |                        l: 0 0x38c-0x38c.7 (1)
     |                                               |                |                      [4]{}: instr 0x38d-0x38e.7 (2)
0x380|                                       41      |             A  |                        i32.const: 0x41 (valid) 0x38d-0x38d.7 (1)
0x380|                                          07   |              . |                        n: 7 0x38e-0x38e.7 (1)
0x380|                                             0b|               .|                    end: 11 (valid) 0x38f-0x38f.7 (1)
     |                                               |                |                  [1]{}: instr 0x390-0x390.7 (1)
0x390|0b                                             |.               |                    end: 0xb (valid) 0x390-0x390.7 (1)
     |                                               |                |          [7]{}: code 0x391-0x398.7 (8)
0x390|   07                                          | .              |            size: 7 0x391-0x391.7 (1)
     |                                               |                |            code{}: 0x392-0x398.7 (7)
     |                                               |                |              locals{}: 0x392-0x392.7 (1)
0x390|      00                                       |  .             |                n: 0 0x392-0x392.7 (1)
     |                                               |                |                items[0:0]: 0x393-NA (0)
     |                                               |                |              expr{}: 0x393-0x398.7 (6)
     |                                               |                |                instructions[0:4]: 0x393-0x398.7 (6)
     |                                               |                |                  [0]{}: instr 0x393-0x394.7 (2)
0x390|         41                                    |   A            |                    i32.const: 0x41 (valid) 0x393-0x393.7 (1)
0x390|            00                                 |    .           |                    n: 0 0x394-0x394.7 (1)
     |                                               |                |                  [1]{}: instr 0x395-0x396.7 (2)
0x390|               40                              |     @          |                    memory.grow: 0x40 (valid) 0x395-0x395.7 (1)
0x390|                  00                           |      .         |                    reserved: 0x0 (valid) 0x396-0x396.7 (1)
     |                                               |                |                  [2]{}: instr 0x397-0x397.7 (1)
0x390|                     0f                        |       .        |                    return: 0xf (valid) 0x397-0x397.7 (1)
     |                                               |                |                  [3]{}: instr 0x398-0x398.7 (1)
0x390|                        0b                     |        .       |                    end: 0xb (valid) 0x398-0x398.7 (1)
     |                                               |                |          [8]{}: code 0x399-0x3a7.7 (15)
0x390|                           0e                  |         .      |            size: 14 0x399-0x399.7 (1)
     |                                               |                |            code{}: 0x39a-0x3a7.7 (14)
     |                                               |                |              locals{}: 0x39a-0x39a.7 (1)
0x390|                              00               |          .     |                n: 0 0x39a-0x39a.7 (1)
     |                                               |                |                items[0:0]: 0x39b-NA (0)
     |                                               |                |              expr{}: 0x39b-0x3a7.7 (13)
     |                                               |                |                instructions[0:4]: 0x39b-0x3a7.7 (13)
     |                                               |                |                  [0]{}: instr 0x39b-0x39c.7 (2)
0x390|                                 41            |           A    |                    i32.const: 0x41 (valid) 0x39b-0x39b.7 (1)
0x390|                                    00         |            .   |                    n: 0 0x39c-0x39c.7 (1)
     |                                               |                |                  [1]{}: instr 0x39d-0x39e.7 (2)
0x390|                                       40      |             @  |                    memory.grow: 0x40 (valid) 0x39d-0x39d.7 (1)
0x390|                                          00   |              . |                    reserved: 0x0 (valid) 0x39e-0x39e.7 (1)
     |                                               |                |                  [2]{}: instr 0x39f-0x3a6.7 (8)
0x390|                                             04|               .|                    if: 0x4 (valid) 0x39f-0x39f.7 (1)
0x3a0|7f                                             |.               |                    valtype: "i32" (127) 0x3a0-0x3a0.7 (1)
     |                                               |                |                    in1[0:1]: 0x3a1-0x3a2.7 (2)
     |                                               |                |                      [0]{}: instr 0x3a1-0x3a2.7 (2)
0x3a0|   41                                          | A              |                        i32.const: 0x41 (valid) 0x3a1-0x3a1.7 (1)
0x3a0|      00                                       |  .             |                        n: 0 0x3a2-0x3a2.7 (1)
0x3a0|         05                                    |   .            |                    else: 0x5 (valid) 0x3a3-0x3a3.7 (1)
     |                                               |                |                    in2[0:1]: 0x3a4-0x3a5.7 (2)
     |                                               |                |                      [0]{}: instr 0x3a4-0x3a5.7 (2)
0x3a0|            41                                 |    A           |                        i32.const: 0x41 (valid) 0x3a4-0x3a4.7 (1)
0x3a0|               01                              |     .          |                        n: 1 0x3a5-0x3a5.7 (1)
0x3a0|                  0b                           |      .         |                    end: 11 (valid) 0x3a6-0x3a6.7 (1)
     |                                               |                |                  [3]{}: instr 0x3a7-0x3a7.7 (1)
0x3a0|                     0b                        |       .        |                    end: 0xb (valid) 0x3a7-0x3a7.7 (1)
     |                                               |                |          [9]{}: code 0x3a8-0x3b6.7 (15)
0x3a0|                        0e                     |        .       |            size: 14 0x3a8-0x3a8.7 (1)
     |                                               |                |            code{}: 0x3a9-0x3b6.7 (14)
     |                                               |                |              locals{}: 0x3a9-0x3a9.7 (1)
0x3a0|                           00                  |         .      |                n: 0 0x3a9-0x3a9.7 (1)
     |                                               |                |                items[0:0]: 0x3aa-NA (0)
     |                                               |                |              expr{}: 0x3aa-0x3b6.7 (13)
     |                                               |                |                instructions[0:3]: 0x3aa-0x3b6.7 (13)
     |                                               |                |                  [0]{}: instr 0x3aa-0x3ab.7 (2)
0x3a0|                              41               |          A     |                    i32.const: 0x41 (valid) 0x3aa-0x3aa.7 (1)
0x3a0|                                 01            |           .    |                    n: 1 0x3ab-0x3ab.7 (1)
     |                                               |                |                  [1]{}: instr 0x3ac-0x3b5.7 (10)
0x3a0|                                    04         |            .   |                    if: 0x4 (valid) 0x3ac-0x3ac.7 (1)
0x3a0|                                       7f      |             .  |                    valtype: "i32" (127) 0x3ad-0x3ad.7 (1)
     |                                               |                |                    in1[0:2]: 0x3ae-0x3b1.7 (4)
     |                                               |                |                      [0]{}: instr 0x3ae-0x3af.7 (2)
0x3a0|                                          41   |              A |                        i32.const: 0x41 (valid) 0x3ae-0x3ae.7 (1)
0x3a0|                                             00|               .|                        n: 0 0x3af-0x3af.7 (1)
     |                                               |                |                      [1]{}: instr 0x3b0-0x3b1.7 (2)
0x3b0|40                                             |@               |                        memory.grow: 0x40 (valid) 0x3b0-0x3b0.7 (1)
0x3b0|   00                                          | .              |                        reserved: 0x0 (valid) 0x3b1-0x3b1.7 (1)
0x3b0|      05                                       |  .             |                    else: 0x5 (valid) 0x3b2-0x3b2.7 (1)
     |                                               |                |                    in2[0:1]: 0x3b3-0x3b4.7 (2)
     |                                               |                |                      [0]{}: instr 0x3b3-0x3b4.7 (2)
0x3b0|         41                                    |   A            |                        i32.const: 0x41 (valid) 0x3b3-0x3b3.7 (1)
0x3b0|            00                                 |    .           |                        n: 0 0x3b4-0x3b4.7 (1)
0x3b0|               0b                              |     .          |                    end: 11 (valid) 0x3b5-0x3b5.7 (1)
     |                                               |                |                  [2]{}: instr 0x3b6-0x3b6.7 (1)
0x3b0|                  0b                           |      .         |                    end: 0xb (valid) 0x3b6-0x3b6.7 (1)
     |                                               |                |          [10]{}: code 0x3b7-0x3c5.7 (15)
0x3b0|                     0e                        |       .        |            size: 14 0x3b7-0x3b7.7 (1)
     |                                               |                |            code{}: 0x3b8-0x3c5.7 (14)
     |                                               |                |              locals{}: 0x3b8-0x3b8.7 (1)
0x3b0|                        00                     |        .       |                n: 0 0x3b8-0x3b8.7 (1)
     |                                               |                |                items[0:0]: 0x3b9-NA (0)
     |                                               |                |              expr{}: 0x3b9-0x3c5.7 (13)
     |                                               |                |                instructions[0:3]: 0x3b9-0x3c5.7 (13)
     |                                               |                |                  [0]{}: instr 0x3b9-0x3ba.7 (2)
0x3b0|                           41                  |         A      |                    i32.const: 0x41 (valid) 0x3b9-0x3b9.7 (1)
0x3b0|                              00               |          .     |                    n: 0 0x3ba-0x3ba.7 (1)
     |                                               |                |                  [1]{}: instr 0x3bb-0x3c4.7 (10)
0x3b0|                                 04            |           .    |                    if: 0x4 (valid) 0x3bb-0x3bb.7 (1)
0x3b0|                                    7f         |            .   |                    valtype: "i32" (127) 0x3bc-0x3bc.7 (1)
     |                                               |                |                    in1[0:1]: 0x3bd-0x3be.7 (2)
     |                                               |                |                      [0]{}: instr 0x3bd-0x3be.7 (2)
0x3b0|                                       41      |             A  |                        i32.const: 0x41 (valid) 0x3bd-0x3bd.7 (1)
0x3b0|                                          00   |              . |                        n: 0 0x3be-0x3be.7 (1)
0x3b0|                                             05|               .|                    else: 0x5 (valid) 0x3bf-0x3bf.7 (1)
     |                                               |                |                    in2[0:2]: 0x3c0-0x3c3.7 (4)
     |                                               |                |                      [0]{}: instr 0x3c0-0x3c1.7 (2)
0x3c0|41                                             |A               |                        i32.const: 0x41 (valid) 0x3c0-0x3c0.7 (1)
0x3c0|   00                                          | .              |                        n: 0 0x3c1-0x3c1.7 (1)
     |                                               |                |                      [1]{}: instr 0x3c2-0x3c3.7 (2)
0x3c0|      40                                       |  @             |                        memory.grow: 0x40 (valid) 0x3c2-0x3c2.7 (1)
0x3c0|         00                                    |   .            |                        reserved: 0x0 (valid) 0x3c3-0x3c3.7 (1)
0x3c0|            0b                                 |    .           |                    end: 11 (valid) 0x3c4-0x3c4.7 (1)
     |                                               |                |                  [2]{}: instr 0x3c5-0x3c5.7 (1)
0x3c0|               0b                              |     .          |                    end: 0xb (valid) 0x3c5-0x3c5.7 (1)
     |                                               |                |          [11]{}: code 0x3c6-0x3d1.7 (12)
0x3c0|                  0b                           |      .         |            size: 11 0x3c6-0x3c6.7 (1)
     |                                               |                |            code{}: 0x3c7-0x3d1.7 (11)
     |                                               |                |              locals{}: 0x3c7-0x3c7.7 (1)
0x3c0|                     00                        |       .        |                n: 0 0x3c7-0x3c7.7 (1)
     |                                               |                |                items[0:0]: 0x3c8-NA (0)
     |                                               |                |              expr{}: 0x3c8-0x3d1.7 (10)
     |                                               |                |                instructions[0:6]: 0x3c8-0x3d1.7 (10)
     |                                               |                |                  [0]{}: instr 0x3c8-0x3c9.7 (2)
0x3c0|                        41                     |        A       |                    i32.const: 0x41 (valid) 0x3c8-0x3c8.7 (1)
0x3c0|                           00                  |         .      |                    n: 0 0x3c9-0x3c9.7 (1)
     |                                               |                |                  [1]{}: instr 0x3ca-0x3cb.7 (2)
0x3c0|                              40               |          @     |                    memory.grow: 0x40 (valid) 0x3ca-0x3ca.7 (1)
0x3c0|                                 00            |           .    |                    reserved: 0x0 (valid) 0x3cb-0x3cb.7 (1)
     |                                               |                |                  [2]{}: instr 0x3cc-0x3cd.7 (2)
0x3c0|                                    20         |                |                    local.get: 0x20 (valid) 0x3cc-0x3cc.7 (1)
0x3c0|                                       00      |             .  |                    x: 0 0x3cd-0x3cd.7 (1)
     |                                               |                |                  [3]{}: instr 0x3ce-0x3cf.7 (2)
0x3c0|                                          20   |                |                    local.get: 0x20 (valid) 0x3ce-0x3ce.7 (1)
0x3c0|                                             01|               .|                    x: 1 0x3cf-0x3cf.7 (1)
     |                                               |                |                  [4]{}: instr 0x3d0-0x3d0.7 (1)
0x3d0|1b                                             |.               |                    select: 0x1b (valid) 0x3d0-0x3d0.7 (1)
     |                                               |                |                  [5]{}: instr 0x3d1-0x3d1.7 (1)
0x3d0|   0b                                          | .              |                    end: 0xb (valid) 0x3d1-0x3d1.7 (1)
     |                                               |                |          [12]{}: code 0x3d2-0x3dd.7 (12)
0x3d0|      0b                                       |  .             |            size: 11 0x3d2-0x3d2.7 (1)
     |                                               |                |            code{}: 0x3d3-0x3dd.7 (11)
     |                                               |                |              locals{}: 0x3d3-0x3d3.7 (1)
0x3d0|         00                                    |   .            |                n: 0 0x3d3-0x3d3.7 (1)
     |                                               |                |                items[0:0]: 0x3d4-NA (0)
     |                                               |                |              expr{}: 0x3d4-0x3dd.7 (10)
     |                                               |                |                instructions[0:6]: 0x3d4-0x3dd.7 (10)
     |                                               |                |                  [0]{}: instr 0x3d4-0x3d5.7 (2)
0x3d0|            20                                 |                |                    local.get: 0x20 (valid) 0x3d4-0x3d4.7 (1)
0x3d0|               00                              |     .          |                    x: 0 0x3d5-0x3d5.7 (1)
     |                                               |                |                  [1]{}: instr 0x3d6-0x3d7.7 (2)
0x3d0|                  41                           |      A         |                    i32.const: 0x41 (valid) 0x3d6-0x3d6.7 (1)
0x3d0|                     00                        |       .        |                    n: 0 0x3d7-0x3d7.7 (1)
     |                                               |                |                  [2]{}: instr 0x3d8-0x3d9.7 (2)
0x3d0|                        40                     |        @       |                    memory.grow: 0x40 (valid) 0x3d8-0x3d8.7 (1)
0x3d0|                           00                  |         .      |                    reserved: 0x0 (valid) 0x3d9-0x3d9.7 (1)
     |                                               |                |                  [3]{}: instr 0x3da-0x3db.7 (2)
0x3d0|                              20               |                |                    local.get: 0x20 (valid) 0x3da-0x3da.7 (1)
0x3d0|                                 01            |           .    |                    x: 1 0x3db-0x3db.7 (1)
     |                                               |                |                  [4]{}: instr 0x3dc-0x3dc.7 (1)
0x3d0|                                    1b         |            .   |                    select: 0x1b (valid) 0x3dc-0x3dc.7 (1)
     |                                               |                |                  [5]{}: instr 0x3dd-0x3dd.7 (1)
0x3d0|                                       0b      |             .  |                    end: 0xb (valid) 0x3dd-0x3dd.7 (1)
     |                                               |                |          [13]{}: code 0x3de-0x3e9.7 (12)
0x3d0|                                          0b   |              . |            size: 11 0x3de-0x3de.7 (1)
     |                                               |                |            code{}: 0x3df-0x3e9.7 (11)
     |                                               |                |              locals{}: 0x3df-0x3df.7 (1)
0x3d0|                                             00|               .|                n: 0 0x3df-0x3df.7 (1)
     |                                               |                |                items[0:0]: 0x3e0-NA (0)
     |                                               |                |              expr{}: 0x3e0-0x3e9.7 (10)
     |                                               |                |                instructions[0:6]: 0x3e0-0x3e9.7 (10)
     |                                               |                |                  [0]{}: instr 0x3e0-0x3e1.7 (2)
0x3e0|41                                             |A               |                    i32.const: 0x41 (valid) 0x3e0-0x3e0.7 (1)
0x3e0|   00                                          | .              |                    n: 0 0x3e1-0x3e1.7 (1)
     |                                               |                |                  [1]{}: instr 0x3e2-0x3e3.7 (2)
0x3e0|      41                                       |  A             |                    i32.const: 0x41 (valid) 0x3e2-0x3e2.7 (1)
0x3e0|         01                                    |   .            |                    n: 1 0x3e3-0x3e3.7 (1)
     |                                               |                |                  [2]{}: instr 0x3e4-0x3e5.7 (2)
0x3e0|            41                                 |    A           |                    i32.const: 0x41 (valid) 0x3e4-0x3e4.7 (1)
0x3e0|               00                              |     .          |                    n: 0 0x3e5-0x3e5.7 (1)
     |                                               |                |                  [3]{}: instr 0x3e6-0x3e7.7 (2)
0x3e0|                  40                           |      @         |                    memory.grow: 0x40 (valid) 0x3e6-0x3e6.7 (1)
0x3e0|                     00                        |       .        |                    reserved: 0x0 (valid) 0x3e7-0x3e7.7 (1)
     |                                               |                |                  [4]{}: instr 0x3e8-0x3e8.7 (1)
0x3e0|                        1b                     |        .       |                    select: 0x1b (valid) 0x3e8-0x3e8.7 (1)
     |                                               |                |                  [5]{}: instr 0x3e9-0x3e9.7 (1)
0x3e0|                           0b                  |         .      |                    end: 0xb (valid) 0x3e9-0x3e9.7 (1)
     |                                               |                |          [14]{}: code 0x3ea-0x3ee.7 (5)
0x3e0|                              04               |          .     |            size: 4 0x3ea-0x3ea.7 (1)
     |                                               |                |            code{}: 0x3eb-0x3ee.7 (4)
     |                                               |                |              locals{}: 0x3eb-0x3eb.7 (1)
0x3e0|                                 00            |           .    |                n: 0 0x3eb-0x3eb.7 (1)
     |                                               |                |                items[0:0]: 0x3ec-NA (0)
     |                                               |                |              expr{}: 0x3ec-0x3ee.7 (3)
     |                                               |                |                instructions[0:2]: 0x3ec-0x3ee.7 (3)
     |                                               |                |                  [0]{}: instr 0x3ec-0x3ed.7 (2)
0x3e0|                                    41         |            A   |                    i32.const: 0x41 (valid) 0x3ec-0x3ec.7 (1)
0x3e0|                                       7f      |             .  |                    n: -1 0x3ed-0x3ed.7 (1)
     |                                               |                |                  [1]{}: instr 0x3ee-0x3ee.7 (1)
0x3e0|                                          0b   |              . |                    end: 0xb (valid) 0x3ee-0x3ee.7 (1)
     |                                               |                |          [15]{}: code 0x3ef-0x3fb.7 (13)
0x3e0|                                             0c|               .|            size: 12 0x3ef-0x3ef.7 (1)
     |                                               |                |            code{}: 0x3f0-0x3fb.7 (12)
     |                                               |                |              locals{}: 0x3f0-0x3f0.7 (1)
0x3f0|00                                             |.               |                n: 0 0x3f0-0x3f0.7 (1)
     |                                               |                |                items[0:0]: 0x3f1-NA (0)
     |                                               |                |              expr{}: 0x3f1-0x3fb.7 (11)
     |                                               |                |                instructions[0:6]: 0x3f1-0x3fb.7 (11)
     |                                               |                |                  [0]{}: instr 0x3f1-0x3f2.7 (2)
0x3f0|   41                                          | A              |                    i32.const: 0x41 (valid) 0x3f1-0x3f1.7 (1)
0x3f0|      00                                       |  .             |                    n: 0 0x3f2-0x3f2.7 (1)
     |                                               |                |                  [1]{}: instr 0x3f3-0x3f4.7 (2)
0x3f0|         40                                    |   @            |                    memory.grow: 0x40 (valid) 0x3f3-0x3f3.7 (1)
0x3f0|            00                                 |    .           |                    reserved: 0x0 (valid) 0x3f4-0x3f4.7 (1)
     |                                               |                |                  [2]{}: instr 0x3f5-0x3f6.7 (2)
0x3f0|               41                              |     A          |                    i32.const: 0x41 (valid) 0x3f5-0x3f5.7 (1)
0x3f0|                  02                           |      .         |                    n: 2 0x3f6-0x3f6.7 (1)
     |                                               |                |                  [3]{}: instr 0x3f7-0x3f8.7 (2)
0x3f0|                     41                        |       A        |                    i32.const: 0x41 (valid) 0x3f7-0x3f7.7 (1)
0x3f0|                        03                     |        .       |                    n: 3 0x3f8-0x3f8.7 (1)
     |                                               |                |                  [4]{}: instr 0x3f9-0x3fa.7 (2)
0x3f0|                           10                  |         .      |                    call: 0x10 (valid) 0x3f9-0x3f9.7 (1)
0x3f0|                              0e               |          .     |                    x: 14 0x3fa-0x3fa.7 (1)
     |                                               |                |                  [5]{}: instr 0x3fb-0x3fb.7 (1)
0x3f0|                                 0b            |           .    |                    end: 0xb (valid) 0x3fb-0x3fb.7 (1)
     |                                               |                |          [16]{}: code 0x3fc-0x408.7 (13)
0x3f0|                                    0c         |            .   |            size: 12 0x3fc-0x3fc.7 (1)
     |                                               |                |            code{}: 0x3fd-0x408.7 (12)
     |                                               |                |              locals{}: 0x3fd-0x3fd.7 (1)
0x3f0|                                       00      |             .  |                n: 0 0x3fd-0x3fd.7 (1)
     |                                               |                |                items[0:0]: 0x3fe-NA (0)
     |                                               |                |              expr{}: 0x3fe-0x408.7 (11)
     |                                               |                |                instructions[0:6]: 0x3fe-0x408.7 (11)
     |                                               |                |                  [0]{}: instr 0x3fe-0x3ff.7 (2)
0x3f0|                                          41   |              A |                    i32.const: 0x41 (valid) 0x3fe-0x3fe.7 (1)
0x3f0|                                             01|               .|                    n: 1 0x3ff-0x3ff.7 (1)
     |                                               |                |                  [1]{}: instr 0x400-0x401.7 (2)
0x400|41                                             |A               |                    i32.const: 0x41 (valid) 0x400-0x400.7 (1)
0x400|   00                                          | .              |                    n: 0 0x401-0x401.7 (1)
     |                                               |                |                  [2]{}: instr 0x402-0x403.7 (2)
0x400|      40                                       |  @             |                    memory.grow: 0x40 (valid) 0x402-0x402.7 (1)
0x400|         00                                    |   .            |                    reserved: 0x0 (valid) 0x403-0x403.7 (1)
     |                                               |                |                  [3]{}: instr 0x404-0x405.7 (2)
0x400|            41                                 |    A           |                    i32.const: 0x41 (valid) 0x404-0x404.7 (1)
0x400|               03                              |     .          |                    n: 3 0x405-0x405.7 (1)
     |                                               |                |                  [4]{}: instr 0x406-0x407.7 (2)
0x400|                  10                           |      .         |                    call: 0x10 (valid) 0x406-0x406.7 (1)
0x400|                     0e                        |       .        |                    x: 14 0x407-0x407.7 (1)
     |                                               |                |                  [5]{}: instr 0x408-0x408.7 (1)
0x400|                        0b                     |        .       |                    end: 0xb (valid) 0x408-0x408.7 (1)
     |                                               |                |          [17]{}: code 0x409-0x415.7 (13)
0x400|                           0c                  |         .      |            size: 12 0x409-0x409.7 (1)
     |                                               |                |            code{}: 0x40a-0x415.7 (12)
     |                                               |                |              locals{}: 0x40a-0x40a.7 (1)
0x400|                              00               |          .     |                n: 0 0x40a-0x40a.7 (1)
     |                                               |                |                items[0:0]: 0x40b-NA (0)
     |                                               |                |              expr{}: 0x40b-0x415.7 (11)
     |                                               |                |                instructions[0:6]: 0x40b-0x415.7 (11)
     |                                               |                |                  [0]{}: instr 0x40b-0x40c.7 (2)
0x400|                                 41            |           A    |                    i32.const: 0x41 (valid) 0x40b-0x40b.7 (1)
0x400|                                    01         |            .   |                    n: 1 0x40c-0x40c.7 (1)
     |                                               |                |                  [1]{}: instr 0x40d-0x40e.7 (2)
0x400|                                       41      |             A  |                    i32.const: 0x41 (valid) 0x40d-0x40d.7 (1)
0x400|                                          02   |              . |                    n: 2 0x40e-0x40e.7 (1)
     |                                               |                |                  [2]{}: instr 0x40f-0x410.7 (2)
0x400|                                             41|               A|                    i32.const: 0x41 (valid) 0x40f-0x40f.7 (1)
0x410|00                                             |.               |                    n: 0 0x410-0x410.7 (1)
     |                                               |                |                  [3]{}: instr 0x411-0x412.7 (2)
0x410|   40                                          | @              |                    memory.grow: 0x40 (valid) 0x411-0x411.7 (1)
0x410|      00                                       |  .             |                    reserved: 0x0 (valid) 0x412-0x412.7 (1)
     |                                               |                |                  [4]{}: instr 0x413-0x414.7 (2)
0x410|         10                                    |   .            |                    call: 0x10 (valid) 0x413-0x413.7 (1)
0x410|            0e                                 |    .           |                    x: 14 0x414-0x414.7 (1)
     |                                               |                |                  [5]{}: instr 0x415-0x415.7 (1)
0x410|               0b                              |     .          |                    end: 0xb (valid) 0x415-0x415.7 (1)
     |                                               |                |          [18]{}: code 0x416-0x425.7 (16)
0x410|                  0f                           |      .         |            size: 15 0x416-0x416.7 (1)
     |                                               |                |            code{}: 0x417-0x425.7 (15)
     |                                               |                |              locals{}: 0x417-0x417.7 (1)
0x410|                     00                        |       .        |                n: 0 0x417-0x417.7 (1)
     |                                               |                |                items[0:0]: 0x418-NA (0)
     |                                               |                |              expr{}: 0x418-0x425.7 (14)
     |                                               |                |                instructions[0:7]: 0x418-0x425.7 (14)
     |                                               |                |                  [0]{}: instr 0x418-0x419.7 (2)
0x410|                        41                     |        A       |                    i32.const: 0x41 (valid) 0x418-0x418.7 (1)
0x410|                           00                  |         .      |                    n: 0 0x419-0x419.7 (1)
     |                                               |                |                  [1]{}: instr 0x41a-0x41b.7 (2)
0x410|                              40               |          @     |                    memory.grow: 0x40 (valid) 0x41a-0x41a.7 (1)
0x410|                                 00            |           .    |                    reserved: 0x0 (valid) 0x41b-0x41b.7 (1)
     |                                               |                |                  [2]{}: instr 0x41c-0x41d.7 (2)
0x410|                                    41         |            A   |                    i32.const: 0x41 (valid) 0x41c-0x41c.7 (1)
0x410|                                       02      |             .  |                    n: 2 0x41d-0x41d.7 (1)
     |                                               |                |                  [3]{}: instr 0x41e-0x41f.7 (2)
0x410|                                          41   |              A |                    i32.const: 0x41 (valid) 0x41e-0x41e.7 (1)
0x410|                                             03|               .|                    n: 3 0x41f-0x41f.7 (1)
     |                                               |                |                  [4]{}: instr 0x420-0x421.7 (2)
0x420|41                                             |A               |                    i32.const: 0x41 (valid) 0x420-0x420.7 (1)
0x420|   00                                          | .              |                    n: 0 0x421-0x421.7 (1)
     |                                               |                |                  [5]{}: instr 0x422-0x424.7 (3)
0x420|      11                                       |  .             |                    call: 0x11 (valid) 0x422-0x422.7 (1)
0x420|         00                                    |   .            |                    y: 0 0x423-0x423.7 (1)
0x420|            00                                 |    .           |                    x: 0 0x424-0x424.7 (1)
     |                                               |                |                  [6]{}: instr 0x425-0x425.7 (1)
0x420|               0b                              |     .          |                    end: 0xb (valid) 0x425-0x425.7 (1)
     |                                               |                |          [19]{}: code 0x426-0x435.7 (16)
0x420|                  0f                           |      .         |            size: 15 0x426-0x426.7 (1)
     |                                               |                |            code{}: 0x427-0x435.7 (15)
     |                                               |                |              locals{}: 0x427-0x427.7 (1)
0x420|                     00                        |       .        |                n: 0 0x427-0x427.7 (1)
     |                                               |                |                items[0:0]: 0x428-NA (0)
     |                                               |                |              expr{}: 0x428-0x435.7 (14)
     |                                               |                |                instructions[0:7]: 0x428-0x435.7 (14)
     |                                               |                |                  [0]{}: instr 0x428-0x429.7 (2)
0x420|                        41                     |        A       |                    i32.const: 0x41 (valid) 0x428-0x428.7 (1)
0x420|                           01                  |         .      |                    n: 1 0x429-0x429.7 (1)
     |                                               |                |                  [1]{}: instr 0x42a-0x42b.7 (2)
0x420|                              41               |          A     |                    i32.const: 0x41 (valid) 0x42a-0x42a.7 (1)
0x420|                                 00            |           .    |                    n: 0 0x42b-0x42b.7 (1)
     |                                               |                |                  [2]{}: instr 0x42c-0x42d.7 (2)
0x420|                                    40         |            @   |                    memory.grow: 0x40 (valid) 0x42c-0x42c.7 (1)
0x420|                                       00      |             .  |                    reserved: 0x0 (valid) 0x42d-0x42d.7 (1)
     |                                               |                |                  [3]{}: instr 0x42e-0x42f.7 (2)
0x420|                                          41   |              A |                    i32.const: 0x41 (valid) 0x42e-0x42e.7 (1)
0x420|                                             03|               .|                    n: 3 0x42f-0x42f.7 (1)
     |                                               |                |                  [4]{}: instr 0x430-0x431.7 (2)
0x430|41                                             |A               |                    i32.const: 0x41 (valid) 0x430-0x430.7 (1)
0x430|   00                                          | .              |                    n: 0 0x431-0x431.7 (1)
     |                                               |                |                  [5]{}: instr 0x432-0x434.7 (3)
0x430|      11                                       |  .             |                    call: 0x11 (valid) 0x432-0x432.7 (1)
0x430|         00                                    |   .            |                    y: 0 0x433-0x433.7 (1)
0x430|            00                                 |    .           |                    x: 0 0x434-0x434.7 (1)
     |                                               |                |                  [6]{}: instr 0x435-0x435.7 (1)
0x430|               0b                              |     .          |                    end: 0xb (valid) 0x435-0x435.7 (1)
     |                                               |                |          [20]{}: code 0x436-0x445.7 (16)
0x430|                  0f                           |      .         |            size: 15 0x436-0x436.7 (1)
     |                                               |                |            code{}: 0x437-0x445.7 (15)
     |                                               |                |              locals{}: 0x437-0x437.7 (1)
0x430|                     00                        |       .        |                n: 0 0x437-0x437.7 (1)
     |                                               |                |                items[0:0]: 0x438-NA (0)
     |                                               |                |              expr{}: 0x438-0x445.7 (14)
     |                                               |                |                instructions[0:7]: 0x438-0x445.7 (14)
     |                                               |                |                  [0]{}: instr 0x438-0x439.7 (2)
0x430|                        41                     |        A       |                    i32.const: 0x41 (valid) 0x438-0x438.7 (1)
0x430|                           01                  |         .      |                    n: 1 0x439-0x439.7 (1)
     |                                               |                |                  [1]{}: instr 0x43a-0x43b.7 (2)
0x430|                              41               |          A     |                    i32.const: 0x41 (valid) 0x43a-0x43a.7 (1)
0x430|                                 02            |           .    |                    n: 2 0x43b-0x43b.7 (1)
     |                                               |                |                  [2]{}: instr 0x43c-0x43d.7 (2)
0x430|                                    41         |            A   |                    i32.const: 0x41 (valid) 0x43c-0x43c.7 (1)
0x430|                                       00      |             .  |                    n: 0 0x43d-0x43d.7 (1)
     |                                               |                |                  [3]{}: instr 0x43e-0x43f.7 (2)
0x430|                                          40   |              @ |                    memory.grow: 0x40 (valid) 0x43e-0x43e.7 (1)
0x430|                                             00|               .|                    reserved: 0x0 (valid) 0x43f-0x43f.7 (1)
     |                                               |                |                  [4]{}: instr 0x440-0x441.7 (2)
0x440|41                                             |A               |                    i32.const: 0x41 (valid) 0x440-0x440.7 (1)
0x440|   00                                          | .              |                    n: 0 0x441-0x441.7 (1)
     |                                               |                |                  [5]{}: instr 0x442-0x444.7 (3)
0x440|      11                                       |  .             |                    call: 0x11 (valid) 0x442-0x442.7 (1)
0x440|         00                                    |   .            |                    y: 0 0x443-0x443.7 (1)
0x440|            00                                 |    .           |                    x: 0 0x444-0x444.7 (1)
     |                                               |                |                  [6]{}: instr 0x445-0x445.7 (1)
0x440|               0b                              |     .          |                    end: 0xb (valid) 0x445-0x445.7 (1)
     |                                               |                |          [21]{}: code 0x446-0x455.7 (16)
0x440|                  0f                           |      .         |            size: 15 0x446-0x446.7 (1)
     |                                               |                |            code{}: 0x447-0x455.7 (15)
     |                                               |                |              locals{}: 0x447-0x447.7 (1)
0x440|                     00                        |       .        |                n: 0 0x447-0x447.7 (1)
     |                                               |                |                items[0:0]: 0x448-NA (0)
     |                                               |                |              expr{}: 0x448-0x455.7 (14)
     |                                               |                |                instructions[0:7]: 0x448-0x455.7 (14)
     |                                               |                |                  [0]{}: instr 0x448-0x449.7 (2)
0x440|                        41                     |        A       |                    i32.const: 0x41 (valid) 0x448-0x448.7 (1)
0x440|                           01                  |         .      |                    n: 1 0x449-0x449.7 (1)
     |                                               |                |                  [1]{}: instr 0x44a-0x44b.7 (2)
0x440|                              41               |          A     |                    i32.const: 0x41 (valid) 0x44a-0x44a.7 (1)
0x440|                                 02            |           .    |                    n: 2 0x44b-0x44b.7 (1)
     |                                               |                |                  [2]{}: instr 0x44c-0x44d.7 (2)
0x440|                                    41         |            A   |                    i32.const: 0x41 (valid) 0x44c-0x44c.7 (1)
0x440|                                       03      |             .  |                    n: 3 0x44d-0x44d.7 (1)
     |                                               |                |                  [3]{}: instr 0x44e-0x44f.7 (2)
0x440|                                          41   |              A |                    i32.const: 0x41 (valid) 0x44e-0x44e.7 (1)
0x440|                                             00|               .|                    n: 0 0x44f-0x44f.7 (1)
     |                                               |                |                  [4]{}: instr 0x450-0x451.7 (2)
0x450|40                                             |@               |                    memory.grow: 0x40 (valid) 0x450-0x450.7 (1)
0x450|   00                                          | .              |                    reserved: 0x0 (valid) 0x451-0x451.7 (1)
     |                                               |                |                  [5]{}: instr 0x452-0x454.7 (3)
0x450|      11                                       |  .             |                    call: 0x11 (valid) 0x452-0x452.7 (1)
0x450|         00                                    |   .            |                    y: 0 0x453-0x453.7 (1)
0x450|            00                                 |    .           |                    x: 0 0x454-0x454.7 (1)
     |                                               |                |                  [6]{}: instr 0x455-0x455.7 (1)
0x450|               0b                              |     .          |                    end: 0xb (valid) 0x455-0x455.7 (1)
     |                                               |                |          [22]{}: code 0x456-0x460.7 (11)
0x450|                  0a                           |      .         |            size: 10 0x456-0x456.7 (1)
     |                                               |                |            code{}: 0x457-0x460.7 (10)
     |                                               |                |              locals{}: 0x457-0x459.7 (3)
0x450|                     01                        |       .        |                n: 1 0x457-0x457.7 (1)
     |                                               |                |                items[0:1]: 0x458-0x459.7 (2)
     |                                               |                |                  [0]{}: locals 0x458-0x459.7 (2)
0x450|                        01                     |        .       |                    n: 1 0x458-0x458.7 (1)
0x450|                           7f                  |         .      |                    valtype: "i32" (127) 0x459-0x459.7 (1)
     |                                               |                |              expr{}: 0x45a-0x460.7 (7)
     |                                               |                |                instructions[0:4]: 0x45a-0x460.7 (7)
     |                                               |                |                  [0]{}: instr 0x45a-0x45b.7 (2)
0x450|                              41               |          A     |                    i32.const: 0x41 (valid) 0x45a-0x45a.7 (1)
0x450|                                 00            |           .    |                    n: 0 0x45b-0x45b.7 (1)
     |                                               |                |                  [1]{}: instr 0x45c-0x45d.7 (2)
0x450|                                    40         |            @   |                    memory.grow: 0x40 (valid) 0x45c-0x45c.7 (1)
0x450|                                       00      |             .  |                    reserved: 0x0 (valid) 0x45d-0x45d.7 (1)
     |                                               |                |                  [2]{}: instr 0x45e-0x45f.7 (2)
0x450|                                          21   |              ! |                    local.set: 0x21 (valid) 0x45e-0x45e.7 (1)
0x450|                                             00|               .|                    x: 0 0x45f-0x45f.7 (1)
     |                                               |                |                  [3]{}: instr 0x460-0x460.7 (1)
0x460|0b                                             |.               |                    end: 0xb (valid) 0x460-0x460.7 (1)
     |                                               |                |          [23]{}: code 0x461-0x46b.7 (11)
0x460|   0a                                          | .              |            size: 10 0x461-0x461.7 (1)
     |                                               |                |            code{}: 0x462-0x46b.7 (10)
     |                                               |                |              locals{}: 0x462-0x464.7 (3)
0x460|      01                                       |  .             |                n: 1 0x462-0x462.7 (1)
     |                                               |                |                items[0:1]: 0x463-0x464.7 (2)
     |                                               |                |                  [0]{}: locals 0x463-0x464.7 (2)
0x460|         01                                    |   .            |                    n: 1 0x463-0x463.7 (1)
0x460|            7f                                 |    .           |                    valtype: "i32" (127) 0x464-0x464.7 (1)
     |                                               |                |              expr{}: 0x465-0x46b.7 (7)
     |                                               |                |                instructions[0:4]: 0x465-0x46b.7 (7)
     |                                               |                |                  [0]{}: instr 0x465-0x466.7 (2)
0x460|               41                              |     A          |                    i32.const: 0x41 (valid) 0x465-0x465.7 (1)
0x460|                  00                           |      .         |                    n: 0 0x466-0x466.7 (1)
     |                                               |                |                  [1]{}: instr 0x467-0x468.7 (2)
0x460|                     40                        |       @        |                    memory.grow: 0x40 (valid) 0x467-0x467.7 (1)
0x460|                        00                     |        .       |                    reserved: 0x0 (valid) 0x468-0x468.7 (1)
     |                                               |                |                  [2]{}: instr 0x469-0x46a.7 (2)
0x460|                           22                  |         "      |                    local.tee: 0x22 (valid) 0x469-0x469.7 (1)
0x460|                              00               |          .     |                    x: 0 0x46a-0x46a.7 (1)
     |                                               |                |                  [3]{}: instr 0x46b-0x46b.7 (1)
0x460|                                 0b            |           .    |                    end: 0xb (valid) 0x46b-0x46b.7 (1)
     |                                               |                |          [24]{}: code 0x46c-0x476.7 (11)
0x460|                                    0a         |            .   |            size: 10 0x46c-0x46c.7 (1)
     |                                               |                |            code{}: 0x46d-0x476.7 (10)
     |                                               |                |              locals{}: 0x46d-0x46f.7 (3)
0x460|                                       01      |             .  |                n: 1 0x46d-0x46d.7 (1)
     |                                               |                |                items[0:1]: 0x46e-0x46f.7 (2)
     |                                               |                |                  [0]{}: locals 0x46e-0x46f.7 (2)
0x460|                                          01   |              . |                    n: 1 0x46e-0x46e.7 (1)
0x460|                                             7f|               .|                    valtype: "i32" (127) 0x46f-0x46f.7 (1)
     |                                               |                |              expr{}: 0x470-0x476.7 (7)
     |                                               |                |                instructions[0:4]: 0x470-0x476.7 (7)
     |                                               |                |                  [0]{}: instr 0x470-0x471.7 (2)
0x470|41                                             |A               |                    i32.const: 0x41 (valid) 0x470-0x470.7 (1)
0x470|   00                                          | .              |                    n: 0 0x471-0x471.7 (1)
     |                                               |                |                  [1]{}: instr 0x472-0x473.7 (2)
0x470|      40                                       |  @             |                    memory.grow: 0x40 (valid) 0x472-0x472.7 (1)
0x470|         00                                    |   .            |                    reserved: 0x0 (valid) 0x473-0x473.7 (1)
     |                                               |                |                  [2]{}: instr 0x474-0x475.7 (2)
0x470|            24                                 |    $           |                    global.set: 0x24 (valid) 0x474-0x474.7 (1)
0x470|               00                              |     .          |                    x: 0 0x475-0x475.7 (1)
     |                                               |                |                  [3]{}: instr 0x476-0x476.7 (1)
0x470|                  0b                           |      .         |                    end: 0xb (valid) 0x476-0x476.7 (1)
     |                                               |                |          [25]{}: code 0x477-0x480.7 (10)
0x470|                     09                        |       .        |            size: 9 0x477-0x477.7 (1)
     |                                               |                |            code{}: 0x478-0x480.7 (9)
     |                                               |                |              locals{}: 0x478-0x478.7 (1)
0x470|                        00                     |        .       |                n: 0 0x478-0x478.7 (1)
     |                                               |                |                items[0:0]: 0x479-NA (0)
     |                                               |                |              expr{}: 0x479-0x480.7 (8)
     |                                               |                |                instructions[0:4]: 0x479-0x480.7 (8)
     |                                               |                |                  [0]{}: instr 0x479-0x47a.7 (2)
0x470|                           41                  |         A      |                    i32.const: 0x41 (valid) 0x479-0x479.7 (1)
0x470|                              00               |          .     |                    n: 0 0x47a-0x47a.7 (1)
     |                                               |                |                  [1]{}: instr 0x47b-0x47c.7 (2)
0x470|                                 40            |           @    |                    memory.grow: 0x40 (valid) 0x47b-0x47b.7 (1)
0x470|                                    00         |            .   |                    reserved: 0x0 (valid) 0x47c-0x47c.7 (1)
     |                                               |                |                  [2]{}: instr 0x47d-0x47f.7 (3)
0x470|                                       28      |             (  |                    i32.load: 0x28 (valid) 0x47d-0x47d.7 (1)
0x470|                                          02   |              . |                    align: 2 0x47e-0x47e.7 (1)
0x470|                                             00|               .|                    offset: 0 0x47f-0x47f.7 (1)
     |                                               |                |                  [3]{}: instr 0x480-0x480.7 (1)
0x480|0b                                             |.               |                    end: 0xb (valid) 0x480-0x480.7 (1)
     |                                               |                |          [26]{}: code 0x481-0x48a.7 (10)
0x480|   09                                          | .              |            size: 9 0x481-0x481.7 (1)
     |                                               |                |            code{}: 0x482-0x48a.7 (9)
     |                                               |                |              locals{}: 0x482-0x482.7 (1)
0x480|      00                                       |  .             |                n: 0 0x482-0x482.7 (1)
     |                                               |                |                items[0:0]: 0x483-NA (0)
     |                                               |                |              expr{}: 0x483-0x48a.7 (8)
     |                                               |                |                instructions[0:4]: 0x483-0x48a.7 (8)
     |                                               |                |                  [0]{}: instr 0x483-0x484.7 (2)
0x480|         41                                    |   A            |                    i32.const: 0x41 (valid) 0x483-0x483.7 (1)
0x480|            00                                 |    .           |                    n: 0 0x484-0x484.7 (1)
     |                                               |                |                  [1]{}: instr 0x485-0x486.7 (2)
0x480|               40                              |     @          |                    memory.grow: 0x40 (valid) 0x485-0x485.7 (1)
0x480|                  00                           |      .         |                    reserved: 0x0 (valid) 0x486-0x486.7 (1)
     |                                               |                |                  [2]{}: instr 0x487-0x489.7 (3)
0x480|                     2c                        |       ,        |                    i32.load8_s: 0x2c (valid) 0x487-0x487.7 (1)
0x480|                        00                     |        .       |                    align: 0 0x488-0x488.7 (1)
0x480|                           00                  |         .      |                    offset: 0 0x489-0x489.7 (1)
     |                                               |                |                  [3]{}: instr 0x48a-0x48a.7 (1)
0x480|                              0b               |          .     |                    end: 0xb (valid) 0x48a-0x48a.7 (1)
     |                                               |                |          [27]{}: code 0x48b-0x496.7 (12)
0x480|                                 0b            |           .    |            size: 11 0x48b-0x48b.7 (1)
     |                                               |                |            code{}: 0x48c-0x496.7 (11)
     |                                               |                |              locals{}: 0x48c-0x48c.7 (1)
0x480|                                    00         |            .   |                n: 0 0x48c-0x48c.7 (1)
     |                                               |                |                items[0:0]: 0x48d-NA (0)
     |                                               |                |              expr{}: 0x48d-0x496.7 (10)
     |                                               |                |                instructions[0:5]: 0x48d-0x496.7 (10)
     |                                               |                |                  [0]{}: instr 0x48d-0x48e.7 (2)
0x480|                                       41      |             A  |                    i32.const: 0x41 (valid) 0x48d-0x48d.7 (1)
0x480|                                          00   |              . |                    n: 0 0x48e-0x48e.7 (1)
     |                                               |                |                  [1]{}: instr 0x48f-0x490.7 (2)
0x480|                                             40|               @|                    memory.grow: 0x40 (valid) 0x48f-0x48f.7 (1)
0x490|00                                             |.               |                    reserved: 0x0 (valid) 0x490-0x490.7 (1)
     |                                               |                |                  [2]{}: instr 0x491-0x492.7 (2)
0x490|   41                                          | A              |                    i32.const: 0x41 (valid) 0x491-0x491.7 (1)
0x490|      07                                       |  .             |                    n: 7 0x492-0x492.7 (1)
     |                                               |                |                  [3]{}: instr 0x493-0x495.7 (3)
0x490|         36                                    |   6            |                    i32.store: 0x36 (valid) 0x493-0x493.7 (1)
0x490|            02                                 |    .           |                    align: 2 0x494-0x494.7 (1)
0x490|               00                              |     .          |                    offset: 0 0x495-0x495.7 (1)
     |                                               |                |                  [4]{}: instr 0x496-0x496.7 (1)
0x490|                  0b                           |      .         |                    end: 0xb (valid) 0x496-0x496.7 (1)
     |                                               |                |          [28]{}: code 0x497-0x4a2.7 (12)
0x490|                     0b                        |       .        |            size: 11 0x497-0x497.7 (1)
     |                                               |                |            code{}: 0x498-0x4a2.7 (11)
     |                                               |                |              locals{}: 0x498-0x498.7 (1)
0x490|                        00                     |        .       |                n: 0 0x498-0x498.7 (1)
     |                                               |                |                items[0:0]: 0x499-NA (0)
     |                                               |                |              expr{}: 0x499-0x4a2.7 (10)
     |                                               |                |                instructions[0:5]: 0x499-0x4a2.7 (10)
     |                                               |                |                  [0]{}: instr 0x499-0x49a.7 (2)
0x490|                           41                  |         A      |                    i32.const: 0x41 (valid) 0x499-0x499.7 (1)
0x490|                              02               |          .     |                    n: 2 0x49a-0x49a.7 (1)
     |                                               |                |                  [1]{}: instr 0x49b-0x49c.7 (2)
0x490|                                 41            |           A    |                    i32.const: 0x41 (valid) 0x49b-0x49b.7 (1)
0x490|                                    00         |            .   |                    n: 0 0x49c-0x49c.7 (1)
     |                                               |                |                  [2]{}: instr 0x49d-0x49e.7 (2)
0x490|                                       40      |             @  |                    memory.grow: 0x40 (valid) 0x49d-0x49d.7 (1)
0x490|                                          00   |              . |                    reserved: 0x0 (valid) 0x49e-0x49e.7 (1)
     |                                               |                |                  [3]{}: instr 0x49f-0x4a1.7 (3)
0x490|                                             36|               6|                    i32.store: 0x36 (valid) 0x49f-0x49f.7 (1)
0x4a0|02                                             |.               |                    align: 2 0x4a0-0x4a0.7 (1)
0x4a0|   00                                          | .              |                    offset: 0 0x4a1-0x4a1.7 (1)
     |                                               |                |                  [4]{}: instr 0x4a2-0x4a2.7 (1)
0x4a0|      0b                                       |  .             |                    end: 0xb (valid) 0x4a2-0x4a2.7 (1)
     |                                               |                |          [29]{}: code 0x4a3-0x4ae.7 (12)
0x4a0|         0b                                    |   .            |            size: 11 0x4a3-0x4a3.7 (1)
     |                                               |                |            code{}: 0x4a4-0x4ae.7 (11)
     |                                               |                |              locals{}: 0x4a4-0x4a4.7 (1)
0x4a0|            00                                 |    .           |                n: 0 0x4a4-0x4a4.7 (1)
     |                                               |                |                items[0:0]: 0x4a5-NA (0)
     |                                               |                |              expr{}: 0x4a5-0x4ae.7 (10)
     |                                               |                |                instructions[0:5]: 0x4a5-0x4ae.7 (10)
     |                                               |                |                  [0]{}: instr 0x4a5-0x4a6.7 (2)
0x4a0|               41                              |     A          |                    i32.const: 0x41 (valid) 0x4a5-0x4a5.7 (1)
0x4a0|                  00                           |      .         |                    n: 0 0x4a6-0x4a6.7 (1)
     |                                               |                |                  [1]{}: instr 0x4a7-0x4a8.7 (2)
0x4a0|                     40                        |       @        |                    memory.grow: 0x40 (valid) 0x4a7-0x4a7.7 (1)
0x4a0|                        00                     |        .       |                    reserved: 0x0 (valid) 0x4a8-0x4a8.7 (1)
     |                                               |                |                  [2]{}: instr 0x4a9-0x4aa.7 (2)
0x4a0|                           41                  |         A      |                    i32.const: 0x41 (valid) 0x4a9-0x4a9.7 (1)
0x4a0|                              07               |          .     |                    n: 7 0x4aa-0x4aa.7 (1)
     |                                               |                |                  [3]{}: instr 0x4ab-0x4ad.7 (3)
0x4a0|                                 3a            |           :    |                    i32.store8: 0x3a (valid) 0x4ab-0x4ab.7 (1)
0x4a0|                                    00         |            .   |                    align: 0 0x4ac-0x4ac.7 (1)
0x4a0|                                       00      |             .  |                    offset: 0 0x4ad-0x4ad.7 (1)
     |                                               |                |                  [4]{}: instr 0x4ae-0x4ae.7 (1)
0x4a0|                                          0b   |              . |                    end: 0xb (valid) 0x4ae-0x4ae.7 (1)
     |                                               |                |          [30]{}: code 0x4af-0x4ba.7 (12)
0x4a0|                                             0b|               .|            size: 11 0x4af-0x4af.7 (1)
     |                                               |                |            code{}: 0x4b0-0x4ba.7 (11)
     |                                               |                |              locals{}: 0x4b0-0x4b0.7 (1)
0x4b0|00                                             |.               |                n: 0 0x4b0-0x4b0.7 (1)
     |                                               |                |                items[0:0]: 0x4b1-NA (0)
     |                                               |                |              expr{}: 0x4b1-0x4ba.7 (10)
     |                                               |                |                instructions[0:5]: 0x4b1-0x4ba.7 (10)
     |                                               |                |                  [0]{}: instr 0x4b1-0x4b2.7 (2)
0x4b0|   41                                          | A              |                    i32.const: 0x41 (valid) 0x4b1-0x4b1.7 (1)
0x4b0|      02                                       |  .             |                    n: 2 0x4b2-0x4b2.7 (1)
     |                                               |                |                  [1]{}: instr 0x4b3-0x4b4.7 (2)
0x4b0|         41                                    |   A            |                    i32.const: 0x41 (valid) 0x4b3-0x4b3.7 (1)
0x4b0|            00                                 |    .           |                    n: 0 0x4b4-0x4b4.7 (1)
     |                                               |                |                  [2]{}: instr 0x4b5-0x4b6.7 (2)
0x4b0|               40                              |     @          |                    memory.grow: 0x40 (valid) 0x4b5-0x4b5.7 (1)
0x4b0|                  00                           |      .         |                    reserved: 0x0 (valid) 0x4b6-0x4b6.7 (1)
     |                                               |                |                  [3]{}: instr 0x4b7-0x4b9.7 (3)
0x4b0|                     3b                        |       ;        |                    i32.store16: 0x3b (valid) 0x4b7-0x4b7.7 (1)
0x4b0|                        01                     |        .       |                    align: 1 0x4b8-0x4b8.7 (1)
0x4b0|                           00                  |         .      |                    offset: 0 0x4b9-0x4b9.7 (1)
     |                                               |                |                  [4]{}: instr 0x4ba-0x4ba.7 (1)
0x4b0|                              0b               |          .     |                    end: 0xb (valid) 0x4ba-0x4ba.7 (1)
     |                                               |                |          [31]{}: code 0x4bb-0x4c2.7 (8)
0x4b0|                                 07            |           .    |            size: 7 0x4bb-0x4bb.7 (1)
     |                                               |                |            code{}: 0x4bc-0x4c2.7 (7)
     |                                               |                |              locals{}: 0x4bc-0x4bc.7 (1)
0x4b0|                                    00         |            .   |                n: 0 0x4bc-0x4bc.7 (1)
     |                                               |                |                items[0:0]: 0x4bd-NA (0)
     |                                               |                |              expr{}: 0x4bd-0x4c2.7 (6)
     |                                               |                |                instructions[0:4]: 0x4bd-0x4c2.7 (6)
     |                                               |                |                  [0]{}: instr 0x4bd-0x4be.7 (2)
0x4b0|                                       41      |             A  |                    i32.const: 0x41 (valid) 0x4bd-0x4bd.7 (1)
0x4b0|                                          00   |              . |                    n: 0 0x4be-0x4be.7 (1)
     |                                               |                |                  [1]{}: instr 0x4bf-0x4c0.7 (2)
0x4b0|                                             40|               @|                    memory.grow: 0x40 (valid) 0x4bf-0x4bf.7 (1)
0x4c0|00                                             |.               |                    reserved: 0x0 (valid) 0x4c0-0x4c0.7 (1)
     |                                               |                |                  [2]{}: instr 0x4c1-0x4c1.7 (1)
0x4c0|   67                                          | g              |                    i32.clz: 0x67 (valid) 0x4c1-0x4c1.7 (1)
     |                                               |                |                  [3]{}: instr 0x4c2-0x4c2.7 (1)
0x4c0|      0b                                       |  .             |                    end: 0xb (valid) 0x4c2-0x4c2.7 (1)
     |                                               |                |          [32]{}: code 0x4c3-0x4cc.7 (10)
0x4c0|         09                                    |   .            |            size: 9 0x4c3-0x4c3.7 (1)
     |                                               |                |            code{}: 0x4c4-0x4cc.7 (9)
     |                                               |                |              locals{}: 0x4c4-0x4c4.7 (1)
0x4c0|            00                                 |    .           |                n: 0 0x4c4-0x4c4.7 (1)
     |                                               |                |                items[0:0]: 0x4c5-NA (0)
     |                                               |                |              expr{}: 0x4c5-0x4cc.7 (8)
     |                                               |                |                instructions[0:5]: 0x4c5-0x4cc.7 (8)
     |                                               |                |                  [0]{}: instr 0x4c5-0x4c6.7 (2)
0x4c0|               41                              |     A          |                    i32.const: 0x41 (valid) 0x4c5-0x4c5.7 (1)
0x4c0|                  00                           |      .         |                    n: 0 0x4c6-0x4c6.7 (1)
     |                                               |                |                  [1]{}: instr 0x4c7-0x4c8.7 (2)
0x4c0|                     40                        |       @        |                    memory.grow: 0x40 (valid) 0x4c7-0x4c7.7 (1)
0x4c0|                        00                     |        .       |                    reserved: 0x0 (valid) 0x4c8-0x4c8.7 (1)
     |                                               |                |                  [2]{}: instr 0x4c9-0x4ca.7 (2)
0x4c0|                           41                  |         A      |                    i32.const: 0x41 (valid) 0x4c9-0x4c9.7 (1)
0x4c0|                              0a               |          .     |                    n: 10 0x4ca-0x4ca.7 (1)
     |                                               |                |                  [3]{}: instr 0x4cb-0x4cb.7 (1)
0x4c0|                                 6a            |           j    |                    i32.add: 0x6a (valid) 0x4cb-0x4cb.7 (1)
     |                                               |                |                  [4]{}: instr 0x4cc-0x4cc.7 (1)
0x4c0|                                    0b         |            .   |                    end: 0xb (valid) 0x4cc-0x4cc.7 (1)
     |                                               |                |          [33]{}: code 0x4cd-0x4d6.7 (10)
0x4c0|                                       09      |             .  |            size: 9 0x4cd-0x4cd.7 (1)
     |                                               |                |            code{}: 0x4ce-0x4d6.7 (9)
     |                                               |                |              locals{}: 0x4ce-0x4ce.7 (1)
0x4c0|                                          00   |              . |                n: 0 0x4ce-0x4ce.7 (1)
     |                                               |                |                items[0:0]: 0x4cf-NA (0)
     |                                               |                |              expr{}: 0x4cf-0x4d6.7 (8)
     |                                               |                |                instructions[0:5]: 0x4cf-0x4d6.7 (8)
     |                                               |                |                  [0]{}: instr 0x4cf-0x4d0.7 (2)
0x4c0|                                             41|               A|                    i32.const: 0x41 (valid) 0x4cf-0x4cf.7 (1)
0x4d0|0a                                             |.               |                    n: 10 0x4d0-0x4d0.7 (1)
     |                                               |                |                  [1]{}: instr 0x4d1-0x4d2.7 (2)
0x4d0|   41                                          | A              |                    i32.const: 0x41 (valid) 0x4d1-0x4d1.7 (1)
0x4d0|      00                                       |  .             |                    n: 0 0x4d2-0x4d2.7 (1)
     |                                               |                |                  [2]{}: instr 0x4d3-0x4d4.7 (2)
0x4d0|         40                                    |   @            |                    memory.grow: 0x40 (valid) 0x4d3-0x4d3.7 (1)
0x4d0|            00                                 |    .           |                    reserved: 0x0 (valid) 0x4d4-0x4d4.7 (1)
     |                                               |                |                  [3]{}: instr 0x4d5-0x4d5.7 (1)
0x4d0|               6b                              |     k          |                    i32.sub: 0x6b (valid) 0x4d5-0x4d5.7 (1)
     |                                               |                |                  [4]{}: instr 0x4d6-0x4d6.7 (1)
0x4d0|                  0b                           |      .         |                    end: 0xb (valid) 0x4d6-0x4d6.7 (1)
     |                                               |                |          [34]{}: code 0x4d7-0x4de.7 (8)
0x4d0|                     07                        |       .        |            size: 7 0x4d7-0x4d7.7 (1)
     |                                               |                |            code{}: 0x4d8-0x4de.7 (7)
     |                                               |                |              locals{}: 0x4d8-0x4d8.7 (1)
0x4d0|                        00                     |        .       |                n: 0 0x4d8-0x4d8.7 (1)
     |                                               |                |                items[0:0]: 0x4d9-NA (0)
     |                                               |                |              expr{}: 0x4d9-0x4de.7 (6)
     |                                               |                |                instructions[0:4]: 0x4d9-0x4de.7 (6)
     |                                               |                |                  [0]{}: instr 0x4d9-0x4da.7 (2)
0x4d0|                           41                  |         A      |                    i32.const: 0x41 (valid) 0x4d9-0x4d9.7 (1)
0x4d0|                              00               |          .     |                    n: 0 0x4da-0x4da.7 (1)
     |                                               |                |                  [1]{}: instr 0x4db-0x4dc.7 (2)
0x4d0|                                 40            |           @    |                    memory.grow: 0x40 (valid) 0x4db-0x4db.7 (1)
0x4d0|                                    00         |            .   |                    reserved: 0x0 (valid) 0x4dc-0x4dc.7 (1)
     |                                               |                |                  [2]{}: instr 0x4dd-0x4dd.7 (1)
0x4d0|                                       45      |             E  |                    i32.eqz: 0x45 (valid) 0x4dd-0x4dd.7 (1)
     |                                               |                |                  [3]{}: instr 0x4de-0x4de.7 (1)
0x4d0|                                          0b   |              . |                    end: 0xb (valid) 0x4de-0x4de.7 (1)
     |                                               |                |          [35]{}: code 0x4df-0x4e8.7 (10)
0x4d0|                                             09|               .|            size: 9 0x4df-0x4df.7 (1)
     |                                               |                |            code{}: 0x4e0-0x4e8.7 (9)
     |                                               |                |              locals{}: 0x4e0-0x4e0.7 (1)
0x4e0|00                                             |.               |                n: 0 0x4e0-0x4e0.7 (1)
     |                                               |                |                items[0:0]: 0x4e1-NA (0)
     |                                               |                |              expr{}: 0x4e1-0x4e8.7 (8)
     |                                               |                |                instructions[0:5]: 0x4e1-0x4e8.7 (8)
     |                                               |                |                  [0]{}: instr 0x4e1-0x4e2.7 (2)
0x4e0|   41                                          | A              |                    i32.const: 0x41 (valid) 0x4e1-0x4e1.7 (1)
0x4e0|      00                                       |  .             |                    n: 0 0x4e2-0x4e2.7 (1)
     |                                               |                |                  [1]{}: instr 0x4e3-0x4e4.7 (2)
0x4e0|         40                                    |   @            |                    memory.grow: 0x40 (valid) 0x4e3-0x4e3.7 (1)
0x4e0|            00                                 |    .           |                    reserved: 0x0 (valid) 0x4e4-0x4e4.7 (1)
     |                                               |                |                  [2]{}: instr 0x4e5-0x4e6.7 (2)
0x4e0|               41                              |     A          |                    i32.const: 0x41 (valid) 0x4e5-0x4e5.7 (1)
0x4e0|                  0a                           |      .         |                    n: 10 0x4e6-0x4e6.7 (1)
     |                                               |                |                  [3]{}: instr 0x4e7-0x4e7.7 (1)
0x4e0|                     4c                        |       L        |                    i32.le_s: 0x4c (valid) 0x4e7-0x4e7.7 (1)
     |                                               |                |                  [4]{}: instr 0x4e8-0x4e8.7 (1)
0x4e0|                        0b                     |        .       |                    end: 0xb (valid) 0x4e8-0x4e8.7 (1)
     |                                               |                |          [36]{}: code 0x4e9-0x4f2.7 (10)
0x4e0|                           09                  |         .      |            size: 9 0x4e9-0x4e9.7 (1)
     |                                               |                |            code{}: 0x4ea-0x4f2.7 (9)
     |                                               |                |              locals{}: 0x4ea-0x4ea.7 (1)
0x4e0|                              00               |          .     |                n: 0 0x4ea-0x4ea.7 (1)
     |                                               |                |                items[0:0]: 0x4eb-NA (0)
     |                                               |                |              expr{}: 0x4eb-0x4f2.7 (8)
     |                                               |                |                instructions[0:5]: 0x4eb-0x4f2.7 (8)
     |                                               |                |                  [0]{}: instr 0x4eb-0x4ec.7 (2)
0x4e0|                                 41            |           A    |                    i32.const: 0x41 (valid) 0x4eb-0x4eb.7 (1)
0x4e0|                                    0a         |            .   |                    n: 10 0x4ec-0x4ec.7 (1)
     |                                               |                |                  [1]{}: instr 0x4ed-0x4ee.7 (2)
0x4e0|                                       41      |             A  |                    i32.const: 0x41 (valid) 0x4ed-0x4ed.7 (1)
0x4e0|                                          00   |              . |                    n: 0 0x4ee-0x4ee.7 (1)
     |                                               |                |                  [2]{}: instr 0x4ef-0x4f0.7 (2)
0x4e0|                                             40|               @|                    memory.grow: 0x40 (valid) 0x4ef-0x4ef.7 (1)
0x4f0|00                                             |.               |                    reserved: 0x0 (valid) 0x4f0-0x4f0.7 (1)
     |                                               |                |                  [3]{}: instr 0x4f1-0x4f1.7 (1)
0x4f0|   47                                          | G              |                    i32.ne: 0x47 (valid) 0x4f1-0x4f1.7 (1)
     |                                               |                |                  [4]{}: instr 0x4f2-0x4f2.7 (1)
0x4f0|      0b                                       |  .             |                    end: 0xb (valid) 0x4f2-0x4f2.7 (1)
     |                                               |                |          [37]{}: code 0x4f3-0x4fb.7 (9)
0x4f0|         08                                    |   .            |            size: 8 0x4f3-0x4f3.7 (1)
     |                                               |                |            code{}: 0x4f4-0x4fb.7 (8)
     |                                               |                |              locals{}: 0x4f4-0x4f4.7 (1)
0x4f0|            00                                 |    .           |                n: 0 0x4f4-0x4f4.7 (1)
     |                                               |                |                items[0:0]: 0x4f5-NA (0)
     |                                               |                |              expr{}: 0x4f5-0x4fb.7 (7)
     |                                               |                |                instructions[0:4]: 0x4f5-0x4fb.7 (7)
     |                                               |                |                  [0]{}: instr 0x4f5-0x4f6.7 (2)
0x4f0|               41                              |     A          |                    i32.const: 0x41 (valid) 0x4f5-0x4f5.7 (1)
0x4f0|                  00                           |      .         |                    n: 0 0x4f6-0x4f6.7 (1)
     |                                               |                |                  [1]{}: instr 0x4f7-0x4f8.7 (2)
0x4f0|                     40                        |       @        |                    memory.grow: 0x40 (valid) 0x4f7-0x4f7.7 (1)
0x4f0|                        00                     |        .       |                    reserved: 0x0 (valid) 0x4f8-0x4f8.7 (1)
     |                                               |                |                  [2]{}: instr 0x4f9-0x4fa.7 (2)
0x4f0|                           40                  |         @      |                    memory.grow: 0x40 (valid) 0x4f9-0x4f9.7 (1)
0x4f0|                              00               |          .     |                    reserved: 0x0 (valid) 0x4fa-0x4fa.7 (1)
     |                                               |                |                  [3]{}: instr 0x4fb-0x4fb.7 (1)
0x4f0|                                 0b|           |           .|   |                    end: 0xb (valid) 0x4fb-0x4fb.7 (1)
