$ fq -d wasm dv memory_trap-0.wasm
    |00 01 02 03 04 05 06 07 08 09 0a 0b 0c 0d 0e 0f|0123456789abcdef|.{}: memory_trap-0.wasm (wasm) 0x0-0x70.7 (113)
0x00|00 61 73 6d                                    |.asm            |  magic: raw bits (valid) 0x0-0x3.7 (4)
0x00|            01 00 00 00                        |    ....        |  version: 1 0x4-0x7.7 (4)
    |                                               |                |  sections[0:5]: 0x8-0x70.7 (105)
    |                                               |                |    [0]{}: section 0x8-0x18.7 (17)
0x00|                        01                     |        .       |      id: "type section" (1) 0x8-0x8.7 (1)
0x00|                           0f                  |         .      |      size: 15 0x9-0x9.7 (1)
    |                                               |                |      content{}: 0xa-0x18.7 (15)
0x00|                              03               |          .     |        n: 3 0xa-0xa.7 (1)
    |                                               |                |        items[0:3]: 0xb-0x18.7 (14)
    |                                               |                |          [0]{}: functype 0xb-0xe.7 (4)
0x00|                                 60            |           `    |            tag: 0x60 (valid) 0xb-0xb.7 (1)
    |                                               |                |            rt1{}: 0xc-0xc.7 (1)
0x00|                                    00         |            .   |              n: 0 0xc-0xc.7 (1)
    |                                               |                |              items[0:0]: 0xd-NA (0)
    |                                               |                |            rt2{}: 0xd-0xe.7 (2)
0x00|                                       01      |             .  |              n: 1 0xd-0xd.7 (1)
    |                                               |                |              items[0:1]: 0xe-0xe.7 (1)
0x00|                                          7f   |              . |                [0]: "i32" (127) valtype 0xe-0xe.7 (1)
    |                                               |                |          [1]{}: functype 0xf-0x13.7 (5)
0x00|                                             60|               `|            tag: 0x60 (valid) 0xf-0xf.7 (1)
    |                                               |                |            rt1{}: 0x10-0x12.7 (3)
0x10|02                                             |.               |              n: 2 0x10-0x10.7 (1)
    |                                               |                |              items[0:2]: 0x11-0x12.7 (2)
0x10|   7f                                          | .              |                [0]: "i32" (127) valtype 0x11-0x11.7 (1)
0x10|      7f                                       |  .             |                [1]: "i32" (127) valtype 0x12-0x12.7 (1)
    |                                               |                |            rt2{}: 0x13-0x13.7 (1)
0x10|         00                                    |   .            |              n: 0 0x13-0x13.7 (1)
    |                                               |                |              items[0:0]: 0x14-NA (0)
    |                                               |                |          [2]{}: functype 0x14-0x18.7 (5)
0x10|            60                                 |    `           |            tag: 0x60 (valid) 0x14-0x14.7 (1)
    |                                               |                |            rt1{}: 0x15-0x16.7 (2)
0x10|               01                              |     .          |              n: 1 0x15-0x15.7 (1)
    |                                               |                |              items[0:1]: 0x16-0x16.7 (1)
0x10|                  7f                           |      .         |                [0]: "i32" (127) valtype 0x16-0x16.7 (1)
    |                                               |                |            rt2{}: 0x17-0x18.7 (2)
0x10|                     01                        |       .        |              n: 1 0x17-0x17.7 (1)
    |                                               |                |              items[0:1]: 0x18-0x18.7 (1)
0x10|                        7f                     |        .       |                [0]: "i32" (127) valtype 0x18-0x18.7 (1)
    |                                               |                |    [1]{}: section 0x19-0x1f.7 (7)
0x10|                           03                  |         .      |      id: "function section" (3) 0x19-0x19.7 (1)
0x10|                              05               |          .     |      size: 5 0x1a-0x1a.7 (1)
    |                                               |                |      content{}: 0x1b-0x1f.7 (5)
0x10|                                 04            |           .    |        n: 4 0x1b-0x1b.7 (1)
    |                                               |                |        items[0:4]: 0x1c-0x1f.7 (4)
0x10|                                    00         |            .   |          [0]: 0 x 0x1c-0x1c.7 (1)
0x10|                                       01      |             .  |          [1]: 1 x 0x1d-0x1d.7 (1)
0x10|                                          02   |              . |          [2]: 2 x 0x1e-0x1e.7 (1)
0x10|                                             02|               .|          [3]: 2 x 0x1f-0x1f.7 (1)
    |                                               |                |    [2]{}: section 0x20-0x24.7 (5)
0x20|05                                             |.               |      id: "memory section" (5) 0x20-0x20.7 (1)
0x20|   03                                          | .              |      size: 3 0x21-0x21.7 (1)
    |                                               |                |      content{}: 0x22-0x24.7 (3)
0x20|      01                                       |  .             |        n: 1 0x22-0x22.7 (1)
    |                                               |                |        items[0:1]: 0x23-0x24.7 (2)
    |                                               |                |          [0]{}: mem 0x23-0x24.7 (2)
    |                                               |                |            limits{}: 0x23-0x24.7 (2)
0x20|         00                                    |   .            |              tag: 0x0 0x23-0x23.7 (1)
0x20|            01                                 |    .           |              min: 1 0x24-0x24.7 (1)
    |                                               |                |    [3]{}: section 0x25-0x44.7 (32)
0x20|               07                              |     .          |      id: "export section" (7) 0x25-0x25.7 (1)
0x20|                  1e                           |      .         |      size: 30 0x26-0x26.7 (1)
    |                                               |                |      content{}: 0x27-0x44.7 (30)
0x20|                     03                        |       .        |        n: 3 0x27-0x27.7 (1)
    |                                               |                |        items[0:3]: 0x28-0x44.7 (29)
    |                                               |                |          [0]{}: export 0x28-0x2f.7 (8)
    |                                               |                |            name{}: 0x28-0x2d.7 (6)
0x20|                        05                     |        .       |              len: 5 0x28-0x28.7 (1)
0x20|                           73 74 6f 72 65      |         store  |              utf8bytes: "store" 0x29-0x2d.7 (5)
    |                                               |                |            expr{}: 0x2e-0x2f.7 (2)
0x20|                                          00   |              . |              tag: "funcidx" (0x0) 0x2e-0x2e.7 (1)
0x20|                                             01|               .|              x: 1 0x2f-0x2f.7 (1)
    |                                               |                |          [1]{}: export 0x30-0x36.7 (7)
    |                                               |                |            name{}: 0x30-0x34.7 (5)
0x30|04                                             |.               |              len: 4 0x30-0x30.7 (1)
0x30|   6c 6f 61 64                                 | load           |              utf8bytes: "load" 0x31-0x34.7 (4)
    |                                               |                |            expr{}: 0x35-0x36.7 (2)
0x30|               00                              |     .          |              tag: "funcidx" (0x0) 0x35-0x35.7 (1)
0x30|                  02                           |      .         |              x: 2 0x36-0x36.7 (1)
    |                                               |                |          [2]{}: export 0x37-0x44.7 (14)
    |                                               |                |            name{}: 0x37-0x42.7 (12)
0x30|                     0b                        |       .        |              len: 11 0x37-0x37.7 (1)
0x30|                        6d 65 6d 6f 72 79 2e 67|        memory.g|              utf8bytes: "memory.grow" 0x38-0x42.7 (11)
0x40|72 6f 77                                       |row             |
    |                                               |                |            expr{}: 0x43-0x44.7 (2)
0x40|         00                                    |   .            |              tag: "funcidx" (0x0) 0x43-0x43.7 (1)
0x40|            03                                 |    .           |              x: 3 0x44-0x44.7 (1)
    |                                               |                |    [4]{}: section 0x45-0x70.7 (44)
0x40|               0a                              |     .          |      id: "code section" (10) 0x45-0x45.7 (1)
0x40|                  2a                           |      *         |      size: 42 0x46-0x46.7 (1)
    |                                               |                |      content{}: 0x47-0x70.7 (42)
0x40|                     04                        |       .        |        n: 4 0x47-0x47.7 (1)
    |                                               |                |        items[0:4]: 0x48-0x70.7 (41)
    |                                               |                |          [0]{}: code 0x48-0x51.7 (10)
0x40|                        09                     |        .       |            size: 9 0x48-0x48.7 (1)
    |                                               |                |            code{}: 0x49-0x51.7 (9)
    |                                               |                |              locals{}: 0x49-0x49.7 (1)
0x40|                           00                  |         .      |                n: 0 0x49-0x49.7 (1)
    |                                               |                |                items[0:0]: 0x4a-NA (0)
    |                                               |                |              expr{}: 0x4a-0x51.7 (8)
    |                                               |                |                instructions[0:4]: 0x4a-0x51.7 (8)
    |                                               |                |                  [0]{}: instr 0x4a-0x4b.7 (2)
0x40|                              3f               |          ?     |                    memory.size: 0x3f (valid) 0x4a-0x4a.7 (1)
0x40|                                 00            |           .    |                    reserved: 0x0 (valid) 0x4b-0x4b.7 (1)
    |                                               |                |                  [1]{}: instr 0x4c-0x4f.7 (4)
0x40|                                    41         |            A   |                    i32.const: 0x41 (valid) 0x4c-0x4c.7 (1)
0x40|                                       80 80 04|             ...|                    n: 65536 0x4d-0x4f.7 (3)
    |                                               |                |                  [2]{}: instr 0x50-0x50.7 (1)
0x50|6c                                             |l               |                    i32.mul: 0x6c (valid) 0x50-0x50.7 (1)
    |                                               |                |                  [3]{}: instr 0x51-0x51.7 (1)
0x50|   0b                                          | .              |                    end: 0xb (valid) 0x51-0x51.7 (1)
    |                                               |                |          [1]{}: code 0x52-0x5e.7 (13)
0x50|      0c                                       |  .             |            size: 12 0x52-0x52.7 (1)
    |                                               |                |            code{}: 0x53-0x5e.7 (12)
    |                                               |                |              locals{}: 0x53-0x53.7 (1)
0x50|         00                                    |   .            |                n: 0 0x53-0x53.7 (1)
    |                                               |                |                items[0:0]: 0x54-NA (0)
    |                                               |                |              expr{}: 0x54-0x5e.7 (11)
    |                                               |                |                instructions[0:6]: 0x54-0x5e.7 (11)
    |                                               |                |                  [0]{}: instr 0x54-0x55.7 (2)
0x50|            10                                 |    .           |                    call: 0x10 (valid) 0x54-0x54.7 (1)
0x50|               00                              |     .          |                    x: 0 0x55-0x55.7 (1)
    |                                               |                |                  [1]{}: instr 0x56-0x57.7 (2)
0x50|                  20                           |                |                    local.get: 0x20 (valid) 0x56-0x56.7 (1)
0x50|                     00                        |       .        |                    x: 0 0x57-0x57.7 (1)
    |                                               |                |                  [2]{}: instr 0x58-0x58.7 (1)
0x50|                        6a                     |        j       |                    i32.add: 0x6a (valid) 0x58-0x58.7 (1)
    |                                               |                |                  [3]{}: instr 0x59-0x5a.7 (2)
0x50|                           20                  |                |                    local.get: 0x20 (valid) 0x59-0x59.7 (1)
0x50|                              01               |          .     |                    x: 1 0x5a-0x5a.7 (1)
    |                                               |                |                  [4]{}: instr 0x5b-0x5d.7 (3)
0x50|                                 36            |           6    |                    i32.store: 0x36 (valid) 0x5b-0x5b.7 (1)
0x50|                                    02         |            .   |                    align: 2 0x5c-0x5c.7 (1)
0x50|                                       00      |             .  |                    offset: 0 0x5d-0x5d.7 (1)
    |                                               |                |                  [5]{}: instr 0x5e-0x5e.7 (1)
0x50|                                          0b   |              . |                    end: 0xb (valid) 0x5e-0x5e.7 (1)
    |                                               |                |          [2]{}: code 0x5f-0x69.7 (11)
0x50|                                             0a|               .|            size: 10 0x5f-0x5f.7 (1)
    |                                               |                |            code{}: 0x60-0x69.7 (10)
    |                                               |                |              locals{}: 0x60-0x60.7 (1)
0x60|00                                             |.               |                n: 0 0x60-0x60.7 (1)
    |                                               |                |                items[0:0]: 0x61-NA (0)
    |                                               |                |              expr{}: 0x61-0x69.7 (9)
    |                                               |                |                instructions[0:5]: 0x61-0x69.7 (9)
    |                                               |                |                  [0]{}: instr 0x61-0x62.7 (2)
0x60|   10                                          | .              |                    call: 0x10 (valid) 0x61-0x61.7 (1)
0x60|      00                                       |  .             |                    x: 0 0x62-0x62.7 (1)
    |                                               |                |                  [1]{}: instr 0x63-0x64.7 (2)
0x60|         20                                    |                |                    local.get: 0x20 (valid) 0x63-0x63.7 (1)
0x60|            00                                 |    .           |                    x: 0 0x64-0x64.7 (1)
    |                                               |                |                  [2]{}: instr 0x65-0x65.7 (1)
0x60|               6a                              |     j          |                    i32.add: 0x6a (valid) 0x65-0x65.7 (1)
    |                                               |                |                  [3]{}: instr 0x66-0x68.7 (3)
0x60|                  28                           |      (         |                    i32.load: 0x28 (valid) 0x66-0x66.7 (1)
0x60|                     02                        |       .        |                    align: 2 0x67-0x67.7 (1)
0x60|                        00                     |        .       |                    offset: 0 0x68-0x68.7 (1)
    |                                               |                |                  [4]{}: instr 0x69-0x69.7 (1)
0x60|                           0b                  |         .      |                    end: 0xb (valid) 0x69-0x69.7 (1)
    |                                               |                |          [3]{}: code 0x6a-0x70.7 (7)
0x60|                              06               |          .     |            size: 6 0x6a-0x6a.7 (1)
    |                                               |                |            code{}: 0x6b-0x70.7 (6)
    |                                               |                |              locals{}: 0x6b-0x6b.7 (1)
0x60|                                 00            |           .    |                n: 0 0x6b-0x6b.7 (1)
    |                                               |                |                items[0:0]: 0x6c-NA (0)
    |                                               |                |              expr{}: 0x6c-0x70.7 (5)
    |                                               |                |                instructions[0:3]: 0x6c-0x70.7 (5)
    |                                               |                |                  [0]{}: instr 0x6c-0x6d.7 (2)
0x60|                                    20         |                |                    local.get: 0x20 (valid) 0x6c-0x6c.7 (1)
0x60|                                       00      |             .  |                    x: 0 0x6d-0x6d.7 (1)
    |                                               |                |                  [1]{}: instr 0x6e-0x6f.7 (2)
0x60|                                          40   |              @ |                    memory.grow: 0x40 (valid) 0x6e-0x6e.7 (1)
0x60|                                             00|               .|                    reserved: 0x0 (valid) 0x6f-0x6f.7 (1)
    |                                               |                |                  [2]{}: instr 0x70-0x70.7 (1)
0x70|0b|                                            |.|              |                    end: 0xb (valid) 0x70-0x70.7 (1)
