$ fq -d wasm dv memory_trap-1.wasm
     |00 01 02 03 04 05 06 07 08 09 0a 0b 0c 0d 0e 0f|0123456789abcdef|.{}: memory_trap-1.wasm (wasm) 0x0-0x274.7 (629)
0x000|00 61 73 6d                                    |.asm            |  magic: raw bits (valid) 0x0-0x3.7 (4)
0x000|            01 00 00 00                        |    ....        |  version: 1 0x4-0x7.7 (4)
     |                                               |                |  sections[0:6]: 0x8-0x274.7 (621)
     |                                               |                |    [0]{}: section 0x8-0x32.7 (43)
0x000|                        01                     |        .       |      id: "type section" (1) 0x8-0x8.7 (1)
0x000|                           29                  |         )      |      size: 41 0x9-0x9.7 (1)
     |                                               |                |      content{}: 0xa-0x32.7 (41)
0x000|                              08               |          .     |        n: 8 0xa-0xa.7 (1)
     |                                               |                |        items[0:8]: 0xb-0x32.7 (40)
     |                                               |                |          [0]{}: functype 0xb-0xf.7 (5)
0x000|                                 60            |           `    |            tag: 0x60 (valid) 0xb-0xb.7 (1)
     |                                               |                |            rt1{}: 0xc-0xd.7 (2)
0x000|                                    01         |            .   |              n: 1 0xc-0xc.7 (1)
     |                                               |                |              items[0:1]: 0xd-0xd.7 (1)
0x000|                                       7f      |             .  |                [0]: "i32" (127) valtype 0xd-0xd.7 (1)
     |                                               |                |            rt2{}: 0xe-0xf.7 (2)
0x000|                                          01   |              . |              n: 1 0xe-0xe.7 (1)
     |                                               |                |              items[0:1]: 0xf-0xf.7 (1)
0x000|                                             7f|               .|                [0]: "i32" (127) valtype 0xf-0xf.7 (1)
     |                                               |                |          [1]{}: functype 0x10-0x14.7 (5)
0x010|60                                             |`               |            tag: 0x60 (valid) 0x10-0x10.7 (1)
     |                                               |                |            rt1{}: 0x11-0x12.7 (2)
0x010|   01                                          | .              |              n: 1 0x11-0x11.7 (1)
     |                                               |                |              items[0:1]: 0x12-0x12.7 (1)
0x010|      7f                                       |  .             |                [0]: "i32" (127) valtype 0x12-0x12.7 (1)
     |                                               |                |            rt2{}: 0x13-0x14.7 (2)
0x010|         01                                    |   .            |              n: 1 0x13-0x13.7 (1)
     |                                               |                |              items[0:1]: 0x14-0x14.7 (1)
0x010|            7e                                 |    ~           |                [0]: "i64" (126) valtype 0x14-0x14.7 (1)
     |                                               |                |          [2]{}: functype 0x15-0x19.7 (5)
0x010|               60                              |     `          |            tag: 0x60 (valid) 0x15-0x15.7 (1)
     |                                               |                |            rt1{}: 0x16-0x17.7 (2)
0x010|                  01                           |      .         |              n: 1 0x16-0x16.7 (1)
     |                                               |                |              items[0:1]: 0x17-0x17.7 (1)
0x010|                     7f                        |       .        |                [0]: "i32" (127) valtype 0x17-0x17.7 (1)
     |                                               |                |            rt2{}: 0x18-0x19.7 (2)
0x010|                        01                     |        .       |              n: 1 0x18-0x18.7 (1)
     |                                               |                |              items[0:1]: 0x19-0x19.7 (1)
0x010|                           7d                  |         }      |                [0]: "f32" (125) valtype 0x19-0x19.7 (1)
     |                                               |                |          [3]{}: functype 0x1a-0x1e.7 (5)
0x010|                              60               |          `     |            tag: 0x60 (valid) 0x1a-0x1a.7 (1)
     |                                               |                |            rt1{}: 0x1b-0x1c.7 (2)
0x010|                                 01            |           .    |              n: 1 0x1b-0x1b.7 (1)
     |                                               |                |              items[0:1]: 0x1c-0x1c.7 (1)
0x010|                                    7f         |            .   |                [0]: "i32" (127) valtype 0x1c-0x1c.7 (1)
     |                                               |                |            rt2{}: 0x1d-0x1e.7 (2)
0x010|                                       01      |             .  |              n: 1 0x1d-0x1d.7 (1)
     |                                               |                |              items[0:1]: 0x1e-0x1e.7 (1)
0x010|                                          7c   |              | |                [0]: "f64" (124) valtype 0x1e-0x1e.7 (1)
     |                                               |                |          [4]{}: functype 0x1f-0x23.7 (5)
0x010|                                             60|               `|            tag: 0x60 (valid) 0x1f-0x1f.7 (1)
     |                                               |                |            rt1{}: 0x20-0x22.7 (3)
0x020|02                                             |.               |              n: 2 0x20-0x20.7 (1)
     |                                               |                |              items[0:2]: 0x21-0x22.7 (2)
0x020|   7f                                          | .              |                [0]: "i32" (127) valtype 0x21-0x21.7 (1)
0x020|      7f                                       |  .             |                [1]: "i32" (127) valtype 0x22-0x22.7 (1)
     |                                               |                |            rt2{}: 0x23-0x23.7 (1)
0x020|         00                                    |   .            |              n: 0 0x23-0x23.7 (1)
     |                                               |                |              items[0:0]: 0x24-NA (0)
     |                                               |                |          [5]{}: functype 0x24-0x28.7 (5)
0x020|            60                                 |    `           |            tag: 0x60 (valid) 0x24-0x24.7 (1)
     |                                               |                |            rt1{}: 0x25-0x27.7 (3)
0x020|               02                              |     .          |              n: 2 0x25-0x25.7 (1)
     |                                               |                |              items[0:2]: 0x26-0x27.7 (2)
0x020|                  7f                           |      .         |                [0]: "i32" (127) valtype 0x26-0x26.7 (1)
0x020|                     7e                        |       ~        |                [1]: "i64" (126) valtype 0x27-0x27.7 (1)
     |                                               |                |            rt2{}: 0x28-0x28.7 (1)
0x020|                        00                     |        .       |              n: 0 0x28-0x28.7 (1)
     |                                               |                |              items[0:0]: 0x29-NA (0)
     |                                               |                |          [6]{}: functype 0x29-0x2d.7 (5)
0x020|                           60                  |         `      |            tag: 0x60 (valid) 0x29-0x29.7 (1)
     |                                               |                |            rt1{}: 0x2a-0x2c.7 (3)
0x020|                              02               |          .     |              n: 2 0x2a-0x2a.7 (1)
     |                                               |                |              items[0:2]: 0x2b-0x2c.7 (2)
0x020|                                 7f            |           .    |                [0]: "i32" (127) valtype 0x2b-0x2b.7 (1)
0x020|                                    7d         |            }   |                [1]: "f32" (125) valtype 0x2c-0x2c.7 (1)
     |                                               |                |            rt2{}: 0x2d-0x2d.7 (1)
0x020|                                       00      |             .  |              n: 0 0x2d-0x2d.7 (1)
     |                                               |                |              items[0:0]: 0x2e-NA (0)
     |                                               |                |          [7]{}: functype 0x2e-0x32.7 (5)
0x020|                                          60   |              ` |            tag: 0x60 (valid) 0x2e-0x2e.7 (1)
     |                                               |                |            rt1{}: 0x2f-0x31.7 (3)
0x020|                                             02|               .|              n: 2 0x2f-0x2f.7 (1)
     |                                               |                |              items[0:2]: 0x30-0x31.7 (2)
0x030|7f                                             |.               |                [0]: "i32" (127) valtype 0x30-0x30.7 (1)
0x030|   7c                                          | |              |                [1]: "f64" (124) valtype 0x31-0x31.7 (1)
     |                                               |                |            rt2{}: 0x32-0x32.7 (1)
0x030|      00                                       |  .             |              n: 0 0x32-0x32.7 (1)
     |                                               |                |              items[0:0]: 0x33-NA (0)
     |                                               |                |    [1]{}: section 0x33-0x4c.7 (26)
0x030|         03                                    |   .            |      id: "function section" (3) 0x33-0x33.7 (1)
0x030|            18                                 |    .           |      size: 24 0x34-0x34.7 (1)
     |                                               |                |      content{}: 0x35-0x4c.7 (24)
0x030|               17                              |     .          |        n: 23 0x35-0x35.7 (1)
     |                                               |                |        items[0:23]: 0x36-0x4c.7 (23)
0x030|                  00                           |      .         |          [0]: 0 x 0x36-0x36.7 (1)
0x030|                     01                        |       .        |          [1]: 1 x 0x37-0x37.7 (1)
0x030|                        02                     |        .       |          [2]: 2 x 0x38-0x38.7 (1)
0x030|                           03                  |         .      |          [3]: 3 x 0x39-0x39.7 (1)
0x030|                              00               |          .     |          [4]: 0 x 0x3a-0x3a.7 (1)
0x030|                                 00            |           .    |          [5]: 0 x 0x3b-0x3b.7 (1)
0x030|                                    00         |            .   |          [6]: 0 x 0x3c-0x3c.7 (1)
0x030|                                       00      |             .  |          [7]: 0 x 0x3d-0x3d.7 (1)
0x030|                                          01   |              . |          [8]: 1 x 0x3e-0x3e.7 (1)
0x030|                                             01|               .|          [9]: 1 x 0x3f-0x3f.7 (1)
0x040|01                                             |.               |          [10]: 1 x 0x40-0x40.7 (1)
0x040|   01                                          | .              |          [11]: 1 x 0x41-0x41.7 (1)
0x040|      01                                       |  .             |          [12]: 1 x 0x42-0x42.7 (1)
0x040|         01                                    |   .            |          [13]: 1 x 0x43-0x43.7 (1)
0x040|            04                                 |    .           |          [14]: 4 x 0x44-0x44.7 (1)
0x040|               05                              |     .          |          [15]: 5 x 0x45-0x45.7 (1)
0x040|                  06                           |      .         |          [16]: 6 x 0x46-0x46.7 (1)
0x040|                     07                        |       .        |          [17]: 7 x 0x47-0x47.7 (1)
0x040|                        04                     |        .       |          [18]: 4 x 0x48-0x48.7 (1)
0x040|                           04                  |         .      |          [19]: 4 x 0x49-0x49.7 (1)
0x040|                              05               |          .     |          [20]: 5 x 0x4a-0x4a.7 (1)
0x040|                                 05            |           .    |          [21]: 5 x 0x4b-0x4b.7 (1)
0x040|                                    05         |            .   |          [22]: 5 x 0x4c-0x4c.7 (1)
     |                                               |                |    [2]{}: section 0x4d-0x51.7 (5)
0x040|                                       05      |             .  |      id: "memory section" (5) 0x4d-0x4d.7 (1)
0x040|                                          03   |              . |      size: 3 0x4e-0x4e.7 (1)
     |                                               |                |      content{}: 0x4f-0x51.7 (3)
0x040|                                             01|               .|        n: 1 0x4f-0x4f.7 (1)
     |                                               |                |        items[0:1]: 0x50-0x51.7 (2)
     |                                               |                |          [0]{}: mem 0x50-0x51.7 (2)
     |                                               |                |            limits{}: 0x50-0x51.7 (2)
0x050|00                                             |.               |              tag: 0x0 0x50-0x50.7 (1)
0x050|   01                                          | .              |              min: 1 0x51-0x51.7 (1)
     |                                               |                |    [3]{}: section 0x52-0x187.7 (310)
0x050|      07                                       |  .             |      id: "export section" (7) 0x52-0x52.7 (1)
0x050|         b3 02                                 |   ..           |      size: 307 0x53-0x54.7 (2)
     |                                               |                |      content{}: 0x55-0x187.7 (307)
0x050|               17                              |     .          |        n: 23 0x55-0x55.7 (1)
     |                                               |                |        items[0:23]: 0x56-0x187.7 (306)
     |                                               |                |          [0]{}: export 0x56-0x60.7 (11)
     |                                               |                |            name{}: 0x56-0x5e.7 (9)
0x050|                  08                           |      .         |              len: 8 0x56-0x56.7 (1)
0x050|                     69 33 32 2e 6c 6f 61 64   |       i32.load |              utf8bytes: "i32.load" 0x57-0x5e.7 (8)
     |                                               |                |            expr{}: 0x5f-0x60.7 (2)
0x050|                                             00|               .|              tag: "funcidx" (0x0) 0x5f-0x5f.7 (1)
0x060|00                                             |.               |              x: 0 0x60-0x60.7 (1)
     |                                               |                |          [1]{}: export 0x61-0x6b.7 (11)
     |                                               |                |            name{}: 0x61-0x69.7 (9)
0x060|   08                                          | .              |              len: 8 0x61-0x61.7 (1)
0x060|      69 36 34 2e 6c 6f 61 64                  |  i64.load      |              utf8bytes: "i64.load" 0x62-0x69.7 (8)
     |                                               |                |            expr{}: 0x6a-0x6b.7 (2)
0x060|                              00               |          .     |              tag: "funcidx" (0x0) 0x6a-0x6a.7 (1)
0x060|                                 01            |           .    |              x: 1 0x6b-0x6b.7 (1)
     |                                               |                |          [2]{}: export 0x6c-0x76.7 (11)
     |                                               |                |            name{}: 0x6c-0x74.7 (9)
0x060|                                    08         |            .   |              len: 8 0x6c-0x6c.7 (1)
0x060|                                       66 33 32|             f32|              utf8bytes: "f32.load" 0x6d-0x74.7 (8)
0x070|2e 6c 6f 61 64                                 |.load           |
     |                                               |                |            expr{}: 0x75-0x76.7 (2)
0x070|               00                              |     .          |              tag: "funcidx" (0x0) 0x75-0x75.7 (1)
0x070|                  02                           |      .         |              x: 2 0x76-0x76.7 (1)
     |                                               |                |          [3]{}: export 0x77-0x81.7 (11)
     |                                               |                |            name{}: 0x77-0x7f.7 (9)
0x070|                     08                        |       .        |              len: 8 0x77-0x77.7 (1)
0x070|                        66 36 34 2e 6c 6f 61 64|        f64.load|              utf8bytes: "f64.load" 0x78-0x7f.7 (8)
     |                                               |                |            expr{}: 0x80-0x81.7 (2)
0x080|00                                             |.               |              tag: "funcidx" (0x0) 0x80-0x80.7 (1)
0x080|   03                                          | .              |              x: 3 0x81-0x81.7 (1)
     |                                               |                |          [4]{}: export 0x82-0x8f.7 (14)
     |                                               |                |            name{}: 0x82-0x8d.7 (12)
0x080|      0b                                       |  .             |              len: 11 0x82-0x82.7 (1)
0x080|         69 33 32 2e 6c 6f 61 64 38 5f 73      |   i32.load8_s  |              utf8bytes: "i32.load8_s" 0x83-0x8d.7 (11)
     |                                               |                |            expr{}: 0x8e-0x8f.7 (2)
0x080|                                          00   |              . |              tag: "funcidx" (0x0) 0x8e-0x8e.7 (1)
0x080|                                             04|               .|              x: 4 0x8f-0x8f.7 (1)
     |                                               |                |          [5]{}: export 0x90-0x9d.7 (14)
     |                                               |                |            name{}: 0x90-0x9b.7 (12)
0x090|0b                                             |.               |              len: 11 0x90-0x90.7 (1)
0x090|   69 33 32 2e 6c 6f 61 64 38 5f 75            | i32.load8_u    |              utf8bytes: "i32.load8_u" 0x91-0x9b.7 (11)
     |                                               |                |            expr{}: 0x9c-0x9d.7 (2)
0x090|                                    00         |            .   |              tag: "funcidx" (0x0) 0x9c-0x9c.7 (1)
0x090|                                       05      |             .  |              x: 5 0x9d-0x9d.7 (1)
     |                                               |                |          [6]{}: export 0x9e-0xac.7 (15)
     |                                               |                |            name{}: 0x9e-0xaa.7 (13)
0x090|                                          0c   |              . |              len: 12 0x9e-0x9e.7 (1)
0x090|                                             69|               i|              utf8bytes: "i32.load16_s" 0x9f-0xaa.7 (12)
0x0a0|33 32 2e 6c 6f 61 64 31 36 5f 73               |32.load16_s     |
     |                                               |                |            expr{}: 0xab-0xac.7 (2)
0x0a0|                                 00            |           .    |              tag: "funcidx" (0x0) 0xab-0xab.7 (1)
0x0a0|                                    06         |            .   |              x: 6 0xac-0xac.7 (1)
     |                                               |                |          [7]{}: export 0xad-0xbb.7 (15)
     |                                               |                |            name{}: 0xad-0xb9.7 (13)
0x0a0|                                       0c      |             .  |              len: 12 0xad-0xad.7 (1)
0x0a0|                                          69 33|              i3|              utf8bytes: "i32.load16_u" 0xae-0xb9.7 (12)
0x0b0|32 2e 6c 6f 61 64 31 36 5f 75                  |2.load16_u      |
     |                                               |                |            expr{}: 0xba-0xbb.7 (2)
0x0b0|                              00               |          .     |              tag: "funcidx" (0x0) 0xba-0xba.7 (1)
0x0b0|                                 07            |           .    |              x: 7 0xbb-0xbb.7 (1)
     |                                               |                |          [8]{}: export 0xbc-0xc9.7 (14)
     |                                               |                |            name{}: 0xbc-0xc7.7 (12)
0x0b0|                                    0b         |            .   |              len: 11 0xbc-0xbc.7 (1)
0x0b0|                                       69 36 34|             i64|              utf8bytes: "i64.load8_s" 0xbd-0xc7.7 (11)
0x0c0|2e 6c 6f 61 64 38 5f 73                        |.load8_s        |
     |                                               |                |            expr{}: 0xc8-0xc9.7 (2)
0x0c0|                        00                     |        .       |              tag: "funcidx" (0x0) 0xc8-0xc8.7 (1)
0x0c0|                           08                  |         .      |              x: 8 0xc9-0xc9.7 (1)
     |                                               |                |          [9]{}: export 0xca-0xd7.7 (14)
     |                                               |                |            name{}: 0xca-0xd5.7 (12)
0x0c0|                              0b               |          .     |              len: 11 0xca-0xca.7 (1)
0x0c0|                                 69 36 34 2e 6c|           i64.l|              utf8bytes: "i64.load8_u" 0xcb-0xd5.7 (11)
0x0d0|6f 61 64 38 5f 75                              |oad8_u          |
     |                                               |                |            expr{}: 0xd6-0xd7.7 (2)
0x0d0|                  00                           |      .         |              tag: "funcidx" (0x0) 0xd6-0xd6.7 (1)
0x0d0|                     09                        |       .        |              x: 9 0xd7-0xd7.7 (1)
     |                                               |                |          [10]{}: export 0xd8-0xe6.7 (15)
     |                                               |                |            name{}: 0xd8-0xe4.7 (13)
0x0d0|                        0c                     |        .       |              len: 12 0xd8-0xd8.7 (1)
0x0d0|                           69 36 34 2e 6c 6f 61|         i64.loa|              utf8bytes: "i64.load16_s" 0xd9-0xe4.7 (12)
0x0e0|64 31 36 5f 73                                 |d16_s           |
     |                                               |                |            expr{}: 0xe5-0xe6.7 (2)
0x0e0|               00                              |     .          |              tag: "funcidx" (0x0) 0xe5-0xe5.7 (1)
0x0e0|                  0a                           |      .         |              x: 10 0xe6-0xe6.7 (1)
     |                                               |                |          [11]{}: export 0xe7-0xf5.7 (15)
     |                                               |                |            name{}: 0xe7-0xf3.7 (13)
0x0e0|                     0c                        |       .        |              len: 12 0xe7-0xe7.7 (1)
0x0e0|                        69 36 34 2e 6c 6f 61 64|        i64.load|              utf8bytes: "i64.load16_u" 0xe8-0xf3.7 (12)
0x0f0|31 36 5f 75                                    |16_u            |
     |                                               |                |            expr{}: 0xf4-0xf5.7 (2)
0x0f0|            00                                 |    .           |              tag: "funcidx" (0x0) 0xf4-0xf4.7 (1)
0x0f0|               0b                              |     .          |              x: 11 0xf5-0xf5.7 (1)
     |                                               |                |          [12]{}: export 0xf6-0x104.7 (15)
     |                                               |                |            name{}: 0xf6-0x102.7 (13)
0x0f0|                  0c                           |      .         |              len: 12 0xf6-0xf6.7 (1)
0x0f0|                     69 36 34 2e 6c 6f 61 64 33|       i64.load3|              utf8bytes: "i64.load32_s" 0xf7-0x102.7 (12)
0x100|32 5f 73                                       |2_s             |
     |                                               |                |            expr{}: 0x103-0x104.7 (2)
0x100|         00                                    |   .            |              tag: "funcidx" (0x0) 0x103-0x103.7 (1)
0x100|            0c                                 |    .           |              x: 12 0x104-0x104.7 (1)
     |                                               |                |          [13]{}: export 0x105-0x113.7 (15)
     |                                               |                |            name{}: 0x105-0x111.7 (13)
0x100|               0c                              |     .          |              len: 12 0x105-0x105.7 (1)
0x100|                  69 36 34 2e 6c 6f 61 64 33 32|      i64.load32|              utf8bytes: "i64.load32_u" 0x106-0x111.7 (12)
0x110|5f 75                                          |_u              |
     |                                               |                |            expr{}: 0x112-0x113.7 (2)
0x110|      00                                       |  .             |              tag: "funcidx" (0x0) 0x112-0x112.7 (1)
0x110|         0d                                    |   .            |              x: 13 0x113-0x113.7 (1)
     |                                               |                |          [14]{}: export 0x114-0x11f.7 (12)
     |                                               |                |            name{}: 0x114-0x11d.7 (10)
0x110|            09                                 |    .           |              len: 9 0x114-0x114.7 (1)
0x110|               69 33 32 2e 73 74 6f 72 65      |     i32.store  |              utf8bytes: "i32.store" 0x115-0x11d.7 (9)
     |                                               |                |            expr{}: 0x11e-0x11f.7 (2)
0x110|                                          00   |              . |              tag: "funcidx" (0x0) 0x11e-0x11e.7 (1)
0x110|                                             0e|               .|              x: 14 0x11f-0x11f.7 (1)
     |                                               |                |          [15]{}: export 0x120-0x12b.7 (12)
     |                                               |                |            name{}: 0x120-0x129.7 (10)
0x120|09                                             |.               |              len: 9 0x120-0x120.7 (1)
0x120|   69 36 34 2e 73 74 6f 72 65                  | i64.store      |              utf8bytes: "i64.store" 0x121-0x129.7 (9)
     |                                               |                |            expr{}: 0x12a-0x12b.7 (2)
0x120|                              00               |          .     |              tag: "funcidx" (0x0) 0x12a-0x12a.7 (1)
0x120|                                 0f            |           .    |              x: 15 0x12b-0x12b.7 (1)
     |                                               |                |          [16]{}: export 0x12c-0x137.7 (12)
     |                                               |                |            name{}: 0x12c-0x135.7 (10)
0x120|                                    09         |            .   |              len: 9 0x12c-0x12c.7 (1)
0x120|                                       66 33 32|             f32|              utf8bytes: "f32.store" 0x12d-0x135.7 (9)
0x130|2e 73 74 6f 72 65                              |.store          |
     |                                               |                |            expr{}: 0x136-0x137.7 (2)
0x130|                  00                           |      .         |              tag: "funcidx" (0x0) 0x136-0x136.7 (1)
0x130|                     10                        |       .        |              x: 16 0x137-0x137.7 (1)
     |                                               |                |          [17]{}: export 0x138-0x143.7 (12)
     |                                               |                |            name{}: 0x138-0x141.7 (10)
0x130|                        09                     |        .       |              len: 9 0x138-0x138.7 (1)
0x130|                           66 36 34 2e 73 74 6f|         f64.sto|              utf8bytes: "f64.store" 0x139-0x141.7 (9)
0x140|72 65                                          |re              |
     |                                               |                |            expr{}: 0x142-0x143.7 (2)
0x140|      00                                       |  .             |              tag: "funcidx" (0x0) 0x142-0x142.7 (1)
0x140|         11                                    |   .            |              x: 17 0x143-0x143.7 (1)
     |                                               |                |          [18]{}: export 0x144-0x150.7 (13)
     |                                               |                |            name{}: 0x144-0x14e.7 (11)
0x140|            0a                                 |    .           |              len: 10 0x144-0x144.7 (1)
0x140|               69 33 32 2e 73 74 6f 72 65 38   |     i32.store8 |              utf8bytes: "i32.store8" 0x145-0x14e.7 (10)
     |                                               |                |            expr{}: 0x14f-0x150.7 (2)
0x140|                                             00|               .|              tag: "funcidx" (0x0) 0x14f-0x14f.7 (1)
0x150|12                                             |.               |              x: 18 0x150-0x150.7 (1)
     |                                               |                |          [19]{}: export 0x151-0x15e.7 (14)
     |                                               |                |            name{}: 0x151-0x15c.7 (12)
0x150|   0b                                          | .              |              len: 11 0x151-0x151.7 (1)
0x150|      69 33 32 2e 73 74 6f 72 65 31 36         |  i32.store16   |              utf8bytes: "i32.store16" 0x152-0x15c.7 (11)
     |                                               |                |            expr{}: 0x15d-0x15e.7 (2)
0x150|                                       00      |             .  |              tag: "funcidx" (0x0) 0x15d-0x15d.7 (1)
0x150|                                          13   |              . |              x: 19 0x15e-0x15e.7 (1)
     |                                               |                |          [20]{}: export 0x15f-0x16b.7 (13)
     |                                               |                |            name{}: 0x15f-0x169.7 (11)
0x150|                                             0a|               .|              len: 10 0x15f-0x15f.7 (1)
0x160|69 36 34 2e 73 74 6f 72 65 38                  |i64.store8      |              utf8bytes: "i64.store8" 0x160-0x169.7 (10)
     |                                               |                |            expr{}: 0x16a-0x16b.7 (2)
0x160|                              00               |          .     |              tag: "funcidx" (0x0) 0x16a-0x16a.7 (1)
0x160|                                 14            |           .    |              x: 20 0x16b-0x16b.7 (1)
     |                                               |                |          [21]{}: export 0x16c-0x179.7 (14)
     |                                               |                |            name{}: 0x16c-0x177.7 (12)
0x160|                                    0b         |            .   |              len: 11 0x16c-0x16c.7 (1)
0x160|                                       69 36 34|             i64|              utf8bytes: "i64.store16" 0x16d-0x177.7 (11)
0x170|2e 73 74 6f 72 65 31 36                        |.store16        |
     |                                               |                |            expr{}: 0x178-0x179.7 (2)
0x170|                        00                     |        .       |              tag: "funcidx" (0x0) 0x178-0x178.7 (1)
0x170|                           15                  |         .      |              x: 21 0x179-0x179.7 (1)
     |                                               |                |          [22]{}: export 0x17a-0x187.7 (14)
     |                                               |                |            name{}: 0x17a-0x185.7 (12)
0x170|                              0b               |          .     |              len: 11 0x17a-0x17a.7 (1)
0x170|                                 69 36 34 2e 73|           i64.s|              utf8bytes: "i64.store32" 0x17b-0x185.7 (11)
0x180|74 6f 72 65 33 32                              |tore32          |
     |                                               |                |            expr{}: 0x186-0x187.7 (2)
0x180|                  00                           |      .         |              tag: "funcidx" (0x0) 0x186-0x186.7 (1)
0x180|                     16                        |       .        |              x: 22 0x187-0x187.7 (1)
     |                                               |                |    [4]{}: section 0x188-0x255.7 (206)
0x180|                        0a                     |        .       |      id: "code section" (10) 0x188-0x188.7 (1)
0x180|                           cb 01               |         ..     |      size: 203 0x189-0x18a.7 (2)
     |                                               |                |      content{}: 0x18b-0x255.7 (203)
0x180|                                 17            |           .    |        n: 23 0x18b-0x18b.7 (1)
     |                                               |                |        items[0:23]: 0x18c-0x255.7 (202)
     |                                               |                |          [0]{}: code 0x18c-0x193.7 (8)
0x180|                                    07         |            .   |            size: 7 0x18c-0x18c.7 (1)
     |                                               |                |            code{}: 0x18d-0x193.7 (7)
     |                                               |                |              locals{}: 0x18d-0x18d.7 (1)
0x180|                                       00      |             .  |                n: 0 0x18d-0x18d.7 (1)
     |                                               |                |                items[0:0]: 0x18e-NA (0)
     |                                               |                |              expr{}: 0x18e-0x193.7 (6)
     |                                               |                |                instructions[0:3]: 0x18e-0x193.7 (6)
     |                                               |                |                  [0]{}: instr 0x18e-0x18f.7 (2)
0x180|                                          20   |                |                    local.get: 0x20 (valid) 0x18e-0x18e.7 (1)
0x180|                                             00|               .|                    x: 0 0x18f-0x18f.7 (1)
     |                                               |                |                  [1]{}: instr 0x190-0x192.7 (3)
0x190|28                                             |(               |                    i32.load: 0x28 (valid) 0x190-0x190.7 (1)
0x190|   02                                          | .              |                    align: 2 0x191-0x191.7 (1)
0x190|      00                                       |  .             |                    offset: 0 0x192-0x192.7 (1)
     |                                               |                |                  [2]{}: instr 0x193-0x193.7 (1)
0x190|         0b                                    |   .            |                    end: 0xb (valid) 0x193-0x193.7 (1)
     |                                               |                |          [1]{}: code 0x194-0x19b.7 (8)
0x190|            07                                 |    .           |            size: 7 0x194-0x194.7 (1)
     |                                               |                |            code{}: 0x195-0x19b.7 (7)
     |                                               |                |              locals{}: 0x195-0x195.7 (1)
0x190|               00                              |     .          |                n: 0 0x195-0x195.7 (1)
     |                                               |                |                items[0:0]: 0x196-NA (0)
     |                                               |                |              expr{}: 0x196-0x19b.7 (6)
     |                                               |                |                instructions[0:3]: 0x196-0x19b.7 (6)
     |                                               |                |                  [0]{}: instr 0x196-0x197.7 (2)
0x190|                  20                           |                |                    local.get: 0x20 (valid) 0x196-0x196.7 (1)
0x190|                     00                        |       .        |                    x: 0 0x197-0x197.7 (1)
     |                                               |                |                  [1]{}: instr 0x198-0x19a.7 (3)
0x190|                        29                     |        )       |                    i64.load: 0x29 (valid) 0x198-0x198.7 (1)
0x190|                           03                  |         .      |                    align: 3 0x199-0x199.7 (1)
0x190|                              00               |          .     |                    offset: 0 0x19a-0x19a.7 (1)
     |                                               |                |                  [2]{}: instr 0x19b-0x19b.7 (1)
0x190|                                 0b            |           .    |                    end: 0xb (valid) 0x19b-0x19b.7 (1)
     |                                               |                |          [2]{}: code 0x19c-0x1a3.7 (8)
0x190|                                    07         |            .   |            size: 7 0x19c-0x19c.7 (1)
     |                                               |                |            code{}: 0x19d-0x1a3.7 (7)
     |                                               |                |              locals{}: 0x19d-0x19d.7 (1)
0x190|                                       00      |             .  |                n: 0 0x19d-0x19d.7 (1)
     |                                               |                |                items[0:0]: 0x19e-NA (0)
     |                                               |                |              expr{}: 0x19e-0x1a3.7 (6)
     |                                               |                |                instructions[0:3]: 0x19e-0x1a3.7 (6)
     |                                               |                |                  [0]{}: instr 0x19e-0x19f.7 (2)
0x190|                                          20   |                |                    local.get: 0x20 (valid) 0x19e-0x19e.7 (1)
0x190|                                             00|               .|                    x: 0 0x19f-0x19f.7 (1)
     |                                               |                |                  [1]{}: instr 0x1a0-0x1a2.7 (3)
0x1a0|2a                                             |*               |                    f32.load: 0x2a (valid) 0x1a0-0x1a0.7 (1)
0x1a0|   02                                          | .              |                    align: 2 0x1a1-0x1a1.7 (1)
0x1a0|      00                                       |  .             |                    offset: 0 0x1a2-0x1a2.7 (1)
     |                                               |                |                  [2]{}: instr 0x1a3-0x1a3.7 (1)
0x1a0|         0b                                    |   .            |                    end: 0xb (valid) 0x1a3-0x1a3.7 (1)
     |                                               |                |          [3]{}: code 0x1a4-0x1ab.7 (8)
0x1a0|            07                                 |    .           |            size: 7 0x1a4-0x1a4.7 (1)
     |                                               |                |            code{}: 0x1a5-0x1ab.7 (7)
     |                                               |                |              locals{}: 0x1a5-0x1a5.7 (1)
0x1a0|               00                              |     .          |                n: 0 0x1a5-0x1a5.7 (1)
     |                                               |                |                items[0:0]: 0x1a6-NA (0)
     |                                               |                |              expr{}: 0x1a6-0x1ab.7 (6)
     |                                               |                |                instructions[0:3]: 0x1a6-0x1ab.7 (6)
     |                                               |                |                  [0]{}: instr 0x1a6-0x1a7.7 (2)
0x1a0|                  20                           |                |                    local.get: 0x20 (valid) 0x1a6-0x1a6.7 (1)
0x1a0|                     00                        |       .        |                    x: 0 0x1a7-0x1a7.7 (1)
     |                                               |                |                  [1]{}: instr 0x1a8-0x1aa.7 (3)
0x1a0|                        2b                     |        +       |                    f64.load: 0x2b (valid) 0x1a8-0x1a8.7 (1)
0x1a0|                           03                  |         .      |                    align: 3 0x1a9-0x1a9.7 (1)
0x1a0|                              00               |          .     |                    offset: 0 0x1aa-0x1aa.7 (1)
     |                                               |                |                  [2]{}: instr 0x1ab-0x1ab.7 (1)
0x1a0|                                 0b            |           .    |                    end: 0xb (valid) 0x1ab-0x1ab.7 (1)
     |                                               |                |          [4]{}: code 0x1ac-0x1b3.7 (8)
0x1a0|                                    07         |            .   |            size: 7 0x1ac-0x1ac.7 (1)
     |                                               |                |            code{}: 0x1ad-0x1b3.7 (7)
     |                                               |                |              locals{}: 0x1ad-0x1ad.7 (1)
0x1a0|                                       00      |             .  |                n: 0 0x1ad-0x1ad.7 (1)
     |                                               |                |                items[0:0]: 0x1ae-NA (0)
     |                                               |                |              expr{}: 0x1ae-0x1b3.7 (6)
     |                                               |                |                instructions[0:3]: 0x1ae-0x1b3.7 (6)
     |                                               |                |                  [0]{}: instr 0x1ae-0x1af.7 (2)
0x1a0|                                          20   |                |                    local.get: 0x20 (valid) 0x1ae-0x1ae.7 (1)
0x1a0|                                             00|               .|                    x: 0 0x1af-0x1af.7 (1)
     |                                               |                |                  [1]{}: instr 0x1b0-0x1b2.7 (3)
0x1b0|2c                                             |,               |                    i32.load8_s: 0x2c (valid) 0x1b0-0x1b0.7 (1)
0x1b0|   00                                          | .              |                    align: 0 0x1b1-0x1b1.7 (1)
0x1b0|      00                                       |  .             |                    offset: 0 0x1b2-0x1b2.7 (1)
     |                                               |                |                  [2]{}: instr 0x1b3-0x1b3.7 (1)
0x1b0|         0b                                    |   .            |                    end: 0xb (valid) 0x1b3-0x1b3.7 (1)
     |                                               |                |          [5]{}: code 0x1b4-0x1bb.7 (8)
0x1b0|            07                                 |    .           |            size: 7 0x1b4-0x1b4.7 (1)
     |                                               |                |            code{}: 0x1b5-0x1bb.7 (7)
     |                                               |                |              locals{}: 0x1b5-0x1b5.7 (1)
0x1b0|               00                              |     .          |                n: 0 0x1b5-0x1b5.7 (1)
     |                                               |                |                items[0:0]: 0x1b6-NA (0)
     |                                               |                |              expr{}: 0x1b6-0x1bb.7 (6)
     |                                               |                |                instructions[0:3]: 0x1b6-0x1bb.7 (6)
     |                                               |                |                  [0]{}: instr 0x1b6-0x1b7.7 (2)
0x1b0|                  20                           |                |                    local.get: 0x20 (valid) 0x1b6-0x1b6.7 (1)
0x1b0|                     00                        |       .        |                    x: 0 0x1b7-0x1b7.7 (1)
     |                                               |                |                  [1]{}: instr 0x1b8-0x1ba.7 (3)
0x1b0|                        2d                     |        -       |                    i32.load8_u: 0x2d (valid) 0x1b8-0x1b8.7 (1)
0x1b0|                           00                  |         .      |                    align: 0 0x1b9-0x1b9.7 (1)
0x1b0|                              00               |          .     |                    offset: 0 0x1ba-0x1ba.7 (1)
     |                                               |                |                  [2]{}: instr 0x1bb-0x1bb.7 (1)
0x1b0|                                 0b            |           .    |                    end: 0xb (valid) 0x1bb-0x1bb.7 (1)
     |                                               |                |          [6]{}: code 0x1bc-0x1c3.7 (8)
0x1b0|                                    07         |            .   |            size: 7 0x1bc-0x1bc.7 (1)
     |                                               |                |            code{}: 0x1bd-0x1c3.7 (7)
     |                                               |                |              locals{}: 0x1bd-0x1bd.7 (1)
0x1b0|                                       00      |             .  |                n: 0 0x1bd-0x1bd.7 (1)
     |                                               |                |                items[0:0]: 0x1be-NA (0)
     |                                               |                |              expr{}: 0x1be-0x1c3.7 (6)
     |                                               |                |                instructions[0:3]: 0x1be-0x1c3.7 (6)
     |                                               |                |                  [0]{}: instr 0x1be-0x1bf.7 (2)
0x1b0|                                          20   |                |                    local.get: 0x20 (valid) 0x1be-0x1be.7 (1)
0x1b0|                                             00|               .|                    x: 0 0x1bf-0x1bf.7 (1)
     |                                               |                |                  [1]{}: instr 0x1c0-0x1c2.7 (3)
0x1c0|2e                                             |.               |                    i32.load16_s: 0x2e (valid) 0x1c0-0x1c0.7 (1)
0x1c0|   01                                          | .              |                    align: 1 0x1c1-0x1c1.7 (1)
0x1c0|      00                                       |  .             |                    offset: 0 0x1c2-0x1c2.7 (1)
     |                                               |                |                  [2]{}: instr 0x1c3-0x1c3.7 (1)
0x1c0|         0b                                    |   .            |                    end: 0xb (valid) 0x1c3-0x1c3.7 (1)
     |                                               |                |          [7]{}: code 0x1c4-0x1cb.7 (8)
0x1c0|            07                                 |    .           |            size: 7 0x1c4-0x1c4.7 (1)
     |                                               |                |            code{}: 0x1c5-0x1cb.7 (7)
     |                                               |                |              locals{}: 0x1c5-0x1c5.7 (1)
0x1c0|               00                              |     .          |                n: 0 0x1c5-0x1c5.7 (1)
     |                                               |                |                items[0:0]: 0x1c6-NA (0)
     |                                               |                |              expr{}: 0x1c6-0x1cb.7 (6)
     |                                               |                |                instructions[0:3]: 0x1c6-0x1cb.7 (6)
     |                                               |                |                  [0]{}: instr 0x1c6-0x1c7.7 (2)
0x1c0|                  20                           |                |                    local.get: 0x20 (valid) 0x1c6-0x1c6.7 (1)
0x1c0|                     00                        |       .        |                    x: 0 0x1c7-0x1c7.7 (1)
     |                                               |                |                  [1]{}: instr 0x1c8-0x1ca.7 (3)
0x1c0|                        2f                     |        /       |                    i32.load16_u: 0x2f (valid) 0x1c8-0x1c8.7 (1)
0x1c0|                           01                  |         .      |                    align: 1 0x1c9-0x1c9.7 (1)
0x1c0|                              00               |          .     |                    offset: 0 0x1ca-0x1ca.7 (1)
     |                                               |                |                  [2]{}: instr 0x1cb-0x1cb.7 (1)
0x1c0|                                 0b            |           .    |                    end: 0xb (valid) 0x1cb-0x1cb.7 (1)
     |                                               |                |          [8]{}: code 0x1cc-0x1d3.7 (8)
0x1c0|                                    07         |            .   |            size: 7 0x1cc-0x1cc.7 (1)
     |                                               |                |            code{}: 0x1cd-0x1d3.7 (7)
     |                                               |                |              locals{}: 0x1cd-0x1cd.7 (1)
0x1c0|                                       00      |             .  |                n: 0 0x1cd-0x1cd.7 (1)
     |                                               |                |                items[0:0]: 0x1ce-NA (0)
     |                                               |                |              expr{}: 0x1ce-0x1d3.7 (6)
     |                                               |                |                instructions[0:3]: 0x1ce-0x1d3.7 (6)
     |                                               |                |                  [0]{}: instr 0x1ce-0x1cf.7 (2)
0x1c0|                                          20   |                |                    local.get: 0x20 (valid) 0x1ce-0x1ce.7 (1)
0x1c0|                                             00|               .|                    x: 0 0x1cf-0x1cf.7 (1)
     |                                               |                |                  [1]{}: instr 0x1d0-0x1d2.7 (3)
0x1d0|30                                             |0               |                    i64.load8_s: 0x30 (valid) 0x1d0-0x1d0.7 (1)
0x1d0|   00                                          | .              |                    align: 0 0x1d1-0x1d1.7 (1)
0x1d0|      00                                       |  .             |                    offset: 0 0x1d2-0x1d2.7 (1)
     |                                               |                |                  [2]{}: instr 0x1d3-0x1d3.7 (1)
0x1d0|         0b                                    |   .            |                    end: 0xb (valid) 0x1d3-0x1d3.7 (1)
     |                                               |                |          [9]{}: code 0x1d4-0x1db.7 (8)
0x1d0|            07                                 |    .           |            size: 7 0x1d4-0x1d4.7 (1)
     |                                               |                |            code{}: 0x1d5-0x1db.7 (7)
     |                                               |                |              locals{}: 0x1d5-0x1d5.7 (1)
0x1d0|               00                              |     .          |                n: 0 0x1d5-0x1d5.7 (1)
     |                                               |                |                items[0:0]: 0x1d6-NA (0)
     |                                               |                |              expr{}: 0x1d6-0x1db.7 (6)
     |                                               |                |                instructions[0:3]: 0x1d6-0x1db.7 (6)
     |                                               |                |                  [0]{}: instr 0x1d6-0x1d7.7 (2)
0x1d0|                  20                           |                |                    local.get: 0x20 (valid) 0x1d6-0x1d6.7 (1)
0x1d0|                     00                        |       .        |                    x: 0 0x1d7-0x1d7.7 (1)
     |                                               |                |                  [1]{}: instr 0x1d8-0x1da.7 (3)
0x1d0|                        31                     |        1       |                    i64.load8_u: 0x31 (valid) 0x1d8-0x1d8.7 (1)
0x1d0|                           00                  |         .      |                    align: 0 0x1d9-0x1d9.7 (1)
0x1d0|                              00               |          .     |                    offset: 0 0x1da-0x1da.7 (1)
     |                                               |                |                  [2]{}: instr 0x1db-0x1db.7 (1)
0x1d0|                                 0b            |           .    |                    end: 0xb (valid) 0x1db-0x1db.7 (1)
     |                                               |                |          [10]{}: code 0x1dc-0x1e3.7 (8)
0x1d0|                                    07         |            .   |            size: 7 0x1dc-0x1dc.7 (1)
     |                                               |                |            code{}: 0x1dd-0x1e3.7 (7)
     |                                               |                |              locals{}: 0x1dd-0x1dd.7 (1)
0x1d0|                                       00      |             .  |                n: 0 0x1dd-0x1dd.7 (1)
     |                                               |                |                items[0:0]: 0x1de-NA (0)
     |                                               |                |              expr{}: 0x1de-0x1e3.7 (6)
     |                                               |                |                instructions[0:3]: 0x1de-0x1e3.7 (6)
     |                                               |                |                  [0]{}: instr 0x1de-0x1df.7 (2)
0x1d0|                                          20   |                |                    local.get: 0x20 (valid) 0x1de-0x1de.7 (1)
0x1d0|                                             00|               .|                    x: 0 0x1df-0x1df.7 (1)
     |                                               |                |                  [1]{}: instr 0x1e0-0x1e2.7 (3)
0x1e0|32                                             |2               |                    i64.load16_s: 0x32 (valid) 0x1e0-0x1e0.7 (1)
0x1e0|   01                                          | .              |                    align: 1 0x1e1-0x1e1.7 (1)
0x1e0|      00                                       |  .             |                    offset: 0 0x1e2-0x1e2.7 (1)
     |                                               |                |                  [2]{}: instr 0x1e3-0x1e3.7 (1)
0x1e0|         0b                                    |   .            |                    end: 0xb (valid) 0x1e3-0x1e3.7 (1)
     |                                               |                |          [11]{}: code 0x1e4-0x1eb.7 (8)
0x1e0|            07                                 |    .           |            size: 7 0x1e4-0x1e4.7 (1)
     |                                               |                |            code{}: 0x1e5-0x1eb.7 (7)
     |                                               |                |              locals{}: 0x1e5-0x1e5.7 (1)
0x1e0|               00                              |     .          |                n: 0 0x1e5-0x1e5.7 (1)
     |                                               |                |                items[0:0]: 0x1e6-NA (0)
     |                                               |                |              expr{}: 0x1e6-0x1eb.7 (6)
     |                                               |                |                instructions[0:3]: 0x1e6-0x1eb.7 (6)
     |                                               |                |                  [0]{}: instr 0x1e6-0x1e7.7 (2)
0x1e0|                  20                           |                |                    local.get: 0x20 (valid) 0x1e6-0x1e6.7 (1)
0x1e0|                     00                        |       .        |                    x: 0 0x1e7-0x1e7.7 (1)
     |                                               |                |                  [1]{}: instr 0x1e8-0x1ea.7 (3)
0x1e0|                        33                     |        3       |                    i64.load16_u: 0x33 (valid) 0x1e8-0x1e8.7 (1)
0x1e0|                           01                  |         .      |                    align: 1 0x1e9-0x1e9.7 (1)
0x1e0|                              00               |          .     |                    offset: 0 0x1ea-0x1ea.7 (1)
     |                                               |                |                  [2]{}: instr 0x1eb-0x1eb.7 (1)
0x1e0|                                 0b            |           .    |                    end: 0xb (valid) 0x1eb-0x1eb.7 (1)
     |                                               |                |          [12]{}: code 0x1ec-0x1f3.7 (8)
0x1e0|                                    07         |            .   |            size: 7 0x1ec-0x1ec.7 (1)
     |                                               |                |            code{}: 0x1ed-0x1f3.7 (7)
     |                                               |                |              locals{}: 0x1ed-0x1ed.7 (1)
0x1e0|                                       00      |             .  |                n: 0 0x1ed-0x1ed.7 (1)
     |                                               |                |                items[0:0]: 0x1ee-NA (0)
     |                                               |                |              expr{}: 0x1ee-0x1f3.7 (6)
     |                                               |                |                instructions[0:3]: 0x1ee-0x1f3.7 (6)
     |                                               |                |                  [0]{}: instr 0x1ee-0x1ef.7 (2)
0x1e0|                                          20   |                |                    local.get: 0x20 (valid) 0x1ee-0x1ee.7 (1)
0x1e0|                                             00|               .|                    x: 0 0x1ef-0x1ef.7 (1)
     |                                               |                |                  [1]{}: instr 0x1f0-0x1f2.7 (3)
0x1f0|34                                             |4               |                    i64.load32_s: 0x34 (valid) 0x1f0-0x1f0.7 (1)
0x1f0|   02                                          | .              |                    align: 2 0x1f1-0x1f1.7 (1)
0x1f0|      00                                       |  .             |                    offset: 0 0x1f2-0x1f2.7 (1)
     |                                               |                |                  [2]{}: instr 0x1f3-0x1f3.7 (1)
0x1f0|         0b                                    |   .            |                    end: 0xb (valid) 0x1f3-0x1f3.7 (1)
     |                                               |                |          [13]{}: code 0x1f4-0x1fb.7 (8)
0x1f0|            07                                 |    .           |            size: 7 0x1f4-0x1f4.7 (1)
     |                                               |                |            code{}: 0x1f5-0x1fb.7 (7)
     |                                               |                |              locals{}: 0x1f5-0x1f5.7 (1)
0x1f0|               00                              |     .          |                n: 0 0x1f5-0x1f5.7 (1)
     |                                               |                |                items[0:0]: 0x1f6-NA (0)
     |                                               |                |              expr{}: 0x1f6-0x1fb.7 (6)
     |                                               |                |                instructions[0:3]: 0x1f6-0x1fb.7 (6)
     |                                               |                |                  [0]{}: instr 0x1f6-0x1f7.7 (2)
0x1f0|                  20                           |                |                    local.get: 0x20 (valid) 0x1f6-0x1f6.7 (1)
0x1f0|                     00                        |       .        |                    x: 0 0x1f7-0x1f7.7 (1)
     |                                               |                |                  [1]{}: instr 0x1f8-0x1fa.7 (3)
0x1f0|                        35                     |        5       |                    i64.load32_u: 0x35 (valid) 0x1f8-0x1f8.7 (1)
0x1f0|                           02                  |         .      |                    align: 2 0x1f9-0x1f9.7 (1)
0x1f0|                              00               |          .     |                    offset: 0 0x1fa-0x1fa.7 (1)
     |                                               |                |                  [2]{}: instr 0x1fb-0x1fb.7 (1)
0x1f0|                                 0b            |           .    |                    end: 0xb (valid) 0x1fb-0x1fb.7 (1)
     |                                               |                |          [14]{}: code 0x1fc-0x205.7 (10)
0x1f0|                                    09         |            .   |            size: 9 0x1fc-0x1fc.7 (1)
     |                                               |                |            code{}: 0x1fd-0x205.7 (9)
     |                                               |                |              locals{}: 0x1fd-0x1fd.7 (1)
0x1f0|                                       00      |             .  |                n: 0 0x1fd-0x1fd.7 (1)
     |                                               |                |                items[0:0]: 0x1fe-NA (0)
     |                                               |                |              expr{}: 0x1fe-0x205.7 (8)
     |                                               |                |                instructions[0:4]: 0x1fe-0x205.7 (8)
     |                                               |                |                  [0]{}: instr 0x1fe-0x1ff.7 (2)
0x1f0|                                          20   |                |                    local.get: 0x20 (valid) 0x1fe-0x1fe.7 (1)
0x1f0|                                             00|               .|                    x: 0 0x1ff-0x1ff.7 (1)
     |                                               |                |                  [1]{}: instr 0x200-0x201.7 (2)
0x200|20                                             |                |                    local.get: 0x20 (valid) 0x200-0x200.7 (1)
0x200|   01                                          | .              |                    x: 1 0x201-0x201.7 (1)
     |                                               |                |                  [2]{}: instr 0x202-0x204.7 (3)
0x200|      36                                       |  6             |                    i32.store: 0x36 (valid) 0x202-0x202.7 (1)
0x200|         02                                    |   .            |                    align: 2 0x203-0x203.7 (1)
0x200|            00                                 |    .           |                    offset: 0 0x204-0x204.7 (1)
     |                                               |                |                  [3]{}: instr 0x205-0x205.7 (1)
0x200|               0b                              |     .          |                    end: 0xb (valid) 0x205-0x205.7 (1)
     |                                               |                |          [15]{}: code 0x206-0x20f.7 (10)
0x200|                  09                           |      .         |            size: 9 0x206-0x206.7 (1)
     |                                               |                |            code{}: 0x207-0x20f.7 (9)
     |                                               |                |              locals{}: 0x207-0x207.7 (1)
0x200|                     00                        |       .        |                n: 0 0x207-0x207.7 (1)
     |                                               |                |                items[0:0]: 0x208-NA (0)
     |                                               |                |              expr{}: 0x208-0x20f.7 (8)
     |                                               |                |                instructions[0:4]: 0x208-0x20f.7 (8)
     |                                               |                |                  [0]{}: instr 0x208-0x209.7 (2)
0x200|                        20                     |                |                    local.get: 0x20 (valid) 0x208-0x208.7 (1)
0x200|                           00                  |         .      |                    x: 0 0x209-0x209.7 (1)
     |                                               |                |                  [1]{}: instr 0x20a-0x20b.7 (2)
0x200|                              20               |                |                    local.get: 0x20 (valid) 0x20a-0x20a.7 (1)
0x200|                                 01            |           .    |                    x: 1 0x20b-0x20b.7 (1)
     |                                               |                |                  [2]{}: instr 0x20c-0x20e.7 (3)
0x200|                                    37         |            7   |                    i64.store: 0x37 (valid) 0x20c-0x20c.7 (1)
0x200|                                       03      |             .  |                    align: 3 0x20d-0x20d.7 (1)
0x200|                                          00   |              . |                    offset: 0 0x20e-0x20e.7 (1)
     |                                               |                |                  [3]{}: instr 0x20f-0x20f.7 (1)
0x200|                                             0b|               .|                    end: 0xb (valid) 0x20f-0x20f.7 (1)
     |                                               |                |          [16]{}: code 0x210-0x219.7 (10)
0x210|09                                             |.               |            size: 9 0x210-0x210.7 (1)
     |                                               |                |            code{}: 0x211-0x219.7 (9)
     |                                               |                |              locals{}: 0x211-0x211.7 (1)
0x210|   00                                          | .              |                n: 0 0x211-0x211.7 (1)
     |                                               |                |                items[0:0]: 0x212-NA (0)
     |                                               |                |              expr{}: 0x212-0x219.7 (8)
     |                                               |                |                instructions[0:4]: 0x212-0x219.7 (8)
     |                                               |                |                  [0]{}: instr 0x212-0x213.7 (2)
0x210|      20                                       |                |                    local.get: 0x20 (valid) 0x212-0x212.7 (1)
0x210|         00                                    |   .            |                    x: 0 0x213-0x213.7 (1)
     |                                               |                |                  [1]{}: instr 0x214-0x215.7 (2)
0x210|            20                                 |                |                    local.get: 0x20 (valid) 0x214-0x214.7 (1)
0x210|               01                              |     .          |                    x: 1 0x215-0x215.7 (1)
     |                                               |                |                  [2]{}: instr 0x216-0x218.7 (3)
0x210|                  38                           |      8         |                    f32.store: 0x38 (valid) 0x216-0x216.7 (1)
0x210|                     02                        |       .        |                    align: 2 0x217-0x217.7 (1)
0x210|                        00                     |        .       |                    offset: 0 0x218-0x218.7 (1)
     |                                               |                |                  [3]{}: instr 0x219-0x219.7 (1)
0x210|                           0b                  |         .      |                    end: 0xb (valid) 0x219-0x219.7 (1)
     |                                               |                |          [17]{}: code 0x21a-0x223.7 (10)
0x210|                              09               |          .     |            size: 9 0x21a-0x21a.7 (1)
     |                                               |                |            code{}: 0x21b-0x223.7 (9)
     |                                               |                |              locals{}: 0x21b-0x21b.7 (1)
0x210|                                 00            |           .    |                n: 0 0x21b-0x21b.7 (1)
     |                                               |                |                items[0:0]: 0x21c-NA (0)
     |                                               |                |              expr{}: 0x21c-0x223.7 (8)
     |                                               |                |                instructions[0:4]: 0x21c-0x223.7 (8)
     |                                               |                |                  [0]{}: instr 0x21c-0x21d.7 (2)
0x210|                                    20         |                |                    local.get: 0x20 (valid) 0x21c-0x21c.7 (1)
0x210|                                       00      |             .  |                    x: 0 0x21d-0x21d.7 (1)
     |                                               |                |                  [1]{}: instr 0x21e-0x21f.7 (2)
0x210|                                          20   |                |                    local.get: 0x20 (valid) 0x21e-0x21e.7 (1)
0x210|                                             01|               .|                    x: 1 0x21f-0x21f.7 (1)
     |                                               |                |                  [2]{}: instr 0x220-0x222.7 (3)
0x220|39                                             |9               |                    f64.store: 0x39 (valid) 0x220-0x220.7 (1)
0x220|   03                                          | .              |                    align: 3 0x221-0x221.7 (1)
0x220|      00                                       |  .             |                    offset: 0 0x222-0x222.7 (1)
     |                                               |                |                  [3]{}: instr 0x223-0x223.7 (1)
0x220|         0b                                    |   .            |                    end: 0xb (valid) 0x223-0x223.7 (1)
     |                                               |                |          [18]{}: code 0x224-0x22d.7 (10)
0x220|            09                                 |    .           |            size: 9 0x224-0x224.7 (1)
     |                                               |                |            code{}: 0x225-0x22d.7 (9)
     |                                               |                |              locals{}: 0x225-0x225.7 (1)
0x220|               00                              |     .          |                n: 0 0x225-0x225.7 (1)
     |                                               |                |                items[0:0]: 0x226-NA (0)
     |                                               |                |              expr{}: 0x226-0x22d.7 (8)
     |                                               |                |                instructions[0:4]: 0x226-0x22d.7 (8)
     |                                               |                |                  [0]{}: instr 0x226-0x227.7 (2)
0x220|                  20                           |                |                    local.get: 0x20 (valid) 0x226-0x226.7 (1)
0x220|                     00                        |       .        |                    x: 0 0x227-0x227.7 (1)
     |                                               |                |                  [1]{}: instr 0x228-0x229.7 (2)
0x220|                        20                     |                |                    local.get: 0x20 (valid) 0x228-0x228.7 (1)
0x220|                           01                  |         .      |                    x: 1 0x229-0x229.7 (1)
     |                                               |                |                  [2]{}: instr 0x22a-0x22c.7 (3)
0x220|                              3a               |          :     |                    i32.store8: 0x3a (valid) 0x22a-0x22a.7 (1)
0x220|                                 00            |           .    |                    align: 0 0x22b-0x22b.7 (1)
0x220|                                    00         |            .   |                    offset: 0 0x22c-0x22c.7 (1)
     |                                               |                |                  [3]{}: instr 0x22d-0x22d.7 (1)
0x220|                                       0b      |             .  |                    end: 0xb (valid) 0x22d-0x22d.7 (1)
     |                                               |                |          [19]{}: code 0x22e-0x237.7 (10)
0x220|                                          09   |              . |            size: 9 0x22e-0x22e.7 (1)
     |                                               |                |            code{}: 0x22f-0x237.7 (9)
     |                                               |                |              locals{}: 0x22f-0x22f.7 (1)
0x220|                                             00|               .|                n: 0 0x22f-0x22f.7 (1)
     |                                               |                |                items[0:0]: 0x230-NA (0)
     |                                               |                |              expr{}: 0x230-0x237.7 (8)
     |                                               |                |                instructions[0:4]: 0x230-0x237.7 (8)
     |                                               |                |                  [0]{}: instr 0x230-0x231.7 (2)
0x230|20                                             |                |                    local.get: 0x20 (valid) 0x230-0x230.7 (1)
0x230|   00                                          | .              |                    x: 0 0x231-0x231.7 (1)
     |                                               |                |                  [1]{}: instr 0x232-0x233.7 (2)
0x230|      20                                       |                |                    local.get: 0x20 (valid) 0x232-0x232.7 (1)
0x230|         01                                    |   .            |                    x: 1 0x233-0x233.7 (1)
     |                                               |                |                  [2]{}: instr 0x234-0x236.7 (3)
0x230|            3b                                 |    ;           |                    i32.store16: 0x3b (valid) 0x234-0x234.7 (1)
0x230|               01                              |     .          |                    align: 1 0x235-0x235.7 (1)
0x230|                  00                           |      .         |                    offset: 0 0x236-0x236.7 (1)
     |                                               |                |                  [3]{}: instr 0x237-0x237.7 (1)
0x230|                     0b                        |       .        |                    end: 0xb (valid) 0x237-0x237.7 (1)
     |                                               |                |          [20]{}: code 0x238-0x241.7 (10)
0x230|                        09                     |        .       |            size: 9 0x238-0x238.7 (1)
     |                                               |                |            code{}: 0x239-0x241.7 (9)
     |                                               |                |              locals{}: 0x239-0x239.7 (1)
0x230|                           00                  |         .      |                n: 0 0x239-0x239.7 (1)
     |                                               |                |                items[0:0]: 0x23a-NA (0)
     |                                               |                |              expr{}: 0x23a-0x241.7 (8)
     |                                               |                |                instructions[0:4]: 0x23a-0x241.7 (8)
     |                                               |                |                  [0]{}: instr 0x23a-0x23b.7 (2)
0x230|                              20               |                |                    local.get: 0x20 (valid) 0x23a-0x23a.7 (1)
0x230|                                 00            |           .    |                    x: 0 0x23b-0x23b.7 (1)
     |                                               |                |                  [1]{}: instr 0x23c-0x23d.7 (2)
0x230|                                    20         |                |                    local.get: 0x20 (valid) 0x23c-0x23c.7 (1)
0x230|                                       01      |             .  |                    x: 1 0x23d-0x23d.7 (1)
     |                                               |                |                  [2]{}: instr 0x23e-0x240.7 (3)
0x230|                                          3c   |              < |                    i64.store8: 0x3c (valid) 0x23e-0x23e.7 (1)
0x230|                                             00|               .|                    align: 0 0x23f-0x23f.7 (1)
0x240|00                                             |.               |                    offset: 0 0x240-0x240.7 (1)
     |                                               |                |                  [3]{}: instr 0x241-0x241.7 (1)
0x240|   0b                                          | .              |                    end: 0xb (valid) 0x241-0x241.7 (1)
     |                                               |                |          [21]{}: code 0x242-0x24b.7 (10)
0x240|      09                                       |  .             |            size: 9 0x242-0x242.7 (1)
     |                                               |                |            code{}: 0x243-0x24b.7 (9)
     |                                               |                |              locals{}: 0x243-0x243.7 (1)
0x240|         00                                    |   .            |                n: 0 0x243-0x243.7 (1)
     |                                               |                |                items[0:0]: 0x244-NA (0)
     |                                               |                |              expr{}: 0x244-0x24b.7 (8)
     |                                               |                |                instructions[0:4]: 0x244-0x24b.7 (8)
     |                                               |                |                  [0]{}: instr 0x244-0x245.7 (2)
0x240|            20                                 |                |                    local.get: 0x20 (valid) 0x244-0x244.7 (1)
0x240|               00                              |     .          |                    x: 0 0x245-0x245.7 (1)
     |                                               |                |                  [1]{}: instr 0x246-0x247.7 (2)
0x240|                  20                           |                |                    local.get: 0x20 (valid) 0x246-0x246.7 (1)
0x240|                     01                        |       .        |                    x: 1 0x247-0x247.7 (1)
     |                                               |                |                  [2]{}: instr 0x248-0x24a.7 (3)
0x240|                        3d                     |        =       |                    i64.store16: 0x3d (valid) 0x248-0x248.7 (1)
0x240|                           01                  |         .      |                    align: 1 0x249-0x249.7 (1)
0x240|                              00               |          .     |                    offset: 0 0x24a-0x24a.7 (1)
     |                                               |                |                  [3]{}: instr 0x24b-0x24b.7 (1)
0x240|                                 0b            |           .    |                    end: 0xb (valid) 0x24b-0x24b.7 (1)
     |                                               |                |          [22]{}: code 0x24c-0x255.7 (10)
0x240|                                    09         |            .   |            size: 9 0x24c-0x24c.7 (1)
     |                                               |                |            code{}: 0x24d-0x255.7 (9)
     |                                               |                |              locals{}: 0x24d-0x24d.7 (1)
0x240|                                       00      |             .  |                n: 0 0x24d-0x24d.7 (1)
     |                                               |                |                items[0:0]: 0x24e-NA (0)
     |                                               |                |              expr{}: 0x24e-0x255.7 (8)
     |                                               |                |                instructions[0:4]: 0x24e-0x255.7 (8)
     |                                               |                |                  [0]{}: instr 0x24e-0x24f.7 (2)
0x240|                                          20   |                |                    local.get: 0x20 (valid) 0x24e-0x24e.7 (1)
0x240|                                             00|               .|                    x: 0 0x24f-0x24f.7 (1)
     |                                               |                |                  [1]{}: instr 0x250-0x251.7 (2)
0x250|20                                             |                |                    local.get: 0x20 (valid) 0x250-0x250.7 (1)
0x250|   01                                          | .              |                    x: 1 0x251-0x251.7 (1)
     |                                               |                |                  [2]{}: instr 0x252-0x254.7 (3)
0x250|      3e                                       |  >             |                    i64.store32: 0x3e (valid) 0x252-0x252.7 (1)
0x250|         02                                    |   .            |                    align: 2 0x253-0x253.7 (1)
0x250|            00                                 |    .           |                    offset: 0 0x254-0x254.7 (1)
     |                                               |                |                  [3]{}: instr 0x255-0x255.7 (1)
0x250|               0b                              |     .          |                    end: 0xb (valid) 0x255-0x255.7 (1)
     |                                               |                |    [5]{}: section 0x256-0x274.7 (31)
0x250|                  0b                           |      .         |      id: "data section" (11) 0x256-0x256.7 (1)
0x250|                     1d                        |       .        |      size: 29 0x257-0x257.7 (1)
     |                                               |                |      content{}: 0x258-0x274.7 (29)
0x250|                        02                     |        .       |        n: 2 0x258-0x258.7 (1)
     |                                               |                |        items[0:2]: 0x259-0x274.7 (28)
     |                                               |                |          [0]{}: data 0x259-0x265.7 (13)
0x250|                           00                  |         .      |            tag: 0 0x259-0x259.7 (1)
     |                                               |                |            instructions[0:2]: 0x25a-0x25c.7 (3)
     |                                               |                |              [0]{}: instr 0x25a-0x25b.7 (2)
0x250|                              41               |          A     |                i32.const: 0x41 (valid) 0x25a-0x25a.7 (1)
0x250|                                 00            |           .    |                n: 0 0x25b-0x25b.7 (1)
     |                                               |                |              [1]{}: instr 0x25c-0x25c.7 (1)
0x250|                                    0b         |            .   |                end: 0xb (valid) 0x25c-0x25c.7 (1)
0x250|                                       08      |             .  |            n: 8 0x25d-0x25d.7 (1)
0x250|                                          61 62|              ab|            bytes: raw bits 0x25e-0x265.7 (8)
0x260|63 64 65 66 67 68                              |cdefgh          |
     |                                               |                |          [1]{}: data 0x266-0x274.7 (15)
0x260|                  00                           |      .         |            tag: 0 0x266-0x266.7 (1)
     |                                               |                |            instructions[0:2]: 0x267-0x26b.7 (5)
     |                                               |                |              [0]{}: instr 0x267-0x26a.7 (4)
0x260|                     41                        |       A        |                i32.const: 0x41 (valid) 0x267-0x267.7 (1)
0x260|                        f8 ff 03               |        ...     |                n: 65528 0x268-0x26a.7 (3)
     |                                               |                |              [1]{}: instr 0x26b-0x26b.7 (1)
0x260|                                 0b            |           .    |                end: 0xb (valid) 0x26b-0x26b.7 (1)
0x260|                                    08         |            .   |            n: 8 0x26c-0x26c.7 (1)
0x260|                                       61 62 63|             abc|            bytes: raw bits 0x26d-0x274.7 (8)
0x270|64 65 66 67 68|                                |defgh|          |
