$ fq -d wasm dv memory_copy-14.wasm
    |00 01 02 03 04 05 06 07 08 09 0a 0b 0c 0d 0e 0f|0123456789abcdef|.{}: memory_copy-14.wasm (wasm) 0x0-0x6f.7 (112)
0x00|00 61 73 6d                                    |.asm            |  magic: raw bits (valid) 0x0-0x3.7 (4)
0x00|            01 00 00 00                        |    ....        |  version: 1 0x4-0x7.7 (4)
    |                                               |                |  sections[0:6]: 0x8-0x6f.7 (104)
    |                                               |                |    [0]{}: section 0x8-0x15.7 (14)
0x00|                        01                     |        .       |      id: "type section" (1) 0x8-0x8.7 (1)
0x00|                           0c                  |         .      |      size: 12 0x9-0x9.7 (1)
    |                                               |                |      content{}: 0xa-0x15.7 (12)
0x00|                              02               |          .     |        n: 2 0xa-0xa.7 (1)
    |                                               |                |        items[0:2]: 0xb-0x15.7 (11)
    |                                               |                |          [0]{}: functype 0xb-0x10.7 (6)
0x00|                                 60            |           `    |            tag: 0x60 (valid) 0xb-0xb.7 (1)
    |                                               |                |            rt1{}: 0xc-0xf.7 (4)
0x00|                                    03         |            .   |              n: 3 0xc-0xc.7 (1)
    |                                               |                |              items[0:3]: 0xd-0xf.7 (3)
0x00|                                       7f      |             .  |                [0]: "i32" (127) valtype 0xd-0xd.7 (1)
0x00|                                          7f   |              . |                [1]: "i32" (127) valtype 0xe-0xe.7 (1)
0x00|                                             7f|               .|                [2]: "i32" (127) valtype 0xf-0xf.7 (1)
    |                                               |                |            rt2{}: 0x10-0x10.7 (1)
0x10|00                                             |.               |              n: 0 0x10-0x10.7 (1)
    |                                               |                |              items[0:0]: 0x11-NA (0)
    |                                               |                |          [1]{}: functype 0x11-0x15.7 (5)
0x10|   60                                          | `              |            tag: 0x60 (valid) 0x11-0x11.7 (1)
    |                                               |                |            rt1{}: 0x12-0x13.7 (2)
0x10|      01                                       |  .             |              n: 1 0x12-0x12.7 (1)
    |                                               |                |              items[0:1]: 0x13-0x13.7 (1)
0x10|         7f                                    |   .            |                [0]: "i32" (127) valtype 0x13-0x13.7 (1)
    |                                               |                |            rt2{}: 0x14-0x15.7 (2)
0x10|            01                                 |    .           |              n: 1 0x14-0x14.7 (1)
    |                                               |                |              items[0:1]: 0x15-0x15.7 (1)
0x10|               7f                              |     .          |                [0]: "i32" (127) valtype 0x15-0x15.7 (1)
    |                                               |                |    [1]{}: section 0x16-0x1a.7 (5)
0x10|                  03                           |      .         |      id: "function section" (3) 0x16-0x16.7 (1)
0x10|                     03                        |       .        |      size: 3 0x17-0x17.7 (1)
    |                                               |                |      content{}: 0x18-0x1a.7 (3)
0x10|                        02                     |        .       |        n: 2 0x18-0x18.7 (1)
    |                                               |                |        items[0:2]: 0x19-0x1a.7 (2)
0x10|                           00                  |         .      |          [0]: 0 x 0x19-0x19.7 (1)
0x10|                              01               |          .     |          [1]: 1 x 0x1a-0x1a.7 (1)
    |                                               |                |    [2]{}: section 0x1b-0x20.7 (6)
0x10|                                 05            |           .    |      id: "memory section" (5) 0x1b-0x1b.7 (1)
0x10|                                    04         |            .   |      size: 4 0x1c-0x1c.7 (1)
    |                                               |                |      content{}: 0x1d-0x20.7 (4)
0x10|                                       01      |             .  |        n: 1 0x1d-0x1d.7 (1)
    |                                               |                |        items[0:1]: 0x1e-0x20.7 (3)
    |                                               |                |          [0]{}: mem 0x1e-0x20.7 (3)
    |                                               |                |            limits{}: 0x1e-0x20.7 (3)
0x10|                                          01   |              . |              tag: 0x1 0x1e-0x1e.7 (1)
0x10|                                             01|               .|              min: 1 0x1f-0x1f.7 (1)
0x20|01                                             |.               |              max: 1 0x20-0x20.7 (1)
    |                                               |                |    [3]{}: section 0x21-0x39.7 (25)
0x20|   07                                          | .              |      id: "export section" (7) 0x21-0x21.7 (1)
0x20|      17                                       |  .             |      size: 23 0x22-0x22.7 (1)
    |                                               |                |      content{}: 0x23-0x39.7 (23)
0x20|         03                                    |   .            |        n: 3 0x23-0x23.7 (1)
    |                                               |                |        items[0:3]: 0x24-0x39.7 (22)
    |                                               |                |          [0]{}: export 0x24-0x29.7 (6)
    |                                               |                |            name{}: 0x24-0x27.7 (4)
0x20|            03                                 |    .           |              len: 3 0x24-0x24.7 (1)
0x20|               6d 65 6d                        |     mem        |              utf8bytes: "mem" 0x25-0x27.7 (3)
    |                                               |                |            expr{}: 0x28-0x29.7 (2)
0x20|                        02                     |        .       |              tag: "memidx" (0x2) 0x28-0x28.7 (1)
0x20|                           00                  |         .      |              x: 0 0x29-0x29.7 (1)
    |                                               |                |          [1]{}: export 0x2a-0x2f.7 (6)
    |                                               |                |            name{}: 0x2a-0x2d.7 (4)
0x20|                              03               |          .     |              len: 3 0x2a-0x2a.7 (1)
0x20|                                 72 75 6e      |           run  |              utf8bytes: "run" 0x2b-0x2d.7 (3)
    |                                               |                |            expr{}: 0x2e-0x2f.7 (2)
0x20|                                          00   |              . |              tag: "funcidx" (0x0) 0x2e-0x2e.7 (1)
0x20|                                             00|               .|              x: 0 0x2f-0x2f.7 (1)
    |                                               |                |          [2]{}: export 0x30-0x39.7 (10)
    |                                               |                |            name{}: 0x30-0x37.7 (8)
0x30|07                                             |.               |              len: 7 0x30-0x30.7 (1)
0x30|   6c 6f 61 64 38 5f 75                        | load8_u        |              utf8bytes: "load8_u" 0x31-0x37.7 (7)
    |                                               |                |            expr{}: 0x38-0x39.7 (2)
0x30|                        00                     |        .       |              tag: "funcidx" (0x0) 0x38-0x38.7 (1)
0x30|                           01                  |         .      |              x: 1 0x39-0x39.7 (1)
    |                                               |                |    [4]{}: section 0x3a-0x51.7 (24)
0x30|                              0a               |          .     |      id: "code section" (10) 0x3a-0x3a.7 (1)
0x30|                                 16            |           .    |      size: 22 0x3b-0x3b.7 (1)
    |                                               |                |      content{}: 0x3c-0x51.7 (22)
0x30|                                    02         |            .   |        n: 2 0x3c-0x3c.7 (1)
    |                                               |                |        items[0:2]: 0x3d-0x51.7 (21)
    |                                               |                |          [0]{}: code 0x3d-0x49.7 (13)
0x30|                                       0c      |             .  |            size: 12 0x3d-0x3d.7 (1)
    |                                               |                |            code{}: 0x3e-0x49.7 (12)
    |                                               |                |              locals{}: 0x3e-0x3e.7 (1)
0x30|                                          00   |              . |                n: 0 0x3e-0x3e.7 (1)
    |                                               |                |                items[0:0]: 0x3f-NA (0)
    |                                               |                |              expr{}: 0x3f-0x49.7 (11)
    |                                               |                |                instructions[0:5]: 0x3f-0x49.7 (11)
    |                                               |                |                  [0]{}: instr 0x3f-0x40.7 (2)
0x30|                                             20|                |                    local.get: 0x20 (valid) 0x3f-0x3f.7 (1)
0x40|00                                             |.               |                    x: 0 0x40-0x40.7 (1)
    |                                               |                |                  [1]{}: instr 0x41-0x42.7 (2)
0x40|   20                                          |                |                    local.get: 0x20 (valid) 0x41-0x41.7 (1)
0x40|      01                                       |  .             |                    x: 1 0x42-0x42.7 (1)
    |                                               |                |                  [2]{}: instr 0x43-0x44.7 (2)
0x40|         20                                    |                |                    local.get: 0x20 (valid) 0x43-0x43.7 (1)
0x40|            02                                 |    .           |                    x: 2 0x44-0x44.7 (1)
    |                                               |                |                  [3]{}: instr 0x45-0x48.7 (4)
0x40|               fc                              |     .          |                    prefix: 0xfc (valid) 0x45-0x45.7 (1)
0x40|                  0a                           |      .         |                    memory.copy: 10 (valid) 0x46-0x46.7 (1)
0x40|                     00                        |       .        |                    reserved1: 0x0 (valid) 0x47-0x47.7 (1)
0x40|                        00                     |        .       |                    reserved2: 0x0 (valid) 0x48-0x48.7 (1)
    |                                               |                |                  [4]{}: instr 0x49-0x49.7 (1)
0x40|                           0b                  |         .      |                    end: 0xb (valid) 0x49-0x49.7 (1)
    |                                               |                |          [1]{}: code 0x4a-0x51.7 (8)
0x40|                              07               |          .     |            size: 7 0x4a-0x4a.7 (1)
    |                                               |                |            code{}: 0x4b-0x51.7 (7)
    |                                               |                |              locals{}: 0x4b-0x4b.7 (1)
0x40|                                 00            |           .    |                n: 0 0x4b-0x4b.7 (1)
    |                                               |                |                items[0:0]: 0x4c-NA (0)
    |                                               |                |              expr{}: 0x4c-0x51.7 (6)
    |                                               |                |                instructions[0:3]: 0x4c-0x51.7 (6)
    |                                               |                |                  [0]{}: instr 0x4c-0x4d.7 (2)
0x40|                                    20         |                |                    local.get: 0x20 (valid) 0x4c-0x4c.7 (1)
0x40|                                       00      |             .  |                    x: 0 0x4d-0x4d.7 (1)
    |                                               |                |                  [1]{}: instr 0x4e-0x50.7 (3)
0x40|                                          2d   |              - |                    i32.load8_u: 0x2d (valid) 0x4e-0x4e.7 (1)
0x40|                                             00|               .|                    align: 0 0x4f-0x4f.7 (1)
0x50|00                                             |.               |                    offset: 0 0x50-0x50.7 (1)
    |                                               |                |                  [2]{}: instr 0x51-0x51.7 (1)
0x50|   0b                                          | .              |                    end: 0xb (valid) 0x51-0x51.7 (1)
    |                                               |                |    [5]{}: section 0x52-0x6f.7 (30)
0x50|      0b                                       |  .             |      id: "data section" (11) 0x52-0x52.7 (1)
0x50|         1c                                    |   .            |      size: 28 0x53-0x53.7 (1)
    |                                               |                |      content{}: 0x54-0x6f.7 (28)
0x50|            01                                 |    .           |        n: 1 0x54-0x54.7 (1)
    |                                               |                |        items[0:1]: 0x55-0x6f.7 (27)
    |                                               |                |          [0]{}: data 0x55-0x6f.7 (27)
0x50|               00                              |     .          |            tag: 0 0x55-0x55.7 (1)
    |                                               |                |            instructions[0:2]: 0x56-0x5a.7 (5)
    |                                               |                |              [0]{}: instr 0x56-0x59.7 (4)
0x50|                  41                           |      A         |                i32.const: 0x41 (valid) 0x56-0x56.7 (1)
0x50|                     e2 ff 03                  |       ...      |                n: 65506 0x57-0x59.7 (3)
    |                                               |                |              [1]{}: instr 0x5a-0x5a.7 (1)
0x50|                              0b               |          .     |                end: 0xb (valid) 0x5a-0x5a.7 (1)
0x50|                                 14            |           .    |            n: 20 0x5b-0x5b.7 (1)
0x50|                                    00 01 02 03|            ....|            bytes: raw bits 0x5c-0x6f.7 (20)
0x60|04 05 06 07 08 09 0a 0b 0c 0d 0e 0f 10 11 12 13|................|
