$ fq -d wasm dv memory_grow-3.wasm
    |00 01 02 03 04 05 06 07 08 09 0a 0b 0c 0d 0e 0f|0123456789abcdef|.{}: memory_grow-3.wasm (wasm) 0x0-0x7b.7 (124)
0x00|00 61 73 6d                                    |.asm            |  magic: raw bits (valid) 0x0-0x3.7 (4)
0x00|            01 00 00 00                        |    ....        |  version: 1 0x4-0x7.7 (4)
    |                                               |                |  sections[0:5]: 0x8-0x7b.7 (116)
    |                                               |                |    [0]{}: section 0x8-0x15.7 (14)
0x00|                        01                     |        .       |      id: "type section" (1) 0x8-0x8.7 (1)
0x00|                           0c                  |         .      |      size: 12 0x9-0x9.7 (1)
    |                                               |                |      content{}: 0xa-0x15.7 (12)
0x00|                              02               |          .     |        n: 2 0xa-0xa.7 (1)
    |                                               |                |        items[0:2]: 0xb-0x15.7 (11)
    |                                               |                |          [0]{}: functype 0xb-0xf.7 (5)
0x00|                                 60            |           `    |            tag: 0x60 (valid) 0xb-0xb.7 (1)
    |                                               |                |            rt1{}: 0xc-0xd.7 (2)
0x00|                                    01         |            .   |              n: 1 0xc-0xc.7 (1)
    |                                               |                |              items[0:1]: 0xd-0xd.7 (1)
0x00|                                       7f      |             .  |                [0]: "i32" (127) valtype 0xd-0xd.7 (1)
    |                                               |                |            rt2{}: 0xe-0xf.7 (2)
0x00|                                          01   |              . |              n: 1 0xe-0xe.7 (1)
    |                                               |                |              items[0:1]: 0xf-0xf.7 (1)
0x00|                                             7f|               .|                [0]: "i32" (127) valtype 0xf-0xf.7 (1)
    |                                               |                |          [1]{}: functype 0x10-0x15.7 (6)
0x10|60                                             |`               |            tag: 0x60 (valid) 0x10-0x10.7 (1)
    |                                               |                |            rt1{}: 0x11-0x13.7 (3)
0x10|   02                                          | .              |              n: 2 0x11-0x11.7 (1)
    |                                               |                |              items[0:2]: 0x12-0x13.7 (2)
0x10|      7f                                       |  .             |                [0]: "i32" (127) valtype 0x12-0x12.7 (1)
0x10|         7f                                    |   .            |                [1]: "i32" (127) valtype 0x13-0x13.7 (1)
    |                                               |                |            rt2{}: 0x14-0x15.7 (2)
0x10|            01                                 |    .           |              n: 1 0x14-0x14.7 (1)
    |                                               |                |              items[0:1]: 0x15-0x15.7 (1)
0x10|               7f                              |     .          |                [0]: "i32" (127) valtype 0x15-0x15.7 (1)
    |                                               |                |    [1]{}: section 0x16-0x1a.7 (5)
0x10|                  03                           |      .         |      id: "function section" (3) 0x16-0x16.7 (1)
0x10|                     03                        |       .        |      size: 3 0x17-0x17.7 (1)
    |                                               |                |      content{}: 0x18-0x1a.7 (3)
0x10|                        02                     |        .       |        n: 2 0x18-0x18.7 (1)
    |                                               |                |        items[0:2]: 0x19-0x1a.7 (2)
0x10|                           00                  |         .      |          [0]: 0 x 0x19-0x19.7 (1)
0x10|                              01               |          .     |          [1]: 1 x 0x1a-0x1a.7 (1)
    |                                               |                |    [2]{}: section 0x1b-0x1f.7 (5)
0x10|                                 05            |           .    |      id: "memory section" (5) 0x1b-0x1b.7 (1)
0x10|                                    03         |            .   |      size: 3 0x1c-0x1c.7 (1)
    |                                               |                |      content{}: 0x1d-0x1f.7 (3)
0x10|                                       01      |             .  |        n: 1 0x1d-0x1d.7 (1)
    |                                               |                |        items[0:1]: 0x1e-0x1f.7 (2)
    |                                               |                |          [0]{}: mem 0x1e-0x1f.7 (2)
    |                                               |                |            limits{}: 0x1e-0x1f.7 (2)
0x10|                                          00   |              . |              tag: 0x0 0x1e-0x1e.7 (1)
0x10|                                             01|               .|              min: 1 0x1f-0x1f.7 (1)
    |                                               |                |    [3]{}: section 0x20-0x3d.7 (30)
0x20|07                                             |.               |      id: "export section" (7) 0x20-0x20.7 (1)
0x20|   1c                                          | .              |      size: 28 0x21-0x21.7 (1)
    |                                               |                |      content{}: 0x22-0x3d.7 (28)
0x20|      02                                       |  .             |        n: 2 0x22-0x22.7 (1)
    |                                               |                |        items[0:2]: 0x23-0x3d.7 (27)
    |                                               |                |          [0]{}: export 0x23-0x29.7 (7)
    |                                               |                |            name{}: 0x23-0x27.7 (5)
0x20|         04                                    |   .            |              len: 4 0x23-0x23.7 (1)
0x20|            67 72 6f 77                        |    grow        |              utf8bytes: "grow" 0x24-0x27.7 (4)
    |                                               |                |            expr{}: 0x28-0x29.7 (2)
0x20|                        00                     |        .       |              tag: "funcidx" (0x0) 0x28-0x28.7 (1)
0x20|                           00                  |         .      |              x: 0 0x29-0x29.7 (1)
    |                                               |                |          [1]{}: export 0x2a-0x3d.7 (20)
    |                                               |                |            name{}: 0x2a-0x3b.7 (18)
0x20|                              11               |          .     |              len: 17 0x2a-0x2a.7 (1)
0x20|                                 63 68 65 63 6b|           check|              utf8bytes: "check-memory-zero" 0x2b-0x3b.7 (17)
0x30|2d 6d 65 6d 6f 72 79 2d 7a 65 72 6f            |-memory-zero    |
    |                                               |                |            expr{}: 0x3c-0x3d.7 (2)
0x30|                                    00         |            .   |              tag: "funcidx" (0x0) 0x3c-0x3c.7 (1)
0x30|                                       01      |             .  |              x: 1 0x3d-0x3d.7 (1)
    |                                               |                |    [4]{}: section 0x3e-0x7b.7 (62)
0x30|                                          0a   |              . |      id: "code section" (10) 0x3e-0x3e.7 (1)
0x30|                                             3c|               <|      size: 60 0x3f-0x3f.7 (1)
    |                                               |                |      content{}: 0x40-0x7b.7 (60)
0x40|02                                             |.               |        n: 2 0x40-0x40.7 (1)
    |                                               |                |        items[0:2]: 0x41-0x7b.7 (59)
    |                                               |                |          [0]{}: code 0x41-0x47.7 (7)
0x40|   06                                          | .              |            size: 6 0x41-0x41.7 (1)
    |                                               |                |            code{}: 0x42-0x47.7 (6)
    |                                               |                |              locals{}: 0x42-0x42.7 (1)
0x40|      00                                       |  .             |                n: 0 0x42-0x42.7 (1)
    |                                               |                |                items[0:0]: 0x43-NA (0)
    |                                               |                |              expr{}: 0x43-0x47.7 (5)
    |                                               |                |                instructions[0:3]: 0x43-0x47.7 (5)
    |                                               |                |                  [0]{}: instr 0x43-0x44.7 (2)
0x40|         20                                    |                |                    local.get: 0x20 (valid) 0x43-0x43.7 (1)
0x40|            00                                 |    .           |                    x: 0 0x44-0x44.7 (1)
    |                                               |                |                  [1]{}: instr 0x45-0x46.7 (2)
0x40|               40                              |     @          |                    memory.grow: 0x40 (valid) 0x45-0x45.7 (1)
0x40|                  00                           |      .         |                    reserved: 0x0 (valid) 0x46-0x46.7 (1)
    |                                               |                |                  [2]{}: instr 0x47-0x47.7 (1)
0x40|                     0b                        |       .        |                    end: 0xb (valid) 0x47-0x47.7 (1)
    |                                               |                |          [1]{}: code 0x48-0x7b.7 (52)
0x40|                        33                     |        3       |            size: 51 0x48-0x48.7 (1)
    |                                               |                |            code{}: 0x49-0x7b.7 (51)
    |                                               |                |              locals{}: 0x49-0x4b.7 (3)
0x40|                           01                  |         .      |                n: 1 0x49-0x49.7 (1)
    |                                               |                |                items[0:1]: 0x4a-0x4b.7 (2)
    |                                               |                |                  [0]{}: locals 0x4a-0x4b.7 (2)
0x40|                              01               |          .     |                    n: 1 0x4a-0x4a.7 (1)
0x40|                                 7f            |           .    |                    valtype: "i32" (127) 0x4b-0x4b.7 (1)
    |                                               |                |              expr{}: 0x4c-0x7b.7 (48)
    |                                               |                |                instructions[0:5]: 0x4c-0x7b.7 (48)
    |                                               |                |                  [0]{}: instr 0x4c-0x4d.7 (2)
0x40|                                    41         |            A   |                    i32.const: 0x41 (valid) 0x4c-0x4c.7 (1)
0x40|                                       01      |             .  |                    n: 1 0x4d-0x4d.7 (1)
    |                                               |                |                  [1]{}: instr 0x4e-0x4f.7 (2)
0x40|                                          21   |              ! |                    local.set: 0x21 (valid) 0x4e-0x4e.7 (1)
0x40|                                             02|               .|                    x: 2 0x4f-0x4f.7 (1)
    |                                               |                |                  [2]{}: instr 0x50-0x78.7 (41)
0x50|02                                             |.               |                    block: 0x2 (valid) 0x50-0x50.7 (1)
0x50|   40                                          | @              |                    empty: 64 0x51-0x51.7 (1)
    |                                               |                |                    instructions[0:1]: 0x52-0x77.7 (38)
    |                                               |                |                      [0]{}: instr 0x52-0x77.7 (38)
0x50|      03                                       |  .             |                        loop: 0x3 (valid) 0x52-0x52.7 (1)
0x50|         40                                    |   @            |                        empty: 64 0x53-0x53.7 (1)
    |                                               |                |                        instructions[0:19]: 0x54-0x76.7 (35)
    |                                               |                |                          [0]{}: instr 0x54-0x55.7 (2)
0x50|            20                                 |                |                            local.get: 0x20 (valid) 0x54-0x54.7 (1)
0x50|               00                              |     .          |                            x: 0 0x55-0x55.7 (1)
    |                                               |                |                          [1]{}: instr 0x56-0x58.7 (3)
0x50|                  2d                           |      -         |                            i32.load8_u: 0x2d (valid) 0x56-0x56.7 (1)
0x50|                     00                        |       .        |                            align: 0 0x57-0x57.7 (1)
0x50|                        00                     |        .       |                            offset: 0 0x58-0x58.7 (1)
    |                                               |                |                          [2]{}: instr 0x59-0x5a.7 (2)
0x50|                           21                  |         !      |                            local.set: 0x21 (valid) 0x59-0x59.7 (1)
0x50|                              02               |          .     |                            x: 2 0x5a-0x5a.7 (1)
    |                                               |                |                          [3]{}: instr 0x5b-0x5c.7 (2)
0x50|                                 20            |                |                            local.get: 0x20 (valid) 0x5b-0x5b.7 (1)
0x50|                                    02         |            .   |                            x: 2 0x5c-0x5c.7 (1)
    |                                               |                |                          [4]{}: instr 0x5d-0x5e.7 (2)
0x50|                                       41      |             A  |                            i32.const: 0x41 (valid) 0x5d-0x5d.7 (1)
0x50|                                          00   |              . |                            n: 0 0x5e-0x5e.7 (1)
    |                                               |                |                          [5]{}: instr 0x5f-0x5f.7 (1)
0x50|                                             47|               G|                            i32.ne: 0x47 (valid) 0x5f-0x5f.7 (1)
    |                                               |                |                          [6]{}: instr 0x60-0x61.7 (2)
0x60|0d                                             |.               |                            br_if: 0xd (valid) 0x60-0x60.7 (1)
0x60|   01                                          | .              |                            l: 1 0x61-0x61.7 (1)
    |                                               |                |                          [7]{}: instr 0x62-0x63.7 (2)
0x60|      20                                       |                |                            local.get: 0x20 (valid) 0x62-0x62.7 (1)
0x60|         00                                    |   .            |                            x: 0 0x63-0x63.7 (1)
    |                                               |                |                          [8]{}: instr 0x64-0x65.7 (2)
0x60|            20                                 |                |                            local.get: 0x20 (valid) 0x64-0x64.7 (1)
0x60|               01                              |     .          |                            x: 1 0x65-0x65.7 (1)
    |                                               |                |                          [9]{}: instr 0x66-0x66.7 (1)
0x60|                  4f                           |      O         |                            i32.ge_u: 0x4f (valid) 0x66-0x66.7 (1)
    |                                               |                |                          [10]{}: instr 0x67-0x68.7 (2)
0x60|                     0d                        |       .        |                            br_if: 0xd (valid) 0x67-0x67.7 (1)
0x60|                        01                     |        .       |                            l: 1 0x68-0x68.7 (1)
    |                                               |                |                          [11]{}: instr 0x69-0x6a.7 (2)
0x60|                           20                  |                |                            local.get: 0x20 (valid) 0x69-0x69.7 (1)
0x60|                              00               |          .     |                            x: 0 0x6a-0x6a.7 (1)
    |                                               |                |                          [12]{}: instr 0x6b-0x6c.7 (2)
0x60|                                 41            |           A    |                            i32.const: 0x41 (valid) 0x6b-0x6b.7 (1)
0x60|                                    01         |            .   |                            n: 1 0x6c-0x6c.7 (1)
    |                                               |                |                          [13]{}: instr 0x6d-0x6d.7 (1)
0x60|                                       6a      |             j  |                            i32.add: 0x6a (valid) 0x6d-0x6d.7 (1)
    |                                               |                |                          [14]{}: instr 0x6e-0x6f.7 (2)
0x60|                                          21   |              ! |                            local.set: 0x21 (valid) 0x6e-0x6e.7 (1)
0x60|                                             00|               .|                            x: 0 0x6f-0x6f.7 (1)
    |                                               |                |                          [15]{}: instr 0x70-0x71.7 (2)
0x70|20                                             |                |                            local.get: 0x20 (valid) 0x70-0x70.7 (1)
0x70|   00                                          | .              |                            x: 0 0x71-0x71.7 (1)
    |                                               |                |                          [16]{}: instr 0x72-0x73.7 (2)
0x70|      20                                       |                |                            local.get: 0x20 (valid) 0x72-0x72.7 (1)
0x70|         01                                    |   .            |                            x: 1 0x73-0x73.7 (1)
    |                                               |                |                          [17]{}: instr 0x74-0x74.7 (1)
0x70|            4d                                 |    M           |                            i32.le_u: 0x4d (valid) 0x74-0x74.7 (1)
    |                                               |                |                          [18]{}: instr 0x75-0x76.7 (2)
0x70|               0d                              |     .          |                            br_if: 0xd (valid) 0x75-0x75.7 (1)
0x70|                  00                           |      .         |                            l: 0 0x76-0x76.7 (1)
0x70|                     0b                        |       .        |                        end: 11 (valid) 0x77-0x77.7 (1)
0x70|                        0b                     |        .       |                    end: 11 (valid) 0x78-0x78.7 (1)
    |                                               |                |                  [3]{}: instr 0x79-0x7a.7 (2)
0x70|                           20                  |                |                    local.get: 0x20 (valid) 0x79-0x79.7 (1)
0x70|                              02               |          .     |                    x: 2 0x7a-0x7a.7 (1)
    |                                               |                |                  [4]{}: instr 0x7b-0x7b.7 (1)
0x70|                                 0b|           |           .|   |                    end: 0xb (valid) 0x7b-0x7b.7 (1)
