$ fq -d wasm dv ref_func-1.wasm
     |00 01 02 03 04 05 06 07 08 09 0a 0b 0c 0d 0e 0f|0123456789abcdef|.{}: ref_func-1.wasm (wasm) 0x0-0x126.7 (295)
0x000|00 61 73 6d                                    |.asm            |  magic: raw bits (valid) 0x0-0x3.7 (4)
0x000|            01 00 00 00                        |    ....        |  version: 1 0x4-0x7.7 (4)
     |                                               |                |  sections[0:8]: 0x8-0x126.7 (287)
     |                                               |                |    [0]{}: section 0x8-0x16.7 (15)
0x000|                        01                     |        .       |      id: "type section" (1) 0x8-0x8.7 (1)
0x000|                           0d                  |         .      |      size: 13 0x9-0x9.7 (1)
     |                                               |                |      content{}: 0xa-0x16.7 (13)
0x000|                              03               |          .     |        n: 3 0xa-0xa.7 (1)
     |                                               |                |        items[0:3]: 0xb-0x16.7 (12)
     |                                               |                |          [0]{}: functype 0xb-0xf.7 (5)
0x000|                                 60            |           `    |            tag: 0x60 (valid) 0xb-0xb.7 (1)
     |                                               |                |            rt1{}: 0xc-0xd.7 (2)
0x000|                                    01         |            .   |              n: 1 0xc-0xc.7 (1)
     |                                               |                |              items[0:1]: 0xd-0xd.7 (1)
0x000|                                       7f      |             .  |                [0]: "i32" (127) valtype 0xd-0xd.7 (1)
     |                                               |                |            rt2{}: 0xe-0xf.7 (2)
0x000|                                          01   |              . |              n: 1 0xe-0xe.7 (1)
     |                                               |                |              items[0:1]: 0xf-0xf.7 (1)
0x000|                                             7f|               .|                [0]: "i32" (127) valtype 0xf-0xf.7 (1)
     |                                               |                |          [1]{}: functype 0x10-0x12.7 (3)
0x010|60                                             |`               |            tag: 0x60 (valid) 0x10-0x10.7 (1)
     |                                               |                |            rt1{}: 0x11-0x11.7 (1)
0x010|   00                                          | .              |              n: 0 0x11-0x11.7 (1)
     |                                               |                |              items[0:0]: 0x12-NA (0)
     |                                               |                |            rt2{}: 0x12-0x12.7 (1)
0x010|      00                                       |  .             |              n: 0 0x12-0x12.7 (1)
     |                                               |                |              items[0:0]: 0x13-NA (0)
     |                                               |                |          [2]{}: functype 0x13-0x16.7 (4)
0x010|         60                                    |   `            |            tag: 0x60 (valid) 0x13-0x13.7 (1)
     |                                               |                |            rt1{}: 0x14-0x14.7 (1)
0x010|            00                                 |    .           |              n: 0 0x14-0x14.7 (1)
     |                                               |                |              items[0:0]: 0x15-NA (0)
     |                                               |                |            rt2{}: 0x15-0x16.7 (2)
0x010|               01                              |     .          |              n: 1 0x15-0x15.7 (1)
     |                                               |                |              items[0:1]: 0x16-0x16.7 (1)
0x010|                  7f                           |      .         |                [0]: "i32" (127) valtype 0x16-0x16.7 (1)
     |                                               |                |    [1]{}: section 0x17-0x1f.7 (9)
0x010|                     02                        |       .        |      id: "import section" (2) 0x17-0x17.7 (1)
0x010|                        07                     |        .       |      size: 7 0x18-0x18.7 (1)
     |                                               |                |      content{}: 0x19-0x1f.7 (7)
0x010|                           01                  |         .      |        n: 1 0x19-0x19.7 (1)
     |                                               |                |        items[0:1]: 0x1a-0x1f.7 (6)
     |                                               |                |          [0]{}: import 0x1a-0x1f.7 (6)
     |                                               |                |            mod{}: 0x1a-0x1b.7 (2)
0x010|                              01               |          .     |              len: 1 0x1a-0x1a.7 (1)
0x010|                                 4d            |           M    |              utf8bytes: "M" 0x1b-0x1b.7 (1)
     |                                               |                |            nm{}: 0x1c-0x1d.7 (2)
0x010|                                    01         |            .   |              len: 1 0x1c-0x1c.7 (1)
0x010|                                       66      |             f  |              utf8bytes: "f" 0x1d-0x1d.7 (1)
     |                                               |                |            importdesc{}: 0x1e-0x1f.7 (2)
0x010|                                          00   |              . |              tag: "func" (0x0) 0x1e-0x1e.7 (1)
0x010|                                             00|               .|              x: 0 0x1f-0x1f.7 (1)
     |                                               |                |    [2]{}: section 0x20-0x30.7 (17)
0x020|03                                             |.               |      id: "function section" (3) 0x20-0x20.7 (1)
0x020|   0f                                          | .              |      size: 15 0x21-0x21.7 (1)
     |                                               |                |      content{}: 0x22-0x30.7 (15)
0x020|      0e                                       |  .             |        n: 14 0x22-0x22.7 (1)
     |                                               |                |        items[0:14]: 0x23-0x30.7 (14)
0x020|         00                                    |   .            |          [0]: 0 x 0x23-0x23.7 (1)
0x020|            01                                 |    .           |          [1]: 1 x 0x24-0x24.7 (1)
0x020|               01                              |     .          |          [2]: 1 x 0x25-0x25.7 (1)
0x020|                  01                           |      .         |          [3]: 1 x 0x26-0x26.7 (1)
0x020|                     01                        |       .        |          [4]: 1 x 0x27-0x27.7 (1)
0x020|                        01                     |        .       |          [5]: 1 x 0x28-0x28.7 (1)
0x020|                           02                  |         .      |          [6]: 2 x 0x29-0x29.7 (1)
0x020|                              02               |          .     |          [7]: 2 x 0x2a-0x2a.7 (1)
0x020|                                 02            |           .    |          [8]: 2 x 0x2b-0x2b.7 (1)
0x020|                                    01         |            .   |          [9]: 1 x 0x2c-0x2c.7 (1)
0x020|                                       01      |             .  |          [10]: 1 x 0x2d-0x2d.7 (1)
0x020|                                          00   |              . |          [11]: 0 x 0x2e-0x2e.7 (1)
0x020|                                             00|               .|          [12]: 0 x 0x2f-0x2f.7 (1)
0x030|00                                             |.               |          [13]: 0 x 0x30-0x30.7 (1)
     |                                               |                |    [3]{}: section 0x31-0x36.7 (6)
0x030|   04                                          | .              |      id: "table section" (4) 0x31-0x31.7 (1)
0x030|      04                                       |  .             |      size: 4 0x32-0x32.7 (1)
     |                                               |                |      content{}: 0x33-0x36.7 (4)
0x030|         01                                    |   .            |        n: 1 0x33-0x33.7 (1)
     |                                               |                |        items[0:1]: 0x34-0x36.7 (3)
     |                                               |                |          [0]{}: table 0x34-0x36.7 (3)
0x030|            70                                 |    p           |            reftype: "funcref" (112) 0x34-0x34.7 (1)
     |                                               |                |            limits{}: 0x35-0x36.7 (2)
0x030|               00                              |     .          |              tag: 0x0 0x35-0x35.7 (1)
0x030|                  01                           |      .         |              min: 1 0x36-0x36.7 (1)
     |                                               |                |    [4]{}: section 0x37-0x52.7 (28)
0x030|                     06                        |       .        |      id: "global section" (6) 0x37-0x37.7 (1)
0x030|                        1a                     |        .       |      size: 26 0x38-0x38.7 (1)
     |                                               |                |      content{}: 0x39-0x52.7 (26)
0x030|                           05                  |         .      |        n: 5 0x39-0x39.7 (1)
     |                                               |                |        items[0:5]: 0x3a-0x52.7 (25)
     |                                               |                |          [0]{}: global 0x3a-0x3e.7 (5)
     |                                               |                |            globaltype{}: 0x3a-0x3b.7 (2)
0x030|                              70               |          p     |              valtype: "funcref" (112) 0x3a-0x3a.7 (1)
0x030|                                 00            |           .    |              mut: "const" (0) 0x3b-0x3b.7 (1)
     |                                               |                |            expr{}: 0x3c-0x3e.7 (3)
     |                                               |                |              instructions[0:2]: 0x3c-0x3e.7 (3)
     |                                               |                |                [0]{}: instr 0x3c-0x3d.7 (2)
0x030|                                    d2         |            .   |                  ref.func: 0xd2 (valid) 0x3c-0x3c.7 (1)
0x030|                                       00      |             .  |                  x: 0 0x3d-0x3d.7 (1)
     |                                               |                |                [1]{}: instr 0x3e-0x3e.7 (1)
0x030|                                          0b   |              . |                  end: 0xb (valid) 0x3e-0x3e.7 (1)
     |                                               |                |          [1]{}: global 0x3f-0x43.7 (5)
     |                                               |                |            globaltype{}: 0x3f-0x40.7 (2)
0x030|                                             70|               p|              valtype: "funcref" (112) 0x3f-0x3f.7 (1)
0x040|00                                             |.               |              mut: "const" (0) 0x40-0x40.7 (1)
     |                                               |                |            expr{}: 0x41-0x43.7 (3)
     |                                               |                |              instructions[0:2]: 0x41-0x43.7 (3)
     |                                               |                |                [0]{}: instr 0x41-0x42.7 (2)
0x040|   d2                                          | .              |                  ref.func: 0xd2 (valid) 0x41-0x41.7 (1)
0x040|      01                                       |  .             |                  x: 1 0x42-0x42.7 (1)
     |                                               |                |                [1]{}: instr 0x43-0x43.7 (1)
0x040|         0b                                    |   .            |                  end: 0xb (valid) 0x43-0x43.7 (1)
     |                                               |                |          [2]{}: global 0x44-0x48.7 (5)
     |                                               |                |            globaltype{}: 0x44-0x45.7 (2)
0x040|            70                                 |    p           |              valtype: "funcref" (112) 0x44-0x44.7 (1)
0x040|               01                              |     .          |              mut: "var" (1) 0x45-0x45.7 (1)
     |                                               |                |            expr{}: 0x46-0x48.7 (3)
     |                                               |                |              instructions[0:2]: 0x46-0x48.7 (3)
     |                                               |                |                [0]{}: instr 0x46-0x47.7 (2)
0x040|                  d2                           |      .         |                  ref.func: 0xd2 (valid) 0x46-0x46.7 (1)
0x040|                     00                        |       .        |                  x: 0 0x47-0x47.7 (1)
     |                                               |                |                [1]{}: instr 0x48-0x48.7 (1)
0x040|                        0b                     |        .       |                  end: 0xb (valid) 0x48-0x48.7 (1)
     |                                               |                |          [3]{}: global 0x49-0x4d.7 (5)
     |                                               |                |            globaltype{}: 0x49-0x4a.7 (2)
0x040|                           70                  |         p      |              valtype: "funcref" (112) 0x49-0x49.7 (1)
0x040|                              00               |          .     |              mut: "const" (0) 0x4a-0x4a.7 (1)
     |                                               |                |            expr{}: 0x4b-0x4d.7 (3)
     |                                               |                |              instructions[0:2]: 0x4b-0x4d.7 (3)
     |                                               |                |                [0]{}: instr 0x4b-0x4c.7 (2)
0x040|                                 d2            |           .    |                  ref.func: 0xd2 (valid) 0x4b-0x4b.7 (1)
0x040|                                    03         |            .   |                  x: 3 0x4c-0x4c.7 (1)
     |                                               |                |                [1]{}: instr 0x4d-0x4d.7 (1)
0x040|                                       0b      |             .  |                  end: 0xb (valid) 0x4d-0x4d.7 (1)
     |                                               |                |          [4]{}: global 0x4e-0x52.7 (5)
     |                                               |                |            globaltype{}: 0x4e-0x4f.7 (2)
0x040|                                          70   |              p |              valtype: "funcref" (112) 0x4e-0x4e.7 (1)
0x040|                                             00|               .|              mut: "const" (0) 0x4f-0x4f.7 (1)
     |                                               |                |            expr{}: 0x50-0x52.7 (3)
     |                                               |                |              instructions[0:2]: 0x50-0x52.7 (3)
     |                                               |                |                [0]{}: instr 0x50-0x51.7 (2)
0x050|d2                                             |.               |                  ref.func: 0xd2 (valid) 0x50-0x50.7 (1)
0x050|   04                                          | .              |                  x: 4 0x51-0x51.7 (1)
     |                                               |                |                [1]{}: instr 0x52-0x52.7 (1)
0x050|      0b                                       |  .             |                  end: 0xb (valid) 0x52-0x52.7 (1)
     |                                               |                |    [5]{}: section 0x53-0xa4.7 (82)
0x050|         07                                    |   .            |      id: "export section" (7) 0x53-0x53.7 (1)
0x050|            50                                 |    P           |      size: 80 0x54-0x54.7 (1)
     |                                               |                |      content{}: 0x55-0xa4.7 (80)
0x050|               08                              |     .          |        n: 8 0x55-0x55.7 (1)
     |                                               |                |        items[0:8]: 0x56-0xa4.7 (79)
     |                                               |                |          [0]{}: export 0x56-0x61.7 (12)
     |                                               |                |            name{}: 0x56-0x5f.7 (10)
0x050|                  09                           |      .         |              len: 9 0x56-0x56.7 (1)
0x050|                     69 73 5f 6e 75 6c 6c 2d 66|       is_null-f|              utf8bytes: "is_null-f" 0x57-0x5f.7 (9)
     |                                               |                |            expr{}: 0x60-0x61.7 (2)
0x060|00                                             |.               |              tag: "funcidx" (0x0) 0x60-0x60.7 (1)
0x060|   07                                          | .              |              x: 7 0x61-0x61.7 (1)
     |                                               |                |          [1]{}: export 0x62-0x6d.7 (12)
     |                                               |                |            name{}: 0x62-0x6b.7 (10)
0x060|      09                                       |  .             |              len: 9 0x62-0x62.7 (1)
0x060|         69 73 5f 6e 75 6c 6c 2d 67            |   is_null-g    |              utf8bytes: "is_null-g" 0x63-0x6b.7 (9)
     |                                               |                |            expr{}: 0x6c-0x6d.7 (2)
0x060|                                    00         |            .   |              tag: "funcidx" (0x0) 0x6c-0x6c.7 (1)
0x060|                                       08      |             .  |              x: 8 0x6d-0x6d.7 (1)
     |                                               |                |          [2]{}: export 0x6e-0x79.7 (12)
     |                                               |                |            name{}: 0x6e-0x77.7 (10)
0x060|                                          09   |              . |              len: 9 0x6e-0x6e.7 (1)
0x060|                                             69|               i|              utf8bytes: "is_null-v" 0x6f-0x77.7 (9)
0x070|73 5f 6e 75 6c 6c 2d 76                        |s_null-v        |
     |                                               |                |            expr{}: 0x78-0x79.7 (2)
0x070|                        00                     |        .       |              tag: "funcidx" (0x0) 0x78-0x78.7 (1)
0x070|                           09                  |         .      |              x: 9 0x79-0x79.7 (1)
     |                                               |                |          [3]{}: export 0x7a-0x81.7 (8)
     |                                               |                |            name{}: 0x7a-0x7f.7 (6)
0x070|                              05               |          .     |              len: 5 0x7a-0x7a.7 (1)
0x070|                                 73 65 74 2d 66|           set-f|              utf8bytes: "set-f" 0x7b-0x7f.7 (5)
     |                                               |                |            expr{}: 0x80-0x81.7 (2)
0x080|00                                             |.               |              tag: "funcidx" (0x0) 0x80-0x80.7 (1)
0x080|   0a                                          | .              |              x: 10 0x81-0x81.7 (1)
     |                                               |                |          [4]{}: export 0x82-0x89.7 (8)
     |                                               |                |            name{}: 0x82-0x87.7 (6)
0x080|      05                                       |  .             |              len: 5 0x82-0x82.7 (1)
0x080|         73 65 74 2d 67                        |   set-g        |              utf8bytes: "set-g" 0x83-0x87.7 (5)
     |                                               |                |            expr{}: 0x88-0x89.7 (2)
0x080|                        00                     |        .       |              tag: "funcidx" (0x0) 0x88-0x88.7 (1)
0x080|                           0b                  |         .      |              x: 11 0x89-0x89.7 (1)
     |                                               |                |          [5]{}: export 0x8a-0x92.7 (9)
     |                                               |                |            name{}: 0x8a-0x90.7 (7)
0x080|                              06               |          .     |              len: 6 0x8a-0x8a.7 (1)
0x080|                                 63 61 6c 6c 2d|           call-|              utf8bytes: "call-f" 0x8b-0x90.7 (6)
0x090|66                                             |f               |
     |                                               |                |            expr{}: 0x91-0x92.7 (2)
0x090|   00                                          | .              |              tag: "funcidx" (0x0) 0x91-0x91.7 (1)
0x090|      0c                                       |  .             |              x: 12 0x92-0x92.7 (1)
     |                                               |                |          [6]{}: export 0x93-0x9b.7 (9)
     |                                               |                |            name{}: 0x93-0x99.7 (7)
0x090|         06                                    |   .            |              len: 6 0x93-0x93.7 (1)
0x090|            63 61 6c 6c 2d 67                  |    call-g      |              utf8bytes: "call-g" 0x94-0x99.7 (6)
     |                                               |                |            expr{}: 0x9a-0x9b.7 (2)
0x090|                              00               |          .     |              tag: "funcidx" (0x0) 0x9a-0x9a.7 (1)
0x090|                                 0d            |           .    |              x: 13 0x9b-0x9b.7 (1)
     |                                               |                |          [7]{}: export 0x9c-0xa4.7 (9)
     |                                               |                |            name{}: 0x9c-0xa2.7 (7)
0x090|                                    06         |            .   |              len: 6 0x9c-0x9c.7 (1)
0x090|                                       63 61 6c|             cal|              utf8bytes: "call-v" 0x9d-0xa2.7 (6)
0x0a0|6c 2d 76                                       |l-v             |
     |                                               |                |            expr{}: 0xa3-0xa4.7 (2)
0x0a0|         00                                    |   .            |              tag: "funcidx" (0x0) 0xa3-0xa3.7 (1)
0x0a0|            0e                                 |    .           |              x: 14 0xa4-0xa4.7 (1)
     |                                               |                |    [6]{}: section 0xa5-0xb6.7 (18)
0x0a0|               09                              |     .          |      id: "element section" (9) 0xa5-0xa5.7 (1)
0x0a0|                  10                           |      .         |      size: 16 0xa6-0xa6.7 (1)
     |                                               |                |      element{}: 0xa7-0xb6.7 (16)
0x0a0|                     03                        |       .        |        n: 3 0xa7-0xa7.7 (1)
     |                                               |                |        items[0:3]: 0xa8-0xb6.7 (15)
     |                                               |                |          [0]{}: elem 0xa8-0xac.7 (5)
0x0a0|                        03                     |        .       |            tag: 3 0xa8-0xa8.7 (1)
0x0a0|                           00                  |         .      |            elemkind: "funcref" (0) (valid) 0xa9-0xa9.7 (1)
0x0a0|                              02               |          .     |            n: 2 0xaa-0xaa.7 (1)
     |                                               |                |            items[0:2]: 0xab-0xac.7 (2)
0x0a0|                                 03            |           .    |              [0]: 3 y 0xab-0xab.7 (1)
0x0a0|                                    05         |            .   |              [1]: 5 y 0xac-0xac.7 (1)
     |                                               |                |          [1]{}: elem 0xad-0xb1.7 (5)
0x0a0|                                       03      |             .  |            tag: 3 0xad-0xad.7 (1)
0x0a0|                                          00   |              . |            elemkind: "funcref" (0) (valid) 0xae-0xae.7 (1)
0x0a0|                                             02|               .|            n: 2 0xaf-0xaf.7 (1)
     |                                               |                |            items[0:2]: 0xb0-0xb1.7 (2)
0x0b0|04                                             |.               |              [0]: 4 y 0xb0-0xb0.7 (1)
0x0b0|   06                                          | .              |              [1]: 6 y 0xb1-0xb1.7 (1)
     |                                               |                |          [2]{}: elem 0xb2-0xb6.7 (5)
0x0b0|      03                                       |  .             |            tag: 3 0xb2-0xb2.7 (1)
0x0b0|         00                                    |   .            |            elemkind: "funcref" (0) (valid) 0xb3-0xb3.7 (1)
0x0b0|            02                                 |    .           |            n: 2 0xb4-0xb4.7 (1)
     |                                               |                |            items[0:2]: 0xb5-0xb6.7 (2)
0x0b0|               00                              |     .          |              [0]: 0 y 0xb5-0xb5.7 (1)
0x0b0|                  01                           |      .         |              [1]: 1 y 0xb6-0xb6.7 (1)
     |                                               |                |    [7]{}: section 0xb7-0x126.7 (112)
0x0b0|                     0a                        |       .        |      id: "code section" (10) 0xb7-0xb7.7 (1)
0x0b0|                        6e                     |        n       |      size: 110 0xb8-0xb8.7 (1)
     |                                               |                |      content{}: 0xb9-0x126.7 (110)
0x0b0|                           0e                  |         .      |        n: 14 0xb9-0xb9.7 (1)
     |                                               |                |        items[0:14]: 0xba-0x126.7 (109)
     |                                               |                |          [0]{}: code 0xba-0xc1.7 (8)
0x0b0|                              07               |          .     |            size: 7 0xba-0xba.7 (1)
     |                                               |                |            code{}: 0xbb-0xc1.7 (7)
     |                                               |                |              locals{}: 0xbb-0xbb.7 (1)
0x0b0|                                 00            |           .    |                n: 0 0xbb-0xbb.7 (1)
     |                                               |                |                items[0:0]: 0xbc-NA (0)
     |                                               |                |              expr{}: 0xbc-0xc1.7 (6)
     |                                               |                |                instructions[0:4]: 0xbc-0xc1.7 (6)
     |                                               |                |                  [0]{}: instr 0xbc-0xbd.7 (2)
0x0b0|                                    20         |                |                    local.get: 0x20 (valid) 0xbc-0xbc.7 (1)
0x0b0|                                       00      |             .  |                    x: 0 0xbd-0xbd.7 (1)
     |                                               |                |                  [1]{}: instr 0xbe-0xbf.7 (2)
0x0b0|                                          41   |              A |                    i32.const: 0x41 (valid) 0xbe-0xbe.7 (1)
0x0b0|                                             01|               .|                    n: 1 0xbf-0xbf.7 (1)
     |                                               |                |                  [2]{}: instr 0xc0-0xc0.7 (1)
0x0c0|6a                                             |j               |                    i32.add: 0x6a (valid) 0xc0-0xc0.7 (1)
     |                                               |                |                  [3]{}: instr 0xc1-0xc1.7 (1)
0x0c0|   0b                                          | .              |                    end: 0xb (valid) 0xc1-0xc1.7 (1)
     |                                               |                |          [1]{}: code 0xc2-0xca.7 (9)
0x0c0|      08                                       |  .             |            size: 8 0xc2-0xc2.7 (1)
     |                                               |                |            code{}: 0xc3-0xca.7 (8)
     |                                               |                |              locals{}: 0xc3-0xc3.7 (1)
0x0c0|         00                                    |   .            |                n: 0 0xc3-0xc3.7 (1)
     |                                               |                |                items[0:0]: 0xc4-NA (0)
     |                                               |                |              expr{}: 0xc4-0xca.7 (7)
     |                                               |                |                instructions[0:5]: 0xc4-0xca.7 (7)
     |                                               |                |                  [0]{}: instr 0xc4-0xc5.7 (2)
0x0c0|            d2                                 |    .           |                    ref.func: 0xd2 (valid) 0xc4-0xc4.7 (1)
0x0c0|               05                              |     .          |                    x: 5 0xc5-0xc5.7 (1)
     |                                               |                |                  [1]{}: instr 0xc6-0xc6.7 (1)
0x0c0|                  1a                           |      .         |                    drop: 0x1a (valid) 0xc6-0xc6.7 (1)
     |                                               |                |                  [2]{}: instr 0xc7-0xc8.7 (2)
0x0c0|                     d2                        |       .        |                    ref.func: 0xd2 (valid) 0xc7-0xc7.7 (1)
0x0c0|                        06                     |        .       |                    x: 6 0xc8-0xc8.7 (1)
     |                                               |                |                  [3]{}: instr 0xc9-0xc9.7 (1)
0x0c0|                           1a                  |         .      |                    drop: 0x1a (valid) 0xc9-0xc9.7 (1)
     |                                               |                |                  [4]{}: instr 0xca-0xca.7 (1)
0x0c0|                              0b               |          .     |                    end: 0xb (valid) 0xca-0xca.7 (1)
     |                                               |                |          [2]{}: code 0xcb-0xcd.7 (3)
0x0c0|                                 02            |           .    |            size: 2 0xcb-0xcb.7 (1)
     |                                               |                |            code{}: 0xcc-0xcd.7 (2)
     |                                               |                |              locals{}: 0xcc-0xcc.7 (1)
0x0c0|                                    00         |            .   |                n: 0 0xcc-0xcc.7 (1)
     |                                               |                |                items[0:0]: 0xcd-NA (0)
     |                                               |                |              expr{}: 0xcd-0xcd.7 (1)
     |                                               |                |                instructions[0:1]: 0xcd-0xcd.7 (1)
     |                                               |                |                  [0]{}: instr 0xcd-0xcd.7 (1)
0x0c0|                                       0b      |             .  |                    end: 0xb (valid) 0xcd-0xcd.7 (1)
     |                                               |                |          [3]{}: code 0xce-0xd0.7 (3)
0x0c0|                                          02   |              . |            size: 2 0xce-0xce.7 (1)
     |                                               |                |            code{}: 0xcf-0xd0.7 (2)
     |                                               |                |              locals{}: 0xcf-0xcf.7 (1)
0x0c0|                                             00|               .|                n: 0 0xcf-0xcf.7 (1)
     |                                               |                |                items[0:0]: 0xd0-NA (0)
     |                                               |                |              expr{}: 0xd0-0xd0.7 (1)
     |                                               |                |                instructions[0:1]: 0xd0-0xd0.7 (1)
     |                                               |                |                  [0]{}: instr 0xd0-0xd0.7 (1)
0x0d0|0b                                             |.               |                    end: 0xb (valid) 0xd0-0xd0.7 (1)
     |                                               |                |          [4]{}: code 0xd1-0xd3.7 (3)
0x0d0|   02                                          | .              |            size: 2 0xd1-0xd1.7 (1)
     |                                               |                |            code{}: 0xd2-0xd3.7 (2)
     |                                               |                |              locals{}: 0xd2-0xd2.7 (1)
0x0d0|      00                                       |  .             |                n: 0 0xd2-0xd2.7 (1)
     |                                               |                |                items[0:0]: 0xd3-NA (0)
     |                                               |                |              expr{}: 0xd3-0xd3.7 (1)
     |                                               |                |                instructions[0:1]: 0xd3-0xd3.7 (1)
     |                                               |                |                  [0]{}: instr 0xd3-0xd3.7 (1)
0x0d0|         0b                                    |   .            |                    end: 0xb (valid) 0xd3-0xd3.7 (1)
     |                                               |                |          [5]{}: code 0xd4-0xd6.7 (3)
0x0d0|            02                                 |    .           |            size: 2 0xd4-0xd4.7 (1)
     |                                               |                |            code{}: 0xd5-0xd6.7 (2)
     |                                               |                |              locals{}: 0xd5-0xd5.7 (1)
0x0d0|               00                              |     .          |                n: 0 0xd5-0xd5.7 (1)
     |                                               |                |                items[0:0]: 0xd6-NA (0)
     |                                               |                |              expr{}: 0xd6-0xd6.7 (1)
     |                                               |                |                instructions[0:1]: 0xd6-0xd6.7 (1)
     |                                               |                |                  [0]{}: instr 0xd6-0xd6.7 (1)
0x0d0|                  0b                           |      .         |                    end: 0xb (valid) 0xd6-0xd6.7 (1)
     |                                               |                |          [6]{}: code 0xd7-0xdc.7 (6)
0x0d0|                     05                        |       .        |            size: 5 0xd7-0xd7.7 (1)
     |                                               |                |            code{}: 0xd8-0xdc.7 (5)
     |                                               |                |              locals{}: 0xd8-0xd8.7 (1)
0x0d0|                        00                     |        .       |                n: 0 0xd8-0xd8.7 (1)
     |                                               |                |                items[0:0]: 0xd9-NA (0)
     |                                               |                |              expr{}: 0xd9-0xdc.7 (4)
     |                                               |                |                instructions[0:3]: 0xd9-0xdc.7 (4)
     |                                               |                |                  [0]{}: instr 0xd9-0xda.7 (2)
0x0d0|                           d2                  |         .      |                    ref.func: 0xd2 (valid) 0xd9-0xd9.7 (1)
0x0d0|                              00               |          .     |                    x: 0 0xda-0xda.7 (1)
     |                                               |                |                  [1]{}: instr 0xdb-0xdb.7 (1)
0x0d0|                                 d1            |           .    |                    ref.is_null: 0xd1 (valid) 0xdb-0xdb.7 (1)
     |                                               |                |                  [2]{}: instr 0xdc-0xdc.7 (1)
0x0d0|                                    0b         |            .   |                    end: 0xb (valid) 0xdc-0xdc.7 (1)
     |                                               |                |          [7]{}: code 0xdd-0xe2.7 (6)
0x0d0|                                       05      |             .  |            size: 5 0xdd-0xdd.7 (1)
     |                                               |                |            code{}: 0xde-0xe2.7 (5)
     |                                               |                |              locals{}: 0xde-0xde.7 (1)
0x0d0|                                          00   |              . |                n: 0 0xde-0xde.7 (1)
     |                                               |                |                items[0:0]: 0xdf-NA (0)
     |                                               |                |              expr{}: 0xdf-0xe2.7 (4)
     |                                               |                |                instructions[0:3]: 0xdf-0xe2.7 (4)
     |                                               |                |                  [0]{}: instr 0xdf-0xe0.7 (2)
0x0d0|                                             d2|               .|                    ref.func: 0xd2 (valid) 0xdf-0xdf.7 (1)
0x0e0|01                                             |.               |                    x: 1 0xe0-0xe0.7 (1)
     |                                               |                |                  [1]{}: instr 0xe1-0xe1.7 (1)
0x0e0|   d1                                          | .              |                    ref.is_null: 0xd1 (valid) 0xe1-0xe1.7 (1)
     |                                               |                |                  [2]{}: instr 0xe2-0xe2.7 (1)
0x0e0|      0b                                       |  .             |                    end: 0xb (valid) 0xe2-0xe2.7 (1)
     |                                               |                |          [8]{}: code 0xe3-0xe8.7 (6)
0x0e0|         05                                    |   .            |            size: 5 0xe3-0xe3.7 (1)
     |                                               |                |            code{}: 0xe4-0xe8.7 (5)
     |                                               |                |              locals{}: 0xe4-0xe4.7 (1)
0x0e0|            00                                 |    .           |                n: 0 0xe4-0xe4.7 (1)
     |                                               |                |                items[0:0]: 0xe5-NA (0)
     |                                               |                |              expr{}: 0xe5-0xe8.7 (4)
     |                                               |                |                instructions[0:3]: 0xe5-0xe8.7 (4)
     |                                               |                |                  [0]{}: instr 0xe5-0xe6.7 (2)
0x0e0|               23                              |     #          |                    global.get: 0x23 (valid) 0xe5-0xe5.7 (1)
0x0e0|                  02                           |      .         |                    x: 2 0xe6-0xe6.7 (1)
     |                                               |                |                  [1]{}: instr 0xe7-0xe7.7 (1)
0x0e0|                     d1                        |       .        |                    ref.is_null: 0xd1 (valid) 0xe7-0xe7.7 (1)
     |                                               |                |                  [2]{}: instr 0xe8-0xe8.7 (1)
0x0e0|                        0b                     |        .       |                    end: 0xb (valid) 0xe8-0xe8.7 (1)
     |                                               |                |          [9]{}: code 0xe9-0xef.7 (7)
0x0e0|                           06                  |         .      |            size: 6 0xe9-0xe9.7 (1)
     |                                               |                |            code{}: 0xea-0xef.7 (6)
     |                                               |                |              locals{}: 0xea-0xea.7 (1)
0x0e0|                              00               |          .     |                n: 0 0xea-0xea.7 (1)
     |                                               |                |                items[0:0]: 0xeb-NA (0)
     |                                               |                |              expr{}: 0xeb-0xef.7 (5)
     |                                               |                |                instructions[0:3]: 0xeb-0xef.7 (5)
     |                                               |                |                  [0]{}: instr 0xeb-0xec.7 (2)
0x0e0|                                 d2            |           .    |                    ref.func: 0xd2 (valid) 0xeb-0xeb.7 (1)
0x0e0|                                    00         |            .   |                    x: 0 0xec-0xec.7 (1)
     |                                               |                |                  [1]{}: instr 0xed-0xee.7 (2)
0x0e0|                                       24      |             $  |                    global.set: 0x24 (valid) 0xed-0xed.7 (1)
0x0e0|                                          02   |              . |                    x: 2 0xee-0xee.7 (1)
     |                                               |                |                  [2]{}: instr 0xef-0xef.7 (1)
0x0e0|                                             0b|               .|                    end: 0xb (valid) 0xef-0xef.7 (1)
     |                                               |                |          [10]{}: code 0xf0-0xf6.7 (7)
0x0f0|06                                             |.               |            size: 6 0xf0-0xf0.7 (1)
     |                                               |                |            code{}: 0xf1-0xf6.7 (6)
     |                                               |                |              locals{}: 0xf1-0xf1.7 (1)
0x0f0|   00                                          | .              |                n: 0 0xf1-0xf1.7 (1)
     |                                               |                |                items[0:0]: 0xf2-NA (0)
     |                                               |                |              expr{}: 0xf2-0xf6.7 (5)
     |                                               |                |                instructions[0:3]: 0xf2-0xf6.7 (5)
     |                                               |                |                  [0]{}: instr 0xf2-0xf3.7 (2)
0x0f0|      d2                                       |  .             |                    ref.func: 0xd2 (valid) 0xf2-0xf2.7 (1)
0x0f0|         01                                    |   .            |                    x: 1 0xf3-0xf3.7 (1)
     |                                               |                |                  [1]{}: instr 0xf4-0xf5.7 (2)
0x0f0|            24                                 |    $           |                    global.set: 0x24 (valid) 0xf4-0xf4.7 (1)
0x0f0|               02                              |     .          |                    x: 2 0xf5-0xf5.7 (1)
     |                                               |                |                  [2]{}: instr 0xf6-0xf6.7 (1)
0x0f0|                  0b                           |      .         |                    end: 0xb (valid) 0xf6-0xf6.7 (1)
     |                                               |                |          [11]{}: code 0xf7-0x106.7 (16)
0x0f0|                     0f                        |       .        |            size: 15 0xf7-0xf7.7 (1)
     |                                               |                |            code{}: 0xf8-0x106.7 (15)
     |                                               |                |              locals{}: 0xf8-0xf8.7 (1)
0x0f0|                        00                     |        .       |                n: 0 0xf8-0xf8.7 (1)
     |                                               |                |                items[0:0]: 0xf9-NA (0)
     |                                               |                |              expr{}: 0xf9-0x106.7 (14)
     |                                               |                |                instructions[0:7]: 0xf9-0x106.7 (14)
     |                                               |                |                  [0]{}: instr 0xf9-0xfa.7 (2)
0x0f0|                           41                  |         A      |                    i32.const: 0x41 (valid) 0xf9-0xf9.7 (1)
0x0f0|                              00               |          .     |                    n: 0 0xfa-0xfa.7 (1)
     |                                               |                |                  [1]{}: instr 0xfb-0xfc.7 (2)
0x0f0|                                 d2            |           .    |                    ref.func: 0xd2 (valid) 0xfb-0xfb.7 (1)
0x0f0|                                    00         |            .   |                    x: 0 0xfc-0xfc.7 (1)
     |                                               |                |                  [2]{}: instr 0xfd-0xfe.7 (2)
0x0f0|                                       26      |             &  |                    table.set: 0x26 (valid) 0xfd-0xfd.7 (1)
0x0f0|                                          00   |              . |                    x: 0 0xfe-0xfe.7 (1)
     |                                               |                |                  [3]{}: instr 0xff-0x100.7 (2)
0x0f0|                                             20|                |                    local.get: 0x20 (valid) 0xff-0xff.7 (1)
0x100|00                                             |.               |                    x: 0 0x100-0x100.7 (1)
     |                                               |                |                  [4]{}: instr 0x101-0x102.7 (2)
0x100|   41                                          | A              |                    i32.const: 0x41 (valid) 0x101-0x101.7 (1)
0x100|      00                                       |  .             |                    n: 0 0x102-0x102.7 (1)
     |                                               |                |                  [5]{}: instr 0x103-0x105.7 (3)
0x100|         11                                    |   .            |                    call: 0x11 (valid) 0x103-0x103.7 (1)
0x100|            00                                 |    .           |                    y: 0 0x104-0x104.7 (1)
0x100|               00                              |     .          |                    x: 0 0x105-0x105.7 (1)
     |                                               |                |                  [6]{}: instr 0x106-0x106.7 (1)
0x100|                  0b                           |      .         |                    end: 0xb (valid) 0x106-0x106.7 (1)
     |                                               |                |          [12]{}: code 0x107-0x116.7 (16)
0x100|                     0f                        |       .        |            size: 15 0x107-0x107.7 (1)
     |                                               |                |            code{}: 0x108-0x116.7 (15)
     |                                               |                |              locals{}: 0x108-0x108.7 (1)
0x100|                        00                     |        .       |                n: 0 0x108-0x108.7 (1)
     |                                               |                |                items[0:0]: 0x109-NA (0)
     |                                               |                |              expr{}: 0x109-0x116.7 (14)
     |                                               |                |                instructions[0:7]: 0x109-0x116.7 (14)
     |                                               |                |                  [0]{}: instr 0x109-0x10a.7 (2)
0x100|                           41                  |         A      |                    i32.const: 0x41 (valid) 0x109-0x109.7 (1)
0x100|                              00               |          .     |                    n: 0 0x10a-0x10a.7 (1)
     |                                               |                |                  [1]{}: instr 0x10b-0x10c.7 (2)
0x100|                                 d2            |           .    |                    ref.func: 0xd2 (valid) 0x10b-0x10b.7 (1)
0x100|                                    01         |            .   |                    x: 1 0x10c-0x10c.7 (1)
     |                                               |                |                  [2]{}: instr 0x10d-0x10e.7 (2)
0x100|                                       26      |             &  |                    table.set: 0x26 (valid) 0x10d-0x10d.7 (1)
0x100|                                          00   |              . |                    x: 0 0x10e-0x10e.7 (1)
     |                                               |                |                  [3]{}: instr 0x10f-0x110.7 (2)
0x100|                                             20|                |                    local.get: 0x20 (valid) 0x10f-0x10f.7 (1)
0x110|00                                             |.               |                    x: 0 0x110-0x110.7 (1)
     |                                               |                |                  [4]{}: instr 0x111-0x112.7 (2)
0x110|   41                                          | A              |                    i32.const: 0x41 (valid) 0x111-0x111.7 (1)
0x110|      00                                       |  .             |                    n: 0 0x112-0x112.7 (1)
     |                                               |                |                  [5]{}: instr 0x113-0x115.7 (3)
0x110|         11                                    |   .            |                    call: 0x11 (valid) 0x113-0x113.7 (1)
0x110|            00                                 |    .           |                    y: 0 0x114-0x114.7 (1)
0x110|               00                              |     .          |                    x: 0 0x115-0x115.7 (1)
     |                                               |                |                  [6]{}: instr 0x116-0x116.7 (1)
0x110|                  0b                           |      .         |                    end: 0xb (valid) 0x116-0x116.7 (1)
     |                                               |                |          [13]{}: code 0x117-0x126.7 (16)
0x110|                     0f                        |       .        |            size: 15 0x117-0x117.7 (1)
     |                                               |                |            code{}: 0x118-0x126.7 (15)
     |                                               |                |              locals{}: 0x118-0x118.7 (1)
0x110|                        00                     |        .       |                n: 0 0x118-0x118.7 (1)
     |                                               |                |                items[0:0]: 0x119-NA (0)
     |                                               |                |              expr{}: 0x119-0x126.7 (14)
     |                                               |                |                instructions[0:7]: 0x119-0x126.7 (14)
     |                                               |                |                  [0]{}: instr 0x119-0x11a.7 (2)
0x110|                           41                  |         A      |                    i32.const: 0x41 (valid) 0x119-0x119.7 (1)
0x110|                              00               |          .     |                    n: 0 0x11a-0x11a.7 (1)
     |                                               |                |                  [1]{}: instr 0x11b-0x11c.7 (2)
0x110|                                 23            |           #    |                    global.get: 0x23 (valid) 0x11b-0x11b.7 (1)
0x110|                                    02         |            .   |                    x: 2 0x11c-0x11c.7 (1)
     |                                               |                |                  [2]{}: instr 0x11d-0x11e.7 (2)
0x110|                                       26      |             &  |                    table.set: 0x26 (valid) 0x11d-0x11d.7 (1)
0x110|                                          00   |              . |                    x: 0 0x11e-0x11e.7 (1)
     |                                               |                |                  [3]{}: instr 0x11f-0x120.7 (2)
0x110|                                             20|                |                    local.get: 0x20 (valid) 0x11f-0x11f.7 (1)
0x120|00                                             |.               |                    x: 0 0x120-0x120.7 (1)
     |                                               |                |                  [4]{}: instr 0x121-0x122.7 (2)
0x120|   41                                          | A              |                    i32.const: 0x41 (valid) 0x121-0x121.7 (1)
0x120|      00                                       |  .             |                    n: 0 0x122-0x122.7 (1)
     |                                               |                |                  [5]{}: instr 0x123-0x125.7 (3)
0x120|         11                                    |   .            |                    call: 0x11 (valid) 0x123-0x123.7 (1)
0x120|            00                                 |    .           |                    y: 0 0x124-0x124.7 (1)
0x120|               00                              |     .          |                    x: 0 0x125-0x125.7 (1)
     |                                               |                |                  [6]{}: instr 0x126-0x126.7 (1)
0x120|                  0b|                          |      .|        |                    end: 0xb (valid) 0x126-0x126.7 (1)
