$ fq -d wasm dv ref_null-0.wasm
    |00 01 02 03 04 05 06 07 08 09 0a 0b 0c 0d 0e 0f|0123456789abcdef|.{}: ref_null-0.wasm (wasm) 0x0-0x4a.7 (75)
0x00|00 61 73 6d                                    |.asm            |  magic: raw bits (valid) 0x0-0x3.7 (4)
0x00|            01 00 00 00                        |    ....        |  version: 1 0x4-0x7.7 (4)
    |                                               |                |  sections[0:5]: 0x8-0x4a.7 (67)
    |                                               |                |    [0]{}: section 0x8-0x12.7 (11)
0x00|                        01                     |        .       |      id: "type section" (1) 0x8-0x8.7 (1)
0x00|                           09                  |         .      |      size: 9 0x9-0x9.7 (1)
    |                                               |                |      content{}: 0xa-0x12.7 (9)
0x00|                              02               |          .     |        n: 2 0xa-0xa.7 (1)
    |                                               |                |        items[0:2]: 0xb-0x12.7 (8)
    |                                               |                |          [0]{}: functype 0xb-0xe.7 (4)
0x00|                                 60            |           `    |            tag: 0x60 (valid) 0xb-0xb.7 (1)
    |                                               |                |            rt1{}: 0xc-0xc.7 (1)
0x00|                                    00         |            .   |              n: 0 0xc-0xc.7 (1)
    |                                               |                |              items[0:0]: 0xd-NA (0)
    |                                               |                |            rt2{}: 0xd-0xe.7 (2)
0x00|                                       01      |             .  |              n: 1 0xd-0xd.7 (1)
    |                                               |                |              items[0:1]: 0xe-0xe.7 (1)
0x00|                                          6f   |              o |                [0]: "externref" (111) valtype 0xe-0xe.7 (1)
    |                                               |                |          [1]{}: functype 0xf-0x12.7 (4)
0x00|                                             60|               `|            tag: 0x60 (valid) 0xf-0xf.7 (1)
    |                                               |                |            rt1{}: 0x10-0x10.7 (1)
0x10|00                                             |.               |              n: 0 0x10-0x10.7 (1)
    |                                               |                |              items[0:0]: 0x11-NA (0)
    |                                               |                |            rt2{}: 0x11-0x12.7 (2)
0x10|   01                                          | .              |              n: 1 0x11-0x11.7 (1)
    |                                               |                |              items[0:1]: 0x12-0x12.7 (1)
0x10|      70                                       |  p             |                [0]: "funcref" (112) valtype 0x12-0x12.7 (1)
    |                                               |                |    [1]{}: section 0x13-0x17.7 (5)
0x10|         03                                    |   .            |      id: "function section" (3) 0x13-0x13.7 (1)
0x10|            03                                 |    .           |      size: 3 0x14-0x14.7 (1)
    |                                               |                |      content{}: 0x15-0x17.7 (3)
0x10|               02                              |     .          |        n: 2 0x15-0x15.7 (1)
    |                                               |                |        items[0:2]: 0x16-0x17.7 (2)
0x10|                  00                           |      .         |          [0]: 0 x 0x16-0x16.7 (1)
0x10|                     01                        |       .        |          [1]: 1 x 0x17-0x17.7 (1)
    |                                               |                |    [2]{}: section 0x18-0x24.7 (13)
0x10|                        06                     |        .       |      id: "global section" (6) 0x18-0x18.7 (1)
0x10|                           0b                  |         .      |      size: 11 0x19-0x19.7 (1)
    |                                               |                |      content{}: 0x1a-0x24.7 (11)
0x10|                              02               |          .     |        n: 2 0x1a-0x1a.7 (1)
    |                                               |                |        items[0:2]: 0x1b-0x24.7 (10)
    |                                               |                |          [0]{}: global 0x1b-0x1f.7 (5)
    |                                               |                |            globaltype{}: 0x1b-0x1c.7 (2)
0x10|                                 6f            |           o    |              valtype: "externref" (111) 0x1b-0x1b.7 (1)
0x10|                                    00         |            .   |              mut: "const" (0) 0x1c-0x1c.7 (1)
    |                                               |                |            expr{}: 0x1d-0x1f.7 (3)
    |                                               |                |              instructions[0:2]: 0x1d-0x1f.7 (3)
    |                                               |                |                [0]{}: instr 0x1d-0x1e.7 (2)
0x10|                                       d0      |             .  |                  ref.null: 0xd0 (valid) 0x1d-0x1d.7 (1)
0x10|                                          6f   |              o |                  reftype: "externref" (111) 0x1e-0x1e.7 (1)
    |                                               |                |                [1]{}: instr 0x1f-0x1f.7 (1)
0x10|                                             0b|               .|                  end: 0xb (valid) 0x1f-0x1f.7 (1)
    |                                               |                |          [1]{}: global 0x20-0x24.7 (5)
    |                                               |                |            globaltype{}: 0x20-0x21.7 (2)
0x20|70                                             |p               |              valtype: "funcref" (112) 0x20-0x20.7 (1)
0x20|   00                                          | .              |              mut: "const" (0) 0x21-0x21.7 (1)
    |                                               |                |            expr{}: 0x22-0x24.7 (3)
    |                                               |                |              instructions[0:2]: 0x22-0x24.7 (3)
    |                                               |                |                [0]{}: instr 0x22-0x23.7 (2)
0x20|      d0                                       |  .             |                  ref.null: 0xd0 (valid) 0x22-0x22.7 (1)
0x20|         70                                    |   p            |                  reftype: "funcref" (112) 0x23-0x23.7 (1)
    |                                               |                |                [1]{}: instr 0x24-0x24.7 (1)
0x20|            0b                                 |    .           |                  end: 0xb (valid) 0x24-0x24.7 (1)
    |                                               |                |    [3]{}: section 0x25-0x3d.7 (25)
0x20|               07                              |     .          |      id: "export section" (7) 0x25-0x25.7 (1)
0x20|                  17                           |      .         |      size: 23 0x26-0x26.7 (1)
    |                                               |                |      content{}: 0x27-0x3d.7 (23)
0x20|                     02                        |       .        |        n: 2 0x27-0x27.7 (1)
    |                                               |                |        items[0:2]: 0x28-0x3d.7 (22)
    |                                               |                |          [0]{}: export 0x28-0x33.7 (12)
    |                                               |                |            name{}: 0x28-0x31.7 (10)
0x20|                        09                     |        .       |              len: 9 0x28-0x28.7 (1)
0x20|                           65 78 74 65 72 6e 72|         externr|              utf8bytes: "externref" 0x29-0x31.7 (9)
0x30|65 66                                          |ef              |
    |                                               |                |            expr{}: 0x32-0x33.7 (2)
0x30|      00                                       |  .             |              tag: "funcidx" (0x0) 0x32-0x32.7 (1)
0x30|         00                                    |   .            |              x: 0 0x33-0x33.7 (1)
    |                                               |                |          [1]{}: export 0x34-0x3d.7 (10)
    |                                               |                |            name{}: 0x34-0x3b.7 (8)
0x30|            07                                 |    .           |              len: 7 0x34-0x34.7 (1)
0x30|               66 75 6e 63 72 65 66            |     funcref    |              utf8bytes: "funcref" 0x35-0x3b.7 (7)
    |                                               |                |            expr{}: 0x3c-0x3d.7 (2)
0x30|                                    00         |            .   |              tag: "funcidx" (0x0) 0x3c-0x3c.7 (1)
0x30|                                       01      |             .  |              x: 1 0x3d-0x3d.7 (1)
    |                                               |                |    [4]{}: section 0x3e-0x4a.7 (13)
0x30|                                          0a   |              . |      id: "code section" (10) 0x3e-0x3e.7 (1)
0x30|                                             0b|               .|      size: 11 0x3f-0x3f.7 (1)
    |                                               |                |      content{}: 0x40-0x4a.7 (11)
0x40|02                                             |.               |        n: 2 0x40-0x40.7 (1)
    |                                               |                |        items[0:2]: 0x41-0x4a.7 (10)
    |                                               |                |          [0]{}: code 0x41-0x45.7 (5)
0x40|   04                                          | .              |            size: 4 0x41-0x41.7 (1)
    |                                               |                |            code{}: 0x42-0x45.7 (4)
    |                                               |                |              locals{}: 0x42-0x42.7 (1)
0x40|      00                                       |  .             |                n: 0 0x42-0x42.7 (1)
    |                                               |                |                items[0:0]: 0x43-NA (0)
    |                                               |                |              expr{}: 0x43-0x45.7 (3)
    |                                               |                |                instructions[0:2]: 0x43-0x45.7 (3)
    |                                               |                |                  [0]{}: instr 0x43-0x44.7 (2)
0x40|         d0                                    |   .            |                    ref.null: 0xd0 (valid) 0x43-0x43.7 (1)
0x40|            6f                                 |    o           |                    reftype: "externref" (111) 0x44-0x44.7 (1)
    |                                               |                |                  [1]{}: instr 0x45-0x45.7 (1)
0x40|               0b                              |     .          |                    end: 0xb (valid) 0x45-0x45.7 (1)
    |                                               |                |          [1]{}: code 0x46-0x4a.7 (5)
0x40|                  04                           |      .         |            size: 4 0x46-0x46.7 (1)
    |                                               |                |            code{}: 0x47-0x4a.7 (4)
    |                                               |                |              locals{}: 0x47-0x47.7 (1)
0x40|                     00                        |       .        |                n: 0 0x47-0x47.7 (1)
    |                                               |                |                items[0:0]: 0x48-NA (0)
    |                                               |                |              expr{}: 0x48-0x4a.7 (3)
    |                                               |                |                instructions[0:2]: 0x48-0x4a.7 (3)
    |                                               |                |                  [0]{}: instr 0x48-0x49.7 (2)
0x40|                        d0                     |        .       |                    ref.null: 0xd0 (valid) 0x48-0x48.7 (1)
0x40|                           70                  |         p      |                    reftype: "funcref" (112) 0x49-0x49.7 (1)
    |                                               |                |                  [1]{}: instr 0x4a-0x4a.7 (1)
0x40|                              0b|              |          .|    |                    end: 0xb (valid) 0x4a-0x4a.7 (1)
