$ fq -d wasm dv select-0.wasm
     |00 01 02 03 04 05 06 07 08 09 0a 0b 0c 0d 0e 0f|0123456789abcdef|.{}: select-0.wasm (wasm) 0x0-0x616.7 (1559)
0x000|00 61 73 6d                                    |.asm            |  magic: raw bits (valid) 0x0-0x3.7 (4)
0x000|            01 00 00 00                        |    ....        |  version: 1 0x4-0x7.7 (4)
     |                                               |                |  sections[0:8]: 0x8-0x616.7 (1551)
     |                                               |                |    [0]{}: section 0x8-0x46.7 (63)
0x000|                        01                     |        .       |      id: "type section" (1) 0x8-0x8.7 (1)
0x000|                           3d                  |         =      |      size: 61 0x9-0x9.7 (1)
     |                                               |                |      content{}: 0xa-0x46.7 (61)
0x000|                              0a               |          .     |        n: 10 0xa-0xa.7 (1)
     |                                               |                |        items[0:10]: 0xb-0x46.7 (60)
     |                                               |                |          [0]{}: functype 0xb-0x10.7 (6)
0x000|                                 60            |           `    |            tag: 0x60 (valid) 0xb-0xb.7 (1)
     |                                               |                |            rt1{}: 0xc-0xe.7 (3)
0x000|                                    02         |            .   |              n: 2 0xc-0xc.7 (1)
     |                                               |                |              items[0:2]: 0xd-0xe.7 (2)
0x000|                                       7f      |             .  |                [0]: "i32" (127) valtype 0xd-0xd.7 (1)
0x000|                                          7f   |              . |                [1]: "i32" (127) valtype 0xe-0xe.7 (1)
     |                                               |                |            rt2{}: 0xf-0x10.7 (2)
0x000|                                             01|               .|              n: 1 0xf-0xf.7 (1)
     |                                               |                |              items[0:1]: 0x10-0x10.7 (1)
0x010|7f                                             |.               |                [0]: "i32" (127) valtype 0x10-0x10.7 (1)
     |                                               |                |          [1]{}: functype 0x11-0x13.7 (3)
0x010|   60                                          | `              |            tag: 0x60 (valid) 0x11-0x11.7 (1)
     |                                               |                |            rt1{}: 0x12-0x12.7 (1)
0x010|      00                                       |  .             |              n: 0 0x12-0x12.7 (1)
     |                                               |                |              items[0:0]: 0x13-NA (0)
     |                                               |                |            rt2{}: 0x13-0x13.7 (1)
0x010|         00                                    |   .            |              n: 0 0x13-0x13.7 (1)
     |                                               |                |              items[0:0]: 0x14-NA (0)
     |                                               |                |          [2]{}: functype 0x14-0x1a.7 (7)
0x010|            60                                 |    `           |            tag: 0x60 (valid) 0x14-0x14.7 (1)
     |                                               |                |            rt1{}: 0x15-0x18.7 (4)
0x010|               03                              |     .          |              n: 3 0x15-0x15.7 (1)
     |                                               |                |              items[0:3]: 0x16-0x18.7 (3)
0x010|                  7f                           |      .         |                [0]: "i32" (127) valtype 0x16-0x16.7 (1)
0x010|                     7f                        |       .        |                [1]: "i32" (127) valtype 0x17-0x17.7 (1)
0x010|                        7f                     |        .       |                [2]: "i32" (127) valtype 0x18-0x18.7 (1)
     |                                               |                |            rt2{}: 0x19-0x1a.7 (2)
0x010|                           01                  |         .      |              n: 1 0x19-0x19.7 (1)
     |                                               |                |              items[0:1]: 0x1a-0x1a.7 (1)
0x010|                              7f               |          .     |                [0]: "i32" (127) valtype 0x1a-0x1a.7 (1)
     |                                               |                |          [3]{}: functype 0x1b-0x21.7 (7)
0x010|                                 60            |           `    |            tag: 0x60 (valid) 0x1b-0x1b.7 (1)
     |                                               |                |            rt1{}: 0x1c-0x1f.7 (4)
0x010|                                    03         |            .   |              n: 3 0x1c-0x1c.7 (1)
     |                                               |                |              items[0:3]: 0x1d-0x1f.7 (3)
0x010|                                       7e      |             ~  |                [0]: "i64" (126) valtype 0x1d-0x1d.7 (1)
0x010|                                          7e   |              ~ |                [1]: "i64" (126) valtype 0x1e-0x1e.7 (1)
0x010|                                             7f|               .|                [2]: "i32" (127) valtype 0x1f-0x1f.7 (1)
     |                                               |                |            rt2{}: 0x20-0x21.7 (2)
0x020|01                                             |.               |              n: 1 0x20-0x20.7 (1)
     |                                               |                |              items[0:1]: 0x21-0x21.7 (1)
0x020|   7e                                          | ~              |                [0]: "i64" (126) valtype 0x21-0x21.7 (1)
     |                                               |                |          [4]{}: functype 0x22-0x28.7 (7)
0x020|      60                                       |  `             |            tag: 0x60 (valid) 0x22-0x22.7 (1)
     |                                               |                |            rt1{}: 0x23-0x26.7 (4)
0x020|         03                                    |   .            |              n: 3 0x23-0x23.7 (1)
     |                                               |                |              items[0:3]: 0x24-0x26.7 (3)
0x020|            7d                                 |    }           |                [0]: "f32" (125) valtype 0x24-0x24.7 (1)
0x020|               7d                              |     }          |                [1]: "f32" (125) valtype 0x25-0x25.7 (1)
0x020|                  7f                           |      .         |                [2]: "i32" (127) valtype 0x26-0x26.7 (1)
     |                                               |                |            rt2{}: 0x27-0x28.7 (2)
0x020|                     01                        |       .        |              n: 1 0x27-0x27.7 (1)
     |                                               |                |              items[0:1]: 0x28-0x28.7 (1)
0x020|                        7d                     |        }       |                [0]: "f32" (125) valtype 0x28-0x28.7 (1)
     |                                               |                |          [5]{}: functype 0x29-0x2f.7 (7)
0x020|                           60                  |         `      |            tag: 0x60 (valid) 0x29-0x29.7 (1)
     |                                               |                |            rt1{}: 0x2a-0x2d.7 (4)
0x020|                              03               |          .     |              n: 3 0x2a-0x2a.7 (1)
     |                                               |                |              items[0:3]: 0x2b-0x2d.7 (3)
0x020|                                 7c            |           |    |                [0]: "f64" (124) valtype 0x2b-0x2b.7 (1)
0x020|                                    7c         |            |   |                [1]: "f64" (124) valtype 0x2c-0x2c.7 (1)
0x020|                                       7f      |             .  |                [2]: "i32" (127) valtype 0x2d-0x2d.7 (1)
     |                                               |                |            rt2{}: 0x2e-0x2f.7 (2)
0x020|                                          01   |              . |              n: 1 0x2e-0x2e.7 (1)
     |                                               |                |              items[0:1]: 0x2f-0x2f.7 (1)
0x020|                                             7c|               ||                [0]: "f64" (124) valtype 0x2f-0x2f.7 (1)
     |                                               |                |          [6]{}: functype 0x30-0x36.7 (7)
0x030|60                                             |`               |            tag: 0x60 (valid) 0x30-0x30.7 (1)
     |                                               |                |            rt1{}: 0x31-0x34.7 (4)
0x030|   03                                          | .              |              n: 3 0x31-0x31.7 (1)
     |                                               |                |              items[0:3]: 0x32-0x34.7 (3)
0x030|      70                                       |  p             |                [0]: "funcref" (112) valtype 0x32-0x32.7 (1)
0x030|         70                                    |   p            |                [1]: "funcref" (112) valtype 0x33-0x33.7 (1)
0x030|            7f                                 |    .           |                [2]: "i32" (127) valtype 0x34-0x34.7 (1)
     |                                               |                |            rt2{}: 0x35-0x36.7 (2)
0x030|               01                              |     .          |              n: 1 0x35-0x35.7 (1)
     |                                               |                |              items[0:1]: 0x36-0x36.7 (1)
0x030|                  70                           |      p         |                [0]: "funcref" (112) valtype 0x36-0x36.7 (1)
     |                                               |                |          [7]{}: functype 0x37-0x3d.7 (7)
0x030|                     60                        |       `        |            tag: 0x60 (valid) 0x37-0x37.7 (1)
     |                                               |                |            rt1{}: 0x38-0x3b.7 (4)
0x030|                        03                     |        .       |              n: 3 0x38-0x38.7 (1)
     |                                               |                |              items[0:3]: 0x39-0x3b.7 (3)
0x030|                           6f                  |         o      |                [0]: "externref" (111) valtype 0x39-0x39.7 (1)
0x030|                              6f               |          o     |                [1]: "externref" (111) valtype 0x3a-0x3a.7 (1)
0x030|                                 7f            |           .    |                [2]: "i32" (127) valtype 0x3b-0x3b.7 (1)
     |                                               |                |            rt2{}: 0x3c-0x3d.7 (2)
0x030|                                    01         |            .   |              n: 1 0x3c-0x3c.7 (1)
     |                                               |                |              items[0:1]: 0x3d-0x3d.7 (1)
0x030|                                       6f      |             o  |                [0]: "externref" (111) valtype 0x3d-0x3d.7 (1)
     |                                               |                |          [8]{}: functype 0x3e-0x42.7 (5)
0x030|                                          60   |              ` |            tag: 0x60 (valid) 0x3e-0x3e.7 (1)
     |                                               |                |            rt1{}: 0x3f-0x40.7 (2)
0x030|                                             01|               .|              n: 1 0x3f-0x3f.7 (1)
     |                                               |                |              items[0:1]: 0x40-0x40.7 (1)
0x040|7f                                             |.               |                [0]: "i32" (127) valtype 0x40-0x40.7 (1)
     |                                               |                |            rt2{}: 0x41-0x42.7 (2)
0x040|   01                                          | .              |              n: 1 0x41-0x41.7 (1)
     |                                               |                |              items[0:1]: 0x42-0x42.7 (1)
0x040|      7f                                       |  .             |                [0]: "i32" (127) valtype 0x42-0x42.7 (1)
     |                                               |                |          [9]{}: functype 0x43-0x46.7 (4)
0x040|         60                                    |   `            |            tag: 0x60 (valid) 0x43-0x43.7 (1)
     |                                               |                |            rt1{}: 0x44-0x45.7 (2)
0x040|            01                                 |    .           |              n: 1 0x44-0x44.7 (1)
     |                                               |                |              items[0:1]: 0x45-0x45.7 (1)
0x040|               7f                              |     .          |                [0]: "i32" (127) valtype 0x45-0x45.7 (1)
     |                                               |                |            rt2{}: 0x46-0x46.7 (1)
0x040|                  00                           |      .         |              n: 0 0x46-0x46.7 (1)
     |                                               |                |              items[0:0]: 0x47-NA (0)
     |                                               |                |    [1]{}: section 0x47-0x77.7 (49)
0x040|                     03                        |       .        |      id: "function section" (3) 0x47-0x47.7 (1)
0x040|                        2f                     |        /       |      size: 47 0x48-0x48.7 (1)
     |                                               |                |      content{}: 0x49-0x77.7 (47)
0x040|                           2e                  |         .      |        n: 46 0x49-0x49.7 (1)
     |                                               |                |        items[0:46]: 0x4a-0x77.7 (46)
0x040|                              01               |          .     |          [0]: 1 x 0x4a-0x4a.7 (1)
0x040|                                 02            |           .    |          [1]: 2 x 0x4b-0x4b.7 (1)
0x040|                                    03         |            .   |          [2]: 3 x 0x4c-0x4c.7 (1)
0x040|                                       04      |             .  |          [3]: 4 x 0x4d-0x4d.7 (1)
0x040|                                          05   |              . |          [4]: 5 x 0x4e-0x4e.7 (1)
0x040|                                             02|               .|          [5]: 2 x 0x4f-0x4f.7 (1)
0x050|03                                             |.               |          [6]: 3 x 0x50-0x50.7 (1)
0x050|   04                                          | .              |          [7]: 4 x 0x51-0x51.7 (1)
0x050|      05                                       |  .             |          [8]: 5 x 0x52-0x52.7 (1)
0x050|         06                                    |   .            |          [9]: 6 x 0x53-0x53.7 (1)
0x050|            07                                 |    .           |          [10]: 7 x 0x54-0x54.7 (1)
0x050|               08                              |     .          |          [11]: 8 x 0x55-0x55.7 (1)
0x050|                  08                           |      .         |          [12]: 8 x 0x56-0x56.7 (1)
0x050|                     08                        |       .        |          [13]: 8 x 0x57-0x57.7 (1)
0x050|                        08                     |        .       |          [14]: 8 x 0x58-0x58.7 (1)
0x050|                           08                  |         .      |          [15]: 8 x 0x59-0x59.7 (1)
0x050|                              08               |          .     |          [16]: 8 x 0x5a-0x5a.7 (1)
0x050|                                 09            |           .    |          [17]: 9 x 0x5b-0x5b.7 (1)
0x050|                                    08         |            .   |          [18]: 8 x 0x5c-0x5c.7 (1)
0x050|                                       08      |             .  |          [19]: 8 x 0x5d-0x5d.7 (1)
0x050|                                          08   |              . |          [20]: 8 x 0x5e-0x5e.7 (1)
0x050|                                             08|               .|          [21]: 8 x 0x5f-0x5f.7 (1)
0x060|08                                             |.               |          [22]: 8 x 0x60-0x60.7 (1)
0x060|   08                                          | .              |          [23]: 8 x 0x61-0x61.7 (1)
0x060|      00                                       |  .             |          [24]: 0 x 0x62-0x62.7 (1)
0x060|         08                                    |   .            |          [25]: 8 x 0x63-0x63.7 (1)
0x060|            08                                 |    .           |          [26]: 8 x 0x64-0x64.7 (1)
0x060|               08                              |     .          |          [27]: 8 x 0x65-0x65.7 (1)
0x060|                  09                           |      .         |          [28]: 9 x 0x66-0x66.7 (1)
0x060|                     09                        |       .        |          [29]: 9 x 0x67-0x67.7 (1)
0x060|                        08                     |        .       |          [30]: 8 x 0x68-0x68.7 (1)
0x060|                           08                  |         .      |          [31]: 8 x 0x69-0x69.7 (1)
0x060|                              08               |          .     |          [32]: 8 x 0x6a-0x6a.7 (1)
0x060|                                 08            |           .    |          [33]: 8 x 0x6b-0x6b.7 (1)
0x060|                                    09         |            .   |          [34]: 9 x 0x6c-0x6c.7 (1)
0x060|                                       08      |             .  |          [35]: 8 x 0x6d-0x6d.7 (1)
0x060|                                          08   |              . |          [36]: 8 x 0x6e-0x6e.7 (1)
0x060|                                             08|               .|          [37]: 8 x 0x6f-0x6f.7 (1)
0x070|08                                             |.               |          [38]: 8 x 0x70-0x70.7 (1)
0x070|   08                                          | .              |          [39]: 8 x 0x71-0x71.7 (1)
0x070|      08                                       |  .             |          [40]: 8 x 0x72-0x72.7 (1)
0x070|         08                                    |   .            |          [41]: 8 x 0x73-0x73.7 (1)
0x070|            08                                 |    .           |          [42]: 8 x 0x74-0x74.7 (1)
0x070|               08                              |     .          |          [43]: 8 x 0x75-0x75.7 (1)
0x070|                  08                           |      .         |          [44]: 8 x 0x76-0x76.7 (1)
0x070|                     08                        |       .        |          [45]: 8 x 0x77-0x77.7 (1)
     |                                               |                |    [2]{}: section 0x78-0x82.7 (11)
0x070|                        04                     |        .       |      id: "table section" (4) 0x78-0x78.7 (1)
0x070|                           09                  |         .      |      size: 9 0x79-0x79.7 (1)
     |                                               |                |      content{}: 0x7a-0x82.7 (9)
0x070|                              02               |          .     |        n: 2 0x7a-0x7a.7 (1)
     |                                               |                |        items[0:2]: 0x7b-0x82.7 (8)
     |                                               |                |          [0]{}: table 0x7b-0x7e.7 (4)
0x070|                                 70            |           p    |            reftype: "funcref" (112) 0x7b-0x7b.7 (1)
     |                                               |                |            limits{}: 0x7c-0x7e.7 (3)
0x070|                                    01         |            .   |              tag: 0x1 0x7c-0x7c.7 (1)
0x070|                                       01      |             .  |              min: 1 0x7d-0x7d.7 (1)
0x070|                                          01   |              . |              max: 1 0x7e-0x7e.7 (1)
     |                                               |                |          [1]{}: table 0x7f-0x82.7 (4)
0x070|                                             70|               p|            reftype: "funcref" (112) 0x7f-0x7f.7 (1)
     |                                               |                |            limits{}: 0x80-0x82.7 (3)
0x080|01                                             |.               |              tag: 0x1 0x80-0x80.7 (1)
0x080|   01                                          | .              |              min: 1 0x81-0x81.7 (1)
0x080|      01                                       |  .             |              max: 1 0x82-0x82.7 (1)
     |                                               |                |    [3]{}: section 0x83-0x87.7 (5)
0x080|         05                                    |   .            |      id: "memory section" (5) 0x83-0x83.7 (1)
0x080|            03                                 |    .           |      size: 3 0x84-0x84.7 (1)
     |                                               |                |      content{}: 0x85-0x87.7 (3)
0x080|               01                              |     .          |        n: 1 0x85-0x85.7 (1)
     |                                               |                |        items[0:1]: 0x86-0x87.7 (2)
     |                                               |                |          [0]{}: mem 0x86-0x87.7 (2)
     |                                               |                |            limits{}: 0x86-0x87.7 (2)
0x080|                  00                           |      .         |              tag: 0x0 0x86-0x86.7 (1)
0x080|                     01                        |       .        |              min: 1 0x87-0x87.7 (1)
     |                                               |                |    [4]{}: section 0x88-0x8f.7 (8)
0x080|                        06                     |        .       |      id: "global section" (6) 0x88-0x88.7 (1)
0x080|                           06                  |         .      |      size: 6 0x89-0x89.7 (1)
     |                                               |                |      content{}: 0x8a-0x8f.7 (6)
0x080|                              01               |          .     |        n: 1 0x8a-0x8a.7 (1)
     |                                               |                |        items[0:1]: 0x8b-0x8f.7 (5)
     |                                               |                |          [0]{}: global 0x8b-0x8f.7 (5)
     |                                               |                |            globaltype{}: 0x8b-0x8c.7 (2)
0x080|                                 7f            |           .    |              valtype: "i32" (127) 0x8b-0x8b.7 (1)
0x080|                                    01         |            .   |              mut: "var" (1) 0x8c-0x8c.7 (1)
     |                                               |                |            expr{}: 0x8d-0x8f.7 (3)
     |                                               |                |              instructions[0:2]: 0x8d-0x8f.7 (3)
     |                                               |                |                [0]{}: instr 0x8d-0x8e.7 (2)
0x080|                                       41      |             A  |                  i32.const: 0x41 (valid) 0x8d-0x8d.7 (1)
0x080|                                          0a   |              . |                  n: 10 0x8e-0x8e.7 (1)
     |                                               |                |                [1]{}: instr 0x8f-0x8f.7 (1)
0x080|                                             0b|               .|                  end: 0xb (valid) 0x8f-0x8f.7 (1)
     |                                               |                |    [5]{}: section 0x90-0x382.7 (755)
0x090|07                                             |.               |      id: "export section" (7) 0x90-0x90.7 (1)
0x090|   f0 05                                       | ..             |      size: 752 0x91-0x92.7 (2)
     |                                               |                |      content{}: 0x93-0x382.7 (752)
0x090|         2b                                    |   +            |        n: 43 0x93-0x93.7 (1)
     |                                               |                |        items[0:43]: 0x94-0x382.7 (751)
     |                                               |                |          [0]{}: export 0x94-0xa0.7 (13)
     |                                               |                |            name{}: 0x94-0x9e.7 (11)
0x090|            0a                                 |    .           |              len: 10 0x94-0x94.7 (1)
0x090|               73 65 6c 65 63 74 2d 69 33 32   |     select-i32 |              utf8bytes: "select-i32" 0x95-0x9e.7 (10)
     |                                               |                |            expr{}: 0x9f-0xa0.7 (2)
0x090|                                             00|               .|              tag: "funcidx" (0x0) 0x9f-0x9f.7 (1)
0x0a0|01                                             |.               |              x: 1 0xa0-0xa0.7 (1)
     |                                               |                |          [1]{}: export 0xa1-0xad.7 (13)
     |                                               |                |            name{}: 0xa1-0xab.7 (11)
0x0a0|   0a                                          | .              |              len: 10 0xa1-0xa1.7 (1)
0x0a0|      73 65 6c 65 63 74 2d 69 36 34            |  select-i64    |              utf8bytes: "select-i64" 0xa2-0xab.7 (10)
     |                                               |                |            expr{}: 0xac-0xad.7 (2)
0x0a0|                                    00         |            .   |              tag: "funcidx" (0x0) 0xac-0xac.7 (1)
0x0a0|                                       02      |             .  |              x: 2 0xad-0xad.7 (1)
     |                                               |                |          [2]{}: export 0xae-0xba.7 (13)
     |                                               |                |            name{}: 0xae-0xb8.7 (11)
0x0a0|                                          0a   |              . |              len: 10 0xae-0xae.7 (1)
0x0a0|                                             73|               s|              utf8bytes: "select-f32" 0xaf-0xb8.7 (10)
0x0b0|65 6c 65 63 74 2d 66 33 32                     |elect-f32       |
     |                                               |                |            expr{}: 0xb9-0xba.7 (2)
0x0b0|                           00                  |         .      |              tag: "funcidx" (0x0) 0xb9-0xb9.7 (1)
0x0b0|                              03               |          .     |              x: 3 0xba-0xba.7 (1)
     |                                               |                |          [3]{}: export 0xbb-0xc7.7 (13)
     |                                               |                |            name{}: 0xbb-0xc5.7 (11)
0x0b0|                                 0a            |           .    |              len: 10 0xbb-0xbb.7 (1)
0x0b0|                                    73 65 6c 65|            sele|              utf8bytes: "select-f64" 0xbc-0xc5.7 (10)
0x0c0|63 74 2d 66 36 34                              |ct-f64          |
     |                                               |                |            expr{}: 0xc6-0xc7.7 (2)
0x0c0|                  00                           |      .         |              tag: "funcidx" (0x0) 0xc6-0xc6.7 (1)
0x0c0|                     04                        |       .        |              x: 4 0xc7-0xc7.7 (1)
     |                                               |                |          [4]{}: export 0xc8-0xd6.7 (15)
     |                                               |                |            name{}: 0xc8-0xd4.7 (13)
0x0c0|                        0c                     |        .       |              len: 12 0xc8-0xc8.7 (1)
0x0c0|                           73 65 6c 65 63 74 2d|         select-|              utf8bytes: "select-i32-t" 0xc9-0xd4.7 (12)
0x0d0|69 33 32 2d 74                                 |i32-t           |
     |                                               |                |            expr{}: 0xd5-0xd6.7 (2)
0x0d0|               00                              |     .          |              tag: "funcidx" (0x0) 0xd5-0xd5.7 (1)
0x0d0|                  05                           |      .         |              x: 5 0xd6-0xd6.7 (1)
     |                                               |                |          [5]{}: export 0xd7-0xe5.7 (15)
     |                                               |                |            name{}: 0xd7-0xe3.7 (13)
0x0d0|                     0c                        |       .        |              len: 12 0xd7-0xd7.7 (1)
0x0d0|                        73 65 6c 65 63 74 2d 69|        select-i|              utf8bytes: "select-i64-t" 0xd8-0xe3.7 (12)
0x0e0|36 34 2d 74                                    |64-t            |
     |                                               |                |            expr{}: 0xe4-0xe5.7 (2)
0x0e0|            00                                 |    .           |              tag: "funcidx" (0x0) 0xe4-0xe4.7 (1)
0x0e0|               06                              |     .          |              x: 6 0xe5-0xe5.7 (1)
     |                                               |                |          [6]{}: export 0xe6-0xf4.7 (15)
     |                                               |                |            name{}: 0xe6-0xf2.7 (13)
0x0e0|                  0c                           |      .         |              len: 12 0xe6-0xe6.7 (1)
0x0e0|                     73 65 6c 65 63 74 2d 66 33|       select-f3|              utf8bytes: "select-f32-t" 0xe7-0xf2.7 (12)
0x0f0|32 2d 74                                       |2-t             |
     |                                               |                |            expr{}: 0xf3-0xf4.7 (2)
0x0f0|         00                                    |   .            |              tag: "funcidx" (0x0) 0xf3-0xf3.7 (1)
0x0f0|            07                                 |    .           |              x: 7 0xf4-0xf4.7 (1)
     |                                               |                |          [7]{}: export 0xf5-0x103.7 (15)
     |                                               |                |            name{}: 0xf5-0x101.7 (13)
0x0f0|               0c                              |     .          |              len: 12 0xf5-0xf5.7 (1)
0x0f0|                  73 65 6c 65 63 74 2d 66 36 34|      select-f64|              utf8bytes: "select-f64-t" 0xf6-0x101.7 (12)
0x100|2d 74                                          |-t              |
     |                                               |                |            expr{}: 0x102-0x103.7 (2)
0x100|      00                                       |  .             |              tag: "funcidx" (0x0) 0x102-0x102.7 (1)
0x100|         08                                    |   .            |              x: 8 0x103-0x103.7 (1)
     |                                               |                |          [8]{}: export 0x104-0x114.7 (17)
     |                                               |                |            name{}: 0x104-0x112.7 (15)
0x100|            0e                                 |    .           |              len: 14 0x104-0x104.7 (1)
0x100|               73 65 6c 65 63 74 2d 66 75 6e 63|     select-func|              utf8bytes: "select-funcref" 0x105-0x112.7 (14)
0x110|72 65 66                                       |ref             |
     |                                               |                |            expr{}: 0x113-0x114.7 (2)
0x110|         00                                    |   .            |              tag: "funcidx" (0x0) 0x113-0x113.7 (1)
0x110|            09                                 |    .           |              x: 9 0x114-0x114.7 (1)
     |                                               |                |          [9]{}: export 0x115-0x127.7 (19)
     |                                               |                |            name{}: 0x115-0x125.7 (17)
0x110|               10                              |     .          |              len: 16 0x115-0x115.7 (1)
0x110|                  73 65 6c 65 63 74 2d 65 78 74|      select-ext|              utf8bytes: "select-externref" 0x116-0x125.7 (16)
0x120|65 72 6e 72 65 66                              |ernref          |
     |                                               |                |            expr{}: 0x126-0x127.7 (2)
0x120|                  00                           |      .         |              tag: "funcidx" (0x0) 0x126-0x126.7 (1)
0x120|                     0a                        |       .        |              x: 10 0x127-0x127.7 (1)
     |                                               |                |          [10]{}: export 0x128-0x139.7 (18)
     |                                               |                |            name{}: 0x128-0x137.7 (16)
0x120|                        0f                     |        .       |              len: 15 0x128-0x128.7 (1)
0x120|                           61 73 2d 73 65 6c 65|         as-sele|              utf8bytes: "as-select-first" 0x129-0x137.7 (15)
0x130|63 74 2d 66 69 72 73 74                        |ct-first        |
     |                                               |                |            expr{}: 0x138-0x139.7 (2)
0x130|                        00                     |        .       |              tag: "funcidx" (0x0) 0x138-0x138.7 (1)
0x130|                           0b                  |         .      |              x: 11 0x139-0x139.7 (1)
     |                                               |                |          [11]{}: export 0x13a-0x149.7 (16)
     |                                               |                |            name{}: 0x13a-0x147.7 (14)
0x130|                              0d               |          .     |              len: 13 0x13a-0x13a.7 (1)
0x130|                                 61 73 2d 73 65|           as-se|              utf8bytes: "as-select-mid" 0x13b-0x147.7 (13)
0x140|6c 65 63 74 2d 6d 69 64                        |lect-mid        |
     |                                               |                |            expr{}: 0x148-0x149.7 (2)
0x140|                        00                     |        .       |              tag: "funcidx" (0x0) 0x148-0x148.7 (1)
0x140|                           0c                  |         .      |              x: 12 0x149-0x149.7 (1)
     |                                               |                |          [12]{}: export 0x14a-0x15a.7 (17)
     |                                               |                |            name{}: 0x14a-0x158.7 (15)
0x140|                              0e               |          .     |              len: 14 0x14a-0x14a.7 (1)
0x140|                                 61 73 2d 73 65|           as-se|              utf8bytes: "as-select-last" 0x14b-0x158.7 (14)
0x150|6c 65 63 74 2d 6c 61 73 74                     |lect-last       |
     |                                               |                |            expr{}: 0x159-0x15a.7 (2)
0x150|                           00                  |         .      |              tag: "funcidx" (0x0) 0x159-0x159.7 (1)
0x150|                              0d               |          .     |              x: 13 0x15a-0x15a.7 (1)
     |                                               |                |          [13]{}: export 0x15b-0x16a.7 (16)
     |                                               |                |            name{}: 0x15b-0x168.7 (14)
0x150|                                 0d            |           .    |              len: 13 0x15b-0x15b.7 (1)
0x150|                                    61 73 2d 6c|            as-l|              utf8bytes: "as-loop-first" 0x15c-0x168.7 (13)
0x160|6f 6f 70 2d 66 69 72 73 74                     |oop-first       |
     |                                               |                |            expr{}: 0x169-0x16a.7 (2)
0x160|                           00                  |         .      |              tag: "funcidx" (0x0) 0x169-0x169.7 (1)
0x160|                              0e               |          .     |              x: 14 0x16a-0x16a.7 (1)
     |                                               |                |          [14]{}: export 0x16b-0x178.7 (14)
     |                                               |                |            name{}: 0x16b-0x176.7 (12)
0x160|                                 0b            |           .    |              len: 11 0x16b-0x16b.7 (1)
0x160|                                    61 73 2d 6c|            as-l|              utf8bytes: "as-loop-mid" 0x16c-0x176.7 (11)
0x170|6f 6f 70 2d 6d 69 64                           |oop-mid         |
     |                                               |                |            expr{}: 0x177-0x178.7 (2)
0x170|                     00                        |       .        |              tag: "funcidx" (0x0) 0x177-0x177.7 (1)
0x170|                        0f                     |        .       |              x: 15 0x178-0x178.7 (1)
     |                                               |                |          [15]{}: export 0x179-0x187.7 (15)
     |                                               |                |            name{}: 0x179-0x185.7 (13)
0x170|                           0c                  |         .      |              len: 12 0x179-0x179.7 (1)
0x170|                              61 73 2d 6c 6f 6f|          as-loo|              utf8bytes: "as-loop-last" 0x17a-0x185.7 (12)
0x180|70 2d 6c 61 73 74                              |p-last          |
     |                                               |                |            expr{}: 0x186-0x187.7 (2)
0x180|                  00                           |      .         |              tag: "funcidx" (0x0) 0x186-0x186.7 (1)
0x180|                     10                        |       .        |              x: 16 0x187-0x187.7 (1)
     |                                               |                |          [16]{}: export 0x188-0x199.7 (18)
     |                                               |                |            name{}: 0x188-0x197.7 (16)
0x180|                        0f                     |        .       |              len: 15 0x188-0x188.7 (1)
0x180|                           61 73 2d 69 66 2d 63|         as-if-c|              utf8bytes: "as-if-condition" 0x189-0x197.7 (15)
0x190|6f 6e 64 69 74 69 6f 6e                        |ondition        |
     |                                               |                |            expr{}: 0x198-0x199.7 (2)
0x190|                        00                     |        .       |              tag: "funcidx" (0x0) 0x198-0x198.7 (1)
0x190|                           11                  |         .      |              x: 17 0x199-0x199.7 (1)
     |                                               |                |          [17]{}: export 0x19a-0x1a6.7 (13)
     |                                               |                |            name{}: 0x19a-0x1a4.7 (11)
0x190|                              0a               |          .     |              len: 10 0x19a-0x19a.7 (1)
0x190|                                 61 73 2d 69 66|           as-if|              utf8bytes: "as-if-then" 0x19b-0x1a4.7 (10)
0x1a0|2d 74 68 65 6e                                 |-then           |
     |                                               |                |            expr{}: 0x1a5-0x1a6.7 (2)
0x1a0|               00                              |     .          |              tag: "funcidx" (0x0) 0x1a5-0x1a5.7 (1)
0x1a0|                  12                           |      .         |              x: 18 0x1a6-0x1a6.7 (1)
     |                                               |                |          [18]{}: export 0x1a7-0x1b3.7 (13)
     |                                               |                |            name{}: 0x1a7-0x1b1.7 (11)
0x1a0|                     0a                        |       .        |              len: 10 0x1a7-0x1a7.7 (1)
0x1a0|                        61 73 2d 69 66 2d 65 6c|        as-if-el|              utf8bytes: "as-if-else" 0x1a8-0x1b1.7 (10)
0x1b0|73 65                                          |se              |
     |                                               |                |            expr{}: 0x1b2-0x1b3.7 (2)
0x1b0|      00                                       |  .             |              tag: "funcidx" (0x0) 0x1b2-0x1b2.7 (1)
0x1b0|         13                                    |   .            |              x: 19 0x1b3-0x1b3.7 (1)
     |                                               |                |          [19]{}: export 0x1b4-0x1c4.7 (17)
     |                                               |                |            name{}: 0x1b4-0x1c2.7 (15)
0x1b0|            0e                                 |    .           |              len: 14 0x1b4-0x1b4.7 (1)
0x1b0|               61 73 2d 62 72 5f 69 66 2d 66 69|     as-br_if-fi|              utf8bytes: "as-br_if-first" 0x1b5-0x1c2.7 (14)
0x1c0|72 73 74                                       |rst             |
     |                                               |                |            expr{}: 0x1c3-0x1c4.7 (2)
0x1c0|         00                                    |   .            |              tag: "funcidx" (0x0) 0x1c3-0x1c3.7 (1)
0x1c0|            14                                 |    .           |              x: 20 0x1c4-0x1c4.7 (1)
     |                                               |                |          [20]{}: export 0x1c5-0x1d4.7 (16)
     |                                               |                |            name{}: 0x1c5-0x1d2.7 (14)
0x1c0|               0d                              |     .          |              len: 13 0x1c5-0x1c5.7 (1)
0x1c0|                  61 73 2d 62 72 5f 69 66 2d 6c|      as-br_if-l|              utf8bytes: "as-br_if-last" 0x1c6-0x1d2.7 (13)
0x1d0|61 73 74                                       |ast             |
     |                                               |                |            expr{}: 0x1d3-0x1d4.7 (2)
0x1d0|         00                                    |   .            |              tag: "funcidx" (0x0) 0x1d3-0x1d3.7 (1)
0x1d0|            15                                 |    .           |              x: 21 0x1d4-0x1d4.7 (1)
     |                                               |                |          [21]{}: export 0x1d5-0x1e8.7 (20)
     |                                               |                |            name{}: 0x1d5-0x1e6.7 (18)
0x1d0|               11                              |     .          |              len: 17 0x1d5-0x1d5.7 (1)
0x1d0|                  61 73 2d 62 72 5f 74 61 62 6c|      as-br_tabl|              utf8bytes: "as-br_table-first" 0x1d6-0x1e6.7 (17)
0x1e0|65 2d 66 69 72 73 74                           |e-first         |
     |                                               |                |            expr{}: 0x1e7-0x1e8.7 (2)
0x1e0|                     00                        |       .        |              tag: "funcidx" (0x0) 0x1e7-0x1e7.7 (1)
0x1e0|                        16                     |        .       |              x: 22 0x1e8-0x1e8.7 (1)
     |                                               |                |          [22]{}: export 0x1e9-0x1fb.7 (19)
     |                                               |                |            name{}: 0x1e9-0x1f9.7 (17)
0x1e0|                           10                  |         .      |              len: 16 0x1e9-0x1e9.7 (1)
0x1e0|                              61 73 2d 62 72 5f|          as-br_|              utf8bytes: "as-br_table-last" 0x1ea-0x1f9.7 (16)
0x1f0|74 61 62 6c 65 2d 6c 61 73 74                  |table-last      |
     |                                               |                |            expr{}: 0x1fa-0x1fb.7 (2)
0x1f0|                              00               |          .     |              tag: "funcidx" (0x0) 0x1fa-0x1fa.7 (1)
0x1f0|                                 17            |           .    |              x: 23 0x1fb-0x1fb.7 (1)
     |                                               |                |          [23]{}: export 0x1fc-0x214.7 (25)
     |                                               |                |            name{}: 0x1fc-0x212.7 (23)
0x1f0|                                    16         |            .   |              len: 22 0x1fc-0x1fc.7 (1)
0x1f0|                                       61 73 2d|             as-|              utf8bytes: "as-call_indirect-first" 0x1fd-0x212.7 (22)
0x200|63 61 6c 6c 5f 69 6e 64 69 72 65 63 74 2d 66 69|call_indirect-fi|
0x210|72 73 74                                       |rst             |
     |                                               |                |            expr{}: 0x213-0x214.7 (2)
0x210|         00                                    |   .            |              tag: "funcidx" (0x0) 0x213-0x213.7 (1)
0x210|            19                                 |    .           |              x: 25 0x214-0x214.7 (1)
     |                                               |                |          [24]{}: export 0x215-0x22b.7 (23)
     |                                               |                |            name{}: 0x215-0x229.7 (21)
0x210|               14                              |     .          |              len: 20 0x215-0x215.7 (1)
0x210|                  61 73 2d 63 61 6c 6c 5f 69 6e|      as-call_in|              utf8bytes: "as-call_indirect-mid" 0x216-0x229.7 (20)
0x220|64 69 72 65 63 74 2d 6d 69 64                  |direct-mid      |
     |                                               |                |            expr{}: 0x22a-0x22b.7 (2)
0x220|                              00               |          .     |              tag: "funcidx" (0x0) 0x22a-0x22a.7 (1)
0x220|                                 1a            |           .    |              x: 26 0x22b-0x22b.7 (1)
     |                                               |                |          [25]{}: export 0x22c-0x243.7 (24)
     |                                               |                |            name{}: 0x22c-0x241.7 (22)
0x220|                                    15         |            .   |              len: 21 0x22c-0x22c.7 (1)
0x220|                                       61 73 2d|             as-|              utf8bytes: "as-call_indirect-last" 0x22d-0x241.7 (21)
0x230|63 61 6c 6c 5f 69 6e 64 69 72 65 63 74 2d 6c 61|call_indirect-la|
0x240|73 74                                          |st              |
     |                                               |                |            expr{}: 0x242-0x243.7 (2)
0x240|      00                                       |  .             |              tag: "funcidx" (0x0) 0x242-0x242.7 (1)
0x240|         1b                                    |   .            |              x: 27 0x243-0x243.7 (1)
     |                                               |                |          [26]{}: export 0x244-0x254.7 (17)
     |                                               |                |            name{}: 0x244-0x252.7 (15)
0x240|            0e                                 |    .           |              len: 14 0x244-0x244.7 (1)
0x240|               61 73 2d 73 74 6f 72 65 2d 66 69|     as-store-fi|              utf8bytes: "as-store-first" 0x245-0x252.7 (14)
0x250|72 73 74                                       |rst             |
     |                                               |                |            expr{}: 0x253-0x254.7 (2)
0x250|         00                                    |   .            |              tag: "funcidx" (0x0) 0x253-0x253.7 (1)
0x250|            1c                                 |    .           |              x: 28 0x254-0x254.7 (1)
     |                                               |                |          [27]{}: export 0x255-0x264.7 (16)
     |                                               |                |            name{}: 0x255-0x262.7 (14)
0x250|               0d                              |     .          |              len: 13 0x255-0x255.7 (1)
0x250|                  61 73 2d 73 74 6f 72 65 2d 6c|      as-store-l|              utf8bytes: "as-store-last" 0x256-0x262.7 (13)
0x260|61 73 74                                       |ast             |
     |                                               |                |            expr{}: 0x263-0x264.7 (2)
0x260|         00                                    |   .            |              tag: "funcidx" (0x0) 0x263-0x263.7 (1)
0x260|            1d                                 |    .           |              x: 29 0x264-0x264.7 (1)
     |                                               |                |          [28]{}: export 0x265-0x27b.7 (23)
     |                                               |                |            name{}: 0x265-0x279.7 (21)
0x260|               14                              |     .          |              len: 20 0x265-0x265.7 (1)
0x260|                  61 73 2d 6d 65 6d 6f 72 79 2e|      as-memory.|              utf8bytes: "as-memory.grow-value" 0x266-0x279.7 (20)
0x270|67 72 6f 77 2d 76 61 6c 75 65                  |grow-value      |
     |                                               |                |            expr{}: 0x27a-0x27b.7 (2)
0x270|                              00               |          .     |              tag: "funcidx" (0x0) 0x27a-0x27a.7 (1)
0x270|                                 1e            |           .    |              x: 30 0x27b-0x27b.7 (1)
     |                                               |                |          [29]{}: export 0x27c-0x28b.7 (16)
     |                                               |                |            name{}: 0x27c-0x289.7 (14)
0x270|                                    0d         |            .   |              len: 13 0x27c-0x27c.7 (1)
0x270|                                       61 73 2d|             as-|              utf8bytes: "as-call-value" 0x27d-0x289.7 (13)
0x280|63 61 6c 6c 2d 76 61 6c 75 65                  |call-value      |
     |                                               |                |            expr{}: 0x28a-0x28b.7 (2)
0x280|                              00               |          .     |              tag: "funcidx" (0x0) 0x28a-0x28a.7 (1)
0x280|                                 20            |                |              x: 32 0x28b-0x28b.7 (1)
     |                                               |                |          [30]{}: export 0x28c-0x29d.7 (18)
     |                                               |                |            name{}: 0x28c-0x29b.7 (16)
0x280|                                    0f         |            .   |              len: 15 0x28c-0x28c.7 (1)
0x280|                                       61 73 2d|             as-|              utf8bytes: "as-return-value" 0x28d-0x29b.7 (15)
0x290|72 65 74 75 72 6e 2d 76 61 6c 75 65            |return-value    |
     |                                               |                |            expr{}: 0x29c-0x29d.7 (2)
0x290|                                    00         |            .   |              tag: "funcidx" (0x0) 0x29c-0x29c.7 (1)
0x290|                                       21      |             !  |              x: 33 0x29d-0x29d.7 (1)
     |                                               |                |          [31]{}: export 0x29e-0x2af.7 (18)
     |                                               |                |            name{}: 0x29e-0x2ad.7 (16)
0x290|                                          0f   |              . |              len: 15 0x29e-0x29e.7 (1)
0x290|                                             61|               a|              utf8bytes: "as-drop-operand" 0x29f-0x2ad.7 (15)
0x2a0|73 2d 64 72 6f 70 2d 6f 70 65 72 61 6e 64      |s-drop-operand  |
     |                                               |                |            expr{}: 0x2ae-0x2af.7 (2)
0x2a0|                                          00   |              . |              tag: "funcidx" (0x0) 0x2ae-0x2ae.7 (1)
0x2a0|                                             22|               "|              x: 34 0x2af-0x2af.7 (1)
     |                                               |                |          [32]{}: export 0x2b0-0x2bd.7 (14)
     |                                               |                |            name{}: 0x2b0-0x2bb.7 (12)
0x2b0|0b                                             |.               |              len: 11 0x2b0-0x2b0.7 (1)
0x2b0|   61 73 2d 62 72 2d 76 61 6c 75 65            | as-br-value    |              utf8bytes: "as-br-value" 0x2b1-0x2bb.7 (11)
     |                                               |                |            expr{}: 0x2bc-0x2bd.7 (2)
0x2b0|                                    00         |            .   |              tag: "funcidx" (0x0) 0x2bc-0x2bc.7 (1)
0x2b0|                                       23      |             #  |              x: 35 0x2bd-0x2bd.7 (1)
     |                                               |                |          [33]{}: export 0x2be-0x2d2.7 (21)
     |                                               |                |            name{}: 0x2be-0x2d0.7 (19)
0x2b0|                                          12   |              . |              len: 18 0x2be-0x2be.7 (1)
0x2b0|                                             61|               a|              utf8bytes: "as-local.set-value" 0x2bf-0x2d0.7 (18)
0x2c0|73 2d 6c 6f 63 61 6c 2e 73 65 74 2d 76 61 6c 75|s-local.set-valu|
0x2d0|65                                             |e               |
     |                                               |                |            expr{}: 0x2d1-0x2d2.7 (2)
0x2d0|   00                                          | .              |              tag: "funcidx" (0x0) 0x2d1-0x2d1.7 (1)
0x2d0|      24                                       |  $             |              x: 36 0x2d2-0x2d2.7 (1)
     |                                               |                |          [34]{}: export 0x2d3-0x2e7.7 (21)
     |                                               |                |            name{}: 0x2d3-0x2e5.7 (19)
0x2d0|         12                                    |   .            |              len: 18 0x2d3-0x2d3.7 (1)
0x2d0|            61 73 2d 6c 6f 63 61 6c 2e 74 65 65|    as-local.tee|              utf8bytes: "as-local.tee-value" 0x2d4-0x2e5.7 (18)
0x2e0|2d 76 61 6c 75 65                              |-value          |
     |                                               |                |            expr{}: 0x2e6-0x2e7.7 (2)
0x2e0|                  00                           |      .         |              tag: "funcidx" (0x0) 0x2e6-0x2e6.7 (1)
0x2e0|                     25                        |       %        |              x: 37 0x2e7-0x2e7.7 (1)
     |                                               |                |          [35]{}: export 0x2e8-0x2fd.7 (22)
     |                                               |                |            name{}: 0x2e8-0x2fb.7 (20)
0x2e0|                        13                     |        .       |              len: 19 0x2e8-0x2e8.7 (1)
0x2e0|                           61 73 2d 67 6c 6f 62|         as-glob|              utf8bytes: "as-global.set-value" 0x2e9-0x2fb.7 (19)
0x2f0|61 6c 2e 73 65 74 2d 76 61 6c 75 65            |al.set-value    |
     |                                               |                |            expr{}: 0x2fc-0x2fd.7 (2)
0x2f0|                                    00         |            .   |              tag: "funcidx" (0x0) 0x2fc-0x2fc.7 (1)
0x2f0|                                       26      |             &  |              x: 38 0x2fd-0x2fd.7 (1)
     |                                               |                |          [36]{}: export 0x2fe-0x30f.7 (18)
     |                                               |                |            name{}: 0x2fe-0x30d.7 (16)
0x2f0|                                          0f   |              . |              len: 15 0x2fe-0x2fe.7 (1)
0x2f0|                                             61|               a|              utf8bytes: "as-load-operand" 0x2ff-0x30d.7 (15)
0x300|73 2d 6c 6f 61 64 2d 6f 70 65 72 61 6e 64      |s-load-operand  |
     |                                               |                |            expr{}: 0x30e-0x30f.7 (2)
0x300|                                          00   |              . |              tag: "funcidx" (0x0) 0x30e-0x30e.7 (1)
0x300|                                             27|               '|              x: 39 0x30f-0x30f.7 (1)
     |                                               |                |          [37]{}: export 0x310-0x322.7 (19)
     |                                               |                |            name{}: 0x310-0x320.7 (17)
0x310|10                                             |.               |              len: 16 0x310-0x310.7 (1)
0x310|   61 73 2d 75 6e 61 72 79 2d 6f 70 65 72 61 6e| as-unary-operan|              utf8bytes: "as-unary-operand" 0x311-0x320.7 (16)
0x320|64                                             |d               |
     |                                               |                |            expr{}: 0x321-0x322.7 (2)
0x320|   00                                          | .              |              tag: "funcidx" (0x0) 0x321-0x321.7 (1)
0x320|      28                                       |  (             |              x: 40 0x322-0x322.7 (1)
     |                                               |                |          [38]{}: export 0x323-0x336.7 (20)
     |                                               |                |            name{}: 0x323-0x334.7 (18)
0x320|         11                                    |   .            |              len: 17 0x323-0x323.7 (1)
0x320|            61 73 2d 62 69 6e 61 72 79 2d 6f 70|    as-binary-op|              utf8bytes: "as-binary-operand" 0x324-0x334.7 (17)
0x330|65 72 61 6e 64                                 |erand           |
     |                                               |                |            expr{}: 0x335-0x336.7 (2)
0x330|               00                              |     .          |              tag: "funcidx" (0x0) 0x335-0x335.7 (1)
0x330|                  29                           |      )         |              x: 41 0x336-0x336.7 (1)
     |                                               |                |          [39]{}: export 0x337-0x348.7 (18)
     |                                               |                |            name{}: 0x337-0x346.7 (16)
0x330|                     0f                        |       .        |              len: 15 0x337-0x337.7 (1)
0x330|                        61 73 2d 74 65 73 74 2d|        as-test-|              utf8bytes: "as-test-operand" 0x338-0x346.7 (15)
0x340|6f 70 65 72 61 6e 64                           |operand         |
     |                                               |                |            expr{}: 0x347-0x348.7 (2)
0x340|                     00                        |       .        |              tag: "funcidx" (0x0) 0x347-0x347.7 (1)
0x340|                        2a                     |        *       |              x: 42 0x348-0x348.7 (1)
     |                                               |                |          [40]{}: export 0x349-0x35a.7 (18)
     |                                               |                |            name{}: 0x349-0x358.7 (16)
0x340|                           0f                  |         .      |              len: 15 0x349-0x349.7 (1)
0x340|                              61 73 2d 63 6f 6d|          as-com|              utf8bytes: "as-compare-left" 0x34a-0x358.7 (15)
0x350|70 61 72 65 2d 6c 65 66 74                     |pare-left       |
     |                                               |                |            expr{}: 0x359-0x35a.7 (2)
0x350|                           00                  |         .      |              tag: "funcidx" (0x0) 0x359-0x359.7 (1)
0x350|                              2b               |          +     |              x: 43 0x35a-0x35a.7 (1)
     |                                               |                |          [41]{}: export 0x35b-0x36d.7 (19)
     |                                               |                |            name{}: 0x35b-0x36b.7 (17)
0x350|                                 10            |           .    |              len: 16 0x35b-0x35b.7 (1)
0x350|                                    61 73 2d 63|            as-c|              utf8bytes: "as-compare-right" 0x35c-0x36b.7 (16)
0x360|6f 6d 70 61 72 65 2d 72 69 67 68 74            |ompare-right    |
     |                                               |                |            expr{}: 0x36c-0x36d.7 (2)
0x360|                                    00         |            .   |              tag: "funcidx" (0x0) 0x36c-0x36c.7 (1)
0x360|                                       2c      |             ,  |              x: 44 0x36d-0x36d.7 (1)
     |                                               |                |          [42]{}: export 0x36e-0x382.7 (21)
     |                                               |                |            name{}: 0x36e-0x380.7 (19)
0x360|                                          12   |              . |              len: 18 0x36e-0x36e.7 (1)
0x360|                                             61|               a|              utf8bytes: "as-convert-operand" 0x36f-0x380.7 (18)
0x370|73 2d 63 6f 6e 76 65 72 74 2d 6f 70 65 72 61 6e|s-convert-operan|
0x380|64                                             |d               |
     |                                               |                |            expr{}: 0x381-0x382.7 (2)
0x380|   00                                          | .              |              tag: "funcidx" (0x0) 0x381-0x381.7 (1)
0x380|      2d                                       |  -             |              x: 45 0x382-0x382.7 (1)
     |                                               |                |    [6]{}: section 0x383-0x393.7 (17)
0x380|         09                                    |   .            |      id: "element section" (9) 0x383-0x383.7 (1)
0x380|            0f                                 |    .           |      size: 15 0x384-0x384.7 (1)
     |                                               |                |      element{}: 0x385-0x393.7 (15)
0x380|               02                              |     .          |        n: 2 0x385-0x385.7 (1)
     |                                               |                |        items[0:2]: 0x386-0x393.7 (14)
     |                                               |                |          [0]{}: elem 0x386-0x38b.7 (6)
0x380|                  00                           |      .         |            tag: 0 0x386-0x386.7 (1)
     |                                               |                |            instructions[0:2]: 0x387-0x389.7 (3)
     |                                               |                |              [0]{}: instr 0x387-0x388.7 (2)
0x380|                     41                        |       A        |                i32.const: 0x41 (valid) 0x387-0x387.7 (1)
0x380|                        00                     |        .       |                n: 0 0x388-0x388.7 (1)
     |                                               |                |              [1]{}: instr 0x389-0x389.7 (1)
0x380|                           0b                  |         .      |                end: 0xb (valid) 0x389-0x389.7 (1)
0x380|                              01               |          .     |            n: 1 0x38a-0x38a.7 (1)
     |                                               |                |            items[0:1]: 0x38b-0x38b.7 (1)
0x380|                                 00            |           .    |              [0]: 0 y 0x38b-0x38b.7 (1)
     |                                               |                |          [1]{}: elem 0x38c-0x393.7 (8)
0x380|                                    02         |            .   |            tag: 2 0x38c-0x38c.7 (1)
0x380|                                       01      |             .  |            x: 1 0x38d-0x38d.7 (1)
     |                                               |                |            instructions[0:2]: 0x38e-0x390.7 (3)
     |                                               |                |              [0]{}: instr 0x38e-0x38f.7 (2)
0x380|                                          41   |              A |                i32.const: 0x41 (valid) 0x38e-0x38e.7 (1)
0x380|                                             00|               .|                n: 0 0x38f-0x38f.7 (1)
     |                                               |                |              [1]{}: instr 0x390-0x390.7 (1)
0x390|0b                                             |.               |                end: 0xb (valid) 0x390-0x390.7 (1)
0x390|   00                                          | .              |            elemkind: "funcref" (0) (valid) 0x391-0x391.7 (1)
0x390|      01                                       |  .             |            n: 1 0x392-0x392.7 (1)
     |                                               |                |            items[0:1]: 0x393-0x393.7 (1)
0x390|         18                                    |   .            |              [0]: 24 y 0x393-0x393.7 (1)
     |                                               |                |    [7]{}: section 0x394-0x616.7 (643)
0x390|            0a                                 |    .           |      id: "code section" (10) 0x394-0x394.7 (1)
0x390|               80 05                           |     ..         |      size: 640 0x395-0x396.7 (2)
     |                                               |                |      content{}: 0x397-0x616.7 (640)
0x390|                     2e                        |       .        |        n: 46 0x397-0x397.7 (1)
     |                                               |                |        items[0:46]: 0x398-0x616.7 (639)
     |                                               |                |          [0]{}: code 0x398-0x39a.7 (3)
0x390|                        02                     |        .       |            size: 2 0x398-0x398.7 (1)
     |                                               |                |            code{}: 0x399-0x39a.7 (2)
     |                                               |                |              locals{}: 0x399-0x399.7 (1)
0x390|                           00                  |         .      |                n: 0 0x399-0x399.7 (1)
     |                                               |                |                items[0:0]: 0x39a-NA (0)
     |                                               |                |              expr{}: 0x39a-0x39a.7 (1)
     |                                               |                |                instructions[0:1]: 0x39a-0x39a.7 (1)
     |                                               |                |                  [0]{}: instr 0x39a-0x39a.7 (1)
0x390|                              0b               |          .     |                    end: 0xb (valid) 0x39a-0x39a.7 (1)
     |                                               |                |          [1]{}: code 0x39b-0x3a4.7 (10)
0x390|                                 09            |           .    |            size: 9 0x39b-0x39b.7 (1)
     |                                               |                |            code{}: 0x39c-0x3a4.7 (9)
     |                                               |                |              locals{}: 0x39c-0x39c.7 (1)
0x390|                                    00         |            .   |                n: 0 0x39c-0x39c.7 (1)
     |                                               |                |                items[0:0]: 0x39d-NA (0)
     |                                               |                |              expr{}: 0x39d-0x3a4.7 (8)
     |                                               |                |                instructions[0:5]: 0x39d-0x3a4.7 (8)
     |                                               |                |                  [0]{}: instr 0x39d-0x39e.7 (2)
0x390|                                       20      |                |                    local.get: 0x20 (valid) 0x39d-0x39d.7 (1)
0x390|                                          00   |              . |                    x: 0 0x39e-0x39e.7 (1)
     |                                               |                |                  [1]{}: instr 0x39f-0x3a0.7 (2)
0x390|                                             20|                |                    local.get: 0x20 (valid) 0x39f-0x39f.7 (1)
0x3a0|01                                             |.               |                    x: 1 0x3a0-0x3a0.7 (1)
     |                                               |                |                  [2]{}: instr 0x3a1-0x3a2.7 (2)
0x3a0|   20                                          |                |                    local.get: 0x20 (valid) 0x3a1-0x3a1.7 (1)
0x3a0|      02                                       |  .             |                    x: 2 0x3a2-0x3a2.7 (1)
     |                                               |                |                  [3]{}: instr 0x3a3-0x3a3.7 (1)
0x3a0|         1b                                    |   .            |                    select: 0x1b (valid) 0x3a3-0x3a3.7 (1)
     |                                               |                |                  [4]{}: instr 0x3a4-0x3a4.7 (1)
0x3a0|            0b                                 |    .           |                    end: 0xb (valid) 0x3a4-0x3a4.7 (1)
     |                                               |                |          [2]{}: code 0x3a5-0x3ae.7 (10)
0x3a0|               09                              |     .          |            size: 9 0x3a5-0x3a5.7 (1)
     |                                               |                |            code{}: 0x3a6-0x3ae.7 (9)
     |                                               |                |              locals{}: 0x3a6-0x3a6.7 (1)
0x3a0|                  00                           |      .         |                n: 0 0x3a6-0x3a6.7 (1)
     |                                               |                |                items[0:0]: 0x3a7-NA (0)
     |                                               |                |              expr{}: 0x3a7-0x3ae.7 (8)
     |                                               |                |                instructions[0:5]: 0x3a7-0x3ae.7 (8)
     |                                               |                |                  [0]{}: instr 0x3a7-0x3a8.7 (2)
0x3a0|                     20                        |                |                    local.get: 0x20 (valid) 0x3a7-0x3a7.7 (1)
0x3a0|                        00                     |        .       |                    x: 0 0x3a8-0x3a8.7 (1)
     |                                               |                |                  [1]{}: instr 0x3a9-0x3aa.7 (2)
0x3a0|                           20                  |                |                    local.get: 0x20 (valid) 0x3a9-0x3a9.7 (1)
0x3a0|                              01               |          .     |                    x: 1 0x3aa-0x3aa.7 (1)
     |                                               |                |                  [2]{}: instr 0x3ab-0x3ac.7 (2)
0x3a0|                                 20            |                |                    local.get: 0x20 (valid) 0x3ab-0x3ab.7 (1)
0x3a0|                                    02         |            .   |                    x: 2 0x3ac-0x3ac.7 (1)
     |                                               |                |                  [3]{}: instr 0x3ad-0x3ad.7 (1)
0x3a0|                                       1b      |             .  |                    select: 0x1b (valid) 0x3ad-0x3ad.7 (1)
     |                                               |                |                  [4]{}: instr 0x3ae-0x3ae.7 (1)
0x3a0|                                          0b   |              . |                    end: 0xb (valid) 0x3ae-0x3ae.7 (1)
     |                                               |                |          [3]{}: code 0x3af-0x3b8.7 (10)
0x3a0|                                             09|               .|            size: 9 0x3af-0x3af.7 (1)
     |                                               |                |            code{}: 0x3b0-0x3b8.7 (9)
     |                                               |                |              locals{}: 0x3b0-0x3b0.7 (1)
0x3b0|00                                             |.               |                n: 0 0x3b0-0x3b0.7 (1)
     |                                               |                |                items[0:0]: 0x3b1-NA (0)
     |                                               |                |              expr{}: 0x3b1-0x3b8.7 (8)
     |                                               |                |                instructions[0:5]: 0x3b1-0x3b8.7 (8)
     |                                               |                |                  [0]{}: instr 0x3b1-0x3b2.7 (2)
0x3b0|   20                                          |                |                    local.get: 0x20 (valid) 0x3b1-0x3b1.7 (1)
0x3b0|      00                                       |  .             |                    x: 0 0x3b2-0x3b2.7 (1)
     |                                               |                |                  [1]{}: instr 0x3b3-0x3b4.7 (2)
0x3b0|         20                                    |                |                    local.get: 0x20 (valid) 0x3b3-0x3b3.7 (1)
0x3b0|            01                                 |    .           |                    x: 1 0x3b4-0x3b4.7 (1)
     |                                               |                |                  [2]{}: instr 0x3b5-0x3b6.7 (2)
0x3b0|               20                              |                |                    local.get: 0x20 (valid) 0x3b5-0x3b5.7 (1)
0x3b0|                  02                           |      .         |                    x: 2 0x3b6-0x3b6.7 (1)
     |                                               |                |                  [3]{}: instr 0x3b7-0x3b7.7 (1)
0x3b0|                     1b                        |       .        |                    select: 0x1b (valid) 0x3b7-0x3b7.7 (1)
     |                                               |                |                  [4]{}: instr 0x3b8-0x3b8.7 (1)
0x3b0|                        0b                     |        .       |                    end: 0xb (valid) 0x3b8-0x3b8.7 (1)
     |                                               |                |          [4]{}: code 0x3b9-0x3c2.7 (10)
0x3b0|                           09                  |         .      |            size: 9 0x3b9-0x3b9.7 (1)
     |                                               |                |            code{}: 0x3ba-0x3c2.7 (9)
     |                                               |                |              locals{}: 0x3ba-0x3ba.7 (1)
0x3b0|                              00               |          .     |                n: 0 0x3ba-0x3ba.7 (1)
     |                                               |                |                items[0:0]: 0x3bb-NA (0)
     |                                               |                |              expr{}: 0x3bb-0x3c2.7 (8)
     |                                               |                |                instructions[0:5]: 0x3bb-0x3c2.7 (8)
     |                                               |                |                  [0]{}: instr 0x3bb-0x3bc.7 (2)
0x3b0|                                 20            |                |                    local.get: 0x20 (valid) 0x3bb-0x3bb.7 (1)
0x3b0|                                    00         |            .   |                    x: 0 0x3bc-0x3bc.7 (1)
     |                                               |                |                  [1]{}: instr 0x3bd-0x3be.7 (2)
0x3b0|                                       20      |                |                    local.get: 0x20 (valid) 0x3bd-0x3bd.7 (1)
0x3b0|                                          01   |              . |                    x: 1 0x3be-0x3be.7 (1)
     |                                               |                |                  [2]{}: instr 0x3bf-0x3c0.7 (2)
0x3b0|                                             20|                |                    local.get: 0x20 (valid) 0x3bf-0x3bf.7 (1)
0x3c0|02                                             |.               |                    x: 2 0x3c0-0x3c0.7 (1)
     |                                               |                |                  [3]{}: instr 0x3c1-0x3c1.7 (1)
0x3c0|   1b                                          | .              |                    select: 0x1b (valid) 0x3c1-0x3c1.7 (1)
     |                                               |                |                  [4]{}: instr 0x3c2-0x3c2.7 (1)
0x3c0|      0b                                       |  .             |                    end: 0xb (valid) 0x3c2-0x3c2.7 (1)
     |                                               |                |          [5]{}: code 0x3c3-0x3ce.7 (12)
0x3c0|         0b                                    |   .            |            size: 11 0x3c3-0x3c3.7 (1)
     |                                               |                |            code{}: 0x3c4-0x3ce.7 (11)
     |                                               |                |              locals{}: 0x3c4-0x3c4.7 (1)
0x3c0|            00                                 |    .           |                n: 0 0x3c4-0x3c4.7 (1)
     |                                               |                |                items[0:0]: 0x3c5-NA (0)
     |                                               |                |              expr{}: 0x3c5-0x3ce.7 (10)
     |                                               |                |                instructions[0:5]: 0x3c5-0x3ce.7 (10)
     |                                               |                |                  [0]{}: instr 0x3c5-0x3c6.7 (2)
0x3c0|               20                              |                |                    local.get: 0x20 (valid) 0x3c5-0x3c5.7 (1)
0x3c0|                  00                           |      .         |                    x: 0 0x3c6-0x3c6.7 (1)
     |                                               |                |                  [1]{}: instr 0x3c7-0x3c8.7 (2)
0x3c0|                     20                        |                |                    local.get: 0x20 (valid) 0x3c7-0x3c7.7 (1)
0x3c0|                        01                     |        .       |                    x: 1 0x3c8-0x3c8.7 (1)
     |                                               |                |                  [2]{}: instr 0x3c9-0x3ca.7 (2)
0x3c0|                           20                  |                |                    local.get: 0x20 (valid) 0x3c9-0x3c9.7 (1)
0x3c0|                              02               |          .     |                    x: 2 0x3ca-0x3ca.7 (1)
     |                                               |                |                  [3]{}: instr 0x3cb-0x3cd.7 (3)
0x3c0|                                 1c            |           .    |                    select: 0x1c (valid) 0x3cb-0x3cb.7 (1)
0x3c0|                                    01         |            .   |                    n: 1 0x3cc-0x3cc.7 (1)
     |                                               |                |                    items[0:1]: 0x3cd-0x3cd.7 (1)
0x3c0|                                       7f      |             .  |                      [0]: "i32" (127) valtype 0x3cd-0x3cd.7 (1)
     |                                               |                |                  [4]{}: instr 0x3ce-0x3ce.7 (1)
0x3c0|                                          0b   |              . |                    end: 0xb (valid) 0x3ce-0x3ce.7 (1)
     |                                               |                |          [6]{}: code 0x3cf-0x3da.7 (12)
0x3c0|                                             0b|               .|            size: 11 0x3cf-0x3cf.7 (1)
     |                                               |                |            code{}: 0x3d0-0x3da.7 (11)
     |                                               |                |              locals{}: 0x3d0-0x3d0.7 (1)
0x3d0|00                                             |.               |                n: 0 0x3d0-0x3d0.7 (1)
     |                                               |                |                items[0:0]: 0x3d1-NA (0)
     |                                               |                |              expr{}: 0x3d1-0x3da.7 (10)
     |                                               |                |                instructions[0:5]: 0x3d1-0x3da.7 (10)
     |                                               |                |                  [0]{}: instr 0x3d1-0x3d2.7 (2)
0x3d0|   20                                          |                |                    local.get: 0x20 (valid) 0x3d1-0x3d1.7 (1)
0x3d0|      00                                       |  .             |                    x: 0 0x3d2-0x3d2.7 (1)
     |                                               |                |                  [1]{}: instr 0x3d3-0x3d4.7 (2)
0x3d0|         20                                    |                |                    local.get: 0x20 (valid) 0x3d3-0x3d3.7 (1)
0x3d0|            01                                 |    .           |                    x: 1 0x3d4-0x3d4.7 (1)
     |                                               |                |                  [2]{}: instr 0x3d5-0x3d6.7 (2)
0x3d0|               20                              |                |                    local.get: 0x20 (valid) 0x3d5-0x3d5.7 (1)
0x3d0|                  02                           |      .         |                    x: 2 0x3d6-0x3d6.7 (1)
     |                                               |                |                  [3]{}: instr 0x3d7-0x3d9.7 (3)
0x3d0|                     1c                        |       .        |                    select: 0x1c (valid) 0x3d7-0x3d7.7 (1)
0x3d0|                        01                     |        .       |                    n: 1 0x3d8-0x3d8.7 (1)
     |                                               |                |                    items[0:1]: 0x3d9-0x3d9.7 (1)
0x3d0|                           7e                  |         ~      |                      [0]: "i64" (126) valtype 0x3d9-0x3d9.7 (1)
     |                                               |                |                  [4]{}: instr 0x3da-0x3da.7 (1)
0x3d0|                              0b               |          .     |                    end: 0xb (valid) 0x3da-0x3da.7 (1)
     |                                               |                |          [7]{}: code 0x3db-0x3e6.7 (12)
0x3d0|                                 0b            |           .    |            size: 11 0x3db-0x3db.7 (1)
     |                                               |                |            code{}: 0x3dc-0x3e6.7 (11)
     |                                               |                |              locals{}: 0x3dc-0x3dc.7 (1)
0x3d0|                                    00         |            .   |                n: 0 0x3dc-0x3dc.7 (1)
     |                                               |                |                items[0:0]: 0x3dd-NA (0)
     |                                               |                |              expr{}: 0x3dd-0x3e6.7 (10)
     |                                               |                |                instructions[0:5]: 0x3dd-0x3e6.7 (10)
     |                                               |                |                  [0]{}: instr 0x3dd-0x3de.7 (2)
0x3d0|                                       20      |                |                    local.get: 0x20 (valid) 0x3dd-0x3dd.7 (1)
0x3d0|                                          00   |              . |                    x: 0 0x3de-0x3de.7 (1)
     |                                               |                |                  [1]{}: instr 0x3df-0x3e0.7 (2)
0x3d0|                                             20|                |                    local.get: 0x20 (valid) 0x3df-0x3df.7 (1)
0x3e0|01                                             |.               |                    x: 1 0x3e0-0x3e0.7 (1)
     |                                               |                |                  [2]{}: instr 0x3e1-0x3e2.7 (2)
0x3e0|   20                                          |                |                    local.get: 0x20 (valid) 0x3e1-0x3e1.7 (1)
0x3e0|      02                                       |  .             |                    x: 2 0x3e2-0x3e2.7 (1)
     |                                               |                |                  [3]{}: instr 0x3e3-0x3e5.7 (3)
0x3e0|         1c                                    |   .            |                    select: 0x1c (valid) 0x3e3-0x3e3.7 (1)
0x3e0|            01                                 |    .           |                    n: 1 0x3e4-0x3e4.7 (1)
     |                                               |                |                    items[0:1]: 0x3e5-0x3e5.7 (1)
0x3e0|               7d                              |     }          |                      [0]: "f32" (125) valtype 0x3e5-0x3e5.7 (1)
     |                                               |                |                  [4]{}: instr 0x3e6-0x3e6.7 (1)
0x3e0|                  0b                           |      .         |                    end: 0xb (valid) 0x3e6-0x3e6.7 (1)
     |                                               |                |          [8]{}: code 0x3e7-0x3f2.7 (12)
0x3e0|                     0b                        |       .        |            size: 11 0x3e7-0x3e7.7 (1)
     |                                               |                |            code{}: 0x3e8-0x3f2.7 (11)
     |                                               |                |              locals{}: 0x3e8-0x3e8.7 (1)
0x3e0|                        00                     |        .       |                n: 0 0x3e8-0x3e8.7 (1)
     |                                               |                |                items[0:0]: 0x3e9-NA (0)
     |                                               |                |              expr{}: 0x3e9-0x3f2.7 (10)
     |                                               |                |                instructions[0:5]: 0x3e9-0x3f2.7 (10)
     |                                               |                |                  [0]{}: instr 0x3e9-0x3ea.7 (2)
0x3e0|                           20                  |                |                    local.get: 0x20 (valid) 0x3e9-0x3e9.7 (1)
0x3e0|                              00               |          .     |                    x: 0 0x3ea-0x3ea.7 (1)
     |                                               |                |                  [1]{}: instr 0x3eb-0x3ec.7 (2)
0x3e0|                                 20            |                |                    local.get: 0x20 (valid) 0x3eb-0x3eb.7 (1)
0x3e0|                                    01         |            .   |                    x: 1 0x3ec-0x3ec.7 (1)
     |                                               |                |                  [2]{}: instr 0x3ed-0x3ee.7 (2)
0x3e0|                                       20      |                |                    local.get: 0x20 (valid) 0x3ed-0x3ed.7 (1)
0x3e0|                                          02   |              . |                    x: 2 0x3ee-0x3ee.7 (1)
     |                                               |                |                  [3]{}: instr 0x3ef-0x3f1.7 (3)
0x3e0|                                             1c|               .|                    select: 0x1c (valid) 0x3ef-0x3ef.7 (1)
0x3f0|01                                             |.               |                    n: 1 0x3f0-0x3f0.7 (1)
     |                                               |                |                    items[0:1]: 0x3f1-0x3f1.7 (1)
0x3f0|   7c                                          | |              |                      [0]: "f64" (124) valtype 0x3f1-0x3f1.7 (1)
     |                                               |                |                  [4]{}: instr 0x3f2-0x3f2.7 (1)
0x3f0|      0b                                       |  .             |                    end: 0xb (valid) 0x3f2-0x3f2.7 (1)
     |                                               |                |          [9]{}: code 0x3f3-0x3fe.7 (12)
0x3f0|         0b                                    |   .            |            size: 11 0x3f3-0x3f3.7 (1)
     |                                               |                |            code{}: 0x3f4-0x3fe.7 (11)
     |                                               |                |              locals{}: 0x3f4-0x3f4.7 (1)
0x3f0|            00                                 |    .           |                n: 0 0x3f4-0x3f4.7 (1)
     |                                               |                |                items[0:0]: 0x3f5-NA (0)
     |                                               |                |              expr{}: 0x3f5-0x3fe.7 (10)
     |                                               |                |                instructions[0:5]: 0x3f5-0x3fe.7 (10)
     |                                               |                |                  [0]{}: instr 0x3f5-0x3f6.7 (2)
0x3f0|               20                              |                |                    local.get: 0x20 (valid) 0x3f5-0x3f5.7 (1)
0x3f0|                  00                           |      .         |                    x: 0 0x3f6-0x3f6.7 (1)
     |                                               |                |                  [1]{}: instr 0x3f7-0x3f8.7 (2)
0x3f0|                     20                        |                |                    local.get: 0x20 (valid) 0x3f7-0x3f7.7 (1)
0x3f0|                        01                     |        .       |                    x: 1 0x3f8-0x3f8.7 (1)
     |                                               |                |                  [2]{}: instr 0x3f9-0x3fa.7 (2)
0x3f0|                           20                  |                |                    local.get: 0x20 (valid) 0x3f9-0x3f9.7 (1)
0x3f0|                              02               |          .     |                    x: 2 0x3fa-0x3fa.7 (1)
     |                                               |                |                  [3]{}: instr 0x3fb-0x3fd.7 (3)
0x3f0|                                 1c            |           .    |                    select: 0x1c (valid) 0x3fb-0x3fb.7 (1)
0x3f0|                                    01         |            .   |                    n: 1 0x3fc-0x3fc.7 (1)
     |                                               |                |                    items[0:1]: 0x3fd-0x3fd.7 (1)
0x3f0|                                       70      |             p  |                      [0]: "funcref" (112) valtype 0x3fd-0x3fd.7 (1)
     |                                               |                |                  [4]{}: instr 0x3fe-0x3fe.7 (1)
0x3f0|                                          0b   |              . |                    end: 0xb (valid) 0x3fe-0x3fe.7 (1)
     |                                               |                |          [10]{}: code 0x3ff-0x40a.7 (12)
0x3f0|                                             0b|               .|            size: 11 0x3ff-0x3ff.7 (1)
     |                                               |                |            code{}: 0x400-0x40a.7 (11)
     |                                               |                |              locals{}: 0x400-0x400.7 (1)
0x400|00                                             |.               |                n: 0 0x400-0x400.7 (1)
     |                                               |                |                items[0:0]: 0x401-NA (0)
     |                                               |                |              expr{}: 0x401-0x40a.7 (10)
     |                                               |                |                instructions[0:5]: 0x401-0x40a.7 (10)
     |                                               |                |                  [0]{}: instr 0x401-0x402.7 (2)
0x400|   20                                          |                |                    local.get: 0x20 (valid) 0x401-0x401.7 (1)
0x400|      00                                       |  .             |                    x: 0 0x402-0x402.7 (1)
     |                                               |                |                  [1]{}: instr 0x403-0x404.7 (2)
0x400|         20                                    |                |                    local.get: 0x20 (valid) 0x403-0x403.7 (1)
0x400|            01                                 |    .           |                    x: 1 0x404-0x404.7 (1)
     |                                               |                |                  [2]{}: instr 0x405-0x406.7 (2)
0x400|               20                              |                |                    local.get: 0x20 (valid) 0x405-0x405.7 (1)
0x400|                  02                           |      .         |                    x: 2 0x406-0x406.7 (1)
     |                                               |                |                  [3]{}: instr 0x407-0x409.7 (3)
0x400|                     1c                        |       .        |                    select: 0x1c (valid) 0x407-0x407.7 (1)
0x400|                        01                     |        .       |                    n: 1 0x408-0x408.7 (1)
     |                                               |                |                    items[0:1]: 0x409-0x409.7 (1)
0x400|                           6f                  |         o      |                      [0]: "externref" (111) valtype 0x409-0x409.7 (1)
     |                                               |                |                  [4]{}: instr 0x40a-0x40a.7 (1)
0x400|                              0b               |          .     |                    end: 0xb (valid) 0x40a-0x40a.7 (1)
     |                                               |                |          [11]{}: code 0x40b-0x419.7 (15)
0x400|                                 0e            |           .    |            size: 14 0x40b-0x40b.7 (1)
     |                                               |                |            code{}: 0x40c-0x419.7 (14)
     |                                               |                |              locals{}: 0x40c-0x40c.7 (1)
0x400|                                    00         |            .   |                n: 0 0x40c-0x40c.7 (1)
     |                                               |                |                items[0:0]: 0x40d-NA (0)
     |                                               |                |              expr{}: 0x40d-0x419.7 (13)
     |                                               |                |                instructions[0:8]: 0x40d-0x419.7 (13)
     |                                               |                |                  [0]{}: instr 0x40d-0x40e.7 (2)
0x400|                                       41      |             A  |                    i32.const: 0x41 (valid) 0x40d-0x40d.7 (1)
0x400|                                          00   |              . |                    n: 0 0x40e-0x40e.7 (1)
     |                                               |                |                  [1]{}: instr 0x40f-0x410.7 (2)
0x400|                                             41|               A|                    i32.const: 0x41 (valid) 0x40f-0x40f.7 (1)
0x410|01                                             |.               |                    n: 1 0x410-0x410.7 (1)
     |                                               |                |                  [2]{}: instr 0x411-0x412.7 (2)
0x410|   20                                          |                |                    local.get: 0x20 (valid) 0x411-0x411.7 (1)
0x410|      00                                       |  .             |                    x: 0 0x412-0x412.7 (1)
     |                                               |                |                  [3]{}: instr 0x413-0x413.7 (1)
0x410|         1b                                    |   .            |                    select: 0x1b (valid) 0x413-0x413.7 (1)
     |                                               |                |                  [4]{}: instr 0x414-0x415.7 (2)
0x410|            41                                 |    A           |                    i32.const: 0x41 (valid) 0x414-0x414.7 (1)
0x410|               02                              |     .          |                    n: 2 0x415-0x415.7 (1)
     |                                               |                |                  [5]{}: instr 0x416-0x417.7 (2)
0x410|                  41                           |      A         |                    i32.const: 0x41 (valid) 0x416-0x416.7 (1)
0x410|                     03                        |       .        |                    n: 3 0x417-0x417.7 (1)
     |                                               |                |                  [6]{}: instr 0x418-0x418.7 (1)
0x410|                        1b                     |        .       |                    select: 0x1b (valid) 0x418-0x418.7 (1)
     |                                               |                |                  [7]{}: instr 0x419-0x419.7 (1)
0x410|                           0b                  |         .      |                    end: 0xb (valid) 0x419-0x419.7 (1)
     |                                               |                |          [12]{}: code 0x41a-0x428.7 (15)
0x410|                              0e               |          .     |            size: 14 0x41a-0x41a.7 (1)
     |                                               |                |            code{}: 0x41b-0x428.7 (14)
     |                                               |                |              locals{}: 0x41b-0x41b.7 (1)
0x410|                                 00            |           .    |                n: 0 0x41b-0x41b.7 (1)
     |                                               |                |                items[0:0]: 0x41c-NA (0)
     |                                               |                |              expr{}: 0x41c-0x428.7 (13)
     |                                               |                |                instructions[0:8]: 0x41c-0x428.7 (13)
     |                                               |                |                  [0]{}: instr 0x41c-0x41d.7 (2)
0x410|                                    41         |            A   |                    i32.const: 0x41 (valid) 0x41c-0x41c.7 (1)
0x410|                                       02      |             .  |                    n: 2 0x41d-0x41d.7 (1)
     |                                               |                |                  [1]{}: instr 0x41e-0x41f.7 (2)
0x410|                                          41   |              A |                    i32.const: 0x41 (valid) 0x41e-0x41e.7 (1)
0x410|                                             00|               .|                    n: 0 0x41f-0x41f.7 (1)
     |                                               |                |                  [2]{}: instr 0x420-0x421.7 (2)
0x420|41                                             |A               |                    i32.const: 0x41 (valid) 0x420-0x420.7 (1)
0x420|   01                                          | .              |                    n: 1 0x421-0x421.7 (1)
     |                                               |                |                  [3]{}: instr 0x422-0x423.7 (2)
0x420|      20                                       |                |                    local.get: 0x20 (valid) 0x422-0x422.7 (1)
0x420|         00                                    |   .            |                    x: 0 0x423-0x423.7 (1)
     |                                               |                |                  [4]{}: instr 0x424-0x424.7 (1)
0x420|            1b                                 |    .           |                    select: 0x1b (valid) 0x424-0x424.7 (1)
     |                                               |                |                  [5]{}: instr 0x425-0x426.7 (2)
0x420|               41                              |     A          |                    i32.const: 0x41 (valid) 0x425-0x425.7 (1)
0x420|                  03                           |      .         |                    n: 3 0x426-0x426.7 (1)
     |                                               |                |                  [6]{}: instr 0x427-0x427.7 (1)
0x420|                     1b                        |       .        |                    select: 0x1b (valid) 0x427-0x427.7 (1)
     |                                               |                |                  [7]{}: instr 0x428-0x428.7 (1)
0x420|                        0b                     |        .       |                    end: 0xb (valid) 0x428-0x428.7 (1)
     |                                               |                |          [13]{}: code 0x429-0x437.7 (15)
0x420|                           0e                  |         .      |            size: 14 0x429-0x429.7 (1)
     |                                               |                |            code{}: 0x42a-0x437.7 (14)
     |                                               |                |              locals{}: 0x42a-0x42a.7 (1)
0x420|                              00               |          .     |                n: 0 0x42a-0x42a.7 (1)
     |                                               |                |                items[0:0]: 0x42b-NA (0)
     |                                               |                |              expr{}: 0x42b-0x437.7 (13)
     |                                               |                |                instructions[0:8]: 0x42b-0x437.7 (13)
     |                                               |                |                  [0]{}: instr 0x42b-0x42c.7 (2)
0x420|                                 41            |           A    |                    i32.const: 0x41 (valid) 0x42b-0x42b.7 (1)
0x420|                                    02         |            .   |                    n: 2 0x42c-0x42c.7 (1)
     |                                               |                |                  [1]{}: instr 0x42d-0x42e.7 (2)
0x420|                                       41      |             A  |                    i32.const: 0x41 (valid) 0x42d-0x42d.7 (1)
0x420|                                          03   |              . |                    n: 3 0x42e-0x42e.7 (1)
     |                                               |                |                  [2]{}: instr 0x42f-0x430.7 (2)
0x420|                                             41|               A|                    i32.const: 0x41 (valid) 0x42f-0x42f.7 (1)
0x430|00                                             |.               |                    n: 0 0x430-0x430.7 (1)
     |                                               |                |                  [3]{}: instr 0x431-0x432.7 (2)
0x430|   41                                          | A              |                    i32.const: 0x41 (valid) 0x431-0x431.7 (1)
0x430|      01                                       |  .             |                    n: 1 0x432-0x432.7 (1)
     |                                               |                |                  [4]{}: instr 0x433-0x434.7 (2)
0x430|         20                                    |                |                    local.get: 0x20 (valid) 0x433-0x433.7 (1)
0x430|            00                                 |    .           |                    x: 0 0x434-0x434.7 (1)
     |                                               |                |                  [5]{}: instr 0x435-0x435.7 (1)
0x430|               1b                              |     .          |                    select: 0x1b (valid) 0x435-0x435.7 (1)
     |                                               |                |                  [6]{}: instr 0x436-0x436.7 (1)
0x430|                  1b                           |      .         |                    select: 0x1b (valid) 0x436-0x436.7 (1)
     |                                               |                |                  [7]{}: instr 0x437-0x437.7 (1)
0x430|                     0b                        |       .        |                    end: 0xb (valid) 0x437-0x437.7 (1)
     |                                               |                |          [14]{}: code 0x438-0x448.7 (17)
0x430|                        10                     |        .       |            size: 16 0x438-0x438.7 (1)
     |                                               |                |            code{}: 0x439-0x448.7 (16)
     |                                               |                |              locals{}: 0x439-0x439.7 (1)
0x430|                           00                  |         .      |                n: 0 0x439-0x439.7 (1)
     |                                               |                |                items[0:0]: 0x43a-NA (0)
     |                                               |                |              expr{}: 0x43a-0x448.7 (15)
     |                                               |                |                instructions[0:2]: 0x43a-0x448.7 (15)
     |                                               |                |                  [0]{}: instr 0x43a-0x447.7 (14)
0x430|                              03               |          .     |                    loop: 0x3 (valid) 0x43a-0x43a.7 (1)
0x430|                                 7f            |           .    |                    valtype: "i32" (127) 0x43b-0x43b.7 (1)
     |                                               |                |                    instructions[0:6]: 0x43c-0x446.7 (11)
     |                                               |                |                      [0]{}: instr 0x43c-0x43d.7 (2)
0x430|                                    41         |            A   |                        i32.const: 0x41 (valid) 0x43c-0x43c.7 (1)
0x430|                                       02      |             .  |                        n: 2 0x43d-0x43d.7 (1)
     |                                               |                |                      [1]{}: instr 0x43e-0x43f.7 (2)
0x430|                                          41   |              A |                        i32.const: 0x41 (valid) 0x43e-0x43e.7 (1)
0x430|                                             03|               .|                        n: 3 0x43f-0x43f.7 (1)
     |                                               |                |                      [2]{}: instr 0x440-0x441.7 (2)
0x440|20                                             |                |                        local.get: 0x20 (valid) 0x440-0x440.7 (1)
0x440|   00                                          | .              |                        x: 0 0x441-0x441.7 (1)
     |                                               |                |                      [3]{}: instr 0x442-0x442.7 (1)
0x440|      1b                                       |  .             |                        select: 0x1b (valid) 0x442-0x442.7 (1)
     |                                               |                |                      [4]{}: instr 0x443-0x444.7 (2)
0x440|         10                                    |   .            |                        call: 0x10 (valid) 0x443-0x443.7 (1)
0x440|            00                                 |    .           |                        x: 0 0x444-0x444.7 (1)
     |                                               |                |                      [5]{}: instr 0x445-0x446.7 (2)
0x440|               10                              |     .          |                        call: 0x10 (valid) 0x445-0x445.7 (1)
0x440|                  00                           |      .         |                        x: 0 0x446-0x446.7 (1)
0x440|                     0b                        |       .        |                    end: 11 (valid) 0x447-0x447.7 (1)
     |                                               |                |                  [1]{}: instr 0x448-0x448.7 (1)
0x440|                        0b                     |        .       |                    end: 0xb (valid) 0x448-0x448.7 (1)
     |                                               |                |          [15]{}: code 0x449-0x459.7 (17)
0x440|                           10                  |         .      |            size: 16 0x449-0x449.7 (1)
     |                                               |                |            code{}: 0x44a-0x459.7 (16)
     |                                               |                |              locals{}: 0x44a-0x44a.7 (1)
0x440|                              00               |          .     |                n: 0 0x44a-0x44a.7 (1)
     |                                               |                |                items[0:0]: 0x44b-NA (0)
     |                                               |                |              expr{}: 0x44b-0x459.7 (15)
     |                                               |                |                instructions[0:2]: 0x44b-0x459.7 (15)
     |                                               |                |                  [0]{}: instr 0x44b-0x458.7 (14)
0x440|                                 03            |           .    |                    loop: 0x3 (valid) 0x44b-0x44b.7 (1)
0x440|                                    7f         |            .   |                    valtype: "i32" (127) 0x44c-0x44c.7 (1)
     |                                               |                |                    instructions[0:6]: 0x44d-0x457.7 (11)
     |                                               |                |                      [0]{}: instr 0x44d-0x44e.7 (2)
0x440|                                       10      |             .  |                        call: 0x10 (valid) 0x44d-0x44d.7 (1)
0x440|                                          00   |              . |                        x: 0 0x44e-0x44e.7 (1)
     |                                               |                |                      [1]{}: instr 0x44f-0x450.7 (2)
0x440|                                             41|               A|                        i32.const: 0x41 (valid) 0x44f-0x44f.7 (1)
0x450|02                                             |.               |                        n: 2 0x450-0x450.7 (1)
     |                                               |                |                      [2]{}: instr 0x451-0x452.7 (2)
0x450|   41                                          | A              |                        i32.const: 0x41 (valid) 0x451-0x451.7 (1)
0x450|      03                                       |  .             |                        n: 3 0x452-0x452.7 (1)
     |                                               |                |                      [3]{}: instr 0x453-0x454.7 (2)
0x450|         20                                    |                |                        local.get: 0x20 (valid) 0x453-0x453.7 (1)
0x450|            00                                 |    .           |                        x: 0 0x454-0x454.7 (1)
     |                                               |                |                      [4]{}: instr 0x455-0x455.7 (1)
0x450|               1b                              |     .          |                        select: 0x1b (valid) 0x455-0x455.7 (1)
     |                                               |                |                      [5]{}: instr 0x456-0x457.7 (2)
0x450|                  10                           |      .         |                        call: 0x10 (valid) 0x456-0x456.7 (1)
0x450|                     00                        |       .        |                        x: 0 0x457-0x457.7 (1)
0x450|                        0b                     |        .       |                    end: 11 (valid) 0x458-0x458.7 (1)
     |                                               |                |                  [1]{}: instr 0x459-0x459.7 (1)
0x450|                           0b                  |         .      |                    end: 0xb (valid) 0x459-0x459.7 (1)
     |                                               |                |          [16]{}: code 0x45a-0x46a.7 (17)
0x450|                              10               |          .     |            size: 16 0x45a-0x45a.7 (1)
     |                                               |                |            code{}: 0x45b-0x46a.7 (16)
     |                                               |                |              locals{}: 0x45b-0x45b.7 (1)
0x450|                                 00            |           .    |                n: 0 0x45b-0x45b.7 (1)
     |                                               |                |                items[0:0]: 0x45c-NA (0)
     |                                               |                |              expr{}: 0x45c-0x46a.7 (15)
     |                                               |                |                instructions[0:2]: 0x45c-0x46a.7 (15)
     |                                               |                |                  [0]{}: instr 0x45c-0x469.7 (14)
0x450|                                    03         |            .   |                    loop: 0x3 (valid) 0x45c-0x45c.7 (1)
0x450|                                       7f      |             .  |                    valtype: "i32" (127) 0x45d-0x45d.7 (1)
     |                                               |                |                    instructions[0:6]: 0x45e-0x468.7 (11)
     |                                               |                |                      [0]{}: instr 0x45e-0x45f.7 (2)
0x450|                                          10   |              . |                        call: 0x10 (valid) 0x45e-0x45e.7 (1)
0x450|                                             00|               .|                        x: 0 0x45f-0x45f.7 (1)
     |                                               |                |                      [1]{}: instr 0x460-0x461.7 (2)
0x460|10                                             |.               |                        call: 0x10 (valid) 0x460-0x460.7 (1)
0x460|   00                                          | .              |                        x: 0 0x461-0x461.7 (1)
     |                                               |                |                      [2]{}: instr 0x462-0x463.7 (2)
0x460|      41                                       |  A             |                        i32.const: 0x41 (valid) 0x462-0x462.7 (1)
0x460|         02                                    |   .            |                        n: 2 0x463-0x463.7 (1)
     |                                               |                |                      [3]{}: instr 0x464-0x465.7 (2)
0x460|            41                                 |    A           |                        i32.const: 0x41 (valid) 0x464-0x464.7 (1)
0x460|               03                              |     .          |                        n: 3 0x465-0x465.7 (1)
     |                                               |                |                      [4]{}: instr 0x466-0x467.7 (2)
0x460|                  20                           |                |                        local.get: 0x20 (valid) 0x466-0x466.7 (1)
0x460|                     00                        |       .        |                        x: 0 0x467-0x467.7 (1)
     |                                               |                |                      [5]{}: instr 0x468-0x468.7 (1)
0x460|                        1b                     |        .       |                        select: 0x1b (valid) 0x468-0x468.7 (1)
0x460|                           0b                  |         .      |                    end: 11 (valid) 0x469-0x469.7 (1)
     |                                               |                |                  [1]{}: instr 0x46a-0x46a.7 (1)
0x460|                              0b               |          .     |                    end: 0xb (valid) 0x46a-0x46a.7 (1)
     |                                               |                |          [17]{}: code 0x46b-0x479.7 (15)
0x460|                                 0e            |           .    |            size: 14 0x46b-0x46b.7 (1)
     |                                               |                |            code{}: 0x46c-0x479.7 (14)
     |                                               |                |              locals{}: 0x46c-0x46c.7 (1)
0x460|                                    00         |            .   |                n: 0 0x46c-0x46c.7 (1)
     |                                               |                |                items[0:0]: 0x46d-NA (0)
     |                                               |                |              expr{}: 0x46d-0x479.7 (13)
     |                                               |                |                instructions[0:6]: 0x46d-0x479.7 (13)
     |                                               |                |                  [0]{}: instr 0x46d-0x46e.7 (2)
0x460|                                       41      |             A  |                    i32.const: 0x41 (valid) 0x46d-0x46d.7 (1)
0x460|                                          02   |              . |                    n: 2 0x46e-0x46e.7 (1)
     |                                               |                |                  [1]{}: instr 0x46f-0x470.7 (2)
0x460|                                             41|               A|                    i32.const: 0x41 (valid) 0x46f-0x46f.7 (1)
0x470|03                                             |.               |                    n: 3 0x470-0x470.7 (1)
     |                                               |                |                  [2]{}: instr 0x471-0x472.7 (2)
0x470|   20                                          |                |                    local.get: 0x20 (valid) 0x471-0x471.7 (1)
0x470|      00                                       |  .             |                    x: 0 0x472-0x472.7 (1)
     |                                               |                |                  [3]{}: instr 0x473-0x473.7 (1)
0x470|         1b                                    |   .            |                    select: 0x1b (valid) 0x473-0x473.7 (1)
     |                                               |                |                  [4]{}: instr 0x474-0x478.7 (5)
0x470|            04                                 |    .           |                    if: 0x4 (valid) 0x474-0x474.7 (1)
0x470|               40                              |     @          |                    empty: 64 0x475-0x475.7 (1)
     |                                               |                |                    in1[0:1]: 0x476-0x477.7 (2)
     |                                               |                |                      [0]{}: instr 0x476-0x477.7 (2)
0x470|                  10                           |      .         |                        call: 0x10 (valid) 0x476-0x476.7 (1)
0x470|                     00                        |       .        |                        x: 0 0x477-0x477.7 (1)
0x470|                        0b                     |        .       |                    end: 11 (valid) 0x478-0x478.7 (1)
     |                                               |                |                  [5]{}: instr 0x479-0x479.7 (1)
0x470|                           0b                  |         .      |                    end: 0xb (valid) 0x479-0x479.7 (1)
     |                                               |                |          [18]{}: code 0x47a-0x48b.7 (18)
0x470|                              11               |          .     |            size: 17 0x47a-0x47a.7 (1)
     |                                               |                |            code{}: 0x47b-0x48b.7 (17)
     |                                               |                |              locals{}: 0x47b-0x47b.7 (1)
0x470|                                 00            |           .    |                n: 0 0x47b-0x47b.7 (1)
     |                                               |                |                items[0:0]: 0x47c-NA (0)
     |                                               |                |              expr{}: 0x47c-0x48b.7 (16)
     |                                               |                |                instructions[0:3]: 0x47c-0x48b.7 (16)
     |                                               |                |                  [0]{}: instr 0x47c-0x47d.7 (2)
0x470|                                    41         |            A   |                    i32.const: 0x41 (valid) 0x47c-0x47c.7 (1)
0x470|                                       01      |             .  |                    n: 1 0x47d-0x47d.7 (1)
     |                                               |                |                  [1]{}: instr 0x47e-0x48a.7 (13)
0x470|                                          04   |              . |                    if: 0x4 (valid) 0x47e-0x47e.7 (1)
0x470|                                             7f|               .|                    valtype: "i32" (127) 0x47f-0x47f.7 (1)
     |                                               |                |                    in1[0:4]: 0x480-0x486.7 (7)
     |                                               |                |                      [0]{}: instr 0x480-0x481.7 (2)
0x480|41                                             |A               |                        i32.const: 0x41 (valid) 0x480-0x480.7 (1)
0x480|   02                                          | .              |                        n: 2 0x481-0x481.7 (1)
     |                                               |                |                      [1]{}: instr 0x482-0x483.7 (2)
0x480|      41                                       |  A             |                        i32.const: 0x41 (valid) 0x482-0x482.7 (1)
0x480|         03                                    |   .            |                        n: 3 0x483-0x483.7 (1)
     |                                               |                |                      [2]{}: instr 0x484-0x485.7 (2)
0x480|            20                                 |                |                        local.get: 0x20 (valid) 0x484-0x484.7 (1)
0x480|               00                              |     .          |                        x: 0 0x485-0x485.7 (1)
     |                                               |                |                      [3]{}: instr 0x486-0x486.7 (1)
0x480|                  1b                           |      .         |                        select: 0x1b (valid) 0x486-0x486.7 (1)
0x480|                     05                        |       .        |                    else: 0x5 (valid) 0x487-0x487.7 (1)
     |                                               |                |                    in2[0:1]: 0x488-0x489.7 (2)
     |                                               |                |                      [0]{}: instr 0x488-0x489.7 (2)
0x480|                        41                     |        A       |                        i32.const: 0x41 (valid) 0x488-0x488.7 (1)
0x480|                           04                  |         .      |                        n: 4 0x489-0x489.7 (1)
0x480|                              0b               |          .     |                    end: 11 (valid) 0x48a-0x48a.7 (1)
     |                                               |                |                  [2]{}: instr 0x48b-0x48b.7 (1)
0x480|                                 0b            |           .    |                    end: 0xb (valid) 0x48b-0x48b.7 (1)
     |                                               |                |          [19]{}: code 0x48c-0x49d.7 (18)
0x480|                                    11         |            .   |            size: 17 0x48c-0x48c.7 (1)
     |                                               |                |            code{}: 0x48d-0x49d.7 (17)
     |                                               |                |              locals{}: 0x48d-0x48d.7 (1)
0x480|                                       00      |             .  |                n: 0 0x48d-0x48d.7 (1)
     |                                               |                |                items[0:0]: 0x48e-NA (0)
     |                                               |                |              expr{}: 0x48e-0x49d.7 (16)
     |                                               |                |                instructions[0:3]: 0x48e-0x49d.7 (16)
     |                                               |                |                  [0]{}: instr 0x48e-0x48f.7 (2)
0x480|                                          41   |              A |                    i32.const: 0x41 (valid) 0x48e-0x48e.7 (1)
0x480|                                             00|               .|                    n: 0 0x48f-0x48f.7 (1)
     |                                               |                |                  [1]{}: instr 0x490-0x49c.7 (13)
0x490|04                                             |.               |                    if: 0x4 (valid) 0x490-0x490.7 (1)
0x490|   7f                                          | .              |                    valtype: "i32" (127) 0x491-0x491.7 (1)
     |                                               |                |                    in1[0:1]: 0x492-0x493.7 (2)
     |                                               |                |                      [0]{}: instr 0x492-0x493.7 (2)
0x490|      41                                       |  A             |                        i32.const: 0x41 (valid) 0x492-0x492.7 (1)
0x490|         02                                    |   .            |                        n: 2 0x493-0x493.7 (1)
0x490|            05                                 |    .           |                    else: 0x5 (valid) 0x494-0x494.7 (1)
     |                                               |                |                    in2[0:4]: 0x495-0x49b.7 (7)
     |                                               |                |                      [0]{}: instr 0x495-0x496.7 (2)
0x490|               41                              |     A          |                        i32.const: 0x41 (valid) 0x495-0x495.7 (1)
0x490|                  02                           |      .         |                        n: 2 0x496-0x496.7 (1)
     |                                               |                |                      [1]{}: instr 0x497-0x498.7 (2)
0x490|                     41                        |       A        |                        i32.const: 0x41 (valid) 0x497-0x497.7 (1)
0x490|                        03                     |        .       |                        n: 3 0x498-0x498.7 (1)
     |                                               |                |                      [2]{}: instr 0x499-0x49a.7 (2)
0x490|                           20                  |                |                        local.get: 0x20 (valid) 0x499-0x499.7 (1)
0x490|                              00               |          .     |                        x: 0 0x49a-0x49a.7 (1)
     |                                               |                |                      [3]{}: instr 0x49b-0x49b.7 (1)
0x490|                                 1b            |           .    |                        select: 0x1b (valid) 0x49b-0x49b.7 (1)
0x490|                                    0b         |            .   |                    end: 11 (valid) 0x49c-0x49c.7 (1)
     |                                               |                |                  [2]{}: instr 0x49d-0x49d.7 (1)
0x490|                                       0b      |             .  |                    end: 0xb (valid) 0x49d-0x49d.7 (1)
     |                                               |                |          [20]{}: code 0x49e-0x4ae.7 (17)
0x490|                                          10   |              . |            size: 16 0x49e-0x49e.7 (1)
     |                                               |                |            code{}: 0x49f-0x4ae.7 (16)
     |                                               |                |              locals{}: 0x49f-0x49f.7 (1)
0x490|                                             00|               .|                n: 0 0x49f-0x49f.7 (1)
     |                                               |                |                items[0:0]: 0x4a0-NA (0)
     |                                               |                |              expr{}: 0x4a0-0x4ae.7 (15)
     |                                               |                |                instructions[0:2]: 0x4a0-0x4ae.7 (15)
     |                                               |                |                  [0]{}: instr 0x4a0-0x4ad.7 (14)
0x4a0|02                                             |.               |                    block: 0x2 (valid) 0x4a0-0x4a0.7 (1)
0x4a0|   7f                                          | .              |                    valtype: "i32" (127) 0x4a1-0x4a1.7 (1)
     |                                               |                |                    instructions[0:6]: 0x4a2-0x4ac.7 (11)
     |                                               |                |                      [0]{}: instr 0x4a2-0x4a3.7 (2)
0x4a0|      41                                       |  A             |                        i32.const: 0x41 (valid) 0x4a2-0x4a2.7 (1)
0x4a0|         02                                    |   .            |                        n: 2 0x4a3-0x4a3.7 (1)
     |                                               |                |                      [1]{}: instr 0x4a4-0x4a5.7 (2)
0x4a0|            41                                 |    A           |                        i32.const: 0x41 (valid) 0x4a4-0x4a4.7 (1)
0x4a0|               03                              |     .          |                        n: 3 0x4a5-0x4a5.7 (1)
     |                                               |                |                      [2]{}: instr 0x4a6-0x4a7.7 (2)
0x4a0|                  20                           |                |                        local.get: 0x20 (valid) 0x4a6-0x4a6.7 (1)
0x4a0|                     00                        |       .        |                        x: 0 0x4a7-0x4a7.7 (1)
     |                                               |                |                      [3]{}: instr 0x4a8-0x4a8.7 (1)
0x4a0|                        1b                     |        .       |                        select: 0x1b (valid) 0x4a8-0x4a8.7 (1)
     |                                               |                |                      [4]{}: instr 0x4a9-0x4aa.7 (2)
0x4a0|                           41                  |         A      |                        i32.const: 0x41 (valid) 0x4a9-0x4a9.7 (1)
0x4a0|                              04               |          .     |                        n: 4 0x4aa-0x4aa.7 (1)
     |                                               |                |                      [5]{}: instr 0x4ab-0x4ac.7 (2)
0x4a0|                                 0d            |           .    |                        br_if: 0xd (valid) 0x4ab-0x4ab.7 (1)
0x4a0|                                    00         |            .   |                        l: 0 0x4ac-0x4ac.7 (1)
0x4a0|                                       0b      |             .  |                    end: 11 (valid) 0x4ad-0x4ad.7 (1)
     |                                               |                |                  [1]{}: instr 0x4ae-0x4ae.7 (1)
0x4a0|                                          0b   |              . |                    end: 0xb (valid) 0x4ae-0x4ae.7 (1)
     |                                               |                |          [21]{}: code 0x4af-0x4bf.7 (17)
0x4a0|                                             10|               .|            size: 16 0x4af-0x4af.7 (1)
     |                                               |                |            code{}: 0x4b0-0x4bf.7 (16)
     |                                               |                |              locals{}: 0x4b0-0x4b0.7 (1)
0x4b0|00                                             |.               |                n: 0 0x4b0-0x4b0.7 (1)
     |                                               |                |                items[0:0]: 0x4b1-NA (0)
     |                                               |                |              expr{}: 0x4b1-0x4bf.7 (15)
     |                                               |                |                instructions[0:2]: 0x4b1-0x4bf.7 (15)
     |                                               |                |                  [0]{}: instr 0x4b1-0x4be.7 (14)
0x4b0|   02                                          | .              |                    block: 0x2 (valid) 0x4b1-0x4b1.7 (1)
0x4b0|      7f                                       |  .             |                    valtype: "i32" (127) 0x4b2-0x4b2.7 (1)
     |                                               |                |                    instructions[0:6]: 0x4b3-0x4bd.7 (11)
     |                                               |                |                      [0]{}: instr 0x4b3-0x4b4.7 (2)
0x4b0|         41                                    |   A            |                        i32.const: 0x41 (valid) 0x4b3-0x4b3.7 (1)
0x4b0|            02                                 |    .           |                        n: 2 0x4b4-0x4b4.7 (1)
     |                                               |                |                      [1]{}: instr 0x4b5-0x4b6.7 (2)
0x4b0|               41                              |     A          |                        i32.const: 0x41 (valid) 0x4b5-0x4b5.7 (1)
0x4b0|                  02                           |      .         |                        n: 2 0x4b6-0x4b6.7 (1)
     |                                               |                |                      [2]{}: instr 0x4b7-0x4b8.7 (2)
0x4b0|                     41                        |       A        |                        i32.const: 0x41 (valid) 0x4b7-0x4b7.7 (1)
0x4b0|                        03                     |        .       |                        n: 3 0x4b8-0x4b8.7 (1)
     |                                               |                |                      [3]{}: instr 0x4b9-0x4ba.7 (2)
0x4b0|                           20                  |                |                        local.get: 0x20 (valid) 0x4b9-0x4b9.7 (1)
0x4b0|                              00               |          .     |                        x: 0 0x4ba-0x4ba.7 (1)
     |                                               |                |                      [4]{}: instr 0x4bb-0x4bb.7 (1)
0x4b0|                                 1b            |           .    |                        select: 0x1b (valid) 0x4bb-0x4bb.7 (1)
     |                                               |                |                      [5]{}: instr 0x4bc-0x4bd.7 (2)
0x4b0|                                    0d         |            .   |                        br_if: 0xd (valid) 0x4bc-0x4bc.7 (1)
0x4b0|                                       00      |             .  |                        l: 0 0x4bd-0x4bd.7 (1)
0x4b0|                                          0b   |              . |                    end: 11 (valid) 0x4be-0x4be.7 (1)
     |                                               |                |                  [1]{}: instr 0x4bf-0x4bf.7 (1)
0x4b0|                                             0b|               .|                    end: 0xb (valid) 0x4bf-0x4bf.7 (1)
     |                                               |                |          [22]{}: code 0x4c0-0x4d2.7 (19)
0x4c0|12                                             |.               |            size: 18 0x4c0-0x4c0.7 (1)
     |                                               |                |            code{}: 0x4c1-0x4d2.7 (18)
     |                                               |                |              locals{}: 0x4c1-0x4c1.7 (1)
0x4c0|   00                                          | .              |                n: 0 0x4c1-0x4c1.7 (1)
     |                                               |                |                items[0:0]: 0x4c2-NA (0)
     |                                               |                |              expr{}: 0x4c2-0x4d2.7 (17)
     |                                               |                |                instructions[0:2]: 0x4c2-0x4d2.7 (17)
     |                                               |                |                  [0]{}: instr 0x4c2-0x4d1.7 (16)
0x4c0|      02                                       |  .             |                    block: 0x2 (valid) 0x4c2-0x4c2.7 (1)
0x4c0|         7f                                    |   .            |                    valtype: "i32" (127) 0x4c3-0x4c3.7 (1)
     |                                               |                |                    instructions[0:6]: 0x4c4-0x4d0.7 (13)
     |                                               |                |                      [0]{}: instr 0x4c4-0x4c5.7 (2)
0x4c0|            41                                 |    A           |                        i32.const: 0x41 (valid) 0x4c4-0x4c4.7 (1)
0x4c0|               02                              |     .          |                        n: 2 0x4c5-0x4c5.7 (1)
     |                                               |                |                      [1]{}: instr 0x4c6-0x4c7.7 (2)
0x4c0|                  41                           |      A         |                        i32.const: 0x41 (valid) 0x4c6-0x4c6.7 (1)
0x4c0|                     03                        |       .        |                        n: 3 0x4c7-0x4c7.7 (1)
     |                                               |                |                      [2]{}: instr 0x4c8-0x4c9.7 (2)
0x4c0|                        20                     |                |                        local.get: 0x20 (valid) 0x4c8-0x4c8.7 (1)
0x4c0|                           00                  |         .      |                        x: 0 0x4c9-0x4c9.7 (1)
     |                                               |                |                      [3]{}: instr 0x4ca-0x4ca.7 (1)
0x4c0|                              1b               |          .     |                        select: 0x1b (valid) 0x4ca-0x4ca.7 (1)
     |                                               |                |                      [4]{}: instr 0x4cb-0x4cc.7 (2)
0x4c0|                                 41            |           A    |                        i32.const: 0x41 (valid) 0x4cb-0x4cb.7 (1)
0x4c0|                                    02         |            .   |                        n: 2 0x4cc-0x4cc.7 (1)
     |                                               |                |                      [5]{}: instr 0x4cd-0x4d0.7 (4)
0x4c0|                                       0e      |             .  |                        br_table: 0xe (valid) 0x4cd-0x4cd.7 (1)
     |                                               |                |                        table{}: 0x4ce-0x4cf.7 (2)
0x4c0|                                          01   |              . |                          n: 1 0x4ce-0x4ce.7 (1)
     |                                               |                |                          items[0:1]: 0x4cf-0x4cf.7 (1)
0x4c0|                                             00|               .|                            [0]: 0 l 0x4cf-0x4cf.7 (1)
0x4d0|00                                             |.               |                        l: 0 0x4d0-0x4d0.7 (1)
0x4d0|   0b                                          | .              |                    end: 11 (valid) 0x4d1-0x4d1.7 (1)
     |                                               |                |                  [1]{}: instr 0x4d2-0x4d2.7 (1)
0x4d0|      0b                                       |  .             |                    end: 0xb (valid) 0x4d2-0x4d2.7 (1)
     |                                               |                |          [23]{}: code 0x4d3-0x4e5.7 (19)
0x4d0|         12                                    |   .            |            size: 18 0x4d3-0x4d3.7 (1)
     |                                               |                |            code{}: 0x4d4-0x4e5.7 (18)
     |                                               |                |              locals{}: 0x4d4-0x4d4.7 (1)
0x4d0|            00                                 |    .           |                n: 0 0x4d4-0x4d4.7 (1)
     |                                               |                |                items[0:0]: 0x4d5-NA (0)
     |                                               |                |              expr{}: 0x4d5-0x4e5.7 (17)
     |                                               |                |                instructions[0:2]: 0x4d5-0x4e5.7 (17)
     |                                               |                |                  [0]{}: instr 0x4d5-0x4e4.7 (16)
0x4d0|               02                              |     .          |                    block: 0x2 (valid) 0x4d5-0x4d5.7 (1)
0x4d0|                  7f                           |      .         |                    valtype: "i32" (127) 0x4d6-0x4d6.7 (1)
     |                                               |                |                    instructions[0:6]: 0x4d7-0x4e3.7 (13)
     |                                               |                |                      [0]{}: instr 0x4d7-0x4d8.7 (2)
0x4d0|                     41                        |       A        |                        i32.const: 0x41 (valid) 0x4d7-0x4d7.7 (1)
0x4d0|                        02                     |        .       |                        n: 2 0x4d8-0x4d8.7 (1)
     |                                               |                |                      [1]{}: instr 0x4d9-0x4da.7 (2)
0x4d0|                           41                  |         A      |                        i32.const: 0x41 (valid) 0x4d9-0x4d9.7 (1)
0x4d0|                              02               |          .     |                        n: 2 0x4da-0x4da.7 (1)
     |                                               |                |                      [2]{}: instr 0x4db-0x4dc.7 (2)
0x4d0|                                 41            |           A    |                        i32.const: 0x41 (valid) 0x4db-0x4db.7 (1)
0x4d0|                                    03         |            .   |                        n: 3 0x4dc-0x4dc.7 (1)
     |                                               |                |                      [3]{}: instr 0x4dd-0x4de.7 (2)
0x4d0|                                       20      |                |                        local.get: 0x20 (valid) 0x4dd-0x4dd.7 (1)
0x4d0|                                          00   |              . |                        x: 0 0x4de-0x4de.7 (1)
     |                                               |                |                      [4]{}: instr 0x4df-0x4df.7 (1)
0x4d0|                                             1b|               .|                        select: 0x1b (valid) 0x4df-0x4df.7 (1)
     |                                               |                |                      [5]{}: instr 0x4e0-0x4e3.7 (4)
0x4e0|0e                                             |.               |                        br_table: 0xe (valid) 0x4e0-0x4e0.7 (1)
     |                                               |                |                        table{}: 0x4e1-0x4e2.7 (2)
0x4e0|   01                                          | .              |                          n: 1 0x4e1-0x4e1.7 (1)
     |                                               |                |                          items[0:1]: 0x4e2-0x4e2.7 (1)
0x4e0|      00                                       |  .             |                            [0]: 0 l 0x4e2-0x4e2.7 (1)
0x4e0|         00                                    |   .            |                        l: 0 0x4e3-0x4e3.7 (1)
0x4e0|            0b                                 |    .           |                    end: 11 (valid) 0x4e4-0x4e4.7 (1)
     |                                               |                |                  [1]{}: instr 0x4e5-0x4e5.7 (1)
0x4e0|               0b                              |     .          |                    end: 0xb (valid) 0x4e5-0x4e5.7 (1)
     |                                               |                |          [24]{}: code 0x4e6-0x4ea.7 (5)
0x4e0|                  04                           |      .         |            size: 4 0x4e6-0x4e6.7 (1)
     |                                               |                |            code{}: 0x4e7-0x4ea.7 (4)
     |                                               |                |              locals{}: 0x4e7-0x4e7.7 (1)
0x4e0|                     00                        |       .        |                n: 0 0x4e7-0x4e7.7 (1)
     |                                               |                |                items[0:0]: 0x4e8-NA (0)
     |                                               |                |              expr{}: 0x4e8-0x4ea.7 (3)
     |                                               |                |                instructions[0:2]: 0x4e8-0x4ea.7 (3)
     |                                               |                |                  [0]{}: instr 0x4e8-0x4e9.7 (2)
0x4e0|                        20                     |                |                    local.get: 0x20 (valid) 0x4e8-0x4e8.7 (1)
0x4e0|                           00                  |         .      |                    x: 0 0x4e9-0x4e9.7 (1)
     |                                               |                |                  [1]{}: instr 0x4ea-0x4ea.7 (1)
0x4e0|                              0b               |          .     |                    end: 0xb (valid) 0x4ea-0x4ea.7 (1)
     |                                               |                |          [25]{}: code 0x4eb-0x4fe.7 (20)
0x4e0|                                 13            |           .    |            size: 19 0x4eb-0x4eb.7 (1)
     |                                               |                |            code{}: 0x4ec-0x4fe.7 (19)
     |                                               |                |              locals{}: 0x4ec-0x4ec.7 (1)
0x4e0|                                    00         |            .   |                n: 0 0x4ec-0x4ec.7 (1)
     |                                               |                |                items[0:0]: 0x4ed-NA (0)
     |                                               |                |              expr{}: 0x4ed-0x4fe.7 (18)
     |                                               |                |                instructions[0:2]: 0x4ed-0x4fe.7 (18)
     |                                               |                |                  [0]{}: instr 0x4ed-0x4fd.7 (17)
0x4e0|                                       02      |             .  |                    block: 0x2 (valid) 0x4ed-0x4ed.7 (1)
0x4e0|                                          7f   |              . |                    valtype: "i32" (127) 0x4ee-0x4ee.7 (1)
     |                                               |                |                    instructions[0:7]: 0x4ef-0x4fc.7 (14)
     |                                               |                |                      [0]{}: instr 0x4ef-0x4f0.7 (2)
0x4e0|                                             41|               A|                        i32.const: 0x41 (valid) 0x4ef-0x4ef.7 (1)
0x4f0|02                                             |.               |                        n: 2 0x4f0-0x4f0.7 (1)
     |                                               |                |                      [1]{}: instr 0x4f1-0x4f2.7 (2)
0x4f0|   41                                          | A              |                        i32.const: 0x41 (valid) 0x4f1-0x4f1.7 (1)
0x4f0|      03                                       |  .             |                        n: 3 0x4f2-0x4f2.7 (1)
     |                                               |                |                      [2]{}: instr 0x4f3-0x4f4.7 (2)
0x4f0|         20                                    |                |                        local.get: 0x20 (valid) 0x4f3-0x4f3.7 (1)
0x4f0|            00                                 |    .           |                        x: 0 0x4f4-0x4f4.7 (1)
     |                                               |                |                      [3]{}: instr 0x4f5-0x4f5.7 (1)
0x4f0|               1b                              |     .          |                        select: 0x1b (valid) 0x4f5-0x4f5.7 (1)
     |                                               |                |                      [4]{}: instr 0x4f6-0x4f7.7 (2)
0x4f0|                  41                           |      A         |                        i32.const: 0x41 (valid) 0x4f6-0x4f6.7 (1)
0x4f0|                     01                        |       .        |                        n: 1 0x4f7-0x4f7.7 (1)
     |                                               |                |                      [5]{}: instr 0x4f8-0x4f9.7 (2)
0x4f0|                        41                     |        A       |                        i32.const: 0x41 (valid) 0x4f8-0x4f8.7 (1)
0x4f0|                           00                  |         .      |                        n: 0 0x4f9-0x4f9.7 (1)
     |                                               |                |                      [6]{}: instr 0x4fa-0x4fc.7 (3)
0x4f0|                              11               |          .     |                        call: 0x11 (valid) 0x4fa-0x4fa.7 (1)
0x4f0|                                 00            |           .    |                        y: 0 0x4fb-0x4fb.7 (1)
0x4f0|                                    01         |            .   |                        x: 1 0x4fc-0x4fc.7 (1)
0x4f0|                                       0b      |             .  |                    end: 11 (valid) 0x4fd-0x4fd.7 (1)
     |                                               |                |                  [1]{}: instr 0x4fe-0x4fe.7 (1)
0x4f0|                                          0b   |              . |                    end: 0xb (valid) 0x4fe-0x4fe.7 (1)
     |                                               |                |          [26]{}: code 0x4ff-0x512.7 (20)
0x4f0|                                             13|               .|            size: 19 0x4ff-0x4ff.7 (1)
     |                                               |                |            code{}: 0x500-0x512.7 (19)
     |                                               |                |              locals{}: 0x500-0x500.7 (1)
0x500|00                                             |.               |                n: 0 0x500-0x500.7 (1)
     |                                               |                |                items[0:0]: 0x501-NA (0)
     |                                               |                |              expr{}: 0x501-0x512.7 (18)
     |                                               |                |                instructions[0:2]: 0x501-0x512.7 (18)
     |                                               |                |                  [0]{}: instr 0x501-0x511.7 (17)
0x500|   02                                          | .              |                    block: 0x2 (valid) 0x501-0x501.7 (1)
0x500|      7f                                       |  .             |                    valtype: "i32" (127) 0x502-0x502.7 (1)
     |                                               |                |                    instructions[0:7]: 0x503-0x510.7 (14)
     |                                               |                |                      [0]{}: instr 0x503-0x504.7 (2)
0x500|         41                                    |   A            |                        i32.const: 0x41 (valid) 0x503-0x503.7 (1)
0x500|            01                                 |    .           |                        n: 1 0x504-0x504.7 (1)
     |                                               |                |                      [1]{}: instr 0x505-0x506.7 (2)
0x500|               41                              |     A          |                        i32.const: 0x41 (valid) 0x505-0x505.7 (1)
0x500|                  02                           |      .         |                        n: 2 0x506-0x506.7 (1)
     |                                               |                |                      [2]{}: instr 0x507-0x508.7 (2)
0x500|                     41                        |       A        |                        i32.const: 0x41 (valid) 0x507-0x507.7 (1)
0x500|                        03                     |        .       |                        n: 3 0x508-0x508.7 (1)
     |                                               |                |                      [3]{}: instr 0x509-0x50a.7 (2)
0x500|                           20                  |                |                        local.get: 0x20 (valid) 0x509-0x509.7 (1)
0x500|                              00               |          .     |                        x: 0 0x50a-0x50a.7 (1)
     |                                               |                |                      [4]{}: instr 0x50b-0x50b.7 (1)
0x500|                                 1b            |           .    |                        select: 0x1b (valid) 0x50b-0x50b.7 (1)
     |                                               |                |                      [5]{}: instr 0x50c-0x50d.7 (2)
0x500|                                    41         |            A   |                        i32.const: 0x41 (valid) 0x50c-0x50c.7 (1)
0x500|                                       00      |             .  |                        n: 0 0x50d-0x50d.7 (1)
     |                                               |                |                      [6]{}: instr 0x50e-0x510.7 (3)
0x500|                                          11   |              . |                        call: 0x11 (valid) 0x50e-0x50e.7 (1)
0x500|                                             00|               .|                        y: 0 0x50f-0x50f.7 (1)
0x510|01                                             |.               |                        x: 1 0x510-0x510.7 (1)
0x510|   0b                                          | .              |                    end: 11 (valid) 0x511-0x511.7 (1)
     |                                               |                |                  [1]{}: instr 0x512-0x512.7 (1)
0x510|      0b                                       |  .             |                    end: 0xb (valid) 0x512-0x512.7 (1)
     |                                               |                |          [27]{}: code 0x513-0x526.7 (20)
0x510|         13                                    |   .            |            size: 19 0x513-0x513.7 (1)
     |                                               |                |            code{}: 0x514-0x526.7 (19)
     |                                               |                |              locals{}: 0x514-0x514.7 (1)
0x510|            00                                 |    .           |                n: 0 0x514-0x514.7 (1)
     |                                               |                |                items[0:0]: 0x515-NA (0)
     |                                               |                |              expr{}: 0x515-0x526.7 (18)
     |                                               |                |                instructions[0:2]: 0x515-0x526.7 (18)
     |                                               |                |                  [0]{}: instr 0x515-0x525.7 (17)
0x510|               02                              |     .          |                    block: 0x2 (valid) 0x515-0x515.7 (1)
0x510|                  7f                           |      .         |                    valtype: "i32" (127) 0x516-0x516.7 (1)
     |                                               |                |                    instructions[0:7]: 0x517-0x524.7 (14)
     |                                               |                |                      [0]{}: instr 0x517-0x518.7 (2)
0x510|                     41                        |       A        |                        i32.const: 0x41 (valid) 0x517-0x517.7 (1)
0x510|                        01                     |        .       |                        n: 1 0x518-0x518.7 (1)
     |                                               |                |                      [1]{}: instr 0x519-0x51a.7 (2)
0x510|                           41                  |         A      |                        i32.const: 0x41 (valid) 0x519-0x519.7 (1)
0x510|                              04               |          .     |                        n: 4 0x51a-0x51a.7 (1)
     |                                               |                |                      [2]{}: instr 0x51b-0x51c.7 (2)
0x510|                                 41            |           A    |                        i32.const: 0x41 (valid) 0x51b-0x51b.7 (1)
0x510|                                    02         |            .   |                        n: 2 0x51c-0x51c.7 (1)
     |                                               |                |                      [3]{}: instr 0x51d-0x51e.7 (2)
0x510|                                       41      |             A  |                        i32.const: 0x41 (valid) 0x51d-0x51d.7 (1)
0x510|                                          03   |              . |                        n: 3 0x51e-0x51e.7 (1)
     |                                               |                |                      [4]{}: instr 0x51f-0x520.7 (2)
0x510|                                             20|                |                        local.get: 0x20 (valid) 0x51f-0x51f.7 (1)
0x520|00                                             |.               |                        x: 0 0x520-0x520.7 (1)
     |                                               |                |                      [5]{}: instr 0x521-0x521.7 (1)
0x520|   1b                                          | .              |                        select: 0x1b (valid) 0x521-0x521.7 (1)
     |                                               |                |                      [6]{}: instr 0x522-0x524.7 (3)
0x520|      11                                       |  .             |                        call: 0x11 (valid) 0x522-0x522.7 (1)
0x520|         00                                    |   .            |                        y: 0 0x523-0x523.7 (1)
0x520|            01                                 |    .           |                        x: 1 0x524-0x524.7 (1)
0x520|               0b                              |     .          |                    end: 11 (valid) 0x525-0x525.7 (1)
     |                                               |                |                  [1]{}: instr 0x526-0x526.7 (1)
0x520|                  0b                           |      .         |                    end: 0xb (valid) 0x526-0x526.7 (1)
     |                                               |                |          [28]{}: code 0x527-0x535.7 (15)
0x520|                     0e                        |       .        |            size: 14 0x527-0x527.7 (1)
     |                                               |                |            code{}: 0x528-0x535.7 (14)
     |                                               |                |              locals{}: 0x528-0x528.7 (1)
0x520|                        00                     |        .       |                n: 0 0x528-0x528.7 (1)
     |                                               |                |                items[0:0]: 0x529-NA (0)
     |                                               |                |              expr{}: 0x529-0x535.7 (13)
     |                                               |                |                instructions[0:7]: 0x529-0x535.7 (13)
     |                                               |                |                  [0]{}: instr 0x529-0x52a.7 (2)
0x520|                           41                  |         A      |                    i32.const: 0x41 (valid) 0x529-0x529.7 (1)
0x520|                              00               |          .     |                    n: 0 0x52a-0x52a.7 (1)
     |                                               |                |                  [1]{}: instr 0x52b-0x52c.7 (2)
0x520|                                 41            |           A    |                    i32.const: 0x41 (valid) 0x52b-0x52b.7 (1)
0x520|                                    04         |            .   |                    n: 4 0x52c-0x52c.7 (1)
     |                                               |                |                  [2]{}: instr 0x52d-0x52e.7 (2)
0x520|                                       20      |                |                    local.get: 0x20 (valid) 0x52d-0x52d.7 (1)
0x520|                                          00   |              . |                    x: 0 0x52e-0x52e.7 (1)
     |                                               |                |                  [3]{}: instr 0x52f-0x52f.7 (1)
0x520|                                             1b|               .|                    select: 0x1b (valid) 0x52f-0x52f.7 (1)
     |                                               |                |                  [4]{}: instr 0x530-0x531.7 (2)
0x530|41                                             |A               |                    i32.const: 0x41 (valid) 0x530-0x530.7 (1)
0x530|   01                                          | .              |                    n: 1 0x531-0x531.7 (1)
     |                                               |                |                  [5]{}: instr 0x532-0x534.7 (3)
0x530|      36                                       |  6             |                    i32.store: 0x36 (valid) 0x532-0x532.7 (1)
0x530|         02                                    |   .            |                    align: 2 0x533-0x533.7 (1)
0x530|            00                                 |    .           |                    offset: 0 0x534-0x534.7 (1)
     |                                               |                |                  [6]{}: instr 0x535-0x535.7 (1)
0x530|               0b                              |     .          |                    end: 0xb (valid) 0x535-0x535.7 (1)
     |                                               |                |          [29]{}: code 0x536-0x544.7 (15)
0x530|                  0e                           |      .         |            size: 14 0x536-0x536.7 (1)
     |                                               |                |            code{}: 0x537-0x544.7 (14)
     |                                               |                |              locals{}: 0x537-0x537.7 (1)
0x530|                     00                        |       .        |                n: 0 0x537-0x537.7 (1)
     |                                               |                |                items[0:0]: 0x538-NA (0)
     |                                               |                |              expr{}: 0x538-0x544.7 (13)
     |                                               |                |                instructions[0:7]: 0x538-0x544.7 (13)
     |                                               |                |                  [0]{}: instr 0x538-0x539.7 (2)
0x530|                        41                     |        A       |                    i32.const: 0x41 (valid) 0x538-0x538.7 (1)
0x530|                           08                  |         .      |                    n: 8 0x539-0x539.7 (1)
     |                                               |                |                  [1]{}: instr 0x53a-0x53b.7 (2)
0x530|                              41               |          A     |                    i32.const: 0x41 (valid) 0x53a-0x53a.7 (1)
0x530|                                 01            |           .    |                    n: 1 0x53b-0x53b.7 (1)
     |                                               |                |                  [2]{}: instr 0x53c-0x53d.7 (2)
0x530|                                    41         |            A   |                    i32.const: 0x41 (valid) 0x53c-0x53c.7 (1)
0x530|                                       02      |             .  |                    n: 2 0x53d-0x53d.7 (1)
     |                                               |                |                  [3]{}: instr 0x53e-0x53f.7 (2)
0x530|                                          20   |                |                    local.get: 0x20 (valid) 0x53e-0x53e.7 (1)
0x530|                                             00|               .|                    x: 0 0x53f-0x53f.7 (1)
     |                                               |                |                  [4]{}: instr 0x540-0x540.7 (1)
0x540|1b                                             |.               |                    select: 0x1b (valid) 0x540-0x540.7 (1)
     |                                               |                |                  [5]{}: instr 0x541-0x543.7 (3)
0x540|   36                                          | 6              |                    i32.store: 0x36 (valid) 0x541-0x541.7 (1)
0x540|      02                                       |  .             |                    align: 2 0x542-0x542.7 (1)
0x540|         00                                    |   .            |                    offset: 0 0x543-0x543.7 (1)
     |                                               |                |                  [6]{}: instr 0x544-0x544.7 (1)
0x540|            0b                                 |    .           |                    end: 0xb (valid) 0x544-0x544.7 (1)
     |                                               |                |          [30]{}: code 0x545-0x550.7 (12)
0x540|               0b                              |     .          |            size: 11 0x545-0x545.7 (1)
     |                                               |                |            code{}: 0x546-0x550.7 (11)
     |                                               |                |              locals{}: 0x546-0x546.7 (1)
0x540|                  00                           |      .         |                n: 0 0x546-0x546.7 (1)
     |                                               |                |                items[0:0]: 0x547-NA (0)
     |                                               |                |              expr{}: 0x547-0x550.7 (10)
     |                                               |                |                instructions[0:6]: 0x547-0x550.7 (10)
     |                                               |                |                  [0]{}: instr 0x547-0x548.7 (2)
0x540|                     41                        |       A        |                    i32.const: 0x41 (valid) 0x547-0x547.7 (1)
0x540|                        01                     |        .       |                    n: 1 0x548-0x548.7 (1)
     |                                               |                |                  [1]{}: instr 0x549-0x54a.7 (2)
0x540|                           41                  |         A      |                    i32.const: 0x41 (valid) 0x549-0x549.7 (1)
0x540|                              02               |          .     |                    n: 2 0x54a-0x54a.7 (1)
     |                                               |                |                  [2]{}: instr 0x54b-0x54c.7 (2)
0x540|                                 20            |                |                    local.get: 0x20 (valid) 0x54b-0x54b.7 (1)
0x540|                                    00         |            .   |                    x: 0 0x54c-0x54c.7 (1)
     |                                               |                |                  [3]{}: instr 0x54d-0x54d.7 (1)
0x540|                                       1b      |             .  |                    select: 0x1b (valid) 0x54d-0x54d.7 (1)
     |                                               |                |                  [4]{}: instr 0x54e-0x54f.7 (2)
0x540|                                          40   |              @ |                    memory.grow: 0x40 (valid) 0x54e-0x54e.7 (1)
0x540|                                             00|               .|                    reserved: 0x0 (valid) 0x54f-0x54f.7 (1)
     |                                               |                |                  [5]{}: instr 0x550-0x550.7 (1)
0x550|0b                                             |.               |                    end: 0xb (valid) 0x550-0x550.7 (1)
     |                                               |                |          [31]{}: code 0x551-0x555.7 (5)
0x550|   04                                          | .              |            size: 4 0x551-0x551.7 (1)
     |                                               |                |            code{}: 0x552-0x555.7 (4)
     |                                               |                |              locals{}: 0x552-0x552.7 (1)
0x550|      00                                       |  .             |                n: 0 0x552-0x552.7 (1)
     |                                               |                |                items[0:0]: 0x553-NA (0)
     |                                               |                |              expr{}: 0x553-0x555.7 (3)
     |                                               |                |                instructions[0:2]: 0x553-0x555.7 (3)
     |                                               |                |                  [0]{}: instr 0x553-0x554.7 (2)
0x550|         20                                    |                |                    local.get: 0x20 (valid) 0x553-0x553.7 (1)
0x550|            00                                 |    .           |                    x: 0 0x554-0x554.7 (1)
     |                                               |                |                  [1]{}: instr 0x555-0x555.7 (1)
0x550|               0b                              |     .          |                    end: 0xb (valid) 0x555-0x555.7 (1)
     |                                               |                |          [32]{}: code 0x556-0x561.7 (12)
0x550|                  0b                           |      .         |            size: 11 0x556-0x556.7 (1)
     |                                               |                |            code{}: 0x557-0x561.7 (11)
     |                                               |                |              locals{}: 0x557-0x557.7 (1)
0x550|                     00                        |       .        |                n: 0 0x557-0x557.7 (1)
     |                                               |                |                items[0:0]: 0x558-NA (0)
     |                                               |                |              expr{}: 0x558-0x561.7 (10)
     |                                               |                |                instructions[0:6]: 0x558-0x561.7 (10)
     |                                               |                |                  [0]{}: instr 0x558-0x559.7 (2)
0x550|                        41                     |        A       |                    i32.const: 0x41 (valid) 0x558-0x558.7 (1)
0x550|                           01                  |         .      |                    n: 1 0x559-0x559.7 (1)
     |                                               |                |                  [1]{}: instr 0x55a-0x55b.7 (2)
0x550|                              41               |          A     |                    i32.const: 0x41 (valid) 0x55a-0x55a.7 (1)
0x550|                                 02            |           .    |                    n: 2 0x55b-0x55b.7 (1)
     |                                               |                |                  [2]{}: instr 0x55c-0x55d.7 (2)
0x550|                                    20         |                |                    local.get: 0x20 (valid) 0x55c-0x55c.7 (1)
0x550|                                       00      |             .  |                    x: 0 0x55d-0x55d.7 (1)
     |                                               |                |                  [3]{}: instr 0x55e-0x55e.7 (1)
0x550|                                          1b   |              . |                    select: 0x1b (valid) 0x55e-0x55e.7 (1)
     |                                               |                |                  [4]{}: instr 0x55f-0x560.7 (2)
0x550|                                             10|               .|                    call: 0x10 (valid) 0x55f-0x55f.7 (1)
0x560|1f                                             |.               |                    x: 31 0x560-0x560.7 (1)
     |                                               |                |                  [5]{}: instr 0x561-0x561.7 (1)
0x560|   0b                                          | .              |                    end: 0xb (valid) 0x561-0x561.7 (1)
     |                                               |                |          [33]{}: code 0x562-0x56c.7 (11)
0x560|      0a                                       |  .             |            size: 10 0x562-0x562.7 (1)
     |                                               |                |            code{}: 0x563-0x56c.7 (10)
     |                                               |                |              locals{}: 0x563-0x563.7 (1)
0x560|         00                                    |   .            |                n: 0 0x563-0x563.7 (1)
     |                                               |                |                items[0:0]: 0x564-NA (0)
     |                                               |                |              expr{}: 0x564-0x56c.7 (9)
     |                                               |                |                instructions[0:6]: 0x564-0x56c.7 (9)
     |                                               |                |                  [0]{}: instr 0x564-0x565.7 (2)
0x560|            41                                 |    A           |                    i32.const: 0x41 (valid) 0x564-0x564.7 (1)
0x560|               01                              |     .          |                    n: 1 0x565-0x565.7 (1)
     |                                               |                |                  [1]{}: instr 0x566-0x567.7 (2)
0x560|                  41                           |      A         |                    i32.const: 0x41 (valid) 0x566-0x566.7 (1)
0x560|                     02                        |       .        |                    n: 2 0x567-0x567.7 (1)
     |                                               |                |                  [2]{}: instr 0x568-0x569.7 (2)
0x560|                        20                     |                |                    local.get: 0x20 (valid) 0x568-0x568.7 (1)
0x560|                           00                  |         .      |                    x: 0 0x569-0x569.7 (1)
     |                                               |                |                  [3]{}: instr 0x56a-0x56a.7 (1)
0x560|                              1b               |          .     |                    select: 0x1b (valid) 0x56a-0x56a.7 (1)
     |                                               |                |                  [4]{}: instr 0x56b-0x56b.7 (1)
0x560|                                 0f            |           .    |                    return: 0xf (valid) 0x56b-0x56b.7 (1)
     |                                               |                |                  [5]{}: instr 0x56c-0x56c.7 (1)
0x560|                                    0b         |            .   |                    end: 0xb (valid) 0x56c-0x56c.7 (1)
     |                                               |                |          [34]{}: code 0x56d-0x577.7 (11)
0x560|                                       0a      |             .  |            size: 10 0x56d-0x56d.7 (1)
     |                                               |                |            code{}: 0x56e-0x577.7 (10)
     |                                               |                |              locals{}: 0x56e-0x56e.7 (1)
0x560|                                          00   |              . |                n: 0 0x56e-0x56e.7 (1)
     |                                               |                |                items[0:0]: 0x56f-NA (0)
     |                                               |                |              expr{}: 0x56f-0x577.7 (9)
     |                                               |                |                instructions[0:6]: 0x56f-0x577.7 (9)
     |                                               |                |                  [0]{}: instr 0x56f-0x570.7 (2)
0x560|                                             41|               A|                    i32.const: 0x41 (valid) 0x56f-0x56f.7 (1)
0x570|01                                             |.               |                    n: 1 0x570-0x570.7 (1)
     |                                               |                |                  [1]{}: instr 0x571-0x572.7 (2)
0x570|   41                                          | A              |                    i32.const: 0x41 (valid) 0x571-0x571.7 (1)
0x570|      02                                       |  .             |                    n: 2 0x572-0x572.7 (1)
     |                                               |                |                  [2]{}: instr 0x573-0x574.7 (2)
0x570|         20                                    |                |                    local.get: 0x20 (valid) 0x573-0x573.7 (1)
0x570|            00                                 |    .           |                    x: 0 0x574-0x574.7 (1)
     |                                               |                |                  [3]{}: instr 0x575-0x575.7 (1)
0x570|               1b                              |     .          |                    select: 0x1b (valid) 0x575-0x575.7 (1)
     |                                               |                |                  [4]{}: instr 0x576-0x576.7 (1)
0x570|                  1a                           |      .         |                    drop: 0x1a (valid) 0x576-0x576.7 (1)
     |                                               |                |                  [5]{}: instr 0x577-0x577.7 (1)
0x570|                     0b                        |       .        |                    end: 0xb (valid) 0x577-0x577.7 (1)
     |                                               |                |          [35]{}: code 0x578-0x586.7 (15)
0x570|                        0e                     |        .       |            size: 14 0x578-0x578.7 (1)
     |                                               |                |            code{}: 0x579-0x586.7 (14)
     |                                               |                |              locals{}: 0x579-0x579.7 (1)
0x570|                           00                  |         .      |                n: 0 0x579-0x579.7 (1)
     |                                               |                |                items[0:0]: 0x57a-NA (0)
     |                                               |                |              expr{}: 0x57a-0x586.7 (13)
     |                                               |                |                instructions[0:2]: 0x57a-0x586.7 (13)
     |                                               |                |                  [0]{}: instr 0x57a-0x585.7 (12)
0x570|                              02               |          .     |                    block: 0x2 (valid) 0x57a-0x57a.7 (1)
0x570|                                 7f            |           .    |                    valtype: "i32" (127) 0x57b-0x57b.7 (1)
     |                                               |                |                    instructions[0:5]: 0x57c-0x584.7 (9)
     |                                               |                |                      [0]{}: instr 0x57c-0x57d.7 (2)
0x570|                                    41         |            A   |                        i32.const: 0x41 (valid) 0x57c-0x57c.7 (1)
0x570|                                       01      |             .  |                        n: 1 0x57d-0x57d.7 (1)
     |                                               |                |                      [1]{}: instr 0x57e-0x57f.7 (2)
0x570|                                          41   |              A |                        i32.const: 0x41 (valid) 0x57e-0x57e.7 (1)
0x570|                                             02|               .|                        n: 2 0x57f-0x57f.7 (1)
     |                                               |                |                      [2]{}: instr 0x580-0x581.7 (2)
0x580|20                                             |                |                        local.get: 0x20 (valid) 0x580-0x580.7 (1)
0x580|   00                                          | .              |                        x: 0 0x581-0x581.7 (1)
     |                                               |                |                      [3]{}: instr 0x582-0x582.7 (1)
0x580|      1b                                       |  .             |                        select: 0x1b (valid) 0x582-0x582.7 (1)
     |                                               |                |                      [4]{}: instr 0x583-0x584.7 (2)
0x580|         0c                                    |   .            |                        br: 0xc (valid) 0x583-0x583.7 (1)
0x580|            00                                 |    .           |                        l: 0 0x584-0x584.7 (1)
0x580|               0b                              |     .          |                    end: 11 (valid) 0x585-0x585.7 (1)
     |                                               |                |                  [1]{}: instr 0x586-0x586.7 (1)
0x580|                  0b                           |      .         |                    end: 0xb (valid) 0x586-0x586.7 (1)
     |                                               |                |          [36]{}: code 0x587-0x596.7 (16)
0x580|                     0f                        |       .        |            size: 15 0x587-0x587.7 (1)
     |                                               |                |            code{}: 0x588-0x596.7 (15)
     |                                               |                |              locals{}: 0x588-0x58a.7 (3)
0x580|                        01                     |        .       |                n: 1 0x588-0x588.7 (1)
     |                                               |                |                items[0:1]: 0x589-0x58a.7 (2)
     |                                               |                |                  [0]{}: locals 0x589-0x58a.7 (2)
0x580|                           01                  |         .      |                    n: 1 0x589-0x589.7 (1)
0x580|                              7f               |          .     |                    valtype: "i32" (127) 0x58a-0x58a.7 (1)
     |                                               |                |              expr{}: 0x58b-0x596.7 (12)
     |                                               |                |                instructions[0:7]: 0x58b-0x596.7 (12)
     |                                               |                |                  [0]{}: instr 0x58b-0x58c.7 (2)
0x580|                                 41            |           A    |                    i32.const: 0x41 (valid) 0x58b-0x58b.7 (1)
0x580|                                    01         |            .   |                    n: 1 0x58c-0x58c.7 (1)
     |                                               |                |                  [1]{}: instr 0x58d-0x58e.7 (2)
0x580|                                       41      |             A  |                    i32.const: 0x41 (valid) 0x58d-0x58d.7 (1)
0x580|                                          02   |              . |                    n: 2 0x58e-0x58e.7 (1)
     |                                               |                |                  [2]{}: instr 0x58f-0x590.7 (2)
0x580|                                             20|                |                    local.get: 0x20 (valid) 0x58f-0x58f.7 (1)
0x590|00                                             |.               |                    x: 0 0x590-0x590.7 (1)
     |                                               |                |                  [3]{}: instr 0x591-0x591.7 (1)
0x590|   1b                                          | .              |                    select: 0x1b (valid) 0x591-0x591.7 (1)
     |                                               |                |                  [4]{}: instr 0x592-0x593.7 (2)
0x590|      21                                       |  !             |                    local.set: 0x21 (valid) 0x592-0x592.7 (1)
0x590|         00                                    |   .            |                    x: 0 0x593-0x593.7 (1)
     |                                               |                |                  [5]{}: instr 0x594-0x595.7 (2)
0x590|            20                                 |                |                    local.get: 0x20 (valid) 0x594-0x594.7 (1)
0x590|               00                              |     .          |                    x: 0 0x595-0x595.7 (1)
     |                                               |                |                  [6]{}: instr 0x596-0x596.7 (1)
0x590|                  0b                           |      .         |                    end: 0xb (valid) 0x596-0x596.7 (1)
     |                                               |                |          [37]{}: code 0x597-0x5a2.7 (12)
0x590|                     0b                        |       .        |            size: 11 0x597-0x597.7 (1)
     |                                               |                |            code{}: 0x598-0x5a2.7 (11)
     |                                               |                |              locals{}: 0x598-0x598.7 (1)
0x590|                        00                     |        .       |                n: 0 0x598-0x598.7 (1)
     |                                               |                |                items[0:0]: 0x599-NA (0)
     |                                               |                |              expr{}: 0x599-0x5a2.7 (10)
     |                                               |                |                instructions[0:6]: 0x599-0x5a2.7 (10)
     |                                               |                |                  [0]{}: instr 0x599-0x59a.7 (2)
0x590|                           41                  |         A      |                    i32.const: 0x41 (valid) 0x599-0x599.7 (1)
0x590|                              01               |          .     |                    n: 1 0x59a-0x59a.7 (1)
     |                                               |                |                  [1]{}: instr 0x59b-0x59c.7 (2)
0x590|                                 41            |           A    |                    i32.const: 0x41 (valid) 0x59b-0x59b.7 (1)
0x590|                                    02         |            .   |                    n: 2 0x59c-0x59c.7 (1)
     |                                               |                |                  [2]{}: instr 0x59d-0x59e.7 (2)
0x590|                                       20      |                |                    local.get: 0x20 (valid) 0x59d-0x59d.7 (1)
0x590|                                          00   |              . |                    x: 0 0x59e-0x59e.7 (1)
     |                                               |                |                  [3]{}: instr 0x59f-0x59f.7 (1)
0x590|                                             1b|               .|                    select: 0x1b (valid) 0x59f-0x59f.7 (1)
     |                                               |                |                  [4]{}: instr 0x5a0-0x5a1.7 (2)
0x5a0|22                                             |"               |                    local.tee: 0x22 (valid) 0x5a0-0x5a0.7 (1)
0x5a0|   00                                          | .              |                    x: 0 0x5a1-0x5a1.7 (1)
     |                                               |                |                  [5]{}: instr 0x5a2-0x5a2.7 (1)
0x5a0|      0b                                       |  .             |                    end: 0xb (valid) 0x5a2-0x5a2.7 (1)
     |                                               |                |          [38]{}: code 0x5a3-0x5b0.7 (14)
0x5a0|         0d                                    |   .            |            size: 13 0x5a3-0x5a3.7 (1)
     |                                               |                |            code{}: 0x5a4-0x5b0.7 (13)
     |                                               |                |              locals{}: 0x5a4-0x5a4.7 (1)
0x5a0|            00                                 |    .           |                n: 0 0x5a4-0x5a4.7 (1)
     |                                               |                |                items[0:0]: 0x5a5-NA (0)
     |                                               |                |              expr{}: 0x5a5-0x5b0.7 (12)
     |                                               |                |                instructions[0:7]: 0x5a5-0x5b0.7 (12)
     |                                               |                |                  [0]{}: instr 0x5a5-0x5a6.7 (2)
0x5a0|               41                              |     A          |                    i32.const: 0x41 (valid) 0x5a5-0x5a5.7 (1)
0x5a0|                  01                           |      .         |                    n: 1 0x5a6-0x5a6.7 (1)
     |                                               |                |                  [1]{}: instr 0x5a7-0x5a8.7 (2)
0x5a0|                     41                        |       A        |                    i32.const: 0x41 (valid) 0x5a7-0x5a7.7 (1)
0x5a0|                        02                     |        .       |                    n: 2 0x5a8-0x5a8.7 (1)
     |                                               |                |                  [2]{}: instr 0x5a9-0x5aa.7 (2)
0x5a0|                           20                  |                |                    local.get: 0x20 (valid) 0x5a9-0x5a9.7 (1)
0x5a0|                              00               |          .     |                    x: 0 0x5aa-0x5aa.7 (1)
     |                                               |                |                  [3]{}: instr 0x5ab-0x5ab.7 (1)
0x5a0|                                 1b            |           .    |                    select: 0x1b (valid) 0x5ab-0x5ab.7 (1)
     |                                               |                |                  [4]{}: instr 0x5ac-0x5ad.7 (2)
0x5a0|                                    24         |            $   |                    global.set: 0x24 (valid) 0x5ac-0x5ac.7 (1)
0x5a0|                                       00      |             .  |                    x: 0 0x5ad-0x5ad.7 (1)
     |                                               |                |                  [5]{}: instr 0x5ae-0x5af.7 (2)
0x5a0|                                          23   |              # |                    global.get: 0x23 (valid) 0x5ae-0x5ae.7 (1)
0x5a0|                                             00|               .|                    x: 0 0x5af-0x5af.7 (1)
     |                                               |                |                  [6]{}: instr 0x5b0-0x5b0.7 (1)
0x5b0|0b                                             |.               |                    end: 0xb (valid) 0x5b0-0x5b0.7 (1)
     |                                               |                |          [39]{}: code 0x5b1-0x5bd.7 (13)
0x5b0|   0c                                          | .              |            size: 12 0x5b1-0x5b1.7 (1)
     |                                               |                |            code{}: 0x5b2-0x5bd.7 (12)
     |                                               |                |              locals{}: 0x5b2-0x5b2.7 (1)
0x5b0|      00                                       |  .             |                n: 0 0x5b2-0x5b2.7 (1)
     |                                               |                |                items[0:0]: 0x5b3-NA (0)
     |                                               |                |              expr{}: 0x5b3-0x5bd.7 (11)
     |                                               |                |                instructions[0:6]: 0x5b3-0x5bd.7 (11)
     |                                               |                |                  [0]{}: instr 0x5b3-0x5b4.7 (2)
0x5b0|         41                                    |   A            |                    i32.const: 0x41 (valid) 0x5b3-0x5b3.7 (1)
0x5b0|            00                                 |    .           |                    n: 0 0x5b4-0x5b4.7 (1)
     |                                               |                |                  [1]{}: instr 0x5b5-0x5b6.7 (2)
0x5b0|               41                              |     A          |                    i32.const: 0x41 (valid) 0x5b5-0x5b5.7 (1)
0x5b0|                  04                           |      .         |                    n: 4 0x5b6-0x5b6.7 (1)
     |                                               |                |                  [2]{}: instr 0x5b7-0x5b8.7 (2)
0x5b0|                     20                        |                |                    local.get: 0x20 (valid) 0x5b7-0x5b7.7 (1)
0x5b0|                        00                     |        .       |                    x: 0 0x5b8-0x5b8.7 (1)
     |                                               |                |                  [3]{}: instr 0x5b9-0x5b9.7 (1)
0x5b0|                           1b                  |         .      |                    select: 0x1b (valid) 0x5b9-0x5b9.7 (1)
     |                                               |                |                  [4]{}: instr 0x5ba-0x5bc.7 (3)
0x5b0|                              28               |          (     |                    i32.load: 0x28 (valid) 0x5ba-0x5ba.7 (1)
0x5b0|                                 02            |           .    |                    align: 2 0x5bb-0x5bb.7 (1)
0x5b0|                                    00         |            .   |                    offset: 0 0x5bc-0x5bc.7 (1)
     |                                               |                |                  [5]{}: instr 0x5bd-0x5bd.7 (1)
0x5b0|                                       0b      |             .  |                    end: 0xb (valid) 0x5bd-0x5bd.7 (1)
     |                                               |                |          [40]{}: code 0x5be-0x5c8.7 (11)
0x5b0|                                          0a   |              . |            size: 10 0x5be-0x5be.7 (1)
     |                                               |                |            code{}: 0x5bf-0x5c8.7 (10)
     |                                               |                |              locals{}: 0x5bf-0x5bf.7 (1)
0x5b0|                                             00|               .|                n: 0 0x5bf-0x5bf.7 (1)
     |                                               |                |                items[0:0]: 0x5c0-NA (0)
     |                                               |                |              expr{}: 0x5c0-0x5c8.7 (9)
     |                                               |                |                instructions[0:6]: 0x5c0-0x5c8.7 (9)
     |                                               |                |                  [0]{}: instr 0x5c0-0x5c1.7 (2)
0x5c0|41                                             |A               |                    i32.const: 0x41 (valid) 0x5c0-0x5c0.7 (1)
0x5c0|   00                                          | .              |                    n: 0 0x5c1-0x5c1.7 (1)
     |                                               |                |                  [1]{}: instr 0x5c2-0x5c3.7 (2)
0x5c0|      41                                       |  A             |                    i32.const: 0x41 (valid) 0x5c2-0x5c2.7 (1)
0x5c0|         01                                    |   .            |                    n: 1 0x5c3-0x5c3.7 (1)
     |                                               |                |                  [2]{}: instr 0x5c4-0x5c5.7 (2)
0x5c0|            20                                 |                |                    local.get: 0x20 (valid) 0x5c4-0x5c4.7 (1)
0x5c0|               00                              |     .          |                    x: 0 0x5c5-0x5c5.7 (1)
     |                                               |                |                  [3]{}: instr 0x5c6-0x5c6.7 (1)
0x5c0|                  1b                           |      .         |                    select: 0x1b (valid) 0x5c6-0x5c6.7 (1)
     |                                               |                |                  [4]{}: instr 0x5c7-0x5c7.7 (1)
0x5c0|                     45                        |       E        |                    i32.eqz: 0x45 (valid) 0x5c7-0x5c7.7 (1)
     |                                               |                |                  [5]{}: instr 0x5c8-0x5c8.7 (1)
0x5c0|                        0b                     |        .       |                    end: 0xb (valid) 0x5c8-0x5c8.7 (1)
     |                                               |                |          [41]{}: code 0x5c9-0x5da.7 (18)
0x5c0|                           11                  |         .      |            size: 17 0x5c9-0x5c9.7 (1)
     |                                               |                |            code{}: 0x5ca-0x5da.7 (17)
     |                                               |                |              locals{}: 0x5ca-0x5ca.7 (1)
0x5c0|                              00               |          .     |                n: 0 0x5ca-0x5ca.7 (1)
     |                                               |                |                items[0:0]: 0x5cb-NA (0)
     |                                               |                |              expr{}: 0x5cb-0x5da.7 (16)
     |                                               |                |                instructions[0:10]: 0x5cb-0x5da.7 (16)
     |                                               |                |                  [0]{}: instr 0x5cb-0x5cc.7 (2)
0x5c0|                                 41            |           A    |                    i32.const: 0x41 (valid) 0x5cb-0x5cb.7 (1)
0x5c0|                                    01         |            .   |                    n: 1 0x5cc-0x5cc.7 (1)
     |                                               |                |                  [1]{}: instr 0x5cd-0x5ce.7 (2)
0x5c0|                                       41      |             A  |                    i32.const: 0x41 (valid) 0x5cd-0x5cd.7 (1)
0x5c0|                                          02   |              . |                    n: 2 0x5ce-0x5ce.7 (1)
     |                                               |                |                  [2]{}: instr 0x5cf-0x5d0.7 (2)
0x5c0|                                             20|                |                    local.get: 0x20 (valid) 0x5cf-0x5cf.7 (1)
0x5d0|00                                             |.               |                    x: 0 0x5d0-0x5d0.7 (1)
     |                                               |                |                  [3]{}: instr 0x5d1-0x5d1.7 (1)
0x5d0|   1b                                          | .              |                    select: 0x1b (valid) 0x5d1-0x5d1.7 (1)
     |                                               |                |                  [4]{}: instr 0x5d2-0x5d3.7 (2)
0x5d0|      41                                       |  A             |                    i32.const: 0x41 (valid) 0x5d2-0x5d2.7 (1)
0x5d0|         01                                    |   .            |                    n: 1 0x5d3-0x5d3.7 (1)
     |                                               |                |                  [5]{}: instr 0x5d4-0x5d5.7 (2)
0x5d0|            41                                 |    A           |                    i32.const: 0x41 (valid) 0x5d4-0x5d4.7 (1)
0x5d0|               02                              |     .          |                    n: 2 0x5d5-0x5d5.7 (1)
     |                                               |                |                  [6]{}: instr 0x5d6-0x5d7.7 (2)
0x5d0|                  20                           |                |                    local.get: 0x20 (valid) 0x5d6-0x5d6.7 (1)
0x5d0|                     00                        |       .        |                    x: 0 0x5d7-0x5d7.7 (1)
     |                                               |                |                  [7]{}: instr 0x5d8-0x5d8.7 (1)
0x5d0|                        1b                     |        .       |                    select: 0x1b (valid) 0x5d8-0x5d8.7 (1)
     |                                               |                |                  [8]{}: instr 0x5d9-0x5d9.7 (1)
0x5d0|                           6c                  |         l      |                    i32.mul: 0x6c (valid) 0x5d9-0x5d9.7 (1)
     |                                               |                |                  [9]{}: instr 0x5da-0x5da.7 (1)
0x5d0|                              0b               |          .     |                    end: 0xb (valid) 0x5da-0x5da.7 (1)
     |                                               |                |          [42]{}: code 0x5db-0x5e8.7 (14)
0x5d0|                                 0d            |           .    |            size: 13 0x5db-0x5db.7 (1)
     |                                               |                |            code{}: 0x5dc-0x5e8.7 (13)
     |                                               |                |              locals{}: 0x5dc-0x5dc.7 (1)
0x5d0|                                    00         |            .   |                n: 0 0x5dc-0x5dc.7 (1)
     |                                               |                |                items[0:0]: 0x5dd-NA (0)
     |                                               |                |              expr{}: 0x5dd-0x5e8.7 (12)
     |                                               |                |                instructions[0:2]: 0x5dd-0x5e8.7 (12)
     |                                               |                |                  [0]{}: instr 0x5dd-0x5e7.7 (11)
0x5d0|                                       02      |             .  |                    block: 0x2 (valid) 0x5dd-0x5dd.7 (1)
0x5d0|                                          7f   |              . |                    valtype: "i32" (127) 0x5de-0x5de.7 (1)
     |                                               |                |                    instructions[0:5]: 0x5df-0x5e6.7 (8)
     |                                               |                |                      [0]{}: instr 0x5df-0x5e0.7 (2)
0x5d0|                                             41|               A|                        i32.const: 0x41 (valid) 0x5df-0x5df.7 (1)
0x5e0|00                                             |.               |                        n: 0 0x5e0-0x5e0.7 (1)
     |                                               |                |                      [1]{}: instr 0x5e1-0x5e2.7 (2)
0x5e0|   41                                          | A              |                        i32.const: 0x41 (valid) 0x5e1-0x5e1.7 (1)
0x5e0|      01                                       |  .             |                        n: 1 0x5e2-0x5e2.7 (1)
     |                                               |                |                      [2]{}: instr 0x5e3-0x5e4.7 (2)
0x5e0|         20                                    |                |                        local.get: 0x20 (valid) 0x5e3-0x5e3.7 (1)
0x5e0|            00                                 |    .           |                        x: 0 0x5e4-0x5e4.7 (1)
     |                                               |                |                      [3]{}: instr 0x5e5-0x5e5.7 (1)
0x5e0|               1b                              |     .          |                        select: 0x1b (valid) 0x5e5-0x5e5.7 (1)
     |                                               |                |                      [4]{}: instr 0x5e6-0x5e6.7 (1)
0x5e0|                  45                           |      E         |                        i32.eqz: 0x45 (valid) 0x5e6-0x5e6.7 (1)
0x5e0|                     0b                        |       .        |                    end: 11 (valid) 0x5e7-0x5e7.7 (1)
     |                                               |                |                  [1]{}: instr 0x5e8-0x5e8.7 (1)
0x5e0|                        0b                     |        .       |                    end: 0xb (valid) 0x5e8-0x5e8.7 (1)
     |                                               |                |          [43]{}: code 0x5e9-0x5f8.7 (16)
0x5e0|                           0f                  |         .      |            size: 15 0x5e9-0x5e9.7 (1)
     |                                               |                |            code{}: 0x5ea-0x5f8.7 (15)
     |                                               |                |              locals{}: 0x5ea-0x5ea.7 (1)
0x5e0|                              00               |          .     |                n: 0 0x5ea-0x5ea.7 (1)
     |                                               |                |                items[0:0]: 0x5eb-NA (0)
     |                                               |                |              expr{}: 0x5eb-0x5f8.7 (14)
     |                                               |                |                instructions[0:2]: 0x5eb-0x5f8.7 (14)
     |                                               |                |                  [0]{}: instr 0x5eb-0x5f7.7 (13)
0x5e0|                                 02            |           .    |                    block: 0x2 (valid) 0x5eb-0x5eb.7 (1)
0x5e0|                                    7f         |            .   |                    valtype: "i32" (127) 0x5ec-0x5ec.7 (1)
     |                                               |                |                    instructions[0:6]: 0x5ed-0x5f6.7 (10)
     |                                               |                |                      [0]{}: instr 0x5ed-0x5ee.7 (2)
0x5e0|                                       41      |             A  |                        i32.const: 0x41 (valid) 0x5ed-0x5ed.7 (1)
0x5e0|                                          01   |              . |                        n: 1 0x5ee-0x5ee.7 (1)
     |                                               |                |                      [1]{}: instr 0x5ef-0x5f0.7 (2)
0x5e0|                                             41|               A|                        i32.const: 0x41 (valid) 0x5ef-0x5ef.7 (1)
0x5f0|02                                             |.               |                        n: 2 0x5f0-0x5f0.7 (1)
     |                                               |                |                      [2]{}: instr 0x5f1-0x5f2.7 (2)
0x5f0|   20                                          |                |                        local.get: 0x20 (valid) 0x5f1-0x5f1.7 (1)
0x5f0|      00                                       |  .             |                        x: 0 0x5f2-0x5f2.7 (1)
     |                                               |                |                      [3]{}: instr 0x5f3-0x5f3.7 (1)
0x5f0|         1b                                    |   .            |                        select: 0x1b (valid) 0x5f3-0x5f3.7 (1)
     |                                               |                |                      [4]{}: instr 0x5f4-0x5f5.7 (2)
0x5f0|            41                                 |    A           |                        i32.const: 0x41 (valid) 0x5f4-0x5f4.7 (1)
0x5f0|               01                              |     .          |                        n: 1 0x5f5-0x5f5.7 (1)
     |                                               |                |                      [5]{}: instr 0x5f6-0x5f6.7 (1)
0x5f0|                  4c                           |      L         |                        i32.le_s: 0x4c (valid) 0x5f6-0x5f6.7 (1)
0x5f0|                     0b                        |       .        |                    end: 11 (valid) 0x5f7-0x5f7.7 (1)
     |                                               |                |                  [1]{}: instr 0x5f8-0x5f8.7 (1)
0x5f0|                        0b                     |        .       |                    end: 0xb (valid) 0x5f8-0x5f8.7 (1)
     |                                               |                |          [44]{}: code 0x5f9-0x608.7 (16)
0x5f0|                           0f                  |         .      |            size: 15 0x5f9-0x5f9.7 (1)
     |                                               |                |            code{}: 0x5fa-0x608.7 (15)
     |                                               |                |              locals{}: 0x5fa-0x5fa.7 (1)
0x5f0|                              00               |          .     |                n: 0 0x5fa-0x5fa.7 (1)
     |                                               |                |                items[0:0]: 0x5fb-NA (0)
     |                                               |                |              expr{}: 0x5fb-0x608.7 (14)
     |                                               |                |                instructions[0:2]: 0x5fb-0x608.7 (14)
     |                                               |                |                  [0]{}: instr 0x5fb-0x607.7 (13)
0x5f0|                                 02            |           .    |                    block: 0x2 (valid) 0x5fb-0x5fb.7 (1)
0x5f0|                                    7f         |            .   |                    valtype: "i32" (127) 0x5fc-0x5fc.7 (1)
     |                                               |                |                    instructions[0:6]: 0x5fd-0x606.7 (10)
     |                                               |                |                      [0]{}: instr 0x5fd-0x5fe.7 (2)
0x5f0|                                       41      |             A  |                        i32.const: 0x41 (valid) 0x5fd-0x5fd.7 (1)
0x5f0|                                          01   |              . |                        n: 1 0x5fe-0x5fe.7 (1)
     |                                               |                |                      [1]{}: instr 0x5ff-0x600.7 (2)
0x5f0|                                             41|               A|                        i32.const: 0x41 (valid) 0x5ff-0x5ff.7 (1)
0x600|00                                             |.               |                        n: 0 0x600-0x600.7 (1)
     |                                               |                |                      [2]{}: instr 0x601-0x602.7 (2)
0x600|   41                                          | A              |                        i32.const: 0x41 (valid) 0x601-0x601.7 (1)
0x600|      01                                       |  .             |                        n: 1 0x602-0x602.7 (1)
     |                                               |                |                      [3]{}: instr 0x603-0x604.7 (2)
0x600|         20                                    |                |                        local.get: 0x20 (valid) 0x603-0x603.7 (1)
0x600|            00                                 |    .           |                        x: 0 0x604-0x604.7 (1)
     |                                               |                |                      [4]{}: instr 0x605-0x605.7 (1)
0x600|               1b                              |     .          |                        select: 0x1b (valid) 0x605-0x605.7 (1)
     |                                               |                |                      [5]{}: instr 0x606-0x606.7 (1)
0x600|                  47                           |      G         |                        i32.ne: 0x47 (valid) 0x606-0x606.7 (1)
0x600|                     0b                        |       .        |                    end: 11 (valid) 0x607-0x607.7 (1)
     |                                               |                |                  [1]{}: instr 0x608-0x608.7 (1)
0x600|                        0b                     |        .       |                    end: 0xb (valid) 0x608-0x608.7 (1)
     |                                               |                |          [45]{}: code 0x609-0x616.7 (14)
0x600|                           0d                  |         .      |            size: 13 0x609-0x609.7 (1)
     |                                               |                |            code{}: 0x60a-0x616.7 (13)
     |                                               |                |              locals{}: 0x60a-0x60a.7 (1)
0x600|                              00               |          .     |                n: 0 0x60a-0x60a.7 (1)
     |                                               |                |                items[0:0]: 0x60b-NA (0)
     |                                               |                |              expr{}: 0x60b-0x616.7 (12)
     |                                               |                |                instructions[0:2]: 0x60b-0x616.7 (12)
     |                                               |                |                  [0]{}: instr 0x60b-0x615.7 (11)
0x600|                                 02            |           .    |                    block: 0x2 (valid) 0x60b-0x60b.7 (1)
0x600|                                    7f         |            .   |                    valtype: "i32" (127) 0x60c-0x60c.7 (1)
     |                                               |                |                    instructions[0:5]: 0x60d-0x614.7 (8)
     |                                               |                |                      [0]{}: instr 0x60d-0x60e.7 (2)
0x600|                                       42      |             B  |                        i64.const: 0x42 (valid) 0x60d-0x60d.7 (1)
0x600|                                          01   |              . |                        n: 1 0x60e-0x60e.7 (1)
     |                                               |                |                      [1]{}: instr 0x60f-0x610.7 (2)
0x600|                                             42|               B|                        i64.const: 0x42 (valid) 0x60f-0x60f.7 (1)
0x610|00                                             |.               |                        n: 0 0x610-0x610.7 (1)
     |                                               |                |                      [2]{}: instr 0x611-0x612.7 (2)
0x610|   20                                          |                |                        local.get: 0x20 (valid) 0x611-0x611.7 (1)
0x610|      00                                       |  .             |                        x: 0 0x612-0x612.7 (1)
     |                                               |                |                      [3]{}: instr 0x613-0x613.7 (1)
0x610|         1b                                    |   .            |                        select: 0x1b (valid) 0x613-0x613.7 (1)
     |                                               |                |                      [4]{}: instr 0x614-0x614.7 (1)
0x610|            a7                                 |    .           |                        i32.wrap_i64: 0xa7 (valid) 0x614-0x614.7 (1)
0x610|               0b                              |     .          |                    end: 11 (valid) 0x615-0x615.7 (1)
     |                                               |                |                  [1]{}: instr 0x616-0x616.7 (1)
0x610|                  0b|                          |      .|        |                    end: 0xb (valid) 0x616-0x616.7 (1)
