$ fq -d wasm dv simd_load-4.wasm
    |00 01 02 03 04 05 06 07 08 09 0a 0b 0c 0d 0e 0f|0123456789abcdef|.{}: simd_load-4.wasm (wasm) 0x0-0x92.7 (147)
0x00|00 61 73 6d                                    |.asm            |  magic: raw bits (valid) 0x0-0x3.7 (4)
0x00|            01 00 00 00                        |    ....        |  version: 1 0x4-0x7.7 (4)
    |                                               |                |  sections[0:6]: 0x8-0x92.7 (139)
    |                                               |                |    [0]{}: section 0x8-0xe.7 (7)
0x00|                        01                     |        .       |      id: "type section" (1) 0x8-0x8.7 (1)
0x00|                           05                  |         .      |      size: 5 0x9-0x9.7 (1)
    |                                               |                |      content{}: 0xa-0xe.7 (5)
0x00|                              01               |          .     |        n: 1 0xa-0xa.7 (1)
    |                                               |                |        items[0:1]: 0xb-0xe.7 (4)
    |                                               |                |          [0]{}: functype 0xb-0xe.7 (4)
0x00|                                 60            |           `    |            tag: 0x60 (valid) 0xb-0xb.7 (1)
    |                                               |                |            rt1{}: 0xc-0xc.7 (1)
0x00|                                    00         |            .   |              n: 0 0xc-0xc.7 (1)
    |                                               |                |              items[0:0]: 0xd-NA (0)
    |                                               |                |            rt2{}: 0xd-0xe.7 (2)
0x00|                                       01      |             .  |              n: 1 0xd-0xd.7 (1)
    |                                               |                |              items[0:1]: 0xe-0xe.7 (1)
0x00|                                          7b   |              { |                [0]: "v128" (123) valtype 0xe-0xe.7 (1)
    |                                               |                |    [1]{}: section 0xf-0x12.7 (4)
0x00|                                             03|               .|      id: "function section" (3) 0xf-0xf.7 (1)
0x10|02                                             |.               |      size: 2 0x10-0x10.7 (1)
    |                                               |                |      content{}: 0x11-0x12.7 (2)
0x10|   01                                          | .              |        n: 1 0x11-0x11.7 (1)
    |                                               |                |        items[0:1]: 0x12-0x12.7 (1)
0x10|      00                                       |  .             |          [0]: 0 x 0x12-0x12.7 (1)
    |                                               |                |    [2]{}: section 0x13-0x17.7 (5)
0x10|         05                                    |   .            |      id: "memory section" (5) 0x13-0x13.7 (1)
0x10|            03                                 |    .           |      size: 3 0x14-0x14.7 (1)
    |                                               |                |      content{}: 0x15-0x17.7 (3)
0x10|               01                              |     .          |        n: 1 0x15-0x15.7 (1)
    |                                               |                |        items[0:1]: 0x16-0x17.7 (2)
    |                                               |                |          [0]{}: mem 0x16-0x17.7 (2)
    |                                               |                |            limits{}: 0x16-0x17.7 (2)
0x10|                  00                           |      .         |              tag: 0x0 0x16-0x16.7 (1)
0x10|                     01                        |       .        |              min: 1 0x17-0x17.7 (1)
    |                                               |                |    [3]{}: section 0x18-0x36.7 (31)
0x10|                        07                     |        .       |      id: "export section" (7) 0x18-0x18.7 (1)
0x10|                           1d                  |         .      |      size: 29 0x19-0x19.7 (1)
    |                                               |                |      content{}: 0x1a-0x36.7 (29)
0x10|                              01               |          .     |        n: 1 0x1a-0x1a.7 (1)
    |                                               |                |        items[0:1]: 0x1b-0x36.7 (28)
    |                                               |                |          [0]{}: export 0x1b-0x36.7 (28)
    |                                               |                |            name{}: 0x1b-0x34.7 (26)
0x10|                                 19            |           .    |              len: 25 0x1b-0x1b.7 (1)
0x10|                                    61 73 2d 76|            as-v|              utf8bytes: "as-v128.bitselect-operand" 0x1c-0x34.7 (25)
0x20|31 32 38 2e 62 69 74 73 65 6c 65 63 74 2d 6f 70|128.bitselect-op|
0x30|65 72 61 6e 64                                 |erand           |
    |                                               |                |            expr{}: 0x35-0x36.7 (2)
0x30|               00                              |     .          |              tag: "funcidx" (0x0) 0x35-0x35.7 (1)
0x30|                  00                           |      .         |              x: 0 0x36-0x36.7 (1)
    |                                               |                |    [4]{}: section 0x37-0x50.7 (26)
0x30|                     0a                        |       .        |      id: "code section" (10) 0x37-0x37.7 (1)
0x30|                        18                     |        .       |      size: 24 0x38-0x38.7 (1)
    |                                               |                |      content{}: 0x39-0x50.7 (24)
0x30|                           01                  |         .      |        n: 1 0x39-0x39.7 (1)
    |                                               |                |        items[0:1]: 0x3a-0x50.7 (23)
    |                                               |                |          [0]{}: code 0x3a-0x50.7 (23)
0x30|                              16               |          .     |            size: 22 0x3a-0x3a.7 (1)
    |                                               |                |            code{}: 0x3b-0x50.7 (22)
    |                                               |                |              locals{}: 0x3b-0x3b.7 (1)
0x30|                                 00            |           .    |                n: 0 0x3b-0x3b.7 (1)
    |                                               |                |                items[0:0]: 0x3c-NA (0)
    |                                               |                |              expr{}: 0x3c-0x50.7 (21)
    |                                               |                |                instructions[0:8]: 0x3c-0x50.7 (21)
    |                                               |                |                  [0]{}: instr 0x3c-0x3d.7 (2)
0x30|                                    41         |            A   |                    i32.const: 0x41 (valid) 0x3c-0x3c.7 (1)
0x30|                                       00      |             .  |                    n: 0 0x3d-0x3d.7 (1)
    |                                               |                |                  [1]{}: instr 0x3e-0x41.7 (4)
0x30|                                          fd   |              . |                    prefix: 0xfd (valid) 0x3e-0x3e.7 (1)
0x30|                                             00|               .|                    v128.load: 0 (valid) 0x3f-0x3f.7 (1)
    |                                               |                |                    m{}: 0x40-0x41.7 (2)
0x40|04                                             |.               |                      align: 4 0x40-0x40.7 (1)
0x40|   00                                          | .              |                      offset: 0 0x41-0x41.7 (1)
    |                                               |                |                  [2]{}: instr 0x42-0x43.7 (2)
0x40|      41                                       |  A             |                    i32.const: 0x41 (valid) 0x42-0x42.7 (1)
0x40|         10                                    |   .            |                    n: 16 0x43-0x43.7 (1)
    |                                               |                |                  [3]{}: instr 0x44-0x47.7 (4)
0x40|            fd                                 |    .           |                    prefix: 0xfd (valid) 0x44-0x44.7 (1)
0x40|               00                              |     .          |                    v128.load: 0 (valid) 0x45-0x45.7 (1)
    |                                               |                |                    m{}: 0x46-0x47.7 (2)
0x40|                  04                           |      .         |                      align: 4 0x46-0x46.7 (1)
0x40|                     00                        |       .        |                      offset: 0 0x47-0x47.7 (1)
    |                                               |                |                  [4]{}: instr 0x48-0x49.7 (2)
0x40|                        41                     |        A       |                    i32.const: 0x41 (valid) 0x48-0x48.7 (1)
0x40|                           20                  |                |                    n: 32 0x49-0x49.7 (1)
    |                                               |                |                  [5]{}: instr 0x4a-0x4d.7 (4)
0x40|                              fd               |          .     |                    prefix: 0xfd (valid) 0x4a-0x4a.7 (1)
0x40|                                 00            |           .    |                    v128.load: 0 (valid) 0x4b-0x4b.7 (1)
    |                                               |                |                    m{}: 0x4c-0x4d.7 (2)
0x40|                                    04         |            .   |                      align: 4 0x4c-0x4c.7 (1)
0x40|                                       00      |             .  |                      offset: 0 0x4d-0x4d.7 (1)
    |                                               |                |                  [6]{}: instr 0x4e-0x4f.7 (2)
0x40|                                          fd   |              . |                    prefix: 0xfd (valid) 0x4e-0x4e.7 (1)
0x40|                                             52|               R|                    v128.bitselect: 82 (valid) 0x4f-0x4f.7 (1)
    |                                               |                |                  [7]{}: instr 0x50-0x50.7 (1)
0x50|0b                                             |.               |                    end: 0xb (valid) 0x50-0x50.7 (1)
    |                                               |                |    [5]{}: section 0x51-0x92.7 (66)
0x50|   0b                                          | .              |      id: "data section" (11) 0x51-0x51.7 (1)
0x50|      40                                       |  @             |      size: 64 0x52-0x52.7 (1)
    |                                               |                |      content{}: 0x53-0x92.7 (64)
0x50|         03                                    |   .            |        n: 3 0x53-0x53.7 (1)
    |                                               |                |        items[0:3]: 0x54-0x92.7 (63)
    |                                               |                |          [0]{}: data 0x54-0x68.7 (21)
0x50|            00                                 |    .           |            tag: 0 0x54-0x54.7 (1)
    |                                               |                |            instructions[0:2]: 0x55-0x57.7 (3)
    |                                               |                |              [0]{}: instr 0x55-0x56.7 (2)
0x50|               41                              |     A          |                i32.const: 0x41 (valid) 0x55-0x55.7 (1)
0x50|                  00                           |      .         |                n: 0 0x56-0x56.7 (1)
    |                                               |                |              [1]{}: instr 0x57-0x57.7 (1)
0x50|                     0b                        |       .        |                end: 0xb (valid) 0x57-0x57.7 (1)
0x50|                        10                     |        .       |            n: 16 0x58-0x58.7 (1)
0x50|                           aa aa aa aa aa aa aa|         .......|            bytes: raw bits 0x59-0x68.7 (16)
0x60|aa aa aa aa aa aa aa aa aa                     |.........       |
    |                                               |                |          [1]{}: data 0x69-0x7d.7 (21)
0x60|                           00                  |         .      |            tag: 0 0x69-0x69.7 (1)
    |                                               |                |            instructions[0:2]: 0x6a-0x6c.7 (3)
    |                                               |                |              [0]{}: instr 0x6a-0x6b.7 (2)
0x60|                              41               |          A     |                i32.const: 0x41 (valid) 0x6a-0x6a.7 (1)
0x60|                                 10            |           .    |                n: 16 0x6b-0x6b.7 (1)
    |                                               |                |              [1]{}: instr 0x6c-0x6c.7 (1)
0x60|                                    0b         |            .   |                end: 0xb (valid) 0x6c-0x6c.7 (1)
0x60|                                       10      |             .  |            n: 16 0x6d-0x6d.7 (1)
0x60|                                          bb bb|              ..|            bytes: raw bits 0x6e-0x7d.7 (16)
0x70|bb bb bb bb bb bb bb bb bb bb bb bb bb bb      |..............  |
    |                                               |                |          [2]{}: data 0x7e-0x92.7 (21)
0x70|                                          00   |              . |            tag: 0 0x7e-0x7e.7 (1)
    |                                               |                |            instructions[0:2]: 0x7f-0x81.7 (3)
    |                                               |                |              [0]{}: instr 0x7f-0x80.7 (2)
0x70|                                             41|               A|                i32.const: 0x41 (valid) 0x7f-0x7f.7 (1)
0x80|20                                             |                |                n: 32 0x80-0x80.7 (1)
    |                                               |                |              [1]{}: instr 0x81-0x81.7 (1)
0x80|   0b                                          | .              |                end: 0xb (valid) 0x81-0x81.7 (1)
0x80|      10                                       |  .             |            n: 16 0x82-0x82.7 (1)
0x80|         f0 f0 f0 f0 ff ff ff ff 00 00 00 00 ff|   .............|            bytes: raw bits 0x83-0x92.7 (16)
0x90|00 ff 00|                                      |...|            |
