$ fq -d wasm dv simd_i16x8_arith2-0.wasm
     |00 01 02 03 04 05 06 07 08 09 0a 0b 0c 0d 0e 0f|0123456789abcdef|.{}: simd_i16x8_arith2-0.wasm (wasm) 0x0-0x5d0.7 (1489)
0x000|00 61 73 6d                                    |.asm            |  magic: raw bits (valid) 0x0-0x3.7 (4)
0x000|            01 00 00 00                        |    ....        |  version: 1 0x4-0x7.7 (4)
     |                                               |                |  sections[0:4]: 0x8-0x5d0.7 (1481)
     |                                               |                |    [0]{}: section 0x8-0x19.7 (18)
0x000|                        01                     |        .       |      id: "type section" (1) 0x8-0x8.7 (1)
0x000|                           10                  |         .      |      size: 16 0x9-0x9.7 (1)
     |                                               |                |      content{}: 0xa-0x19.7 (16)
0x000|                              03               |          .     |        n: 3 0xa-0xa.7 (1)
     |                                               |                |        items[0:3]: 0xb-0x19.7 (15)
     |                                               |                |          [0]{}: functype 0xb-0x10.7 (6)
0x000|                                 60            |           `    |            tag: 0x60 (valid) 0xb-0xb.7 (1)
     |                                               |                |            rt1{}: 0xc-0xe.7 (3)
0x000|                                    02         |            .   |              n: 2 0xc-0xc.7 (1)
     |                                               |                |              items[0:2]: 0xd-0xe.7 (2)
0x000|                                       7b      |             {  |                [0]: "v128" (123) valtype 0xd-0xd.7 (1)
0x000|                                          7b   |              { |                [1]: "v128" (123) valtype 0xe-0xe.7 (1)
     |                                               |                |            rt2{}: 0xf-0x10.7 (2)
0x000|                                             01|               .|              n: 1 0xf-0xf.7 (1)
     |                                               |                |              items[0:1]: 0x10-0x10.7 (1)
0x010|7b                                             |{               |                [0]: "v128" (123) valtype 0x10-0x10.7 (1)
     |                                               |                |          [1]{}: functype 0x11-0x15.7 (5)
0x010|   60                                          | `              |            tag: 0x60 (valid) 0x11-0x11.7 (1)
     |                                               |                |            rt1{}: 0x12-0x13.7 (2)
0x010|      01                                       |  .             |              n: 1 0x12-0x12.7 (1)
     |                                               |                |              items[0:1]: 0x13-0x13.7 (1)
0x010|         7b                                    |   {            |                [0]: "v128" (123) valtype 0x13-0x13.7 (1)
     |                                               |                |            rt2{}: 0x14-0x15.7 (2)
0x010|            01                                 |    .           |              n: 1 0x14-0x14.7 (1)
     |                                               |                |              items[0:1]: 0x15-0x15.7 (1)
0x010|               7b                              |     {          |                [0]: "v128" (123) valtype 0x15-0x15.7 (1)
     |                                               |                |          [2]{}: functype 0x16-0x19.7 (4)
0x010|                  60                           |      `         |            tag: 0x60 (valid) 0x16-0x16.7 (1)
     |                                               |                |            rt1{}: 0x17-0x17.7 (1)
0x010|                     00                        |       .        |              n: 0 0x17-0x17.7 (1)
     |                                               |                |              items[0:0]: 0x18-NA (0)
     |                                               |                |            rt2{}: 0x18-0x19.7 (2)
0x010|                        01                     |        .       |              n: 1 0x18-0x18.7 (1)
     |                                               |                |              items[0:1]: 0x19-0x19.7 (1)
0x010|                           7b                  |         {      |                [0]: "v128" (123) valtype 0x19-0x19.7 (1)
     |                                               |                |    [1]{}: section 0x1a-0x37.7 (30)
0x010|                              03               |          .     |      id: "function section" (3) 0x1a-0x1a.7 (1)
0x010|                                 1c            |           .    |      size: 28 0x1b-0x1b.7 (1)
     |                                               |                |      content{}: 0x1c-0x37.7 (28)
0x010|                                    1b         |            .   |        n: 27 0x1c-0x1c.7 (1)
     |                                               |                |        items[0:27]: 0x1d-0x37.7 (27)
0x010|                                       00      |             .  |          [0]: 0 x 0x1d-0x1d.7 (1)
0x010|                                          00   |              . |          [1]: 0 x 0x1e-0x1e.7 (1)
0x010|                                             00|               .|          [2]: 0 x 0x1f-0x1f.7 (1)
0x020|00                                             |.               |          [3]: 0 x 0x20-0x20.7 (1)
0x020|   00                                          | .              |          [4]: 0 x 0x21-0x21.7 (1)
0x020|      01                                       |  .             |          [5]: 1 x 0x22-0x22.7 (1)
0x020|         02                                    |   .            |          [6]: 2 x 0x23-0x23.7 (1)
0x020|            02                                 |    .           |          [7]: 2 x 0x24-0x24.7 (1)
0x020|               02                              |     .          |          [8]: 2 x 0x25-0x25.7 (1)
0x020|                  02                           |      .         |          [9]: 2 x 0x26-0x26.7 (1)
0x020|                     02                        |       .        |          [10]: 2 x 0x27-0x27.7 (1)
0x020|                        02                     |        .       |          [11]: 2 x 0x28-0x28.7 (1)
0x020|                           02                  |         .      |          [12]: 2 x 0x29-0x29.7 (1)
0x020|                              02               |          .     |          [13]: 2 x 0x2a-0x2a.7 (1)
0x020|                                 02            |           .    |          [14]: 2 x 0x2b-0x2b.7 (1)
0x020|                                    02         |            .   |          [15]: 2 x 0x2c-0x2c.7 (1)
0x020|                                       02      |             .  |          [16]: 2 x 0x2d-0x2d.7 (1)
0x020|                                          01   |              . |          [17]: 1 x 0x2e-0x2e.7 (1)
0x020|                                             01|               .|          [18]: 1 x 0x2f-0x2f.7 (1)
0x030|01                                             |.               |          [19]: 1 x 0x30-0x30.7 (1)
0x030|   01                                          | .              |          [20]: 1 x 0x31-0x31.7 (1)
0x030|      01                                       |  .             |          [21]: 1 x 0x32-0x32.7 (1)
0x030|         01                                    |   .            |          [22]: 1 x 0x33-0x33.7 (1)
0x030|            01                                 |    .           |          [23]: 1 x 0x34-0x34.7 (1)
0x030|               01                              |     .          |          [24]: 1 x 0x35-0x35.7 (1)
0x030|                  01                           |      .         |          [25]: 1 x 0x36-0x36.7 (1)
0x030|                     01                        |       .        |          [26]: 1 x 0x37-0x37.7 (1)
     |                                               |                |    [2]{}: section 0x38-0x2d2.7 (667)
0x030|                        07                     |        .       |      id: "export section" (7) 0x38-0x38.7 (1)
0x030|                           98 05               |         ..     |      size: 664 0x39-0x3a.7 (2)
     |                                               |                |      content{}: 0x3b-0x2d2.7 (664)
0x030|                                 1b            |           .    |        n: 27 0x3b-0x3b.7 (1)
     |                                               |                |        items[0:27]: 0x3c-0x2d2.7 (663)
     |                                               |                |          [0]{}: export 0x3c-0x49.7 (14)
     |                                               |                |            name{}: 0x3c-0x47.7 (12)
0x030|                                    0b         |            .   |              len: 11 0x3c-0x3c.7 (1)
0x030|                                       69 31 36|             i16|              utf8bytes: "i16x8.min_s" 0x3d-0x47.7 (11)
0x040|78 38 2e 6d 69 6e 5f 73                        |x8.min_s        |
     |                                               |                |            expr{}: 0x48-0x49.7 (2)
0x040|                        00                     |        .       |              tag: "funcidx" (0x0) 0x48-0x48.7 (1)
0x040|                           00                  |         .      |              x: 0 0x49-0x49.7 (1)
     |                                               |                |          [1]{}: export 0x4a-0x57.7 (14)
     |                                               |                |            name{}: 0x4a-0x55.7 (12)
0x040|                              0b               |          .     |              len: 11 0x4a-0x4a.7 (1)
0x040|                                 69 31 36 78 38|           i16x8|              utf8bytes: "i16x8.min_u" 0x4b-0x55.7 (11)
0x050|2e 6d 69 6e 5f 75                              |.min_u          |
     |                                               |                |            expr{}: 0x56-0x57.7 (2)
0x050|                  00                           |      .         |              tag: "funcidx" (0x0) 0x56-0x56.7 (1)
0x050|                     01                        |       .        |              x: 1 0x57-0x57.7 (1)
     |                                               |                |          [2]{}: export 0x58-0x65.7 (14)
     |                                               |                |            name{}: 0x58-0x63.7 (12)
0x050|                        0b                     |        .       |              len: 11 0x58-0x58.7 (1)
0x050|                           69 31 36 78 38 2e 6d|         i16x8.m|              utf8bytes: "i16x8.max_s" 0x59-0x63.7 (11)
0x060|61 78 5f 73                                    |ax_s            |
     |                                               |                |            expr{}: 0x64-0x65.7 (2)
0x060|            00                                 |    .           |              tag: "funcidx" (0x0) 0x64-0x64.7 (1)
0x060|               02                              |     .          |              x: 2 0x65-0x65.7 (1)
     |                                               |                |          [3]{}: export 0x66-0x73.7 (14)
     |                                               |                |            name{}: 0x66-0x71.7 (12)
0x060|                  0b                           |      .         |              len: 11 0x66-0x66.7 (1)
0x060|                     69 31 36 78 38 2e 6d 61 78|       i16x8.max|              utf8bytes: "i16x8.max_u" 0x67-0x71.7 (11)
0x070|5f 75                                          |_u              |
     |                                               |                |            expr{}: 0x72-0x73.7 (2)
0x070|      00                                       |  .             |              tag: "funcidx" (0x0) 0x72-0x72.7 (1)
0x070|         03                                    |   .            |              x: 3 0x73-0x73.7 (1)
     |                                               |                |          [4]{}: export 0x74-0x82.7 (15)
     |                                               |                |            name{}: 0x74-0x80.7 (13)
0x070|            0c                                 |    .           |              len: 12 0x74-0x74.7 (1)
0x070|               69 31 36 78 38 2e 61 76 67 72 5f|     i16x8.avgr_|              utf8bytes: "i16x8.avgr_u" 0x75-0x80.7 (12)
0x080|75                                             |u               |
     |                                               |                |            expr{}: 0x81-0x82.7 (2)
0x080|   00                                          | .              |              tag: "funcidx" (0x0) 0x81-0x81.7 (1)
0x080|      04                                       |  .             |              x: 4 0x82-0x82.7 (1)
     |                                               |                |          [5]{}: export 0x83-0x8e.7 (12)
     |                                               |                |            name{}: 0x83-0x8c.7 (10)
0x080|         09                                    |   .            |              len: 9 0x83-0x83.7 (1)
0x080|            69 31 36 78 38 2e 61 62 73         |    i16x8.abs   |              utf8bytes: "i16x8.abs" 0x84-0x8c.7 (9)
     |                                               |                |            expr{}: 0x8d-0x8e.7 (2)
0x080|                                       00      |             .  |              tag: "funcidx" (0x0) 0x8d-0x8d.7 (1)
0x080|                                          05   |              . |              x: 5 0x8e-0x8e.7 (1)
     |                                               |                |          [6]{}: export 0x8f-0xa9.7 (27)
     |                                               |                |            name{}: 0x8f-0xa7.7 (25)
0x080|                                             18|               .|              len: 24 0x8f-0x8f.7 (1)
0x090|69 31 36 78 38 2e 6d 69 6e 5f 73 5f 77 69 74 68|i16x8.min_s_with|              utf8bytes: "i16x8.min_s_with_const_0" 0x90-0xa7.7 (24)
0x0a0|5f 63 6f 6e 73 74 5f 30                        |_const_0        |
     |                                               |                |            expr{}: 0xa8-0xa9.7 (2)
0x0a0|                        00                     |        .       |              tag: "funcidx" (0x0) 0xa8-0xa8.7 (1)
0x0a0|                           06                  |         .      |              x: 6 0xa9-0xa9.7 (1)
     |                                               |                |          [7]{}: export 0xaa-0xc4.7 (27)
     |                                               |                |            name{}: 0xaa-0xc2.7 (25)
0x0a0|                              18               |          .     |              len: 24 0xaa-0xaa.7 (1)
0x0a0|                                 69 31 36 78 38|           i16x8|              utf8bytes: "i16x8.min_s_with_const_1" 0xab-0xc2.7 (24)
0x0b0|2e 6d 69 6e 5f 73 5f 77 69 74 68 5f 63 6f 6e 73|.min_s_with_cons|
0x0c0|74 5f 31                                       |t_1             |
     |                                               |                |            expr{}: 0xc3-0xc4.7 (2)
0x0c0|         00                                    |   .            |              tag: "funcidx" (0x0) 0xc3-0xc3.7 (1)
0x0c0|            07                                 |    .           |              x: 7 0xc4-0xc4.7 (1)
     |                                               |                |          [8]{}: export 0xc5-0xdf.7 (27)
     |                                               |                |            name{}: 0xc5-0xdd.7 (25)
0x0c0|               18                              |     .          |              len: 24 0xc5-0xc5.7 (1)
0x0c0|                  69 31 36 78 38 2e 6d 69 6e 5f|      i16x8.min_|              utf8bytes: "i16x8.min_u_with_const_2" 0xc6-0xdd.7 (24)
0x0d0|75 5f 77 69 74 68 5f 63 6f 6e 73 74 5f 32      |u_with_const_2  |
     |                                               |                |            expr{}: 0xde-0xdf.7 (2)
0x0d0|                                          00   |              . |              tag: "funcidx" (0x0) 0xde-0xde.7 (1)
0x0d0|                                             08|               .|              x: 8 0xdf-0xdf.7 (1)
     |                                               |                |          [9]{}: export 0xe0-0xfa.7 (27)
     |                                               |                |            name{}: 0xe0-0xf8.7 (25)
0x0e0|18                                             |.               |              len: 24 0xe0-0xe0.7 (1)
0x0e0|   69 31 36 78 38 2e 6d 69 6e 5f 75 5f 77 69 74| i16x8.min_u_wit|              utf8bytes: "i16x8.min_u_with_const_3" 0xe1-0xf8.7 (24)
0x0f0|68 5f 63 6f 6e 73 74 5f 33                     |h_const_3       |
     |                                               |                |            expr{}: 0xf9-0xfa.7 (2)
0x0f0|                           00                  |         .      |              tag: "funcidx" (0x0) 0xf9-0xf9.7 (1)
0x0f0|                              09               |          .     |              x: 9 0xfa-0xfa.7 (1)
     |                                               |                |          [10]{}: export 0xfb-0x115.7 (27)
     |                                               |                |            name{}: 0xfb-0x113.7 (25)
0x0f0|                                 18            |           .    |              len: 24 0xfb-0xfb.7 (1)
0x0f0|                                    69 31 36 78|            i16x|              utf8bytes: "i16x8.max_s_with_const_4" 0xfc-0x113.7 (24)
0x100|38 2e 6d 61 78 5f 73 5f 77 69 74 68 5f 63 6f 6e|8.max_s_with_con|
0x110|73 74 5f 34                                    |st_4            |
     |                                               |                |            expr{}: 0x114-0x115.7 (2)
0x110|            00                                 |    .           |              tag: "funcidx" (0x0) 0x114-0x114.7 (1)
0x110|               0a                              |     .          |              x: 10 0x115-0x115.7 (1)
     |                                               |                |          [11]{}: export 0x116-0x130.7 (27)
     |                                               |                |            name{}: 0x116-0x12e.7 (25)
0x110|                  18                           |      .         |              len: 24 0x116-0x116.7 (1)
0x110|                     69 31 36 78 38 2e 6d 61 78|       i16x8.max|              utf8bytes: "i16x8.max_s_with_const_5" 0x117-0x12e.7 (24)
0x120|5f 73 5f 77 69 74 68 5f 63 6f 6e 73 74 5f 35   |_s_with_const_5 |
     |                                               |                |            expr{}: 0x12f-0x130.7 (2)
0x120|                                             00|               .|              tag: "funcidx" (0x0) 0x12f-0x12f.7 (1)
0x130|0b                                             |.               |              x: 11 0x130-0x130.7 (1)
     |                                               |                |          [12]{}: export 0x131-0x14b.7 (27)
     |                                               |                |            name{}: 0x131-0x149.7 (25)
0x130|   18                                          | .              |              len: 24 0x131-0x131.7 (1)
0x130|      69 31 36 78 38 2e 6d 61 78 5f 75 5f 77 69|  i16x8.max_u_wi|              utf8bytes: "i16x8.max_u_with_const_6" 0x132-0x149.7 (24)
0x140|74 68 5f 63 6f 6e 73 74 5f 36                  |th_const_6      |
     |                                               |                |            expr{}: 0x14a-0x14b.7 (2)
0x140|                              00               |          .     |              tag: "funcidx" (0x0) 0x14a-0x14a.7 (1)
0x140|                                 0c            |           .    |              x: 12 0x14b-0x14b.7 (1)
     |                                               |                |          [13]{}: export 0x14c-0x166.7 (27)
     |                                               |                |            name{}: 0x14c-0x164.7 (25)
0x140|                                    18         |            .   |              len: 24 0x14c-0x14c.7 (1)
0x140|                                       69 31 36|             i16|              utf8bytes: "i16x8.max_u_with_const_7" 0x14d-0x164.7 (24)
0x150|78 38 2e 6d 61 78 5f 75 5f 77 69 74 68 5f 63 6f|x8.max_u_with_co|
0x160|6e 73 74 5f 37                                 |nst_7           |
     |                                               |                |            expr{}: 0x165-0x166.7 (2)
0x160|               00                              |     .          |              tag: "funcidx" (0x0) 0x165-0x165.7 (1)
0x160|                  0d                           |      .         |              x: 13 0x166-0x166.7 (1)
     |                                               |                |          [14]{}: export 0x167-0x182.7 (28)
     |                                               |                |            name{}: 0x167-0x180.7 (26)
0x160|                     19                        |       .        |              len: 25 0x167-0x167.7 (1)
0x160|                        69 31 36 78 38 2e 61 76|        i16x8.av|              utf8bytes: "i16x8.avgr_u_with_const_8" 0x168-0x180.7 (25)
0x170|67 72 5f 75 5f 77 69 74 68 5f 63 6f 6e 73 74 5f|gr_u_with_const_|
0x180|38                                             |8               |
     |                                               |                |            expr{}: 0x181-0x182.7 (2)
0x180|   00                                          | .              |              tag: "funcidx" (0x0) 0x181-0x181.7 (1)
0x180|      0e                                       |  .             |              x: 14 0x182-0x182.7 (1)
     |                                               |                |          [15]{}: export 0x183-0x19e.7 (28)
     |                                               |                |            name{}: 0x183-0x19c.7 (26)
0x180|         19                                    |   .            |              len: 25 0x183-0x183.7 (1)
0x180|            69 31 36 78 38 2e 61 76 67 72 5f 75|    i16x8.avgr_u|              utf8bytes: "i16x8.avgr_u_with_const_9" 0x184-0x19c.7 (25)
0x190|5f 77 69 74 68 5f 63 6f 6e 73 74 5f 39         |_with_const_9   |
     |                                               |                |            expr{}: 0x19d-0x19e.7 (2)
0x190|                                       00      |             .  |              tag: "funcidx" (0x0) 0x19d-0x19d.7 (1)
0x190|                                          0f   |              . |              x: 15 0x19e-0x19e.7 (1)
     |                                               |                |          [16]{}: export 0x19f-0x1b8.7 (26)
     |                                               |                |            name{}: 0x19f-0x1b6.7 (24)
0x190|                                             17|               .|              len: 23 0x19f-0x19f.7 (1)
0x1a0|69 31 36 78 38 2e 61 62 73 5f 77 69 74 68 5f 63|i16x8.abs_with_c|              utf8bytes: "i16x8.abs_with_const_10" 0x1a0-0x1b6.7 (23)
0x1b0|6f 6e 73 74 5f 31 30                           |onst_10         |
     |                                               |                |            expr{}: 0x1b7-0x1b8.7 (2)
0x1b0|                     00                        |       .        |              tag: "funcidx" (0x0) 0x1b7-0x1b7.7 (1)
0x1b0|                        10                     |        .       |              x: 16 0x1b8-0x1b8.7 (1)
     |                                               |                |          [17]{}: export 0x1b9-0x1d4.7 (28)
     |                                               |                |            name{}: 0x1b9-0x1d2.7 (26)
0x1b0|                           19                  |         .      |              len: 25 0x1b9-0x1b9.7 (1)
0x1b0|                              69 31 36 78 38 2e|          i16x8.|              utf8bytes: "i16x8.min_s_with_const_11" 0x1ba-0x1d2.7 (25)
0x1c0|6d 69 6e 5f 73 5f 77 69 74 68 5f 63 6f 6e 73 74|min_s_with_const|
0x1d0|5f 31 31                                       |_11             |
     |                                               |                |            expr{}: 0x1d3-0x1d4.7 (2)
0x1d0|         00                                    |   .            |              tag: "funcidx" (0x0) 0x1d3-0x1d3.7 (1)
0x1d0|            11                                 |    .           |              x: 17 0x1d4-0x1d4.7 (1)
     |                                               |                |          [18]{}: export 0x1d5-0x1f0.7 (28)
     |                                               |                |            name{}: 0x1d5-0x1ee.7 (26)
0x1d0|               19                              |     .          |              len: 25 0x1d5-0x1d5.7 (1)
0x1d0|                  69 31 36 78 38 2e 6d 69 6e 5f|      i16x8.min_|              utf8bytes: "i16x8.min_s_with_const_12" 0x1d6-0x1ee.7 (25)
0x1e0|73 5f 77 69 74 68 5f 63 6f 6e 73 74 5f 31 32   |s_with_const_12 |
     |                                               |                |            expr{}: 0x1ef-0x1f0.7 (2)
0x1e0|                                             00|               .|              tag: "funcidx" (0x0) 0x1ef-0x1ef.7 (1)
0x1f0|12                                             |.               |              x: 18 0x1f0-0x1f0.7 (1)
     |                                               |                |          [19]{}: export 0x1f1-0x20c.7 (28)
     |                                               |                |            name{}: 0x1f1-0x20a.7 (26)
0x1f0|   19                                          | .              |              len: 25 0x1f1-0x1f1.7 (1)
0x1f0|      69 31 36 78 38 2e 6d 69 6e 5f 75 5f 77 69|  i16x8.min_u_wi|              utf8bytes: "i16x8.min_u_with_const_13" 0x1f2-0x20a.7 (25)
0x200|74 68 5f 63 6f 6e 73 74 5f 31 33               |th_const_13     |
     |                                               |                |            expr{}: 0x20b-0x20c.7 (2)
0x200|                                 00            |           .    |              tag: "funcidx" (0x0) 0x20b-0x20b.7 (1)
0x200|                                    13         |            .   |              x: 19 0x20c-0x20c.7 (1)
     |                                               |                |          [20]{}: export 0x20d-0x228.7 (28)
     |                                               |                |            name{}: 0x20d-0x226.7 (26)
0x200|                                       19      |             .  |              len: 25 0x20d-0x20d.7 (1)
0x200|                                          69 31|              i1|              utf8bytes: "i16x8.min_u_with_const_14" 0x20e-0x226.7 (25)
0x210|36 78 38 2e 6d 69 6e 5f 75 5f 77 69 74 68 5f 63|6x8.min_u_with_c|
0x220|6f 6e 73 74 5f 31 34                           |onst_14         |
     |                                               |                |            expr{}: 0x227-0x228.7 (2)
0x220|                     00                        |       .        |              tag: "funcidx" (0x0) 0x227-0x227.7 (1)
0x220|                        14                     |        .       |              x: 20 0x228-0x228.7 (1)
     |                                               |                |          [21]{}: export 0x229-0x244.7 (28)
     |                                               |                |            name{}: 0x229-0x242.7 (26)
0x220|                           19                  |         .      |              len: 25 0x229-0x229.7 (1)
0x220|                              69 31 36 78 38 2e|          i16x8.|              utf8bytes: "i16x8.max_s_with_const_15" 0x22a-0x242.7 (25)
0x230|6d 61 78 5f 73 5f 77 69 74 68 5f 63 6f 6e 73 74|max_s_with_const|
0x240|5f 31 35                                       |_15             |
     |                                               |                |            expr{}: 0x243-0x244.7 (2)
0x240|         00                                    |   .            |              tag: "funcidx" (0x0) 0x243-0x243.7 (1)
0x240|            15                                 |    .           |              x: 21 0x244-0x244.7 (1)
     |                                               |                |          [22]{}: export 0x245-0x260.7 (28)
     |                                               |                |            name{}: 0x245-0x25e.7 (26)
0x240|               19                              |     .          |              len: 25 0x245-0x245.7 (1)
0x240|                  69 31 36 78 38 2e 6d 61 78 5f|      i16x8.max_|              utf8bytes: "i16x8.max_s_with_const_16" 0x246-0x25e.7 (25)
0x250|73 5f 77 69 74 68 5f 63 6f 6e 73 74 5f 31 36   |s_with_const_16 |
     |                                               |                |            expr{}: 0x25f-0x260.7 (2)
0x250|                                             00|               .|              tag: "funcidx" (0x0) 0x25f-0x25f.7 (1)
0x260|16                                             |.               |              x: 22 0x260-0x260.7 (1)
     |                                               |                |          [23]{}: export 0x261-0x27c.7 (28)
     |                                               |                |            name{}: 0x261-0x27a.7 (26)
0x260|   19                                          | .              |              len: 25 0x261-0x261.7 (1)
0x260|      69 31 36 78 38 2e 6d 61 78 5f 75 5f 77 69|  i16x8.max_u_wi|              utf8bytes: "i16x8.max_u_with_const_17" 0x262-0x27a.7 (25)
0x270|74 68 5f 63 6f 6e 73 74 5f 31 37               |th_const_17     |
     |                                               |                |            expr{}: 0x27b-0x27c.7 (2)
0x270|                                 00            |           .    |              tag: "funcidx" (0x0) 0x27b-0x27b.7 (1)
0x270|                                    17         |            .   |              x: 23 0x27c-0x27c.7 (1)
     |                                               |                |          [24]{}: export 0x27d-0x298.7 (28)
     |                                               |                |            name{}: 0x27d-0x296.7 (26)
0x270|                                       19      |             .  |              len: 25 0x27d-0x27d.7 (1)
0x270|                                          69 31|              i1|              utf8bytes: "i16x8.max_u_with_const_18" 0x27e-0x296.7 (25)
0x280|36 78 38 2e 6d 61 78 5f 75 5f 77 69 74 68 5f 63|6x8.max_u_with_c|
0x290|6f 6e 73 74 5f 31 38                           |onst_18         |
     |                                               |                |            expr{}: 0x297-0x298.7 (2)
0x290|                     00                        |       .        |              tag: "funcidx" (0x0) 0x297-0x297.7 (1)
0x290|                        18                     |        .       |              x: 24 0x298-0x298.7 (1)
     |                                               |                |          [25]{}: export 0x299-0x2b5.7 (29)
     |                                               |                |            name{}: 0x299-0x2b3.7 (27)
0x290|                           1a                  |         .      |              len: 26 0x299-0x299.7 (1)
0x290|                              69 31 36 78 38 2e|          i16x8.|              utf8bytes: "i16x8.avgr_u_with_const_19" 0x29a-0x2b3.7 (26)
0x2a0|61 76 67 72 5f 75 5f 77 69 74 68 5f 63 6f 6e 73|avgr_u_with_cons|
0x2b0|74 5f 31 39                                    |t_19            |
     |                                               |                |            expr{}: 0x2b4-0x2b5.7 (2)
0x2b0|            00                                 |    .           |              tag: "funcidx" (0x0) 0x2b4-0x2b4.7 (1)
0x2b0|               19                              |     .          |              x: 25 0x2b5-0x2b5.7 (1)
     |                                               |                |          [26]{}: export 0x2b6-0x2d2.7 (29)
     |                                               |                |            name{}: 0x2b6-0x2d0.7 (27)
0x2b0|                  1a                           |      .         |              len: 26 0x2b6-0x2b6.7 (1)
0x2b0|                     69 31 36 78 38 2e 61 76 67|       i16x8.avg|              utf8bytes: "i16x8.avgr_u_with_const_20" 0x2b7-0x2d0.7 (26)
0x2c0|72 5f 75 5f 77 69 74 68 5f 63 6f 6e 73 74 5f 32|r_u_with_const_2|
0x2d0|30                                             |0               |
     |                                               |                |            expr{}: 0x2d1-0x2d2.7 (2)
0x2d0|   00                                          | .              |              tag: "funcidx" (0x0) 0x2d1-0x2d1.7 (1)
0x2d0|      1a                                       |  .             |              x: 26 0x2d2-0x2d2.7 (1)
     |                                               |                |    [3]{}: section 0x2d3-0x5d0.7 (766)
0x2d0|         0a                                    |   .            |      id: "code section" (10) 0x2d3-0x2d3.7 (1)
0x2d0|            fb 05                              |    ..          |      size: 763 0x2d4-0x2d5.7 (2)
     |                                               |                |      content{}: 0x2d6-0x5d0.7 (763)
0x2d0|                  1b                           |      .         |        n: 27 0x2d6-0x2d6.7 (1)
     |                                               |                |        items[0:27]: 0x2d7-0x5d0.7 (762)
     |                                               |                |          [0]{}: code 0x2d7-0x2e0.7 (10)
0x2d0|                     09                        |       .        |            size: 9 0x2d7-0x2d7.7 (1)
     |                                               |                |            code{}: 0x2d8-0x2e0.7 (9)
     |                                               |                |              locals{}: 0x2d8-0x2d8.7 (1)
0x2d0|                        00                     |        .       |                n: 0 0x2d8-0x2d8.7 (1)
     |                                               |                |                items[0:0]: 0x2d9-NA (0)
     |                                               |                |              expr{}: 0x2d9-0x2e0.7 (8)
     |                                               |                |                instructions[0:4]: 0x2d9-0x2e0.7 (8)
     |                                               |                |                  [0]{}: instr 0x2d9-0x2da.7 (2)
0x2d0|                           20                  |                |                    local.get: 0x20 (valid) 0x2d9-0x2d9.7 (1)
0x2d0|                              00               |          .     |                    x: 0 0x2da-0x2da.7 (1)
     |                                               |                |                  [1]{}: instr 0x2db-0x2dc.7 (2)
0x2d0|                                 20            |                |                    local.get: 0x20 (valid) 0x2db-0x2db.7 (1)
0x2d0|                                    01         |            .   |                    x: 1 0x2dc-0x2dc.7 (1)
     |                                               |                |                  [2]{}: instr 0x2dd-0x2df.7 (3)
0x2d0|                                       fd      |             .  |                    prefix: 0xfd (valid) 0x2dd-0x2dd.7 (1)
0x2d0|                                          96 01|              ..|                    i16x8.min_s: 150 (valid) 0x2de-0x2df.7 (2)
     |                                               |                |                  [3]{}: instr 0x2e0-0x2e0.7 (1)
0x2e0|0b                                             |.               |                    end: 0xb (valid) 0x2e0-0x2e0.7 (1)
     |                                               |                |          [1]{}: code 0x2e1-0x2ea.7 (10)
0x2e0|   09                                          | .              |            size: 9 0x2e1-0x2e1.7 (1)
     |                                               |                |            code{}: 0x2e2-0x2ea.7 (9)
     |                                               |                |              locals{}: 0x2e2-0x2e2.7 (1)
0x2e0|      00                                       |  .             |                n: 0 0x2e2-0x2e2.7 (1)
     |                                               |                |                items[0:0]: 0x2e3-NA (0)
     |                                               |                |              expr{}: 0x2e3-0x2ea.7 (8)
     |                                               |                |                instructions[0:4]: 0x2e3-0x2ea.7 (8)
     |                                               |                |                  [0]{}: instr 0x2e3-0x2e4.7 (2)
0x2e0|         20                                    |                |                    local.get: 0x20 (valid) 0x2e3-0x2e3.7 (1)
0x2e0|            00                                 |    .           |                    x: 0 0x2e4-0x2e4.7 (1)
     |                                               |                |                  [1]{}: instr 0x2e5-0x2e6.7 (2)
0x2e0|               20                              |                |                    local.get: 0x20 (valid) 0x2e5-0x2e5.7 (1)
0x2e0|                  01                           |      .         |                    x: 1 0x2e6-0x2e6.7 (1)
     |                                               |                |                  [2]{}: instr 0x2e7-0x2e9.7 (3)
0x2e0|                     fd                        |       .        |                    prefix: 0xfd (valid) 0x2e7-0x2e7.7 (1)
0x2e0|                        97 01                  |        ..      |                    i16x8.min_u: 151 (valid) 0x2e8-0x2e9.7 (2)
     |                                               |                |                  [3]{}: instr 0x2ea-0x2ea.7 (1)
0x2e0|                              0b               |          .     |                    end: 0xb (valid) 0x2ea-0x2ea.7 (1)
     |                                               |                |          [2]{}: code 0x2eb-0x2f4.7 (10)
0x2e0|                                 09            |           .    |            size: 9 0x2eb-0x2eb.7 (1)
     |                                               |                |            code{}: 0x2ec-0x2f4.7 (9)
     |                                               |                |              locals{}: 0x2ec-0x2ec.7 (1)
0x2e0|                                    00         |            .   |                n: 0 0x2ec-0x2ec.7 (1)
     |                                               |                |                items[0:0]: 0x2ed-NA (0)
     |                                               |                |              expr{}: 0x2ed-0x2f4.7 (8)
     |                                               |                |                instructions[0:4]: 0x2ed-0x2f4.7 (8)
     |                                               |                |                  [0]{}: instr 0x2ed-0x2ee.7 (2)
0x2e0|                                       20      |                |                    local.get: 0x20 (valid) 0x2ed-0x2ed.7 (1)
0x2e0|                                          00   |              . |                    x: 0 0x2ee-0x2ee.7 (1)
     |                                               |                |                  [1]{}: instr 0x2ef-0x2f0.7 (2)
0x2e0|                                             20|                |                    local.get: 0x20 (valid) 0x2ef-0x2ef.7 (1)
0x2f0|01                                             |.               |                    x: 1 0x2f0-0x2f0.7 (1)
     |                                               |                |                  [2]{}: instr 0x2f1-0x2f3.7 (3)
0x2f0|   fd                                          | .              |                    prefix: 0xfd (valid) 0x2f1-0x2f1.7 (1)
0x2f0|      98 01                                    |  ..            |                    i16x8.max_s: 152 (valid) 0x2f2-0x2f3.7 (2)
     |                                               |                |                  [3]{}: instr 0x2f4-0x2f4.7 (1)
0x2f0|            0b                                 |    .           |                    end: 0xb (valid) 0x2f4-0x2f4.7 (1)
     |                                               |                |          [3]{}: code 0x2f5-0x2fe.7 (10)
0x2f0|               09                              |     .          |            size: 9 0x2f5-0x2f5.7 (1)
     |                                               |                |            code{}: 0x2f6-0x2fe.7 (9)
     |                                               |                |              locals{}: 0x2f6-0x2f6.7 (1)
0x2f0|                  00                           |      .         |                n: 0 0x2f6-0x2f6.7 (1)
     |                                               |                |                items[0:0]: 0x2f7-NA (0)
     |                                               |                |              expr{}: 0x2f7-0x2fe.7 (8)
     |                                               |                |                instructions[0:4]: 0x2f7-0x2fe.7 (8)
     |                                               |                |                  [0]{}: instr 0x2f7-0x2f8.7 (2)
0x2f0|                     20                        |                |                    local.get: 0x20 (valid) 0x2f7-0x2f7.7 (1)
0x2f0|                        00                     |        .       |                    x: 0 0x2f8-0x2f8.7 (1)
     |                                               |                |                  [1]{}: instr 0x2f9-0x2fa.7 (2)
0x2f0|                           20                  |                |                    local.get: 0x20 (valid) 0x2f9-0x2f9.7 (1)
0x2f0|                              01               |          .     |                    x: 1 0x2fa-0x2fa.7 (1)
     |                                               |                |                  [2]{}: instr 0x2fb-0x2fd.7 (3)
0x2f0|                                 fd            |           .    |                    prefix: 0xfd (valid) 0x2fb-0x2fb.7 (1)
0x2f0|                                    99 01      |            ..  |                    i16x8.max_u: 153 (valid) 0x2fc-0x2fd.7 (2)
     |                                               |                |                  [3]{}: instr 0x2fe-0x2fe.7 (1)
0x2f0|                                          0b   |              . |                    end: 0xb (valid) 0x2fe-0x2fe.7 (1)
     |                                               |                |          [4]{}: code 0x2ff-0x308.7 (10)
0x2f0|                                             09|               .|            size: 9 0x2ff-0x2ff.7 (1)
     |                                               |                |            code{}: 0x300-0x308.7 (9)
     |                                               |                |              locals{}: 0x300-0x300.7 (1)
0x300|00                                             |.               |                n: 0 0x300-0x300.7 (1)
     |                                               |                |                items[0:0]: 0x301-NA (0)
     |                                               |                |              expr{}: 0x301-0x308.7 (8)
     |                                               |                |                instructions[0:4]: 0x301-0x308.7 (8)
     |                                               |                |                  [0]{}: instr 0x301-0x302.7 (2)
0x300|   20                                          |                |                    local.get: 0x20 (valid) 0x301-0x301.7 (1)
0x300|      00                                       |  .             |                    x: 0 0x302-0x302.7 (1)
     |                                               |                |                  [1]{}: instr 0x303-0x304.7 (2)
0x300|         20                                    |                |                    local.get: 0x20 (valid) 0x303-0x303.7 (1)
0x300|            01                                 |    .           |                    x: 1 0x304-0x304.7 (1)
     |                                               |                |                  [2]{}: instr 0x305-0x307.7 (3)
0x300|               fd                              |     .          |                    prefix: 0xfd (valid) 0x305-0x305.7 (1)
0x300|                  9b 01                        |      ..        |                    i16x8.avgr_u: 155 (valid) 0x306-0x307.7 (2)
     |                                               |                |                  [3]{}: instr 0x308-0x308.7 (1)
0x300|                        0b                     |        .       |                    end: 0xb (valid) 0x308-0x308.7 (1)
     |                                               |                |          [5]{}: code 0x309-0x310.7 (8)
0x300|                           07                  |         .      |            size: 7 0x309-0x309.7 (1)
     |                                               |                |            code{}: 0x30a-0x310.7 (7)
     |                                               |                |              locals{}: 0x30a-0x30a.7 (1)
0x300|                              00               |          .     |                n: 0 0x30a-0x30a.7 (1)
     |                                               |                |                items[0:0]: 0x30b-NA (0)
     |                                               |                |              expr{}: 0x30b-0x310.7 (6)
     |                                               |                |                instructions[0:3]: 0x30b-0x310.7 (6)
     |                                               |                |                  [0]{}: instr 0x30b-0x30c.7 (2)
0x300|                                 20            |                |                    local.get: 0x20 (valid) 0x30b-0x30b.7 (1)
0x300|                                    00         |            .   |                    x: 0 0x30c-0x30c.7 (1)
     |                                               |                |                  [1]{}: instr 0x30d-0x30f.7 (3)
0x300|                                       fd      |             .  |                    prefix: 0xfd (valid) 0x30d-0x30d.7 (1)
0x300|                                          80 01|              ..|                    i16x8.abs: 128 (valid) 0x30e-0x30f.7 (2)
     |                                               |                |                  [2]{}: instr 0x310-0x310.7 (1)
0x310|0b                                             |.               |                    end: 0xb (valid) 0x310-0x310.7 (1)
     |                                               |                |          [6]{}: code 0x311-0x33a.7 (42)
0x310|   29                                          | )              |            size: 41 0x311-0x311.7 (1)
     |                                               |                |            code{}: 0x312-0x33a.7 (41)
     |                                               |                |              locals{}: 0x312-0x312.7 (1)
0x310|      00                                       |  .             |                n: 0 0x312-0x312.7 (1)
     |                                               |                |                items[0:0]: 0x313-NA (0)
     |                                               |                |              expr{}: 0x313-0x33a.7 (40)
     |                                               |                |                instructions[0:4]: 0x313-0x33a.7 (40)
     |                                               |                |                  [0]{}: instr 0x313-0x324.7 (18)
0x310|         fd                                    |   .            |                    prefix: 0xfd (valid) 0x313-0x313.7 (1)
0x310|            0c                                 |    .           |                    v128.const: 12 (valid) 0x314-0x314.7 (1)
0x310|               00 80 00 80 ff 7f ff 7f 00 40 00|     .........@.|                    bytes: raw bits 0x315-0x324.7 (16)
0x320|40 ff ff ff ff                                 |@....           |
     |                                               |                |                  [1]{}: instr 0x325-0x336.7 (18)
0x320|               fd                              |     .          |                    prefix: 0xfd (valid) 0x325-0x325.7 (1)
0x320|                  0c                           |      .         |                    v128.const: 12 (valid) 0x326-0x326.7 (1)
0x320|                     ff ff ff ff 00 40 00 40 ff|       .....@.@.|                    bytes: raw bits 0x327-0x336.7 (16)
0x330|7f ff 7f 00 80 00 80                           |.......         |
     |                                               |                |                  [2]{}: instr 0x337-0x339.7 (3)
0x330|                     fd                        |       .        |                    prefix: 0xfd (valid) 0x337-0x337.7 (1)
0x330|                        96 01                  |        ..      |                    i16x8.min_s: 150 (valid) 0x338-0x339.7 (2)
     |                                               |                |                  [3]{}: instr 0x33a-0x33a.7 (1)
0x330|                              0b               |          .     |                    end: 0xb (valid) 0x33a-0x33a.7 (1)
     |                                               |                |          [7]{}: code 0x33b-0x364.7 (42)
0x330|                                 29            |           )    |            size: 41 0x33b-0x33b.7 (1)
     |                                               |                |            code{}: 0x33c-0x364.7 (41)
     |                                               |                |              locals{}: 0x33c-0x33c.7 (1)
0x330|                                    00         |            .   |                n: 0 0x33c-0x33c.7 (1)
     |                                               |                |                items[0:0]: 0x33d-NA (0)
     |                                               |                |              expr{}: 0x33d-0x364.7 (40)
     |                                               |                |                instructions[0:4]: 0x33d-0x364.7 (40)
     |                                               |                |                  [0]{}: instr 0x33d-0x34e.7 (18)
0x330|                                       fd      |             .  |                    prefix: 0xfd (valid) 0x33d-0x33d.7 (1)
0x330|                                          0c   |              . |                    v128.const: 12 (valid) 0x33e-0x33e.7 (1)
0x330|                                             00|               .|                    bytes: raw bits 0x33f-0x34e.7 (16)
0x340|00 00 00 01 00 01 00 02 00 02 00 03 00 03 00   |............... |
     |                                               |                |                  [1]{}: instr 0x34f-0x360.7 (18)
0x340|                                             fd|               .|                    prefix: 0xfd (valid) 0x34f-0x34f.7 (1)
0x350|0c                                             |.               |                    v128.const: 12 (valid) 0x350-0x350.7 (1)
0x350|   03 00 03 00 02 00 02 00 01 00 01 00 00 00 00| ...............|                    bytes: raw bits 0x351-0x360.7 (16)
0x360|00                                             |.               |
     |                                               |                |                  [2]{}: instr 0x361-0x363.7 (3)
0x360|   fd                                          | .              |                    prefix: 0xfd (valid) 0x361-0x361.7 (1)
0x360|      96 01                                    |  ..            |                    i16x8.min_s: 150 (valid) 0x362-0x363.7 (2)
     |                                               |                |                  [3]{}: instr 0x364-0x364.7 (1)
0x360|            0b                                 |    .           |                    end: 0xb (valid) 0x364-0x364.7 (1)
     |                                               |                |          [8]{}: code 0x365-0x38e.7 (42)
0x360|               29                              |     )          |            size: 41 0x365-0x365.7 (1)
     |                                               |                |            code{}: 0x366-0x38e.7 (41)
     |                                               |                |              locals{}: 0x366-0x366.7 (1)
0x360|                  00                           |      .         |                n: 0 0x366-0x366.7 (1)
     |                                               |                |                items[0:0]: 0x367-NA (0)
     |                                               |                |              expr{}: 0x367-0x38e.7 (40)
     |                                               |                |                instructions[0:4]: 0x367-0x38e.7 (40)
     |                                               |                |                  [0]{}: instr 0x367-0x378.7 (18)
0x360|                     fd                        |       .        |                    prefix: 0xfd (valid) 0x367-0x367.7 (1)
0x360|                        0c                     |        .       |                    v128.const: 12 (valid) 0x368-0x368.7 (1)
0x360|                           00 80 00 80 ff 7f ff|         .......|                    bytes: raw bits 0x369-0x378.7 (16)
0x370|7f 00 40 00 40 ff ff ff ff                     |..@.@....       |
     |                                               |                |                  [1]{}: instr 0x379-0x38a.7 (18)
0x370|                           fd                  |         .      |                    prefix: 0xfd (valid) 0x379-0x379.7 (1)
0x370|                              0c               |          .     |                    v128.const: 12 (valid) 0x37a-0x37a.7 (1)
0x370|                                 ff ff ff ff 00|           .....|                    bytes: raw bits 0x37b-0x38a.7 (16)
0x380|40 00 40 ff 7f ff 7f 00 80 00 80               |@.@........     |
     |                                               |                |                  [2]{}: instr 0x38b-0x38d.7 (3)
0x380|                                 fd            |           .    |                    prefix: 0xfd (valid) 0x38b-0x38b.7 (1)
0x380|                                    97 01      |            ..  |                    i16x8.min_u: 151 (valid) 0x38c-0x38d.7 (2)
     |                                               |                |                  [3]{}: instr 0x38e-0x38e.7 (1)
0x380|                                          0b   |              . |                    end: 0xb (valid) 0x38e-0x38e.7 (1)
     |                                               |                |          [9]{}: code 0x38f-0x3b8.7 (42)
0x380|                                             29|               )|            size: 41 0x38f-0x38f.7 (1)
     |                                               |                |            code{}: 0x390-0x3b8.7 (41)
     |                                               |                |              locals{}: 0x390-0x390.7 (1)
0x390|00                                             |.               |                n: 0 0x390-0x390.7 (1)
     |                                               |                |                items[0:0]: 0x391-NA (0)
     |                                               |                |              expr{}: 0x391-0x3b8.7 (40)
     |                                               |                |                instructions[0:4]: 0x391-0x3b8.7 (40)
     |                                               |                |                  [0]{}: instr 0x391-0x3a2.7 (18)
0x390|   fd                                          | .              |                    prefix: 0xfd (valid) 0x391-0x391.7 (1)
0x390|      0c                                       |  .             |                    v128.const: 12 (valid) 0x392-0x392.7 (1)
0x390|         00 00 00 00 01 00 01 00 02 00 02 00 03|   .............|                    bytes: raw bits 0x393-0x3a2.7 (16)
0x3a0|00 03 00                                       |...             |
     |                                               |                |                  [1]{}: instr 0x3a3-0x3b4.7 (18)
0x3a0|         fd                                    |   .            |                    prefix: 0xfd (valid) 0x3a3-0x3a3.7 (1)
0x3a0|            0c                                 |    .           |                    v128.const: 12 (valid) 0x3a4-0x3a4.7 (1)
0x3a0|               03 00 03 00 02 00 02 00 01 00 01|     ...........|                    bytes: raw bits 0x3a5-0x3b4.7 (16)
0x3b0|00 00 00 00 00                                 |.....           |
     |                                               |                |                  [2]{}: instr 0x3b5-0x3b7.7 (3)
0x3b0|               fd                              |     .          |                    prefix: 0xfd (valid) 0x3b5-0x3b5.7 (1)
0x3b0|                  97 01                        |      ..        |                    i16x8.min_u: 151 (valid) 0x3b6-0x3b7.7 (2)
     |                                               |                |                  [3]{}: instr 0x3b8-0x3b8.7 (1)
0x3b0|                        0b                     |        .       |                    end: 0xb (valid) 0x3b8-0x3b8.7 (1)
     |                                               |                |          [10]{}: code 0x3b9-0x3e2.7 (42)
0x3b0|                           29                  |         )      |            size: 41 0x3b9-0x3b9.7 (1)
     |                                               |                |            code{}: 0x3ba-0x3e2.7 (41)
     |                                               |                |              locals{}: 0x3ba-0x3ba.7 (1)
0x3b0|                              00               |          .     |                n: 0 0x3ba-0x3ba.7 (1)
     |                                               |                |                items[0:0]: 0x3bb-NA (0)
     |                                               |                |              expr{}: 0x3bb-0x3e2.7 (40)
     |                                               |                |                instructions[0:4]: 0x3bb-0x3e2.7 (40)
     |                                               |                |                  [0]{}: instr 0x3bb-0x3cc.7 (18)
0x3b0|                                 fd            |           .    |                    prefix: 0xfd (valid) 0x3bb-0x3bb.7 (1)
0x3b0|                                    0c         |            .   |                    v128.const: 12 (valid) 0x3bc-0x3bc.7 (1)
0x3b0|                                       00 80 00|             ...|                    bytes: raw bits 0x3bd-0x3cc.7 (16)
0x3c0|80 ff 7f ff 7f 00 40 00 40 ff ff ff ff         |......@.@....   |
     |                                               |                |                  [1]{}: instr 0x3cd-0x3de.7 (18)
0x3c0|                                       fd      |             .  |                    prefix: 0xfd (valid) 0x3cd-0x3cd.7 (1)
0x3c0|                                          0c   |              . |                    v128.const: 12 (valid) 0x3ce-0x3ce.7 (1)
0x3c0|                                             ff|               .|                    bytes: raw bits 0x3cf-0x3de.7 (16)
0x3d0|ff ff ff 00 40 00 40 ff 7f ff 7f 00 80 00 80   |....@.@........ |
     |                                               |                |                  [2]{}: instr 0x3df-0x3e1.7 (3)
0x3d0|                                             fd|               .|                    prefix: 0xfd (valid) 0x3df-0x3df.7 (1)
0x3e0|98 01                                          |..              |                    i16x8.max_s: 152 (valid) 0x3e0-0x3e1.7 (2)
     |                                               |                |                  [3]{}: instr 0x3e2-0x3e2.7 (1)
0x3e0|      0b                                       |  .             |                    end: 0xb (valid) 0x3e2-0x3e2.7 (1)
     |                                               |                |          [11]{}: code 0x3e3-0x40c.7 (42)
0x3e0|         29                                    |   )            |            size: 41 0x3e3-0x3e3.7 (1)
     |                                               |                |            code{}: 0x3e4-0x40c.7 (41)
     |                                               |                |              locals{}: 0x3e4-0x3e4.7 (1)
0x3e0|            00                                 |    .           |                n: 0 0x3e4-0x3e4.7 (1)
     |                                               |                |                items[0:0]: 0x3e5-NA (0)
     |                                               |                |              expr{}: 0x3e5-0x40c.7 (40)
     |                                               |                |                instructions[0:4]: 0x3e5-0x40c.7 (40)
     |                                               |                |                  [0]{}: instr 0x3e5-0x3f6.7 (18)
0x3e0|               fd                              |     .          |                    prefix: 0xfd (valid) 0x3e5-0x3e5.7 (1)
0x3e0|                  0c                           |      .         |                    v128.const: 12 (valid) 0x3e6-0x3e6.7 (1)
0x3e0|                     00 00 00 00 01 00 01 00 02|       .........|                    bytes: raw bits 0x3e7-0x3f6.7 (16)
0x3f0|00 02 00 03 00 03 00                           |.......         |
     |                                               |                |                  [1]{}: instr 0x3f7-0x408.7 (18)
0x3f0|                     fd                        |       .        |                    prefix: 0xfd (valid) 0x3f7-0x3f7.7 (1)
0x3f0|                        0c                     |        .       |                    v128.const: 12 (valid) 0x3f8-0x3f8.7 (1)
0x3f0|                           03 00 03 00 02 00 02|         .......|                    bytes: raw bits 0x3f9-0x408.7 (16)
0x400|00 01 00 01 00 00 00 00 00                     |.........       |
     |                                               |                |                  [2]{}: instr 0x409-0x40b.7 (3)
0x400|                           fd                  |         .      |                    prefix: 0xfd (valid) 0x409-0x409.7 (1)
0x400|                              98 01            |          ..    |                    i16x8.max_s: 152 (valid) 0x40a-0x40b.7 (2)
     |                                               |                |                  [3]{}: instr 0x40c-0x40c.7 (1)
0x400|                                    0b         |            .   |                    end: 0xb (valid) 0x40c-0x40c.7 (1)
     |                                               |                |          [12]{}: code 0x40d-0x436.7 (42)
0x400|                                       29      |             )  |            size: 41 0x40d-0x40d.7 (1)
     |                                               |                |            code{}: 0x40e-0x436.7 (41)
     |                                               |                |              locals{}: 0x40e-0x40e.7 (1)
0x400|                                          00   |              . |                n: 0 0x40e-0x40e.7 (1)
     |                                               |                |                items[0:0]: 0x40f-NA (0)
     |                                               |                |              expr{}: 0x40f-0x436.7 (40)
     |                                               |                |                instructions[0:4]: 0x40f-0x436.7 (40)
     |                                               |                |                  [0]{}: instr 0x40f-0x420.7 (18)
0x400|                                             fd|               .|                    prefix: 0xfd (valid) 0x40f-0x40f.7 (1)
0x410|0c                                             |.               |                    v128.const: 12 (valid) 0x410-0x410.7 (1)
0x410|   00 80 00 80 ff 7f ff 7f 00 40 00 40 ff ff ff| .........@.@...|                    bytes: raw bits 0x411-0x420.7 (16)
0x420|ff                                             |.               |
     |                                               |                |                  [1]{}: instr 0x421-0x432.7 (18)
0x420|   fd                                          | .              |                    prefix: 0xfd (valid) 0x421-0x421.7 (1)
0x420|      0c                                       |  .             |                    v128.const: 12 (valid) 0x422-0x422.7 (1)
0x420|         ff ff ff ff 00 40 00 40 ff 7f ff 7f 00|   .....@.@.....|                    bytes: raw bits 0x423-0x432.7 (16)
0x430|80 00 80                                       |...             |
     |                                               |                |                  [2]{}: instr 0x433-0x435.7 (3)
0x430|         fd                                    |   .            |                    prefix: 0xfd (valid) 0x433-0x433.7 (1)
0x430|            99 01                              |    ..          |                    i16x8.max_u: 153 (valid) 0x434-0x435.7 (2)
     |                                               |                |                  [3]{}: instr 0x436-0x436.7 (1)
0x430|                  0b                           |      .         |                    end: 0xb (valid) 0x436-0x436.7 (1)
     |                                               |                |          [13]{}: code 0x437-0x460.7 (42)
0x430|                     29                        |       )        |            size: 41 0x437-0x437.7 (1)
     |                                               |                |            code{}: 0x438-0x460.7 (41)
     |                                               |                |              locals{}: 0x438-0x438.7 (1)
0x430|                        00                     |        .       |                n: 0 0x438-0x438.7 (1)
     |                                               |                |                items[0:0]: 0x439-NA (0)
     |                                               |                |              expr{}: 0x439-0x460.7 (40)
     |                                               |                |                instructions[0:4]: 0x439-0x460.7 (40)
     |                                               |                |                  [0]{}: instr 0x439-0x44a.7 (18)
0x430|                           fd                  |         .      |                    prefix: 0xfd (valid) 0x439-0x439.7 (1)
0x430|                              0c               |          .     |                    v128.const: 12 (valid) 0x43a-0x43a.7 (1)
0x430|                                 00 00 00 00 01|           .....|                    bytes: raw bits 0x43b-0x44a.7 (16)
0x440|00 01 00 02 00 02 00 03 00 03 00               |...........     |
     |                                               |                |                  [1]{}: instr 0x44b-0x45c.7 (18)
0x440|                                 fd            |           .    |                    prefix: 0xfd (valid) 0x44b-0x44b.7 (1)
0x440|                                    0c         |            .   |                    v128.const: 12 (valid) 0x44c-0x44c.7 (1)
0x440|                                       03 00 03|             ...|                    bytes: raw bits 0x44d-0x45c.7 (16)
0x450|00 02 00 02 00 01 00 01 00 00 00 00 00         |.............   |
     |                                               |                |                  [2]{}: instr 0x45d-0x45f.7 (3)
0x450|                                       fd      |             .  |                    prefix: 0xfd (valid) 0x45d-0x45d.7 (1)
0x450|                                          99 01|              ..|                    i16x8.max_u: 153 (valid) 0x45e-0x45f.7 (2)
     |                                               |                |                  [3]{}: instr 0x460-0x460.7 (1)
0x460|0b                                             |.               |                    end: 0xb (valid) 0x460-0x460.7 (1)
     |                                               |                |          [14]{}: code 0x461-0x48a.7 (42)
0x460|   29                                          | )              |            size: 41 0x461-0x461.7 (1)
     |                                               |                |            code{}: 0x462-0x48a.7 (41)
     |                                               |                |              locals{}: 0x462-0x462.7 (1)
0x460|      00                                       |  .             |                n: 0 0x462-0x462.7 (1)
     |                                               |                |                items[0:0]: 0x463-NA (0)
     |                                               |                |              expr{}: 0x463-0x48a.7 (40)
     |                                               |                |                instructions[0:4]: 0x463-0x48a.7 (40)
     |                                               |                |                  [0]{}: instr 0x463-0x474.7 (18)
0x460|         fd                                    |   .            |                    prefix: 0xfd (valid) 0x463-0x463.7 (1)
0x460|            0c                                 |    .           |                    v128.const: 12 (valid) 0x464-0x464.7 (1)
0x460|               00 80 00 80 ff 7f ff 7f 00 40 00|     .........@.|                    bytes: raw bits 0x465-0x474.7 (16)
0x470|40 ff ff ff ff                                 |@....           |
     |                                               |                |                  [1]{}: instr 0x475-0x486.7 (18)
0x470|               fd                              |     .          |                    prefix: 0xfd (valid) 0x475-0x475.7 (1)
0x470|                  0c                           |      .         |                    v128.const: 12 (valid) 0x476-0x476.7 (1)
0x470|                     ff ff ff ff 00 40 00 40 ff|       .....@.@.|                    bytes: raw bits 0x477-0x486.7 (16)
0x480|7f ff 7f 00 80 00 80                           |.......         |
     |                                               |                |                  [2]{}: instr 0x487-0x489.7 (3)
0x480|                     fd                        |       .        |                    prefix: 0xfd (valid) 0x487-0x487.7 (1)
0x480|                        9b 01                  |        ..      |                    i16x8.avgr_u: 155 (valid) 0x488-0x489.7 (2)
     |                                               |                |                  [3]{}: instr 0x48a-0x48a.7 (1)
0x480|                              0b               |          .     |                    end: 0xb (valid) 0x48a-0x48a.7 (1)
     |                                               |                |          [15]{}: code 0x48b-0x4b4.7 (42)
0x480|                                 29            |           )    |            size: 41 0x48b-0x48b.7 (1)
     |                                               |                |            code{}: 0x48c-0x4b4.7 (41)
     |                                               |                |              locals{}: 0x48c-0x48c.7 (1)
0x480|                                    00         |            .   |                n: 0 0x48c-0x48c.7 (1)
     |                                               |                |                items[0:0]: 0x48d-NA (0)
     |                                               |                |              expr{}: 0x48d-0x4b4.7 (40)
     |                                               |                |                instructions[0:4]: 0x48d-0x4b4.7 (40)
     |                                               |                |                  [0]{}: instr 0x48d-0x49e.7 (18)
0x480|                                       fd      |             .  |                    prefix: 0xfd (valid) 0x48d-0x48d.7 (1)
0x480|                                          0c   |              . |                    v128.const: 12 (valid) 0x48e-0x48e.7 (1)
0x480|                                             00|               .|                    bytes: raw bits 0x48f-0x49e.7 (16)
0x490|00 00 00 01 00 01 00 02 00 02 00 03 00 03 00   |............... |
     |                                               |                |                  [1]{}: instr 0x49f-0x4b0.7 (18)
0x490|                                             fd|               .|                    prefix: 0xfd (valid) 0x49f-0x49f.7 (1)
0x4a0|0c                                             |.               |                    v128.const: 12 (valid) 0x4a0-0x4a0.7 (1)
0x4a0|   03 00 03 00 02 00 02 00 01 00 01 00 00 00 00| ...............|                    bytes: raw bits 0x4a1-0x4b0.7 (16)
0x4b0|00                                             |.               |
     |                                               |                |                  [2]{}: instr 0x4b1-0x4b3.7 (3)
0x4b0|   fd                                          | .              |                    prefix: 0xfd (valid) 0x4b1-0x4b1.7 (1)
0x4b0|      9b 01                                    |  ..            |                    i16x8.avgr_u: 155 (valid) 0x4b2-0x4b3.7 (2)
     |                                               |                |                  [3]{}: instr 0x4b4-0x4b4.7 (1)
0x4b0|            0b                                 |    .           |                    end: 0xb (valid) 0x4b4-0x4b4.7 (1)
     |                                               |                |          [16]{}: code 0x4b5-0x4cc.7 (24)
0x4b0|               17                              |     .          |            size: 23 0x4b5-0x4b5.7 (1)
     |                                               |                |            code{}: 0x4b6-0x4cc.7 (23)
     |                                               |                |              locals{}: 0x4b6-0x4b6.7 (1)
0x4b0|                  00                           |      .         |                n: 0 0x4b6-0x4b6.7 (1)
     |                                               |                |                items[0:0]: 0x4b7-NA (0)
     |                                               |                |              expr{}: 0x4b7-0x4cc.7 (22)
     |                                               |                |                instructions[0:3]: 0x4b7-0x4cc.7 (22)
     |                                               |                |                  [0]{}: instr 0x4b7-0x4c8.7 (18)
0x4b0|                     fd                        |       .        |                    prefix: 0xfd (valid) 0x4b7-0x4b7.7 (1)
0x4b0|                        0c                     |        .       |                    v128.const: 12 (valid) 0x4b8-0x4b8.7 (1)
0x4b0|                           00 80 00 80 ff 7f ff|         .......|                    bytes: raw bits 0x4b9-0x4c8.7 (16)
0x4c0|7f 00 40 00 40 ff ff ff ff                     |..@.@....       |
     |                                               |                |                  [1]{}: instr 0x4c9-0x4cb.7 (3)
0x4c0|                           fd                  |         .      |                    prefix: 0xfd (valid) 0x4c9-0x4c9.7 (1)
0x4c0|                              80 01            |          ..    |                    i16x8.abs: 128 (valid) 0x4ca-0x4cb.7 (2)
     |                                               |                |                  [2]{}: instr 0x4cc-0x4cc.7 (1)
0x4c0|                                    0b         |            .   |                    end: 0xb (valid) 0x4cc-0x4cc.7 (1)
     |                                               |                |          [17]{}: code 0x4cd-0x4e6.7 (26)
0x4c0|                                       19      |             .  |            size: 25 0x4cd-0x4cd.7 (1)
     |                                               |                |            code{}: 0x4ce-0x4e6.7 (25)
     |                                               |                |              locals{}: 0x4ce-0x4ce.7 (1)
0x4c0|                                          00   |              . |                n: 0 0x4ce-0x4ce.7 (1)
     |                                               |                |                items[0:0]: 0x4cf-NA (0)
     |                                               |                |              expr{}: 0x4cf-0x4e6.7 (24)
     |                                               |                |                instructions[0:4]: 0x4cf-0x4e6.7 (24)
     |                                               |                |                  [0]{}: instr 0x4cf-0x4d0.7 (2)
0x4c0|                                             20|                |                    local.get: 0x20 (valid) 0x4cf-0x4cf.7 (1)
0x4d0|00                                             |.               |                    x: 0 0x4d0-0x4d0.7 (1)
     |                                               |                |                  [1]{}: instr 0x4d1-0x4e2.7 (18)
0x4d0|   fd                                          | .              |                    prefix: 0xfd (valid) 0x4d1-0x4d1.7 (1)
0x4d0|      0c                                       |  .             |                    v128.const: 12 (valid) 0x4d2-0x4d2.7 (1)
0x4d0|         00 80 00 80 ff 7f ff 7f 00 40 00 40 ff|   .........@.@.|                    bytes: raw bits 0x4d3-0x4e2.7 (16)
0x4e0|ff ff ff                                       |...             |
     |                                               |                |                  [2]{}: instr 0x4e3-0x4e5.7 (3)
0x4e0|         fd                                    |   .            |                    prefix: 0xfd (valid) 0x4e3-0x4e3.7 (1)
0x4e0|            96 01                              |    ..          |                    i16x8.min_s: 150 (valid) 0x4e4-0x4e5.7 (2)
     |                                               |                |                  [3]{}: instr 0x4e6-0x4e6.7 (1)
0x4e0|                  0b                           |      .         |                    end: 0xb (valid) 0x4e6-0x4e6.7 (1)
     |                                               |                |          [18]{}: code 0x4e7-0x500.7 (26)
0x4e0|                     19                        |       .        |            size: 25 0x4e7-0x4e7.7 (1)
     |                                               |                |            code{}: 0x4e8-0x500.7 (25)
     |                                               |                |              locals{}: 0x4e8-0x4e8.7 (1)
0x4e0|                        00                     |        .       |                n: 0 0x4e8-0x4e8.7 (1)
     |                                               |                |                items[0:0]: 0x4e9-NA (0)
     |                                               |                |              expr{}: 0x4e9-0x500.7 (24)
     |                                               |                |                instructions[0:4]: 0x4e9-0x500.7 (24)
     |                                               |                |                  [0]{}: instr 0x4e9-0x4ea.7 (2)
0x4e0|                           20                  |                |                    local.get: 0x20 (valid) 0x4e9-0x4e9.7 (1)
0x4e0|                              00               |          .     |                    x: 0 0x4ea-0x4ea.7 (1)
     |                                               |                |                  [1]{}: instr 0x4eb-0x4fc.7 (18)
0x4e0|                                 fd            |           .    |                    prefix: 0xfd (valid) 0x4eb-0x4eb.7 (1)
0x4e0|                                    0c         |            .   |                    v128.const: 12 (valid) 0x4ec-0x4ec.7 (1)
0x4e0|                                       00 00 00|             ...|                    bytes: raw bits 0x4ed-0x4fc.7 (16)
0x4f0|00 01 00 01 00 02 00 02 00 03 00 03 00         |.............   |
     |                                               |                |                  [2]{}: instr 0x4fd-0x4ff.7 (3)
0x4f0|                                       fd      |             .  |                    prefix: 0xfd (valid) 0x4fd-0x4fd.7 (1)
0x4f0|                                          96 01|              ..|                    i16x8.min_s: 150 (valid) 0x4fe-0x4ff.7 (2)
     |                                               |                |                  [3]{}: instr 0x500-0x500.7 (1)
0x500|0b                                             |.               |                    end: 0xb (valid) 0x500-0x500.7 (1)
     |                                               |                |          [19]{}: code 0x501-0x51a.7 (26)
0x500|   19                                          | .              |            size: 25 0x501-0x501.7 (1)
     |                                               |                |            code{}: 0x502-0x51a.7 (25)
     |                                               |                |              locals{}: 0x502-0x502.7 (1)
0x500|      00                                       |  .             |                n: 0 0x502-0x502.7 (1)
     |                                               |                |                items[0:0]: 0x503-NA (0)
     |                                               |                |              expr{}: 0x503-0x51a.7 (24)
     |                                               |                |                instructions[0:4]: 0x503-0x51a.7 (24)
     |                                               |                |                  [0]{}: instr 0x503-0x504.7 (2)
0x500|         20                                    |                |                    local.get: 0x20 (valid) 0x503-0x503.7 (1)
0x500|            00                                 |    .           |                    x: 0 0x504-0x504.7 (1)
     |                                               |                |                  [1]{}: instr 0x505-0x516.7 (18)
0x500|               fd                              |     .          |                    prefix: 0xfd (valid) 0x505-0x505.7 (1)
0x500|                  0c                           |      .         |                    v128.const: 12 (valid) 0x506-0x506.7 (1)
0x500|                     00 80 00 80 ff 7f ff 7f 00|       .........|                    bytes: raw bits 0x507-0x516.7 (16)
0x510|40 00 40 ff ff ff ff                           |@.@....         |
     |                                               |                |                  [2]{}: instr 0x517-0x519.7 (3)
0x510|                     fd                        |       .        |                    prefix: 0xfd (valid) 0x517-0x517.7 (1)
0x510|                        97 01                  |        ..      |                    i16x8.min_u: 151 (valid) 0x518-0x519.7 (2)
     |                                               |                |                  [3]{}: instr 0x51a-0x51a.7 (1)
0x510|                              0b               |          .     |                    end: 0xb (valid) 0x51a-0x51a.7 (1)
     |                                               |                |          [20]{}: code 0x51b-0x534.7 (26)
0x510|                                 19            |           .    |            size: 25 0x51b-0x51b.7 (1)
     |                                               |                |            code{}: 0x51c-0x534.7 (25)
     |                                               |                |              locals{}: 0x51c-0x51c.7 (1)
0x510|                                    00         |            .   |                n: 0 0x51c-0x51c.7 (1)
     |                                               |                |                items[0:0]: 0x51d-NA (0)
     |                                               |                |              expr{}: 0x51d-0x534.7 (24)
     |                                               |                |                instructions[0:4]: 0x51d-0x534.7 (24)
     |                                               |                |                  [0]{}: instr 0x51d-0x51e.7 (2)
0x510|                                       20      |                |                    local.get: 0x20 (valid) 0x51d-0x51d.7 (1)
0x510|                                          00   |              . |                    x: 0 0x51e-0x51e.7 (1)
     |                                               |                |                  [1]{}: instr 0x51f-0x530.7 (18)
0x510|                                             fd|               .|                    prefix: 0xfd (valid) 0x51f-0x51f.7 (1)
0x520|0c                                             |.               |                    v128.const: 12 (valid) 0x520-0x520.7 (1)
0x520|   00 00 00 00 01 00 01 00 02 00 02 00 03 00 03| ...............|                    bytes: raw bits 0x521-0x530.7 (16)
0x530|00                                             |.               |
     |                                               |                |                  [2]{}: instr 0x531-0x533.7 (3)
0x530|   fd                                          | .              |                    prefix: 0xfd (valid) 0x531-0x531.7 (1)
0x530|      97 01                                    |  ..            |                    i16x8.min_u: 151 (valid) 0x532-0x533.7 (2)
     |                                               |                |                  [3]{}: instr 0x534-0x534.7 (1)
0x530|            0b                                 |    .           |                    end: 0xb (valid) 0x534-0x534.7 (1)
     |                                               |                |          [21]{}: code 0x535-0x54e.7 (26)
0x530|               19                              |     .          |            size: 25 0x535-0x535.7 (1)
     |                                               |                |            code{}: 0x536-0x54e.7 (25)
     |                                               |                |              locals{}: 0x536-0x536.7 (1)
0x530|                  00                           |      .         |                n: 0 0x536-0x536.7 (1)
     |                                               |                |                items[0:0]: 0x537-NA (0)
     |                                               |                |              expr{}: 0x537-0x54e.7 (24)
     |                                               |                |                instructions[0:4]: 0x537-0x54e.7 (24)
     |                                               |                |                  [0]{}: instr 0x537-0x538.7 (2)
0x530|                     20                        |                |                    local.get: 0x20 (valid) 0x537-0x537.7 (1)
0x530|                        00                     |        .       |                    x: 0 0x538-0x538.7 (1)
     |                                               |                |                  [1]{}: instr 0x539-0x54a.7 (18)
0x530|                           fd                  |         .      |                    prefix: 0xfd (valid) 0x539-0x539.7 (1)
0x530|                              0c               |          .     |                    v128.const: 12 (valid) 0x53a-0x53a.7 (1)
0x530|                                 00 80 00 80 ff|           .....|                    bytes: raw bits 0x53b-0x54a.7 (16)
0x540|7f ff 7f 00 40 00 40 ff ff ff ff               |....@.@....     |
     |                                               |                |                  [2]{}: instr 0x54b-0x54d.7 (3)
0x540|                                 fd            |           .    |                    prefix: 0xfd (valid) 0x54b-0x54b.7 (1)
0x540|                                    98 01      |            ..  |                    i16x8.max_s: 152 (valid) 0x54c-0x54d.7 (2)
     |                                               |                |                  [3]{}: instr 0x54e-0x54e.7 (1)
0x540|                                          0b   |              . |                    end: 0xb (valid) 0x54e-0x54e.7 (1)
     |                                               |                |          [22]{}: code 0x54f-0x568.7 (26)
0x540|                                             19|               .|            size: 25 0x54f-0x54f.7 (1)
     |                                               |                |            code{}: 0x550-0x568.7 (25)
     |                                               |                |              locals{}: 0x550-0x550.7 (1)
0x550|00                                             |.               |                n: 0 0x550-0x550.7 (1)
     |                                               |                |                items[0:0]: 0x551-NA (0)
     |                                               |                |              expr{}: 0x551-0x568.7 (24)
     |                                               |                |                instructions[0:4]: 0x551-0x568.7 (24)
     |                                               |                |                  [0]{}: instr 0x551-0x552.7 (2)
0x550|   20                                          |                |                    local.get: 0x20 (valid) 0x551-0x551.7 (1)
0x550|      00                                       |  .             |                    x: 0 0x552-0x552.7 (1)
     |                                               |                |                  [1]{}: instr 0x553-0x564.7 (18)
0x550|         fd                                    |   .            |                    prefix: 0xfd (valid) 0x553-0x553.7 (1)
0x550|            0c                                 |    .           |                    v128.const: 12 (valid) 0x554-0x554.7 (1)
0x550|               00 00 00 00 01 00 01 00 02 00 02|     ...........|                    bytes: raw bits 0x555-0x564.7 (16)
0x560|00 03 00 03 00                                 |.....           |
     |                                               |                |                  [2]{}: instr 0x565-0x567.7 (3)
0x560|               fd                              |     .          |                    prefix: 0xfd (valid) 0x565-0x565.7 (1)
0x560|                  98 01                        |      ..        |                    i16x8.max_s: 152 (valid) 0x566-0x567.7 (2)
     |                                               |                |                  [3]{}: instr 0x568-0x568.7 (1)
0x560|                        0b                     |        .       |                    end: 0xb (valid) 0x568-0x568.7 (1)
     |                                               |                |          [23]{}: code 0x569-0x582.7 (26)
0x560|                           19                  |         .      |            size: 25 0x569-0x569.7 (1)
     |                                               |                |            code{}: 0x56a-0x582.7 (25)
     |                                               |                |              locals{}: 0x56a-0x56a.7 (1)
0x560|                              00               |          .     |                n: 0 0x56a-0x56a.7 (1)
     |                                               |                |                items[0:0]: 0x56b-NA (0)
     |                                               |                |              expr{}: 0x56b-0x582.7 (24)
     |                                               |                |                instructions[0:4]: 0x56b-0x582.7 (24)
     |                                               |                |                  [0]{}: instr 0x56b-0x56c.7 (2)
0x560|                                 20            |                |                    local.get: 0x20 (valid) 0x56b-0x56b.7 (1)
0x560|                                    00         |            .   |                    x: 0 0x56c-0x56c.7 (1)
     |                                               |                |                  [1]{}: instr 0x56d-0x57e.7 (18)
0x560|                                       fd      |             .  |                    prefix: 0xfd (valid) 0x56d-0x56d.7 (1)
0x560|                                          0c   |              . |                    v128.const: 12 (valid) 0x56e-0x56e.7 (1)
0x560|                                             00|               .|                    bytes: raw bits 0x56f-0x57e.7 (16)
0x570|80 00 80 ff 7f ff 7f 00 40 00 40 ff ff ff ff   |........@.@.... |
     |                                               |                |                  [2]{}: instr 0x57f-0x581.7 (3)
0x570|                                             fd|               .|                    prefix: 0xfd (valid) 0x57f-0x57f.7 (1)
0x580|99 01                                          |..              |                    i16x8.max_u: 153 (valid) 0x580-0x581.7 (2)
     |                                               |                |                  [3]{}: instr 0x582-0x582.7 (1)
0x580|      0b                                       |  .             |                    end: 0xb (valid) 0x582-0x582.7 (1)
     |                                               |                |          [24]{}: code 0x583-0x59c.7 (26)
0x580|         19                                    |   .            |            size: 25 0x583-0x583.7 (1)
     |                                               |                |            code{}: 0x584-0x59c.7 (25)
     |                                               |                |              locals{}: 0x584-0x584.7 (1)
0x580|            00                                 |    .           |                n: 0 0x584-0x584.7 (1)
     |                                               |                |                items[0:0]: 0x585-NA (0)
     |                                               |                |              expr{}: 0x585-0x59c.7 (24)
     |                                               |                |                instructions[0:4]: 0x585-0x59c.7 (24)
     |                                               |                |                  [0]{}: instr 0x585-0x586.7 (2)
0x580|               20                              |                |                    local.get: 0x20 (valid) 0x585-0x585.7 (1)
0x580|                  00                           |      .         |                    x: 0 0x586-0x586.7 (1)
     |                                               |                |                  [1]{}: instr 0x587-0x598.7 (18)
0x580|                     fd                        |       .        |                    prefix: 0xfd (valid) 0x587-0x587.7 (1)
0x580|                        0c                     |        .       |                    v128.const: 12 (valid) 0x588-0x588.7 (1)
0x580|                           00 00 00 00 01 00 01|         .......|                    bytes: raw bits 0x589-0x598.7 (16)
0x590|00 02 00 02 00 03 00 03 00                     |.........       |
     |                                               |                |                  [2]{}: instr 0x599-0x59b.7 (3)
0x590|                           fd                  |         .      |                    prefix: 0xfd (valid) 0x599-0x599.7 (1)
0x590|                              99 01            |          ..    |                    i16x8.max_u: 153 (valid) 0x59a-0x59b.7 (2)
     |                                               |                |                  [3]{}: instr 0x59c-0x59c.7 (1)
0x590|                                    0b         |            .   |                    end: 0xb (valid) 0x59c-0x59c.7 (1)
     |                                               |                |          [25]{}: code 0x59d-0x5b6.7 (26)
0x590|                                       19      |             .  |            size: 25 0x59d-0x59d.7 (1)
     |                                               |                |            code{}: 0x59e-0x5b6.7 (25)
     |                                               |                |              locals{}: 0x59e-0x59e.7 (1)
0x590|                                          00   |              . |                n: 0 0x59e-0x59e.7 (1)
     |                                               |                |                items[0:0]: 0x59f-NA (0)
     |                                               |                |              expr{}: 0x59f-0x5b6.7 (24)
     |                                               |                |                instructions[0:4]: 0x59f-0x5b6.7 (24)
     |                                               |                |                  [0]{}: instr 0x59f-0x5a0.7 (2)
0x590|                                             20|                |                    local.get: 0x20 (valid) 0x59f-0x59f.7 (1)
0x5a0|00                                             |.               |                    x: 0 0x5a0-0x5a0.7 (1)
     |                                               |                |                  [1]{}: instr 0x5a1-0x5b2.7 (18)
0x5a0|   fd                                          | .              |                    prefix: 0xfd (valid) 0x5a1-0x5a1.7 (1)
0x5a0|      0c                                       |  .             |                    v128.const: 12 (valid) 0x5a2-0x5a2.7 (1)
0x5a0|         00 80 00 80 ff 7f ff 7f 00 40 00 40 ff|   .........@.@.|                    bytes: raw bits 0x5a3-0x5b2.7 (16)
0x5b0|ff ff ff                                       |...             |
     |                                               |                |                  [2]{}: instr 0x5b3-0x5b5.7 (3)
0x5b0|         fd                                    |   .            |                    prefix: 0xfd (valid) 0x5b3-0x5b3.7 (1)
0x5b0|            9b 01                              |    ..          |                    i16x8.avgr_u: 155 (valid) 0x5b4-0x5b5.7 (2)
     |                                               |                |                  [3]{}: instr 0x5b6-0x5b6.7 (1)
0x5b0|                  0b                           |      .         |                    end: 0xb (valid) 0x5b6-0x5b6.7 (1)
     |                                               |                |          [26]{}: code 0x5b7-0x5d0.7 (26)
0x5b0|                     19                        |       .        |            size: 25 0x5b7-0x5b7.7 (1)
     |                                               |                |            code{}: 0x5b8-0x5d0.7 (25)
     |                                               |                |              locals{}: 0x5b8-0x5b8.7 (1)
0x5b0|                        00                     |        .       |                n: 0 0x5b8-0x5b8.7 (1)
     |                                               |                |                items[0:0]: 0x5b9-NA (0)
     |                                               |                |              expr{}: 0x5b9-0x5d0.7 (24)
     |                                               |                |                instructions[0:4]: 0x5b9-0x5d0.7 (24)
     |                                               |                |                  [0]{}: instr 0x5b9-0x5ba.7 (2)
0x5b0|                           20                  |                |                    local.get: 0x20 (valid) 0x5b9-0x5b9.7 (1)
0x5b0|                              00               |          .     |                    x: 0 0x5ba-0x5ba.7 (1)
     |                                               |                |                  [1]{}: instr 0x5bb-0x5cc.7 (18)
0x5b0|                                 fd            |           .    |                    prefix: 0xfd (valid) 0x5bb-0x5bb.7 (1)
0x5b0|                                    0c         |            .   |                    v128.const: 12 (valid) 0x5bc-0x5bc.7 (1)
0x5b0|                                       00 00 00|             ...|                    bytes: raw bits 0x5bd-0x5cc.7 (16)
0x5c0|00 01 00 01 00 02 00 02 00 03 00 03 00         |.............   |
     |                                               |                |                  [2]{}: instr 0x5cd-0x5cf.7 (3)
0x5c0|                                       fd      |             .  |                    prefix: 0xfd (valid) 0x5cd-0x5cd.7 (1)
0x5c0|                                          9b 01|              ..|                    i16x8.avgr_u: 155 (valid) 0x5ce-0x5cf.7 (2)
     |                                               |                |                  [3]{}: instr 0x5d0-0x5d0.7 (1)
0x5d0|0b|                                            |.|              |                    end: 0xb (valid) 0x5d0-0x5d0.7 (1)
