$ fq -d wasm dv simd_i16x8_cmp-1.wasm
     |00 01 02 03 04 05 06 07 08 09 0a 0b 0c 0d 0e 0f|0123456789abcdef|.{}: simd_i16x8_cmp-1.wasm (wasm) 0x0-0x363.7 (868)
0x000|00 61 73 6d                                    |.asm            |  magic: raw bits (valid) 0x0-0x3.7 (4)
0x000|            01 00 00 00                        |    ....        |  version: 1 0x4-0x7.7 (4)
     |                                               |                |  sections[0:5]: 0x8-0x363.7 (860)
     |                                               |                |    [0]{}: section 0x8-0xd.7 (6)
0x000|                        01                     |        .       |      id: "type section" (1) 0x8-0x8.7 (1)
0x000|                           04                  |         .      |      size: 4 0x9-0x9.7 (1)
     |                                               |                |      content{}: 0xa-0xd.7 (4)
0x000|                              01               |          .     |        n: 1 0xa-0xa.7 (1)
     |                                               |                |        items[0:1]: 0xb-0xd.7 (3)
     |                                               |                |          [0]{}: functype 0xb-0xd.7 (3)
0x000|                                 60            |           `    |            tag: 0x60 (valid) 0xb-0xb.7 (1)
     |                                               |                |            rt1{}: 0xc-0xc.7 (1)
0x000|                                    00         |            .   |              n: 0 0xc-0xc.7 (1)
     |                                               |                |              items[0:0]: 0xd-NA (0)
     |                                               |                |            rt2{}: 0xd-0xd.7 (1)
0x000|                                       00      |             .  |              n: 0 0xd-0xd.7 (1)
     |                                               |                |              items[0:0]: 0xe-NA (0)
     |                                               |                |    [1]{}: section 0xe-0x1d.7 (16)
0x000|                                          03   |              . |      id: "function section" (3) 0xe-0xe.7 (1)
0x000|                                             0e|               .|      size: 14 0xf-0xf.7 (1)
     |                                               |                |      content{}: 0x10-0x1d.7 (14)
0x010|0d                                             |.               |        n: 13 0x10-0x10.7 (1)
     |                                               |                |        items[0:13]: 0x11-0x1d.7 (13)
0x010|   00                                          | .              |          [0]: 0 x 0x11-0x11.7 (1)
0x010|      00                                       |  .             |          [1]: 0 x 0x12-0x12.7 (1)
0x010|         00                                    |   .            |          [2]: 0 x 0x13-0x13.7 (1)
0x010|            00                                 |    .           |          [3]: 0 x 0x14-0x14.7 (1)
0x010|               00                              |     .          |          [4]: 0 x 0x15-0x15.7 (1)
0x010|                  00                           |      .         |          [5]: 0 x 0x16-0x16.7 (1)
0x010|                     00                        |       .        |          [6]: 0 x 0x17-0x17.7 (1)
0x010|                        00                     |        .       |          [7]: 0 x 0x18-0x18.7 (1)
0x010|                           00                  |         .      |          [8]: 0 x 0x19-0x19.7 (1)
0x010|                              00               |          .     |          [9]: 0 x 0x1a-0x1a.7 (1)
0x010|                                 00            |           .    |          [10]: 0 x 0x1b-0x1b.7 (1)
0x010|                                    00         |            .   |          [11]: 0 x 0x1c-0x1c.7 (1)
0x010|                                       00      |             .  |          [12]: 0 x 0x1d-0x1d.7 (1)
     |                                               |                |    [2]{}: section 0x1e-0x22.7 (5)
0x010|                                          05   |              . |      id: "memory section" (5) 0x1e-0x1e.7 (1)
0x010|                                             03|               .|      size: 3 0x1f-0x1f.7 (1)
     |                                               |                |      content{}: 0x20-0x22.7 (3)
0x020|01                                             |.               |        n: 1 0x20-0x20.7 (1)
     |                                               |                |        items[0:1]: 0x21-0x22.7 (2)
     |                                               |                |          [0]{}: mem 0x21-0x22.7 (2)
     |                                               |                |            limits{}: 0x21-0x22.7 (2)
0x020|   00                                          | .              |              tag: 0x0 0x21-0x21.7 (1)
0x020|      01                                       |  .             |              min: 1 0x22-0x22.7 (1)
     |                                               |                |    [3]{}: section 0x23-0xdd.7 (187)
0x020|         07                                    |   .            |      id: "export section" (7) 0x23-0x23.7 (1)
0x020|            b8 01                              |    ..          |      size: 184 0x24-0x25.7 (2)
     |                                               |                |      content{}: 0x26-0xdd.7 (184)
0x020|                  0d                           |      .         |        n: 13 0x26-0x26.7 (1)
     |                                               |                |        items[0:13]: 0x27-0xdd.7 (183)
     |                                               |                |          [0]{}: export 0x27-0x34.7 (14)
     |                                               |                |            name{}: 0x27-0x32.7 (12)
0x020|                     0b                        |       .        |              len: 11 0x27-0x27.7 (1)
0x020|                        65 71 2d 69 6e 2d 62 6c|        eq-in-bl|              utf8bytes: "eq-in-block" 0x28-0x32.7 (11)
0x030|6f 63 6b                                       |ock             |
     |                                               |                |            expr{}: 0x33-0x34.7 (2)
0x030|         00                                    |   .            |              tag: "funcidx" (0x0) 0x33-0x33.7 (1)
0x030|            00                                 |    .           |              x: 0 0x34-0x34.7 (1)
     |                                               |                |          [1]{}: export 0x35-0x42.7 (14)
     |                                               |                |            name{}: 0x35-0x40.7 (12)
0x030|               0b                              |     .          |              len: 11 0x35-0x35.7 (1)
0x030|                  6e 65 2d 69 6e 2d 62 6c 6f 63|      ne-in-bloc|              utf8bytes: "ne-in-block" 0x36-0x40.7 (11)
0x040|6b                                             |k               |
     |                                               |                |            expr{}: 0x41-0x42.7 (2)
0x040|   00                                          | .              |              tag: "funcidx" (0x0) 0x41-0x41.7 (1)
0x040|      01                                       |  .             |              x: 1 0x42-0x42.7 (1)
     |                                               |                |          [2]{}: export 0x43-0x52.7 (16)
     |                                               |                |            name{}: 0x43-0x50.7 (14)
0x040|         0d                                    |   .            |              len: 13 0x43-0x43.7 (1)
0x040|            6c 74 5f 73 2d 69 6e 2d 62 6c 6f 63|    lt_s-in-bloc|              utf8bytes: "lt_s-in-block" 0x44-0x50.7 (13)
0x050|6b                                             |k               |
     |                                               |                |            expr{}: 0x51-0x52.7 (2)
0x050|   00                                          | .              |              tag: "funcidx" (0x0) 0x51-0x51.7 (1)
0x050|      02                                       |  .             |              x: 2 0x52-0x52.7 (1)
     |                                               |                |          [3]{}: export 0x53-0x62.7 (16)
     |                                               |                |            name{}: 0x53-0x60.7 (14)
0x050|         0d                                    |   .            |              len: 13 0x53-0x53.7 (1)
0x050|            6c 65 5f 75 2d 69 6e 2d 62 6c 6f 63|    le_u-in-bloc|              utf8bytes: "le_u-in-block" 0x54-0x60.7 (13)
0x060|6b                                             |k               |
     |                                               |                |            expr{}: 0x61-0x62.7 (2)
0x060|   00                                          | .              |              tag: "funcidx" (0x0) 0x61-0x61.7 (1)
0x060|      03                                       |  .             |              x: 3 0x62-0x62.7 (1)
     |                                               |                |          [4]{}: export 0x63-0x72.7 (16)
     |                                               |                |            name{}: 0x63-0x70.7 (14)
0x060|         0d                                    |   .            |              len: 13 0x63-0x63.7 (1)
0x060|            67 74 5f 75 2d 69 6e 2d 62 6c 6f 63|    gt_u-in-bloc|              utf8bytes: "gt_u-in-block" 0x64-0x70.7 (13)
0x070|6b                                             |k               |
     |                                               |                |            expr{}: 0x71-0x72.7 (2)
0x070|   00                                          | .              |              tag: "funcidx" (0x0) 0x71-0x71.7 (1)
0x070|      04                                       |  .             |              x: 4 0x72-0x72.7 (1)
     |                                               |                |          [5]{}: export 0x73-0x82.7 (16)
     |                                               |                |            name{}: 0x73-0x80.7 (14)
0x070|         0d                                    |   .            |              len: 13 0x73-0x73.7 (1)
0x070|            67 65 5f 73 2d 69 6e 2d 62 6c 6f 63|    ge_s-in-bloc|              utf8bytes: "ge_s-in-block" 0x74-0x80.7 (13)
0x080|6b                                             |k               |
     |                                               |                |            expr{}: 0x81-0x82.7 (2)
0x080|   00                                          | .              |              tag: "funcidx" (0x0) 0x81-0x81.7 (1)
0x080|      05                                       |  .             |              x: 5 0x82-0x82.7 (1)
     |                                               |                |          [6]{}: export 0x83-0x8e.7 (12)
     |                                               |                |            name{}: 0x83-0x8c.7 (10)
0x080|         09                                    |   .            |              len: 9 0x83-0x83.7 (1)
0x080|            6e 65 73 74 65 64 2d 65 71         |    nested-eq   |              utf8bytes: "nested-eq" 0x84-0x8c.7 (9)
     |                                               |                |            expr{}: 0x8d-0x8e.7 (2)
0x080|                                       00      |             .  |              tag: "funcidx" (0x0) 0x8d-0x8d.7 (1)
0x080|                                          06   |              . |              x: 6 0x8e-0x8e.7 (1)
     |                                               |                |          [7]{}: export 0x8f-0x9a.7 (12)
     |                                               |                |            name{}: 0x8f-0x98.7 (10)
0x080|                                             09|               .|              len: 9 0x8f-0x8f.7 (1)
0x090|6e 65 73 74 65 64 2d 6e 65                     |nested-ne       |              utf8bytes: "nested-ne" 0x90-0x98.7 (9)
     |                                               |                |            expr{}: 0x99-0x9a.7 (2)
0x090|                           00                  |         .      |              tag: "funcidx" (0x0) 0x99-0x99.7 (1)
0x090|                              07               |          .     |              x: 7 0x9a-0x9a.7 (1)
     |                                               |                |          [8]{}: export 0x9b-0xa8.7 (14)
     |                                               |                |            name{}: 0x9b-0xa6.7 (12)
0x090|                                 0b            |           .    |              len: 11 0x9b-0x9b.7 (1)
0x090|                                    6e 65 73 74|            nest|              utf8bytes: "nested-lt_s" 0x9c-0xa6.7 (11)
0x0a0|65 64 2d 6c 74 5f 73                           |ed-lt_s         |
     |                                               |                |            expr{}: 0xa7-0xa8.7 (2)
0x0a0|                     00                        |       .        |              tag: "funcidx" (0x0) 0xa7-0xa7.7 (1)
0x0a0|                        08                     |        .       |              x: 8 0xa8-0xa8.7 (1)
     |                                               |                |          [9]{}: export 0xa9-0xb6.7 (14)
     |                                               |                |            name{}: 0xa9-0xb4.7 (12)
0x0a0|                           0b                  |         .      |              len: 11 0xa9-0xa9.7 (1)
0x0a0|                              6e 65 73 74 65 64|          nested|              utf8bytes: "nested-le_u" 0xaa-0xb4.7 (11)
0x0b0|2d 6c 65 5f 75                                 |-le_u           |
     |                                               |                |            expr{}: 0xb5-0xb6.7 (2)
0x0b0|               00                              |     .          |              tag: "funcidx" (0x0) 0xb5-0xb5.7 (1)
0x0b0|                  09                           |      .         |              x: 9 0xb6-0xb6.7 (1)
     |                                               |                |          [10]{}: export 0xb7-0xc4.7 (14)
     |                                               |                |            name{}: 0xb7-0xc2.7 (12)
0x0b0|                     0b                        |       .        |              len: 11 0xb7-0xb7.7 (1)
0x0b0|                        6e 65 73 74 65 64 2d 67|        nested-g|              utf8bytes: "nested-gt_u" 0xb8-0xc2.7 (11)
0x0c0|74 5f 75                                       |t_u             |
     |                                               |                |            expr{}: 0xc3-0xc4.7 (2)
0x0c0|         00                                    |   .            |              tag: "funcidx" (0x0) 0xc3-0xc3.7 (1)
0x0c0|            0a                                 |    .           |              x: 10 0xc4-0xc4.7 (1)
     |                                               |                |          [11]{}: export 0xc5-0xd2.7 (14)
     |                                               |                |            name{}: 0xc5-0xd0.7 (12)
0x0c0|               0b                              |     .          |              len: 11 0xc5-0xc5.7 (1)
0x0c0|                  6e 65 73 74 65 64 2d 67 65 5f|      nested-ge_|              utf8bytes: "nested-ge_s" 0xc6-0xd0.7 (11)
0x0d0|73                                             |s               |
     |                                               |                |            expr{}: 0xd1-0xd2.7 (2)
0x0d0|   00                                          | .              |              tag: "funcidx" (0x0) 0xd1-0xd1.7 (1)
0x0d0|      0b                                       |  .             |              x: 11 0xd2-0xd2.7 (1)
     |                                               |                |          [12]{}: export 0xd3-0xdd.7 (11)
     |                                               |                |            name{}: 0xd3-0xdb.7 (9)
0x0d0|         08                                    |   .            |              len: 8 0xd3-0xd3.7 (1)
0x0d0|            61 73 2d 70 61 72 61 6d            |    as-param    |              utf8bytes: "as-param" 0xd4-0xdb.7 (8)
     |                                               |                |            expr{}: 0xdc-0xdd.7 (2)
0x0d0|                                    00         |            .   |              tag: "funcidx" (0x0) 0xdc-0xdc.7 (1)
0x0d0|                                       0c      |             .  |              x: 12 0xdd-0xdd.7 (1)
     |                                               |                |    [4]{}: section 0xde-0x363.7 (646)
0x0d0|                                          0a   |              . |      id: "code section" (10) 0xde-0xde.7 (1)
0x0d0|                                             83|               .|      size: 643 0xdf-0xe0.7 (2)
0x0e0|05                                             |.               |
     |                                               |                |      content{}: 0xe1-0x363.7 (643)
0x0e0|   0d                                          | .              |        n: 13 0xe1-0xe1.7 (1)
     |                                               |                |        items[0:13]: 0xe2-0x363.7 (642)
     |                                               |                |          [0]{}: code 0xe2-0xff.7 (30)
0x0e0|      1d                                       |  .             |            size: 29 0xe2-0xe2.7 (1)
     |                                               |                |            code{}: 0xe3-0xff.7 (29)
     |                                               |                |              locals{}: 0xe3-0xe3.7 (1)
0x0e0|         00                                    |   .            |                n: 0 0xe3-0xe3.7 (1)
     |                                               |                |                items[0:0]: 0xe4-NA (0)
     |                                               |                |              expr{}: 0xe4-0xff.7 (28)
     |                                               |                |                instructions[0:2]: 0xe4-0xff.7 (28)
     |                                               |                |                  [0]{}: instr 0xe4-0xfe.7 (27)
0x0e0|            02                                 |    .           |                    block: 0x2 (valid) 0xe4-0xe4.7 (1)
0x0e0|               40                              |     @          |                    empty: 64 0xe5-0xe5.7 (1)
     |                                               |                |                    instructions[0:2]: 0xe6-0xfd.7 (24)
     |                                               |                |                      [0]{}: instr 0xe6-0xfc.7 (23)
0x0e0|                  02                           |      .         |                        block: 0x2 (valid) 0xe6-0xe6.7 (1)
0x0e0|                     7b                        |       {        |                        valtype: "v128" (123) 0xe7-0xe7.7 (1)
     |                                               |                |                        instructions[0:3]: 0xe8-0xfb.7 (20)
     |                                               |                |                          [0]{}: instr 0xe8-0xf0.7 (9)
0x0e0|                        02                     |        .       |                            block: 0x2 (valid) 0xe8-0xe8.7 (1)
0x0e0|                           7b                  |         {      |                            valtype: "v128" (123) 0xe9-0xe9.7 (1)
     |                                               |                |                            instructions[0:2]: 0xea-0xef.7 (6)
     |                                               |                |                              [0]{}: instr 0xea-0xeb.7 (2)
0x0e0|                              41               |          A     |                                i32.const: 0x41 (valid) 0xea-0xea.7 (1)
0x0e0|                                 00            |           .    |                                n: 0 0xeb-0xeb.7 (1)
     |                                               |                |                              [1]{}: instr 0xec-0xef.7 (4)
0x0e0|                                    fd         |            .   |                                prefix: 0xfd (valid) 0xec-0xec.7 (1)
0x0e0|                                       00      |             .  |                                v128.load: 0 (valid) 0xed-0xed.7 (1)
     |                                               |                |                                m{}: 0xee-0xef.7 (2)
0x0e0|                                          04   |              . |                                  align: 4 0xee-0xee.7 (1)
0x0e0|                                             00|               .|                                  offset: 0 0xef-0xef.7 (1)
0x0f0|0b                                             |.               |                            end: 11 (valid) 0xf0-0xf0.7 (1)
     |                                               |                |                          [1]{}: instr 0xf1-0xf9.7 (9)
0x0f0|   02                                          | .              |                            block: 0x2 (valid) 0xf1-0xf1.7 (1)
0x0f0|      7b                                       |  {             |                            valtype: "v128" (123) 0xf2-0xf2.7 (1)
     |                                               |                |                            instructions[0:2]: 0xf3-0xf8.7 (6)
     |                                               |                |                              [0]{}: instr 0xf3-0xf4.7 (2)
0x0f0|         41                                    |   A            |                                i32.const: 0x41 (valid) 0xf3-0xf3.7 (1)
0x0f0|            01                                 |    .           |                                n: 1 0xf4-0xf4.7 (1)
     |                                               |                |                              [1]{}: instr 0xf5-0xf8.7 (4)
0x0f0|               fd                              |     .          |                                prefix: 0xfd (valid) 0xf5-0xf5.7 (1)
0x0f0|                  00                           |      .         |                                v128.load: 0 (valid) 0xf6-0xf6.7 (1)
     |                                               |                |                                m{}: 0xf7-0xf8.7 (2)
0x0f0|                     04                        |       .        |                                  align: 4 0xf7-0xf7.7 (1)
0x0f0|                        00                     |        .       |                                  offset: 0 0xf8-0xf8.7 (1)
0x0f0|                           0b                  |         .      |                            end: 11 (valid) 0xf9-0xf9.7 (1)
     |                                               |                |                          [2]{}: instr 0xfa-0xfb.7 (2)
0x0f0|                              fd               |          .     |                            prefix: 0xfd (valid) 0xfa-0xfa.7 (1)
0x0f0|                                 2d            |           -    |                            i16x8.eq: 45 (valid) 0xfb-0xfb.7 (1)
0x0f0|                                    0b         |            .   |                        end: 11 (valid) 0xfc-0xfc.7 (1)
     |                                               |                |                      [1]{}: instr 0xfd-0xfd.7 (1)
0x0f0|                                       1a      |             .  |                        drop: 0x1a (valid) 0xfd-0xfd.7 (1)
0x0f0|                                          0b   |              . |                    end: 11 (valid) 0xfe-0xfe.7 (1)
     |                                               |                |                  [1]{}: instr 0xff-0xff.7 (1)
0x0f0|                                             0b|               .|                    end: 0xb (valid) 0xff-0xff.7 (1)
     |                                               |                |          [1]{}: code 0x100-0x11d.7 (30)
0x100|1d                                             |.               |            size: 29 0x100-0x100.7 (1)
     |                                               |                |            code{}: 0x101-0x11d.7 (29)
     |                                               |                |              locals{}: 0x101-0x101.7 (1)
0x100|   00                                          | .              |                n: 0 0x101-0x101.7 (1)
     |                                               |                |                items[0:0]: 0x102-NA (0)
     |                                               |                |              expr{}: 0x102-0x11d.7 (28)
     |                                               |                |                instructions[0:2]: 0x102-0x11d.7 (28)
     |                                               |                |                  [0]{}: instr 0x102-0x11c.7 (27)
0x100|      02                                       |  .             |                    block: 0x2 (valid) 0x102-0x102.7 (1)
0x100|         40                                    |   @            |                    empty: 64 0x103-0x103.7 (1)
     |                                               |                |                    instructions[0:2]: 0x104-0x11b.7 (24)
     |                                               |                |                      [0]{}: instr 0x104-0x11a.7 (23)
0x100|            02                                 |    .           |                        block: 0x2 (valid) 0x104-0x104.7 (1)
0x100|               7b                              |     {          |                        valtype: "v128" (123) 0x105-0x105.7 (1)
     |                                               |                |                        instructions[0:3]: 0x106-0x119.7 (20)
     |                                               |                |                          [0]{}: instr 0x106-0x10e.7 (9)
0x100|                  02                           |      .         |                            block: 0x2 (valid) 0x106-0x106.7 (1)
0x100|                     7b                        |       {        |                            valtype: "v128" (123) 0x107-0x107.7 (1)
     |                                               |                |                            instructions[0:2]: 0x108-0x10d.7 (6)
     |                                               |                |                              [0]{}: instr 0x108-0x109.7 (2)
0x100|                        41                     |        A       |                                i32.const: 0x41 (valid) 0x108-0x108.7 (1)
0x100|                           00                  |         .      |                                n: 0 0x109-0x109.7 (1)
     |                                               |                |                              [1]{}: instr 0x10a-0x10d.7 (4)
0x100|                              fd               |          .     |                                prefix: 0xfd (valid) 0x10a-0x10a.7 (1)
0x100|                                 00            |           .    |                                v128.load: 0 (valid) 0x10b-0x10b.7 (1)
     |                                               |                |                                m{}: 0x10c-0x10d.7 (2)
0x100|                                    04         |            .   |                                  align: 4 0x10c-0x10c.7 (1)
0x100|                                       00      |             .  |                                  offset: 0 0x10d-0x10d.7 (1)
0x100|                                          0b   |              . |                            end: 11 (valid) 0x10e-0x10e.7 (1)
     |                                               |                |                          [1]{}: instr 0x10f-0x117.7 (9)
0x100|                                             02|               .|                            block: 0x2 (valid) 0x10f-0x10f.7 (1)
0x110|7b                                             |{               |                            valtype: "v128" (123) 0x110-0x110.7 (1)
     |                                               |                |                            instructions[0:2]: 0x111-0x116.7 (6)
     |                                               |                |                              [0]{}: instr 0x111-0x112.7 (2)
0x110|   41                                          | A              |                                i32.const: 0x41 (valid) 0x111-0x111.7 (1)
0x110|      01                                       |  .             |                                n: 1 0x112-0x112.7 (1)
     |                                               |                |                              [1]{}: instr 0x113-0x116.7 (4)
0x110|         fd                                    |   .            |                                prefix: 0xfd (valid) 0x113-0x113.7 (1)
0x110|            00                                 |    .           |                                v128.load: 0 (valid) 0x114-0x114.7 (1)
     |                                               |                |                                m{}: 0x115-0x116.7 (2)
0x110|               04                              |     .          |                                  align: 4 0x115-0x115.7 (1)
0x110|                  00                           |      .         |                                  offset: 0 0x116-0x116.7 (1)
0x110|                     0b                        |       .        |                            end: 11 (valid) 0x117-0x117.7 (1)
     |                                               |                |                          [2]{}: instr 0x118-0x119.7 (2)
0x110|                        fd                     |        .       |                            prefix: 0xfd (valid) 0x118-0x118.7 (1)
0x110|                           2e                  |         .      |                            i16x8.ne: 46 (valid) 0x119-0x119.7 (1)
0x110|                              0b               |          .     |                        end: 11 (valid) 0x11a-0x11a.7 (1)
     |                                               |                |                      [1]{}: instr 0x11b-0x11b.7 (1)
0x110|                                 1a            |           .    |                        drop: 0x1a (valid) 0x11b-0x11b.7 (1)
0x110|                                    0b         |            .   |                    end: 11 (valid) 0x11c-0x11c.7 (1)
     |                                               |                |                  [1]{}: instr 0x11d-0x11d.7 (1)
0x110|                                       0b      |             .  |                    end: 0xb (valid) 0x11d-0x11d.7 (1)
     |                                               |                |          [2]{}: code 0x11e-0x13b.7 (30)
0x110|                                          1d   |              . |            size: 29 0x11e-0x11e.7 (1)
     |                                               |                |            code{}: 0x11f-0x13b.7 (29)
     |                                               |                |              locals{}: 0x11f-0x11f.7 (1)
0x110|                                             00|               .|                n: 0 0x11f-0x11f.7 (1)
     |                                               |                |                items[0:0]: 0x120-NA (0)
     |                                               |                |              expr{}: 0x120-0x13b.7 (28)
     |                                               |                |                instructions[0:2]: 0x120-0x13b.7 (28)
     |                                               |                |                  [0]{}: instr 0x120-0x13a.7 (27)
0x120|02                                             |.               |                    block: 0x2 (valid) 0x120-0x120.7 (1)
0x120|   40                                          | @              |                    empty: 64 0x121-0x121.7 (1)
     |                                               |                |                    instructions[0:2]: 0x122-0x139.7 (24)
     |                                               |                |                      [0]{}: instr 0x122-0x138.7 (23)
0x120|      02                                       |  .             |                        block: 0x2 (valid) 0x122-0x122.7 (1)
0x120|         7b                                    |   {            |                        valtype: "v128" (123) 0x123-0x123.7 (1)
     |                                               |                |                        instructions[0:3]: 0x124-0x137.7 (20)
     |                                               |                |                          [0]{}: instr 0x124-0x12c.7 (9)
0x120|            02                                 |    .           |                            block: 0x2 (valid) 0x124-0x124.7 (1)
0x120|               7b                              |     {          |                            valtype: "v128" (123) 0x125-0x125.7 (1)
     |                                               |                |                            instructions[0:2]: 0x126-0x12b.7 (6)
     |                                               |                |                              [0]{}: instr 0x126-0x127.7 (2)
0x120|                  41                           |      A         |                                i32.const: 0x41 (valid) 0x126-0x126.7 (1)
0x120|                     00                        |       .        |                                n: 0 0x127-0x127.7 (1)
     |                                               |                |                              [1]{}: instr 0x128-0x12b.7 (4)
0x120|                        fd                     |        .       |                                prefix: 0xfd (valid) 0x128-0x128.7 (1)
0x120|                           00                  |         .      |                                v128.load: 0 (valid) 0x129-0x129.7 (1)
     |                                               |                |                                m{}: 0x12a-0x12b.7 (2)
0x120|                              04               |          .     |                                  align: 4 0x12a-0x12a.7 (1)
0x120|                                 00            |           .    |                                  offset: 0 0x12b-0x12b.7 (1)
0x120|                                    0b         |            .   |                            end: 11 (valid) 0x12c-0x12c.7 (1)
     |                                               |                |                          [1]{}: instr 0x12d-0x135.7 (9)
0x120|                                       02      |             .  |                            block: 0x2 (valid) 0x12d-0x12d.7 (1)
0x120|                                          7b   |              { |                            valtype: "v128" (123) 0x12e-0x12e.7 (1)
     |                                               |                |                            instructions[0:2]: 0x12f-0x134.7 (6)
     |                                               |                |                              [0]{}: instr 0x12f-0x130.7 (2)
0x120|                                             41|               A|                                i32.const: 0x41 (valid) 0x12f-0x12f.7 (1)
0x130|01                                             |.               |                                n: 1 0x130-0x130.7 (1)
     |                                               |                |                              [1]{}: instr 0x131-0x134.7 (4)
0x130|   fd                                          | .              |                                prefix: 0xfd (valid) 0x131-0x131.7 (1)
0x130|      00                                       |  .             |                                v128.load: 0 (valid) 0x132-0x132.7 (1)
     |                                               |                |                                m{}: 0x133-0x134.7 (2)
0x130|         04                                    |   .            |                                  align: 4 0x133-0x133.7 (1)
0x130|            00                                 |    .           |                                  offset: 0 0x134-0x134.7 (1)
0x130|               0b                              |     .          |                            end: 11 (valid) 0x135-0x135.7 (1)
     |                                               |                |                          [2]{}: instr 0x136-0x137.7 (2)
0x130|                  fd                           |      .         |                            prefix: 0xfd (valid) 0x136-0x136.7 (1)
0x130|                     2f                        |       /        |                            i16x8.lt_s: 47 (valid) 0x137-0x137.7 (1)
0x130|                        0b                     |        .       |                        end: 11 (valid) 0x138-0x138.7 (1)
     |                                               |                |                      [1]{}: instr 0x139-0x139.7 (1)
0x130|                           1a                  |         .      |                        drop: 0x1a (valid) 0x139-0x139.7 (1)
0x130|                              0b               |          .     |                    end: 11 (valid) 0x13a-0x13a.7 (1)
     |                                               |                |                  [1]{}: instr 0x13b-0x13b.7 (1)
0x130|                                 0b            |           .    |                    end: 0xb (valid) 0x13b-0x13b.7 (1)
     |                                               |                |          [3]{}: code 0x13c-0x159.7 (30)
0x130|                                    1d         |            .   |            size: 29 0x13c-0x13c.7 (1)
     |                                               |                |            code{}: 0x13d-0x159.7 (29)
     |                                               |                |              locals{}: 0x13d-0x13d.7 (1)
0x130|                                       00      |             .  |                n: 0 0x13d-0x13d.7 (1)
     |                                               |                |                items[0:0]: 0x13e-NA (0)
     |                                               |                |              expr{}: 0x13e-0x159.7 (28)
     |                                               |                |                instructions[0:2]: 0x13e-0x159.7 (28)
     |                                               |                |                  [0]{}: instr 0x13e-0x158.7 (27)
0x130|                                          02   |              . |                    block: 0x2 (valid) 0x13e-0x13e.7 (1)
0x130|                                             40|               @|                    empty: 64 0x13f-0x13f.7 (1)
     |                                               |                |                    instructions[0:2]: 0x140-0x157.7 (24)
     |                                               |                |                      [0]{}: instr 0x140-0x156.7 (23)
0x140|02                                             |.               |                        block: 0x2 (valid) 0x140-0x140.7 (1)
0x140|   7b                                          | {              |                        valtype: "v128" (123) 0x141-0x141.7 (1)
     |                                               |                |                        instructions[0:3]: 0x142-0x155.7 (20)
     |                                               |                |                          [0]{}: instr 0x142-0x14a.7 (9)
0x140|      02                                       |  .             |                            block: 0x2 (valid) 0x142-0x142.7 (1)
0x140|         7b                                    |   {            |                            valtype: "v128" (123) 0x143-0x143.7 (1)
     |                                               |                |                            instructions[0:2]: 0x144-0x149.7 (6)
     |                                               |                |                              [0]{}: instr 0x144-0x145.7 (2)
0x140|            41                                 |    A           |                                i32.const: 0x41 (valid) 0x144-0x144.7 (1)
0x140|               00                              |     .          |                                n: 0 0x145-0x145.7 (1)
     |                                               |                |                              [1]{}: instr 0x146-0x149.7 (4)
0x140|                  fd                           |      .         |                                prefix: 0xfd (valid) 0x146-0x146.7 (1)
0x140|                     00                        |       .        |                                v128.load: 0 (valid) 0x147-0x147.7 (1)
     |                                               |                |                                m{}: 0x148-0x149.7 (2)
0x140|                        04                     |        .       |                                  align: 4 0x148-0x148.7 (1)
0x140|                           00                  |         .      |                                  offset: 0 0x149-0x149.7 (1)
0x140|                              0b               |          .     |                            end: 11 (valid) 0x14a-0x14a.7 (1)
     |                                               |                |                          [1]{}: instr 0x14b-0x153.7 (9)
0x140|                                 02            |           .    |                            block: 0x2 (valid) 0x14b-0x14b.7 (1)
0x140|                                    7b         |            {   |                            valtype: "v128" (123) 0x14c-0x14c.7 (1)
     |                                               |                |                            instructions[0:2]: 0x14d-0x152.7 (6)
     |                                               |                |                              [0]{}: instr 0x14d-0x14e.7 (2)
0x140|                                       41      |             A  |                                i32.const: 0x41 (valid) 0x14d-0x14d.7 (1)
0x140|                                          01   |              . |                                n: 1 0x14e-0x14e.7 (1)
     |                                               |                |                              [1]{}: instr 0x14f-0x152.7 (4)
0x140|                                             fd|               .|                                prefix: 0xfd (valid) 0x14f-0x14f.7 (1)
0x150|00                                             |.               |                                v128.load: 0 (valid) 0x150-0x150.7 (1)
     |                                               |                |                                m{}: 0x151-0x152.7 (2)
0x150|   04                                          | .              |                                  align: 4 0x151-0x151.7 (1)
0x150|      00                                       |  .             |                                  offset: 0 0x152-0x152.7 (1)
0x150|         0b                                    |   .            |                            end: 11 (valid) 0x153-0x153.7 (1)
     |                                               |                |                          [2]{}: instr 0x154-0x155.7 (2)
0x150|            fd                                 |    .           |                            prefix: 0xfd (valid) 0x154-0x154.7 (1)
0x150|               34                              |     4          |                            i16x8.le_u: 52 (valid) 0x155-0x155.7 (1)
0x150|                  0b                           |      .         |                        end: 11 (valid) 0x156-0x156.7 (1)
     |                                               |                |                      [1]{}: instr 0x157-0x157.7 (1)
0x150|                     1a                        |       .        |                        drop: 0x1a (valid) 0x157-0x157.7 (1)
0x150|                        0b                     |        .       |                    end: 11 (valid) 0x158-0x158.7 (1)
     |                                               |                |                  [1]{}: instr 0x159-0x159.7 (1)
0x150|                           0b                  |         .      |                    end: 0xb (valid) 0x159-0x159.7 (1)
     |                                               |                |          [4]{}: code 0x15a-0x177.7 (30)
0x150|                              1d               |          .     |            size: 29 0x15a-0x15a.7 (1)
     |                                               |                |            code{}: 0x15b-0x177.7 (29)
     |                                               |                |              locals{}: 0x15b-0x15b.7 (1)
0x150|                                 00            |           .    |                n: 0 0x15b-0x15b.7 (1)
     |                                               |                |                items[0:0]: 0x15c-NA (0)
     |                                               |                |              expr{}: 0x15c-0x177.7 (28)
     |                                               |                |                instructions[0:2]: 0x15c-0x177.7 (28)
     |                                               |                |                  [0]{}: instr 0x15c-0x176.7 (27)
0x150|                                    02         |            .   |                    block: 0x2 (valid) 0x15c-0x15c.7 (1)
0x150|                                       40      |             @  |                    empty: 64 0x15d-0x15d.7 (1)
     |                                               |                |                    instructions[0:2]: 0x15e-0x175.7 (24)
     |                                               |                |                      [0]{}: instr 0x15e-0x174.7 (23)
0x150|                                          02   |              . |                        block: 0x2 (valid) 0x15e-0x15e.7 (1)
0x150|                                             7b|               {|                        valtype: "v128" (123) 0x15f-0x15f.7 (1)
     |                                               |                |                        instructions[0:3]: 0x160-0x173.7 (20)
     |                                               |                |                          [0]{}: instr 0x160-0x168.7 (9)
0x160|02                                             |.               |                            block: 0x2 (valid) 0x160-0x160.7 (1)
0x160|   7b                                          | {              |                            valtype: "v128" (123) 0x161-0x161.7 (1)
     |                                               |                |                            instructions[0:2]: 0x162-0x167.7 (6)
     |                                               |                |                              [0]{}: instr 0x162-0x163.7 (2)
0x160|      41                                       |  A             |                                i32.const: 0x41 (valid) 0x162-0x162.7 (1)
0x160|         00                                    |   .            |                                n: 0 0x163-0x163.7 (1)
     |                                               |                |                              [1]{}: instr 0x164-0x167.7 (4)
0x160|            fd                                 |    .           |                                prefix: 0xfd (valid) 0x164-0x164.7 (1)
0x160|               00                              |     .          |                                v128.load: 0 (valid) 0x165-0x165.7 (1)
     |                                               |                |                                m{}: 0x166-0x167.7 (2)
0x160|                  04                           |      .         |                                  align: 4 0x166-0x166.7 (1)
0x160|                     00                        |       .        |                                  offset: 0 0x167-0x167.7 (1)
0x160|                        0b                     |        .       |                            end: 11 (valid) 0x168-0x168.7 (1)
     |                                               |                |                          [1]{}: instr 0x169-0x171.7 (9)
0x160|                           02                  |         .      |                            block: 0x2 (valid) 0x169-0x169.7 (1)
0x160|                              7b               |          {     |                            valtype: "v128" (123) 0x16a-0x16a.7 (1)
     |                                               |                |                            instructions[0:2]: 0x16b-0x170.7 (6)
     |                                               |                |                              [0]{}: instr 0x16b-0x16c.7 (2)
0x160|                                 41            |           A    |                                i32.const: 0x41 (valid) 0x16b-0x16b.7 (1)
0x160|                                    01         |            .   |                                n: 1 0x16c-0x16c.7 (1)
     |                                               |                |                              [1]{}: instr 0x16d-0x170.7 (4)
0x160|                                       fd      |             .  |                                prefix: 0xfd (valid) 0x16d-0x16d.7 (1)
0x160|                                          00   |              . |                                v128.load: 0 (valid) 0x16e-0x16e.7 (1)
     |                                               |                |                                m{}: 0x16f-0x170.7 (2)
0x160|                                             04|               .|                                  align: 4 0x16f-0x16f.7 (1)
0x170|00                                             |.               |                                  offset: 0 0x170-0x170.7 (1)
0x170|   0b                                          | .              |                            end: 11 (valid) 0x171-0x171.7 (1)
     |                                               |                |                          [2]{}: instr 0x172-0x173.7 (2)
0x170|      fd                                       |  .             |                            prefix: 0xfd (valid) 0x172-0x172.7 (1)
0x170|         32                                    |   2            |                            i16x8.gt_u: 50 (valid) 0x173-0x173.7 (1)
0x170|            0b                                 |    .           |                        end: 11 (valid) 0x174-0x174.7 (1)
     |                                               |                |                      [1]{}: instr 0x175-0x175.7 (1)
0x170|               1a                              |     .          |                        drop: 0x1a (valid) 0x175-0x175.7 (1)
0x170|                  0b                           |      .         |                    end: 11 (valid) 0x176-0x176.7 (1)
     |                                               |                |                  [1]{}: instr 0x177-0x177.7 (1)
0x170|                     0b                        |       .        |                    end: 0xb (valid) 0x177-0x177.7 (1)
     |                                               |                |          [5]{}: code 0x178-0x195.7 (30)
0x170|                        1d                     |        .       |            size: 29 0x178-0x178.7 (1)
     |                                               |                |            code{}: 0x179-0x195.7 (29)
     |                                               |                |              locals{}: 0x179-0x179.7 (1)
0x170|                           00                  |         .      |                n: 0 0x179-0x179.7 (1)
     |                                               |                |                items[0:0]: 0x17a-NA (0)
     |                                               |                |              expr{}: 0x17a-0x195.7 (28)
     |                                               |                |                instructions[0:2]: 0x17a-0x195.7 (28)
     |                                               |                |                  [0]{}: instr 0x17a-0x194.7 (27)
0x170|                              02               |          .     |                    block: 0x2 (valid) 0x17a-0x17a.7 (1)
0x170|                                 40            |           @    |                    empty: 64 0x17b-0x17b.7 (1)
     |                                               |                |                    instructions[0:2]: 0x17c-0x193.7 (24)
     |                                               |                |                      [0]{}: instr 0x17c-0x192.7 (23)
0x170|                                    02         |            .   |                        block: 0x2 (valid) 0x17c-0x17c.7 (1)
0x170|                                       7b      |             {  |                        valtype: "v128" (123) 0x17d-0x17d.7 (1)
     |                                               |                |                        instructions[0:3]: 0x17e-0x191.7 (20)
     |                                               |                |                          [0]{}: instr 0x17e-0x186.7 (9)
0x170|                                          02   |              . |                            block: 0x2 (valid) 0x17e-0x17e.7 (1)
0x170|                                             7b|               {|                            valtype: "v128" (123) 0x17f-0x17f.7 (1)
     |                                               |                |                            instructions[0:2]: 0x180-0x185.7 (6)
     |                                               |                |                              [0]{}: instr 0x180-0x181.7 (2)
0x180|41                                             |A               |                                i32.const: 0x41 (valid) 0x180-0x180.7 (1)
0x180|   00                                          | .              |                                n: 0 0x181-0x181.7 (1)
     |                                               |                |                              [1]{}: instr 0x182-0x185.7 (4)
0x180|      fd                                       |  .             |                                prefix: 0xfd (valid) 0x182-0x182.7 (1)
0x180|         00                                    |   .            |                                v128.load: 0 (valid) 0x183-0x183.7 (1)
     |                                               |                |                                m{}: 0x184-0x185.7 (2)
0x180|            04                                 |    .           |                                  align: 4 0x184-0x184.7 (1)
0x180|               00                              |     .          |                                  offset: 0 0x185-0x185.7 (1)
0x180|                  0b                           |      .         |                            end: 11 (valid) 0x186-0x186.7 (1)
     |                                               |                |                          [1]{}: instr 0x187-0x18f.7 (9)
0x180|                     02                        |       .        |                            block: 0x2 (valid) 0x187-0x187.7 (1)
0x180|                        7b                     |        {       |                            valtype: "v128" (123) 0x188-0x188.7 (1)
     |                                               |                |                            instructions[0:2]: 0x189-0x18e.7 (6)
     |                                               |                |                              [0]{}: instr 0x189-0x18a.7 (2)
0x180|                           41                  |         A      |                                i32.const: 0x41 (valid) 0x189-0x189.7 (1)
0x180|                              01               |          .     |                                n: 1 0x18a-0x18a.7 (1)
     |                                               |                |                              [1]{}: instr 0x18b-0x18e.7 (4)
0x180|                                 fd            |           .    |                                prefix: 0xfd (valid) 0x18b-0x18b.7 (1)
0x180|                                    00         |            .   |                                v128.load: 0 (valid) 0x18c-0x18c.7 (1)
     |                                               |                |                                m{}: 0x18d-0x18e.7 (2)
0x180|                                       04      |             .  |                                  align: 4 0x18d-0x18d.7 (1)
0x180|                                          00   |              . |                                  offset: 0 0x18e-0x18e.7 (1)
0x180|                                             0b|               .|                            end: 11 (valid) 0x18f-0x18f.7 (1)
     |                                               |                |                          [2]{}: instr 0x190-0x191.7 (2)
0x190|fd                                             |.               |                            prefix: 0xfd (valid) 0x190-0x190.7 (1)
0x190|   35                                          | 5              |                            i16x8.ge_s: 53 (valid) 0x191-0x191.7 (1)
0x190|      0b                                       |  .             |                        end: 11 (valid) 0x192-0x192.7 (1)
     |                                               |                |                      [1]{}: instr 0x193-0x193.7 (1)
0x190|         1a                                    |   .            |                        drop: 0x1a (valid) 0x193-0x193.7 (1)
0x190|            0b                                 |    .           |                    end: 11 (valid) 0x194-0x194.7 (1)
     |                                               |                |                  [1]{}: instr 0x195-0x195.7 (1)
0x190|               0b                              |     .          |                    end: 0xb (valid) 0x195-0x195.7 (1)
     |                                               |                |          [6]{}: code 0x196-0x1d7.7 (66)
0x190|                  41                           |      A         |            size: 65 0x196-0x196.7 (1)
     |                                               |                |            code{}: 0x197-0x1d7.7 (65)
     |                                               |                |              locals{}: 0x197-0x197.7 (1)
0x190|                     00                        |       .        |                n: 0 0x197-0x197.7 (1)
     |                                               |                |                items[0:0]: 0x198-NA (0)
     |                                               |                |              expr{}: 0x198-0x1d7.7 (64)
     |                                               |                |                instructions[0:25]: 0x198-0x1d7.7 (64)
     |                                               |                |                  [0]{}: instr 0x198-0x199.7 (2)
0x190|                        41                     |        A       |                    i32.const: 0x41 (valid) 0x198-0x198.7 (1)
0x190|                           00                  |         .      |                    n: 0 0x199-0x199.7 (1)
     |                                               |                |                  [1]{}: instr 0x19a-0x19d.7 (4)
0x190|                              fd               |          .     |                    prefix: 0xfd (valid) 0x19a-0x19a.7 (1)
0x190|                                 00            |           .    |                    v128.load: 0 (valid) 0x19b-0x19b.7 (1)
     |                                               |                |                    m{}: 0x19c-0x19d.7 (2)
0x190|                                    04         |            .   |                      align: 4 0x19c-0x19c.7 (1)
0x190|                                       00      |             .  |                      offset: 0 0x19d-0x19d.7 (1)
     |                                               |                |                  [2]{}: instr 0x19e-0x19f.7 (2)
0x190|                                          41   |              A |                    i32.const: 0x41 (valid) 0x19e-0x19e.7 (1)
0x190|                                             01|               .|                    n: 1 0x19f-0x19f.7 (1)
     |                                               |                |                  [3]{}: instr 0x1a0-0x1a3.7 (4)
0x1a0|fd                                             |.               |                    prefix: 0xfd (valid) 0x1a0-0x1a0.7 (1)
0x1a0|   00                                          | .              |                    v128.load: 0 (valid) 0x1a1-0x1a1.7 (1)
     |                                               |                |                    m{}: 0x1a2-0x1a3.7 (2)
0x1a0|      04                                       |  .             |                      align: 4 0x1a2-0x1a2.7 (1)
0x1a0|         00                                    |   .            |                      offset: 0 0x1a3-0x1a3.7 (1)
     |                                               |                |                  [4]{}: instr 0x1a4-0x1a5.7 (2)
0x1a0|            fd                                 |    .           |                    prefix: 0xfd (valid) 0x1a4-0x1a4.7 (1)
0x1a0|               2d                              |     -          |                    i16x8.eq: 45 (valid) 0x1a5-0x1a5.7 (1)
     |                                               |                |                  [5]{}: instr 0x1a6-0x1a7.7 (2)
0x1a0|                  41                           |      A         |                    i32.const: 0x41 (valid) 0x1a6-0x1a6.7 (1)
0x1a0|                     02                        |       .        |                    n: 2 0x1a7-0x1a7.7 (1)
     |                                               |                |                  [6]{}: instr 0x1a8-0x1ab.7 (4)
0x1a0|                        fd                     |        .       |                    prefix: 0xfd (valid) 0x1a8-0x1a8.7 (1)
0x1a0|                           00                  |         .      |                    v128.load: 0 (valid) 0x1a9-0x1a9.7 (1)
     |                                               |                |                    m{}: 0x1aa-0x1ab.7 (2)
0x1a0|                              04               |          .     |                      align: 4 0x1aa-0x1aa.7 (1)
0x1a0|                                 00            |           .    |                      offset: 0 0x1ab-0x1ab.7 (1)
     |                                               |                |                  [7]{}: instr 0x1ac-0x1ad.7 (2)
0x1a0|                                    41         |            A   |                    i32.const: 0x41 (valid) 0x1ac-0x1ac.7 (1)
0x1a0|                                       03      |             .  |                    n: 3 0x1ad-0x1ad.7 (1)
     |                                               |                |                  [8]{}: instr 0x1ae-0x1b1.7 (4)
0x1a0|                                          fd   |              . |                    prefix: 0xfd (valid) 0x1ae-0x1ae.7 (1)
0x1a0|                                             00|               .|                    v128.load: 0 (valid) 0x1af-0x1af.7 (1)
     |                                               |                |                    m{}: 0x1b0-0x1b1.7 (2)
0x1b0|04                                             |.               |                      align: 4 0x1b0-0x1b0.7 (1)
0x1b0|   00                                          | .              |                      offset: 0 0x1b1-0x1b1.7 (1)
     |                                               |                |                  [9]{}: instr 0x1b2-0x1b3.7 (2)
0x1b0|      fd                                       |  .             |                    prefix: 0xfd (valid) 0x1b2-0x1b2.7 (1)
0x1b0|         2d                                    |   -            |                    i16x8.eq: 45 (valid) 0x1b3-0x1b3.7 (1)
     |                                               |                |                  [10]{}: instr 0x1b4-0x1b5.7 (2)
0x1b0|            fd                                 |    .           |                    prefix: 0xfd (valid) 0x1b4-0x1b4.7 (1)
0x1b0|               2d                              |     -          |                    i16x8.eq: 45 (valid) 0x1b5-0x1b5.7 (1)
     |                                               |                |                  [11]{}: instr 0x1b6-0x1b7.7 (2)
0x1b0|                  41                           |      A         |                    i32.const: 0x41 (valid) 0x1b6-0x1b6.7 (1)
0x1b0|                     00                        |       .        |                    n: 0 0x1b7-0x1b7.7 (1)
     |                                               |                |                  [12]{}: instr 0x1b8-0x1bb.7 (4)
0x1b0|                        fd                     |        .       |                    prefix: 0xfd (valid) 0x1b8-0x1b8.7 (1)
0x1b0|                           00                  |         .      |                    v128.load: 0 (valid) 0x1b9-0x1b9.7 (1)
     |                                               |                |                    m{}: 0x1ba-0x1bb.7 (2)
0x1b0|                              04               |          .     |                      align: 4 0x1ba-0x1ba.7 (1)
0x1b0|                                 00            |           .    |                      offset: 0 0x1bb-0x1bb.7 (1)
     |                                               |                |                  [13]{}: instr 0x1bc-0x1bd.7 (2)
0x1b0|                                    41         |            A   |                    i32.const: 0x41 (valid) 0x1bc-0x1bc.7 (1)
0x1b0|                                       01      |             .  |                    n: 1 0x1bd-0x1bd.7 (1)
     |                                               |                |                  [14]{}: instr 0x1be-0x1c1.7 (4)
0x1b0|                                          fd   |              . |                    prefix: 0xfd (valid) 0x1be-0x1be.7 (1)
0x1b0|                                             00|               .|                    v128.load: 0 (valid) 0x1bf-0x1bf.7 (1)
     |                                               |                |                    m{}: 0x1c0-0x1c1.7 (2)
0x1c0|04                                             |.               |                      align: 4 0x1c0-0x1c0.7 (1)
0x1c0|   00                                          | .              |                      offset: 0 0x1c1-0x1c1.7 (1)
     |                                               |                |                  [15]{}: instr 0x1c2-0x1c3.7 (2)
0x1c0|      fd                                       |  .             |                    prefix: 0xfd (valid) 0x1c2-0x1c2.7 (1)
0x1c0|         2d                                    |   -            |                    i16x8.eq: 45 (valid) 0x1c3-0x1c3.7 (1)
     |                                               |                |                  [16]{}: instr 0x1c4-0x1c5.7 (2)
0x1c0|            41                                 |    A           |                    i32.const: 0x41 (valid) 0x1c4-0x1c4.7 (1)
0x1c0|               02                              |     .          |                    n: 2 0x1c5-0x1c5.7 (1)
     |                                               |                |                  [17]{}: instr 0x1c6-0x1c9.7 (4)
0x1c0|                  fd                           |      .         |                    prefix: 0xfd (valid) 0x1c6-0x1c6.7 (1)
0x1c0|                     00                        |       .        |                    v128.load: 0 (valid) 0x1c7-0x1c7.7 (1)
     |                                               |                |                    m{}: 0x1c8-0x1c9.7 (2)
0x1c0|                        04                     |        .       |                      align: 4 0x1c8-0x1c8.7 (1)
0x1c0|                           00                  |         .      |                      offset: 0 0x1c9-0x1c9.7 (1)
     |                                               |                |                  [18]{}: instr 0x1ca-0x1cb.7 (2)
0x1c0|                              41               |          A     |                    i32.const: 0x41 (valid) 0x1ca-0x1ca.7 (1)
0x1c0|                                 03            |           .    |                    n: 3 0x1cb-0x1cb.7 (1)
     |                                               |                |                  [19]{}: instr 0x1cc-0x1cf.7 (4)
0x1c0|                                    fd         |            .   |                    prefix: 0xfd (valid) 0x1cc-0x1cc.7 (1)
0x1c0|                                       00      |             .  |                    v128.load: 0 (valid) 0x1cd-0x1cd.7 (1)
     |                                               |                |                    m{}: 0x1ce-0x1cf.7 (2)
0x1c0|                                          04   |              . |                      align: 4 0x1ce-0x1ce.7 (1)
0x1c0|                                             00|               .|                      offset: 0 0x1cf-0x1cf.7 (1)
     |                                               |                |                  [20]{}: instr 0x1d0-0x1d1.7 (2)
0x1d0|fd                                             |.               |                    prefix: 0xfd (valid) 0x1d0-0x1d0.7 (1)
0x1d0|   2d                                          | -              |                    i16x8.eq: 45 (valid) 0x1d1-0x1d1.7 (1)
     |                                               |                |                  [21]{}: instr 0x1d2-0x1d3.7 (2)
0x1d0|      fd                                       |  .             |                    prefix: 0xfd (valid) 0x1d2-0x1d2.7 (1)
0x1d0|         2d                                    |   -            |                    i16x8.eq: 45 (valid) 0x1d3-0x1d3.7 (1)
     |                                               |                |                  [22]{}: instr 0x1d4-0x1d5.7 (2)
0x1d0|            fd                                 |    .           |                    prefix: 0xfd (valid) 0x1d4-0x1d4.7 (1)
0x1d0|               2d                              |     -          |                    i16x8.eq: 45 (valid) 0x1d5-0x1d5.7 (1)
     |                                               |                |                  [23]{}: instr 0x1d6-0x1d6.7 (1)
0x1d0|                  1a                           |      .         |                    drop: 0x1a (valid) 0x1d6-0x1d6.7 (1)
     |                                               |                |                  [24]{}: instr 0x1d7-0x1d7.7 (1)
0x1d0|                     0b                        |       .        |                    end: 0xb (valid) 0x1d7-0x1d7.7 (1)
     |                                               |                |          [7]{}: code 0x1d8-0x219.7 (66)
0x1d0|                        41                     |        A       |            size: 65 0x1d8-0x1d8.7 (1)
     |                                               |                |            code{}: 0x1d9-0x219.7 (65)
     |                                               |                |              locals{}: 0x1d9-0x1d9.7 (1)
0x1d0|                           00                  |         .      |                n: 0 0x1d9-0x1d9.7 (1)
     |                                               |                |                items[0:0]: 0x1da-NA (0)
     |                                               |                |              expr{}: 0x1da-0x219.7 (64)
     |                                               |                |                instructions[0:25]: 0x1da-0x219.7 (64)
     |                                               |                |                  [0]{}: instr 0x1da-0x1db.7 (2)
0x1d0|                              41               |          A     |                    i32.const: 0x41 (valid) 0x1da-0x1da.7 (1)
0x1d0|                                 00            |           .    |                    n: 0 0x1db-0x1db.7 (1)
     |                                               |                |                  [1]{}: instr 0x1dc-0x1df.7 (4)
0x1d0|                                    fd         |            .   |                    prefix: 0xfd (valid) 0x1dc-0x1dc.7 (1)
0x1d0|                                       00      |             .  |                    v128.load: 0 (valid) 0x1dd-0x1dd.7 (1)
     |                                               |                |                    m{}: 0x1de-0x1df.7 (2)
0x1d0|                                          04   |              . |                      align: 4 0x1de-0x1de.7 (1)
0x1d0|                                             00|               .|                      offset: 0 0x1df-0x1df.7 (1)
     |                                               |                |                  [2]{}: instr 0x1e0-0x1e1.7 (2)
0x1e0|41                                             |A               |                    i32.const: 0x41 (valid) 0x1e0-0x1e0.7 (1)
0x1e0|   01                                          | .              |                    n: 1 0x1e1-0x1e1.7 (1)
     |                                               |                |                  [3]{}: instr 0x1e2-0x1e5.7 (4)
0x1e0|      fd                                       |  .             |                    prefix: 0xfd (valid) 0x1e2-0x1e2.7 (1)
0x1e0|         00                                    |   .            |                    v128.load: 0 (valid) 0x1e3-0x1e3.7 (1)
     |                                               |                |                    m{}: 0x1e4-0x1e5.7 (2)
0x1e0|            04                                 |    .           |                      align: 4 0x1e4-0x1e4.7 (1)
0x1e0|               00                              |     .          |                      offset: 0 0x1e5-0x1e5.7 (1)
     |                                               |                |                  [4]{}: instr 0x1e6-0x1e7.7 (2)
0x1e0|                  fd                           |      .         |                    prefix: 0xfd (valid) 0x1e6-0x1e6.7 (1)
0x1e0|                     2e                        |       .        |                    i16x8.ne: 46 (valid) 0x1e7-0x1e7.7 (1)
     |                                               |                |                  [5]{}: instr 0x1e8-0x1e9.7 (2)
0x1e0|                        41                     |        A       |                    i32.const: 0x41 (valid) 0x1e8-0x1e8.7 (1)
0x1e0|                           02                  |         .      |                    n: 2 0x1e9-0x1e9.7 (1)
     |                                               |                |                  [6]{}: instr 0x1ea-0x1ed.7 (4)
0x1e0|                              fd               |          .     |                    prefix: 0xfd (valid) 0x1ea-0x1ea.7 (1)
0x1e0|                                 00            |           .    |                    v128.load: 0 (valid) 0x1eb-0x1eb.7 (1)
     |                                               |                |                    m{}: 0x1ec-0x1ed.7 (2)
0x1e0|                                    04         |            .   |                      align: 4 0x1ec-0x1ec.7 (1)
0x1e0|                                       00      |             .  |                      offset: 0 0x1ed-0x1ed.7 (1)
     |                                               |                |                  [7]{}: instr 0x1ee-0x1ef.7 (2)
0x1e0|                                          41   |              A |                    i32.const: 0x41 (valid) 0x1ee-0x1ee.7 (1)
0x1e0|                                             03|               .|                    n: 3 0x1ef-0x1ef.7 (1)
     |                                               |                |                  [8]{}: instr 0x1f0-0x1f3.7 (4)
0x1f0|fd                                             |.               |                    prefix: 0xfd (valid) 0x1f0-0x1f0.7 (1)
0x1f0|   00                                          | .              |                    v128.load: 0 (valid) 0x1f1-0x1f1.7 (1)
     |                                               |                |                    m{}: 0x1f2-0x1f3.7 (2)
0x1f0|      04                                       |  .             |                      align: 4 0x1f2-0x1f2.7 (1)
0x1f0|         00                                    |   .            |                      offset: 0 0x1f3-0x1f3.7 (1)
     |                                               |                |                  [9]{}: instr 0x1f4-0x1f5.7 (2)
0x1f0|            fd                                 |    .           |                    prefix: 0xfd (valid) 0x1f4-0x1f4.7 (1)
0x1f0|               2e                              |     .          |                    i16x8.ne: 46 (valid) 0x1f5-0x1f5.7 (1)
     |                                               |                |                  [10]{}: instr 0x1f6-0x1f7.7 (2)
0x1f0|                  fd                           |      .         |                    prefix: 0xfd (valid) 0x1f6-0x1f6.7 (1)
0x1f0|                     2e                        |       .        |                    i16x8.ne: 46 (valid) 0x1f7-0x1f7.7 (1)
     |                                               |                |                  [11]{}: instr 0x1f8-0x1f9.7 (2)
0x1f0|                        41                     |        A       |                    i32.const: 0x41 (valid) 0x1f8-0x1f8.7 (1)
0x1f0|                           00                  |         .      |                    n: 0 0x1f9-0x1f9.7 (1)
     |                                               |                |                  [12]{}: instr 0x1fa-0x1fd.7 (4)
0x1f0|                              fd               |          .     |                    prefix: 0xfd (valid) 0x1fa-0x1fa.7 (1)
0x1f0|                                 00            |           .    |                    v128.load: 0 (valid) 0x1fb-0x1fb.7 (1)
     |                                               |                |                    m{}: 0x1fc-0x1fd.7 (2)
0x1f0|                                    04         |            .   |                      align: 4 0x1fc-0x1fc.7 (1)
0x1f0|                                       00      |             .  |                      offset: 0 0x1fd-0x1fd.7 (1)
     |                                               |                |                  [13]{}: instr 0x1fe-0x1ff.7 (2)
0x1f0|                                          41   |              A |                    i32.const: 0x41 (valid) 0x1fe-0x1fe.7 (1)
0x1f0|                                             01|               .|                    n: 1 0x1ff-0x1ff.7 (1)
     |                                               |                |                  [14]{}: instr 0x200-0x203.7 (4)
0x200|fd                                             |.               |                    prefix: 0xfd (valid) 0x200-0x200.7 (1)
0x200|   00                                          | .              |                    v128.load: 0 (valid) 0x201-0x201.7 (1)
     |                                               |                |                    m{}: 0x202-0x203.7 (2)
0x200|      04                                       |  .             |                      align: 4 0x202-0x202.7 (1)
0x200|         00                                    |   .            |                      offset: 0 0x203-0x203.7 (1)
     |                                               |                |                  [15]{}: instr 0x204-0x205.7 (2)
0x200|            fd                                 |    .           |                    prefix: 0xfd (valid) 0x204-0x204.7 (1)
0x200|               2e                              |     .          |                    i16x8.ne: 46 (valid) 0x205-0x205.7 (1)
     |                                               |                |                  [16]{}: instr 0x206-0x207.7 (2)
0x200|                  41                           |      A         |                    i32.const: 0x41 (valid) 0x206-0x206.7 (1)
0x200|                     02                        |       .        |                    n: 2 0x207-0x207.7 (1)
     |                                               |                |                  [17]{}: instr 0x208-0x20b.7 (4)
0x200|                        fd                     |        .       |                    prefix: 0xfd (valid) 0x208-0x208.7 (1)
0x200|                           00                  |         .      |                    v128.load: 0 (valid) 0x209-0x209.7 (1)
     |                                               |                |                    m{}: 0x20a-0x20b.7 (2)
0x200|                              04               |          .     |                      align: 4 0x20a-0x20a.7 (1)
0x200|                                 00            |           .    |                      offset: 0 0x20b-0x20b.7 (1)
     |                                               |                |                  [18]{}: instr 0x20c-0x20d.7 (2)
0x200|                                    41         |            A   |                    i32.const: 0x41 (valid) 0x20c-0x20c.7 (1)
0x200|                                       03      |             .  |                    n: 3 0x20d-0x20d.7 (1)
     |                                               |                |                  [19]{}: instr 0x20e-0x211.7 (4)
0x200|                                          fd   |              . |                    prefix: 0xfd (valid) 0x20e-0x20e.7 (1)
0x200|                                             00|               .|                    v128.load: 0 (valid) 0x20f-0x20f.7 (1)
     |                                               |                |                    m{}: 0x210-0x211.7 (2)
0x210|04                                             |.               |                      align: 4 0x210-0x210.7 (1)
0x210|   00                                          | .              |                      offset: 0 0x211-0x211.7 (1)
     |                                               |                |                  [20]{}: instr 0x212-0x213.7 (2)
0x210|      fd                                       |  .             |                    prefix: 0xfd (valid) 0x212-0x212.7 (1)
0x210|         2e                                    |   .            |                    i16x8.ne: 46 (valid) 0x213-0x213.7 (1)
     |                                               |                |                  [21]{}: instr 0x214-0x215.7 (2)
0x210|            fd                                 |    .           |                    prefix: 0xfd (valid) 0x214-0x214.7 (1)
0x210|               2e                              |     .          |                    i16x8.ne: 46 (valid) 0x215-0x215.7 (1)
     |                                               |                |                  [22]{}: instr 0x216-0x217.7 (2)
0x210|                  fd                           |      .         |                    prefix: 0xfd (valid) 0x216-0x216.7 (1)
0x210|                     2e                        |       .        |                    i16x8.ne: 46 (valid) 0x217-0x217.7 (1)
     |                                               |                |                  [23]{}: instr 0x218-0x218.7 (1)
0x210|                        1a                     |        .       |                    drop: 0x1a (valid) 0x218-0x218.7 (1)
     |                                               |                |                  [24]{}: instr 0x219-0x219.7 (1)
0x210|                           0b                  |         .      |                    end: 0xb (valid) 0x219-0x219.7 (1)
     |                                               |                |          [8]{}: code 0x21a-0x25b.7 (66)
0x210|                              41               |          A     |            size: 65 0x21a-0x21a.7 (1)
     |                                               |                |            code{}: 0x21b-0x25b.7 (65)
     |                                               |                |              locals{}: 0x21b-0x21b.7 (1)
0x210|                                 00            |           .    |                n: 0 0x21b-0x21b.7 (1)
     |                                               |                |                items[0:0]: 0x21c-NA (0)
     |                                               |                |              expr{}: 0x21c-0x25b.7 (64)
     |                                               |                |                instructions[0:25]: 0x21c-0x25b.7 (64)
     |                                               |                |                  [0]{}: instr 0x21c-0x21d.7 (2)
0x210|                                    41         |            A   |                    i32.const: 0x41 (valid) 0x21c-0x21c.7 (1)
0x210|                                       00      |             .  |                    n: 0 0x21d-0x21d.7 (1)
     |                                               |                |                  [1]{}: instr 0x21e-0x221.7 (4)
0x210|                                          fd   |              . |                    prefix: 0xfd (valid) 0x21e-0x21e.7 (1)
0x210|                                             00|               .|                    v128.load: 0 (valid) 0x21f-0x21f.7 (1)
     |                                               |                |                    m{}: 0x220-0x221.7 (2)
0x220|04                                             |.               |                      align: 4 0x220-0x220.7 (1)
0x220|   00                                          | .              |                      offset: 0 0x221-0x221.7 (1)
     |                                               |                |                  [2]{}: instr 0x222-0x223.7 (2)
0x220|      41                                       |  A             |                    i32.const: 0x41 (valid) 0x222-0x222.7 (1)
0x220|         01                                    |   .            |                    n: 1 0x223-0x223.7 (1)
     |                                               |                |                  [3]{}: instr 0x224-0x227.7 (4)
0x220|            fd                                 |    .           |                    prefix: 0xfd (valid) 0x224-0x224.7 (1)
0x220|               00                              |     .          |                    v128.load: 0 (valid) 0x225-0x225.7 (1)
     |                                               |                |                    m{}: 0x226-0x227.7 (2)
0x220|                  04                           |      .         |                      align: 4 0x226-0x226.7 (1)
0x220|                     00                        |       .        |                      offset: 0 0x227-0x227.7 (1)
     |                                               |                |                  [4]{}: instr 0x228-0x229.7 (2)
0x220|                        fd                     |        .       |                    prefix: 0xfd (valid) 0x228-0x228.7 (1)
0x220|                           2f                  |         /      |                    i16x8.lt_s: 47 (valid) 0x229-0x229.7 (1)
     |                                               |                |                  [5]{}: instr 0x22a-0x22b.7 (2)
0x220|                              41               |          A     |                    i32.const: 0x41 (valid) 0x22a-0x22a.7 (1)
0x220|                                 02            |           .    |                    n: 2 0x22b-0x22b.7 (1)
     |                                               |                |                  [6]{}: instr 0x22c-0x22f.7 (4)
0x220|                                    fd         |            .   |                    prefix: 0xfd (valid) 0x22c-0x22c.7 (1)
0x220|                                       00      |             .  |                    v128.load: 0 (valid) 0x22d-0x22d.7 (1)
     |                                               |                |                    m{}: 0x22e-0x22f.7 (2)
0x220|                                          04   |              . |                      align: 4 0x22e-0x22e.7 (1)
0x220|                                             00|               .|                      offset: 0 0x22f-0x22f.7 (1)
     |                                               |                |                  [7]{}: instr 0x230-0x231.7 (2)
0x230|41                                             |A               |                    i32.const: 0x41 (valid) 0x230-0x230.7 (1)
0x230|   03                                          | .              |                    n: 3 0x231-0x231.7 (1)
     |                                               |                |                  [8]{}: instr 0x232-0x235.7 (4)
0x230|      fd                                       |  .             |                    prefix: 0xfd (valid) 0x232-0x232.7 (1)
0x230|         00                                    |   .            |                    v128.load: 0 (valid) 0x233-0x233.7 (1)
     |                                               |                |                    m{}: 0x234-0x235.7 (2)
0x230|            04                                 |    .           |                      align: 4 0x234-0x234.7 (1)
0x230|               00                              |     .          |                      offset: 0 0x235-0x235.7 (1)
     |                                               |                |                  [9]{}: instr 0x236-0x237.7 (2)
0x230|                  fd                           |      .         |                    prefix: 0xfd (valid) 0x236-0x236.7 (1)
0x230|                     2f                        |       /        |                    i16x8.lt_s: 47 (valid) 0x237-0x237.7 (1)
     |                                               |                |                  [10]{}: instr 0x238-0x239.7 (2)
0x230|                        fd                     |        .       |                    prefix: 0xfd (valid) 0x238-0x238.7 (1)
0x230|                           2f                  |         /      |                    i16x8.lt_s: 47 (valid) 0x239-0x239.7 (1)
     |                                               |                |                  [11]{}: instr 0x23a-0x23b.7 (2)
0x230|                              41               |          A     |                    i32.const: 0x41 (valid) 0x23a-0x23a.7 (1)
0x230|                                 00            |           .    |                    n: 0 0x23b-0x23b.7 (1)
     |                                               |                |                  [12]{}: instr 0x23c-0x23f.7 (4)
0x230|                                    fd         |            .   |                    prefix: 0xfd (valid) 0x23c-0x23c.7 (1)
0x230|                                       00      |             .  |                    v128.load: 0 (valid) 0x23d-0x23d.7 (1)
     |                                               |                |                    m{}: 0x23e-0x23f.7 (2)
0x230|                                          04   |              . |                      align: 4 0x23e-0x23e.7 (1)
0x230|                                             00|               .|                      offset: 0 0x23f-0x23f.7 (1)
     |                                               |                |                  [13]{}: instr 0x240-0x241.7 (2)
0x240|41                                             |A               |                    i32.const: 0x41 (valid) 0x240-0x240.7 (1)
0x240|   01                                          | .              |                    n: 1 0x241-0x241.7 (1)
     |                                               |                |                  [14]{}: instr 0x242-0x245.7 (4)
0x240|      fd                                       |  .             |                    prefix: 0xfd (valid) 0x242-0x242.7 (1)
0x240|         00                                    |   .            |                    v128.load: 0 (valid) 0x243-0x243.7 (1)
     |                                               |                |                    m{}: 0x244-0x245.7 (2)
0x240|            04                                 |    .           |                      align: 4 0x244-0x244.7 (1)
0x240|               00                              |     .          |                      offset: 0 0x245-0x245.7 (1)
     |                                               |                |                  [15]{}: instr 0x246-0x247.7 (2)
0x240|                  fd                           |      .         |                    prefix: 0xfd (valid) 0x246-0x246.7 (1)
0x240|                     2f                        |       /        |                    i16x8.lt_s: 47 (valid) 0x247-0x247.7 (1)
     |                                               |                |                  [16]{}: instr 0x248-0x249.7 (2)
0x240|                        41                     |        A       |                    i32.const: 0x41 (valid) 0x248-0x248.7 (1)
0x240|                           02                  |         .      |                    n: 2 0x249-0x249.7 (1)
     |                                               |                |                  [17]{}: instr 0x24a-0x24d.7 (4)
0x240|                              fd               |          .     |                    prefix: 0xfd (valid) 0x24a-0x24a.7 (1)
0x240|                                 00            |           .    |                    v128.load: 0 (valid) 0x24b-0x24b.7 (1)
     |                                               |                |                    m{}: 0x24c-0x24d.7 (2)
0x240|                                    04         |            .   |                      align: 4 0x24c-0x24c.7 (1)
0x240|                                       00      |             .  |                      offset: 0 0x24d-0x24d.7 (1)
     |                                               |                |                  [18]{}: instr 0x24e-0x24f.7 (2)
0x240|                                          41   |              A |                    i32.const: 0x41 (valid) 0x24e-0x24e.7 (1)
0x240|                                             03|               .|                    n: 3 0x24f-0x24f.7 (1)
     |                                               |                |                  [19]{}: instr 0x250-0x253.7 (4)
0x250|fd                                             |.               |                    prefix: 0xfd (valid) 0x250-0x250.7 (1)
0x250|   00                                          | .              |                    v128.load: 0 (valid) 0x251-0x251.7 (1)
     |                                               |                |                    m{}: 0x252-0x253.7 (2)
0x250|      04                                       |  .             |                      align: 4 0x252-0x252.7 (1)
0x250|         00                                    |   .            |                      offset: 0 0x253-0x253.7 (1)
     |                                               |                |                  [20]{}: instr 0x254-0x255.7 (2)
0x250|            fd                                 |    .           |                    prefix: 0xfd (valid) 0x254-0x254.7 (1)
0x250|               2f                              |     /          |                    i16x8.lt_s: 47 (valid) 0x255-0x255.7 (1)
     |                                               |                |                  [21]{}: instr 0x256-0x257.7 (2)
0x250|                  fd                           |      .         |                    prefix: 0xfd (valid) 0x256-0x256.7 (1)
0x250|                     2f                        |       /        |                    i16x8.lt_s: 47 (valid) 0x257-0x257.7 (1)
     |                                               |                |                  [22]{}: instr 0x258-0x259.7 (2)
0x250|                        fd                     |        .       |                    prefix: 0xfd (valid) 0x258-0x258.7 (1)
0x250|                           2f                  |         /      |                    i16x8.lt_s: 47 (valid) 0x259-0x259.7 (1)
     |                                               |                |                  [23]{}: instr 0x25a-0x25a.7 (1)
0x250|                              1a               |          .     |                    drop: 0x1a (valid) 0x25a-0x25a.7 (1)
     |                                               |                |                  [24]{}: instr 0x25b-0x25b.7 (1)
0x250|                                 0b            |           .    |                    end: 0xb (valid) 0x25b-0x25b.7 (1)
     |                                               |                |          [9]{}: code 0x25c-0x29d.7 (66)
0x250|                                    41         |            A   |            size: 65 0x25c-0x25c.7 (1)
     |                                               |                |            code{}: 0x25d-0x29d.7 (65)
     |                                               |                |              locals{}: 0x25d-0x25d.7 (1)
0x250|                                       00      |             .  |                n: 0 0x25d-0x25d.7 (1)
     |                                               |                |                items[0:0]: 0x25e-NA (0)
     |                                               |                |              expr{}: 0x25e-0x29d.7 (64)
     |                                               |                |                instructions[0:25]: 0x25e-0x29d.7 (64)
     |                                               |                |                  [0]{}: instr 0x25e-0x25f.7 (2)
0x250|                                          41   |              A |                    i32.const: 0x41 (valid) 0x25e-0x25e.7 (1)
0x250|                                             00|               .|                    n: 0 0x25f-0x25f.7 (1)
     |                                               |                |                  [1]{}: instr 0x260-0x263.7 (4)
0x260|fd                                             |.               |                    prefix: 0xfd (valid) 0x260-0x260.7 (1)
0x260|   00                                          | .              |                    v128.load: 0 (valid) 0x261-0x261.7 (1)
     |                                               |                |                    m{}: 0x262-0x263.7 (2)
0x260|      04                                       |  .             |                      align: 4 0x262-0x262.7 (1)
0x260|         00                                    |   .            |                      offset: 0 0x263-0x263.7 (1)
     |                                               |                |                  [2]{}: instr 0x264-0x265.7 (2)
0x260|            41                                 |    A           |                    i32.const: 0x41 (valid) 0x264-0x264.7 (1)
0x260|               01                              |     .          |                    n: 1 0x265-0x265.7 (1)
     |                                               |                |                  [3]{}: instr 0x266-0x269.7 (4)
0x260|                  fd                           |      .         |                    prefix: 0xfd (valid) 0x266-0x266.7 (1)
0x260|                     00                        |       .        |                    v128.load: 0 (valid) 0x267-0x267.7 (1)
     |                                               |                |                    m{}: 0x268-0x269.7 (2)
0x260|                        04                     |        .       |                      align: 4 0x268-0x268.7 (1)
0x260|                           00                  |         .      |                      offset: 0 0x269-0x269.7 (1)
     |                                               |                |                  [4]{}: instr 0x26a-0x26b.7 (2)
0x260|                              fd               |          .     |                    prefix: 0xfd (valid) 0x26a-0x26a.7 (1)
0x260|                                 34            |           4    |                    i16x8.le_u: 52 (valid) 0x26b-0x26b.7 (1)
     |                                               |                |                  [5]{}: instr 0x26c-0x26d.7 (2)
0x260|                                    41         |            A   |                    i32.const: 0x41 (valid) 0x26c-0x26c.7 (1)
0x260|                                       02      |             .  |                    n: 2 0x26d-0x26d.7 (1)
     |                                               |                |                  [6]{}: instr 0x26e-0x271.7 (4)
0x260|                                          fd   |              . |                    prefix: 0xfd (valid) 0x26e-0x26e.7 (1)
0x260|                                             00|               .|                    v128.load: 0 (valid) 0x26f-0x26f.7 (1)
     |                                               |                |                    m{}: 0x270-0x271.7 (2)
0x270|04                                             |.               |                      align: 4 0x270-0x270.7 (1)
0x270|   00                                          | .              |                      offset: 0 0x271-0x271.7 (1)
     |                                               |                |                  [7]{}: instr 0x272-0x273.7 (2)
0x270|      41                                       |  A             |                    i32.const: 0x41 (valid) 0x272-0x272.7 (1)
0x270|         03                                    |   .            |                    n: 3 0x273-0x273.7 (1)
     |                                               |                |                  [8]{}: instr 0x274-0x277.7 (4)
0x270|            fd                                 |    .           |                    prefix: 0xfd (valid) 0x274-0x274.7 (1)
0x270|               00                              |     .          |                    v128.load: 0 (valid) 0x275-0x275.7 (1)
     |                                               |                |                    m{}: 0x276-0x277.7 (2)
0x270|                  04                           |      .         |                      align: 4 0x276-0x276.7 (1)
0x270|                     00                        |       .        |                      offset: 0 0x277-0x277.7 (1)
     |                                               |                |                  [9]{}: instr 0x278-0x279.7 (2)
0x270|                        fd                     |        .       |                    prefix: 0xfd (valid) 0x278-0x278.7 (1)
0x270|                           34                  |         4      |                    i16x8.le_u: 52 (valid) 0x279-0x279.7 (1)
     |                                               |                |                  [10]{}: instr 0x27a-0x27b.7 (2)
0x270|                              fd               |          .     |                    prefix: 0xfd (valid) 0x27a-0x27a.7 (1)
0x270|                                 34            |           4    |                    i16x8.le_u: 52 (valid) 0x27b-0x27b.7 (1)
     |                                               |                |                  [11]{}: instr 0x27c-0x27d.7 (2)
0x270|                                    41         |            A   |                    i32.const: 0x41 (valid) 0x27c-0x27c.7 (1)
0x270|                                       00      |             .  |                    n: 0 0x27d-0x27d.7 (1)
     |                                               |                |                  [12]{}: instr 0x27e-0x281.7 (4)
0x270|                                          fd   |              . |                    prefix: 0xfd (valid) 0x27e-0x27e.7 (1)
0x270|                                             00|               .|                    v128.load: 0 (valid) 0x27f-0x27f.7 (1)
     |                                               |                |                    m{}: 0x280-0x281.7 (2)
0x280|04                                             |.               |                      align: 4 0x280-0x280.7 (1)
0x280|   00                                          | .              |                      offset: 0 0x281-0x281.7 (1)
     |                                               |                |                  [13]{}: instr 0x282-0x283.7 (2)
0x280|      41                                       |  A             |                    i32.const: 0x41 (valid) 0x282-0x282.7 (1)
0x280|         01                                    |   .            |                    n: 1 0x283-0x283.7 (1)
     |                                               |                |                  [14]{}: instr 0x284-0x287.7 (4)
0x280|            fd                                 |    .           |                    prefix: 0xfd (valid) 0x284-0x284.7 (1)
0x280|               00                              |     .          |                    v128.load: 0 (valid) 0x285-0x285.7 (1)
     |                                               |                |                    m{}: 0x286-0x287.7 (2)
0x280|                  04                           |      .         |                      align: 4 0x286-0x286.7 (1)
0x280|                     00                        |       .        |                      offset: 0 0x287-0x287.7 (1)
     |                                               |                |                  [15]{}: instr 0x288-0x289.7 (2)
0x280|                        fd                     |        .       |                    prefix: 0xfd (valid) 0x288-0x288.7 (1)
0x280|                           34                  |         4      |                    i16x8.le_u: 52 (valid) 0x289-0x289.7 (1)
     |                                               |                |                  [16]{}: instr 0x28a-0x28b.7 (2)
0x280|                              41               |          A     |                    i32.const: 0x41 (valid) 0x28a-0x28a.7 (1)
0x280|                                 02            |           .    |                    n: 2 0x28b-0x28b.7 (1)
     |                                               |                |                  [17]{}: instr 0x28c-0x28f.7 (4)
0x280|                                    fd         |            .   |                    prefix: 0xfd (valid) 0x28c-0x28c.7 (1)
0x280|                                       00      |             .  |                    v128.load: 0 (valid) 0x28d-0x28d.7 (1)
     |                                               |                |                    m{}: 0x28e-0x28f.7 (2)
0x280|                                          04   |              . |                      align: 4 0x28e-0x28e.7 (1)
0x280|                                             00|               .|                      offset: 0 0x28f-0x28f.7 (1)
     |                                               |                |                  [18]{}: instr 0x290-0x291.7 (2)
0x290|41                                             |A               |                    i32.const: 0x41 (valid) 0x290-0x290.7 (1)
0x290|   03                                          | .              |                    n: 3 0x291-0x291.7 (1)
     |                                               |                |                  [19]{}: instr 0x292-0x295.7 (4)
0x290|      fd                                       |  .             |                    prefix: 0xfd (valid) 0x292-0x292.7 (1)
0x290|         00                                    |   .            |                    v128.load: 0 (valid) 0x293-0x293.7 (1)
     |                                               |                |                    m{}: 0x294-0x295.7 (2)
0x290|            04                                 |    .           |                      align: 4 0x294-0x294.7 (1)
0x290|               00                              |     .          |                      offset: 0 0x295-0x295.7 (1)
     |                                               |                |                  [20]{}: instr 0x296-0x297.7 (2)
0x290|                  fd                           |      .         |                    prefix: 0xfd (valid) 0x296-0x296.7 (1)
0x290|                     34                        |       4        |                    i16x8.le_u: 52 (valid) 0x297-0x297.7 (1)
     |                                               |                |                  [21]{}: instr 0x298-0x299.7 (2)
0x290|                        fd                     |        .       |                    prefix: 0xfd (valid) 0x298-0x298.7 (1)
0x290|                           34                  |         4      |                    i16x8.le_u: 52 (valid) 0x299-0x299.7 (1)
     |                                               |                |                  [22]{}: instr 0x29a-0x29b.7 (2)
0x290|                              fd               |          .     |                    prefix: 0xfd (valid) 0x29a-0x29a.7 (1)
0x290|                                 34            |           4    |                    i16x8.le_u: 52 (valid) 0x29b-0x29b.7 (1)
     |                                               |                |                  [23]{}: instr 0x29c-0x29c.7 (1)
0x290|                                    1a         |            .   |                    drop: 0x1a (valid) 0x29c-0x29c.7 (1)
     |                                               |                |                  [24]{}: instr 0x29d-0x29d.7 (1)
0x290|                                       0b      |             .  |                    end: 0xb (valid) 0x29d-0x29d.7 (1)
     |                                               |                |          [10]{}: code 0x29e-0x2df.7 (66)
0x290|                                          41   |              A |            size: 65 0x29e-0x29e.7 (1)
     |                                               |                |            code{}: 0x29f-0x2df.7 (65)
     |                                               |                |              locals{}: 0x29f-0x29f.7 (1)
0x290|                                             00|               .|                n: 0 0x29f-0x29f.7 (1)
     |                                               |                |                items[0:0]: 0x2a0-NA (0)
     |                                               |                |              expr{}: 0x2a0-0x2df.7 (64)
     |                                               |                |                instructions[0:25]: 0x2a0-0x2df.7 (64)
     |                                               |                |                  [0]{}: instr 0x2a0-0x2a1.7 (2)
0x2a0|41                                             |A               |                    i32.const: 0x41 (valid) 0x2a0-0x2a0.7 (1)
0x2a0|   00                                          | .              |                    n: 0 0x2a1-0x2a1.7 (1)
     |                                               |                |                  [1]{}: instr 0x2a2-0x2a5.7 (4)
0x2a0|      fd                                       |  .             |                    prefix: 0xfd (valid) 0x2a2-0x2a2.7 (1)
0x2a0|         00                                    |   .            |                    v128.load: 0 (valid) 0x2a3-0x2a3.7 (1)
     |                                               |                |                    m{}: 0x2a4-0x2a5.7 (2)
0x2a0|            04                                 |    .           |                      align: 4 0x2a4-0x2a4.7 (1)
0x2a0|               00                              |     .          |                      offset: 0 0x2a5-0x2a5.7 (1)
     |                                               |                |                  [2]{}: instr 0x2a6-0x2a7.7 (2)
0x2a0|                  41                           |      A         |                    i32.const: 0x41 (valid) 0x2a6-0x2a6.7 (1)
0x2a0|                     01                        |       .        |                    n: 1 0x2a7-0x2a7.7 (1)
     |                                               |                |                  [3]{}: instr 0x2a8-0x2ab.7 (4)
0x2a0|                        fd                     |        .       |                    prefix: 0xfd (valid) 0x2a8-0x2a8.7 (1)
0x2a0|                           00                  |         .      |                    v128.load: 0 (valid) 0x2a9-0x2a9.7 (1)
     |                                               |                |                    m{}: 0x2aa-0x2ab.7 (2)
0x2a0|                              04               |          .     |                      align: 4 0x2aa-0x2aa.7 (1)
0x2a0|                                 00            |           .    |                      offset: 0 0x2ab-0x2ab.7 (1)
     |                                               |                |                  [4]{}: instr 0x2ac-0x2ad.7 (2)
0x2a0|                                    fd         |            .   |                    prefix: 0xfd (valid) 0x2ac-0x2ac.7 (1)
0x2a0|                                       32      |             2  |                    i16x8.gt_u: 50 (valid) 0x2ad-0x2ad.7 (1)
     |                                               |                |                  [5]{}: instr 0x2ae-0x2af.7 (2)
0x2a0|                                          41   |              A |                    i32.const: 0x41 (valid) 0x2ae-0x2ae.7 (1)
0x2a0|                                             02|               .|                    n: 2 0x2af-0x2af.7 (1)
     |                                               |                |                  [6]{}: instr 0x2b0-0x2b3.7 (4)
0x2b0|fd                                             |.               |                    prefix: 0xfd (valid) 0x2b0-0x2b0.7 (1)
0x2b0|   00                                          | .              |                    v128.load: 0 (valid) 0x2b1-0x2b1.7 (1)
     |                                               |                |                    m{}: 0x2b2-0x2b3.7 (2)
0x2b0|      04                                       |  .             |                      align: 4 0x2b2-0x2b2.7 (1)
0x2b0|         00                                    |   .            |                      offset: 0 0x2b3-0x2b3.7 (1)
     |                                               |                |                  [7]{}: instr 0x2b4-0x2b5.7 (2)
0x2b0|            41                                 |    A           |                    i32.const: 0x41 (valid) 0x2b4-0x2b4.7 (1)
0x2b0|               03                              |     .          |                    n: 3 0x2b5-0x2b5.7 (1)
     |                                               |                |                  [8]{}: instr 0x2b6-0x2b9.7 (4)
0x2b0|                  fd                           |      .         |                    prefix: 0xfd (valid) 0x2b6-0x2b6.7 (1)
0x2b0|                     00                        |       .        |                    v128.load: 0 (valid) 0x2b7-0x2b7.7 (1)
     |                                               |                |                    m{}: 0x2b8-0x2b9.7 (2)
0x2b0|                        04                     |        .       |                      align: 4 0x2b8-0x2b8.7 (1)
0x2b0|                           00                  |         .      |                      offset: 0 0x2b9-0x2b9.7 (1)
     |                                               |                |                  [9]{}: instr 0x2ba-0x2bb.7 (2)
0x2b0|                              fd               |          .     |                    prefix: 0xfd (valid) 0x2ba-0x2ba.7 (1)
0x2b0|                                 32            |           2    |                    i16x8.gt_u: 50 (valid) 0x2bb-0x2bb.7 (1)
     |                                               |                |                  [10]{}: instr 0x2bc-0x2bd.7 (2)
0x2b0|                                    fd         |            .   |                    prefix: 0xfd (valid) 0x2bc-0x2bc.7 (1)
0x2b0|                                       32      |             2  |                    i16x8.gt_u: 50 (valid) 0x2bd-0x2bd.7 (1)
     |                                               |                |                  [11]{}: instr 0x2be-0x2bf.7 (2)
0x2b0|                                          41   |              A |                    i32.const: 0x41 (valid) 0x2be-0x2be.7 (1)
0x2b0|                                             00|               .|                    n: 0 0x2bf-0x2bf.7 (1)
     |                                               |                |                  [12]{}: instr 0x2c0-0x2c3.7 (4)
0x2c0|fd                                             |.               |                    prefix: 0xfd (valid) 0x2c0-0x2c0.7 (1)
0x2c0|   00                                          | .              |                    v128.load: 0 (valid) 0x2c1-0x2c1.7 (1)
     |                                               |                |                    m{}: 0x2c2-0x2c3.7 (2)
0x2c0|      04                                       |  .             |                      align: 4 0x2c2-0x2c2.7 (1)
0x2c0|         00                                    |   .            |                      offset: 0 0x2c3-0x2c3.7 (1)
     |                                               |                |                  [13]{}: instr 0x2c4-0x2c5.7 (2)
0x2c0|            41                                 |    A           |                    i32.const: 0x41 (valid) 0x2c4-0x2c4.7 (1)
0x2c0|               01                              |     .          |                    n: 1 0x2c5-0x2c5.7 (1)
     |                                               |                |                  [14]{}: instr 0x2c6-0x2c9.7 (4)
0x2c0|                  fd                           |      .         |                    prefix: 0xfd (valid) 0x2c6-0x2c6.7 (1)
0x2c0|                     00                        |       .        |                    v128.load: 0 (valid) 0x2c7-0x2c7.7 (1)
     |                                               |                |                    m{}: 0x2c8-0x2c9.7 (2)
0x2c0|                        04                     |        .       |                      align: 4 0x2c8-0x2c8.7 (1)
0x2c0|                           00                  |         .      |                      offset: 0 0x2c9-0x2c9.7 (1)
     |                                               |                |                  [15]{}: instr 0x2ca-0x2cb.7 (2)
0x2c0|                              fd               |          .     |                    prefix: 0xfd (valid) 0x2ca-0x2ca.7 (1)
0x2c0|                                 32            |           2    |                    i16x8.gt_u: 50 (valid) 0x2cb-0x2cb.7 (1)
     |                                               |                |                  [16]{}: instr 0x2cc-0x2cd.7 (2)
0x2c0|                                    41         |            A   |                    i32.const: 0x41 (valid) 0x2cc-0x2cc.7 (1)
0x2c0|                                       02      |             .  |                    n: 2 0x2cd-0x2cd.7 (1)
     |                                               |                |                  [17]{}: instr 0x2ce-0x2d1.7 (4)
0x2c0|                                          fd   |              . |                    prefix: 0xfd (valid) 0x2ce-0x2ce.7 (1)
0x2c0|                                             00|               .|                    v128.load: 0 (valid) 0x2cf-0x2cf.7 (1)
     |                                               |                |                    m{}: 0x2d0-0x2d1.7 (2)
0x2d0|04                                             |.               |                      align: 4 0x2d0-0x2d0.7 (1)
0x2d0|   00                                          | .              |                      offset: 0 0x2d1-0x2d1.7 (1)
     |                                               |                |                  [18]{}: instr 0x2d2-0x2d3.7 (2)
0x2d0|      41                                       |  A             |                    i32.const: 0x41 (valid) 0x2d2-0x2d2.7 (1)
0x2d0|         03                                    |   .            |                    n: 3 0x2d3-0x2d3.7 (1)
     |                                               |                |                  [19]{}: instr 0x2d4-0x2d7.7 (4)
0x2d0|            fd                                 |    .           |                    prefix: 0xfd (valid) 0x2d4-0x2d4.7 (1)
0x2d0|               00                              |     .          |                    v128.load: 0 (valid) 0x2d5-0x2d5.7 (1)
     |                                               |                |                    m{}: 0x2d6-0x2d7.7 (2)
0x2d0|                  04                           |      .         |                      align: 4 0x2d6-0x2d6.7 (1)
0x2d0|                     00                        |       .        |                      offset: 0 0x2d7-0x2d7.7 (1)
     |                                               |                |                  [20]{}: instr 0x2d8-0x2d9.7 (2)
0x2d0|                        fd                     |        .       |                    prefix: 0xfd (valid) 0x2d8-0x2d8.7 (1)
0x2d0|                           32                  |         2      |                    i16x8.gt_u: 50 (valid) 0x2d9-0x2d9.7 (1)
     |                                               |                |                  [21]{}: instr 0x2da-0x2db.7 (2)
0x2d0|                              fd               |          .     |                    prefix: 0xfd (valid) 0x2da-0x2da.7 (1)
0x2d0|                                 32            |           2    |                    i16x8.gt_u: 50 (valid) 0x2db-0x2db.7 (1)
     |                                               |                |                  [22]{}: instr 0x2dc-0x2dd.7 (2)
0x2d0|                                    fd         |            .   |                    prefix: 0xfd (valid) 0x2dc-0x2dc.7 (1)
0x2d0|                                       32      |             2  |                    i16x8.gt_u: 50 (valid) 0x2dd-0x2dd.7 (1)
     |                                               |                |                  [23]{}: instr 0x2de-0x2de.7 (1)
0x2d0|                                          1a   |              . |                    drop: 0x1a (valid) 0x2de-0x2de.7 (1)
     |                                               |                |                  [24]{}: instr 0x2df-0x2df.7 (1)
0x2d0|                                             0b|               .|                    end: 0xb (valid) 0x2df-0x2df.7 (1)
     |                                               |                |          [11]{}: code 0x2e0-0x321.7 (66)
0x2e0|41                                             |A               |            size: 65 0x2e0-0x2e0.7 (1)
     |                                               |                |            code{}: 0x2e1-0x321.7 (65)
     |                                               |                |              locals{}: 0x2e1-0x2e1.7 (1)
0x2e0|   00                                          | .              |                n: 0 0x2e1-0x2e1.7 (1)
     |                                               |                |                items[0:0]: 0x2e2-NA (0)
     |                                               |                |              expr{}: 0x2e2-0x321.7 (64)
     |                                               |                |                instructions[0:25]: 0x2e2-0x321.7 (64)
     |                                               |                |                  [0]{}: instr 0x2e2-0x2e3.7 (2)
0x2e0|      41                                       |  A             |                    i32.const: 0x41 (valid) 0x2e2-0x2e2.7 (1)
0x2e0|         00                                    |   .            |                    n: 0 0x2e3-0x2e3.7 (1)
     |                                               |                |                  [1]{}: instr 0x2e4-0x2e7.7 (4)
0x2e0|            fd                                 |    .           |                    prefix: 0xfd (valid) 0x2e4-0x2e4.7 (1)
0x2e0|               00                              |     .          |                    v128.load: 0 (valid) 0x2e5-0x2e5.7 (1)
     |                                               |                |                    m{}: 0x2e6-0x2e7.7 (2)
0x2e0|                  04                           |      .         |                      align: 4 0x2e6-0x2e6.7 (1)
0x2e0|                     00                        |       .        |                      offset: 0 0x2e7-0x2e7.7 (1)
     |                                               |                |                  [2]{}: instr 0x2e8-0x2e9.7 (2)
0x2e0|                        41                     |        A       |                    i32.const: 0x41 (valid) 0x2e8-0x2e8.7 (1)
0x2e0|                           01                  |         .      |                    n: 1 0x2e9-0x2e9.7 (1)
     |                                               |                |                  [3]{}: instr 0x2ea-0x2ed.7 (4)
0x2e0|                              fd               |          .     |                    prefix: 0xfd (valid) 0x2ea-0x2ea.7 (1)
0x2e0|                                 00            |           .    |                    v128.load: 0 (valid) 0x2eb-0x2eb.7 (1)
     |                                               |                |                    m{}: 0x2ec-0x2ed.7 (2)
0x2e0|                                    04         |            .   |                      align: 4 0x2ec-0x2ec.7 (1)
0x2e0|                                       00      |             .  |                      offset: 0 0x2ed-0x2ed.7 (1)
     |                                               |                |                  [4]{}: instr 0x2ee-0x2ef.7 (2)
0x2e0|                                          fd   |              . |                    prefix: 0xfd (valid) 0x2ee-0x2ee.7 (1)
0x2e0|                                             35|               5|                    i16x8.ge_s: 53 (valid) 0x2ef-0x2ef.7 (1)
     |                                               |                |                  [5]{}: instr 0x2f0-0x2f1.7 (2)
0x2f0|41                                             |A               |                    i32.const: 0x41 (valid) 0x2f0-0x2f0.7 (1)
0x2f0|   02                                          | .              |                    n: 2 0x2f1-0x2f1.7 (1)
     |                                               |                |                  [6]{}: instr 0x2f2-0x2f5.7 (4)
0x2f0|      fd                                       |  .             |                    prefix: 0xfd (valid) 0x2f2-0x2f2.7 (1)
0x2f0|         00                                    |   .            |                    v128.load: 0 (valid) 0x2f3-0x2f3.7 (1)
     |                                               |                |                    m{}: 0x2f4-0x2f5.7 (2)
0x2f0|            04                                 |    .           |                      align: 4 0x2f4-0x2f4.7 (1)
0x2f0|               00                              |     .          |                      offset: 0 0x2f5-0x2f5.7 (1)
     |                                               |                |                  [7]{}: instr 0x2f6-0x2f7.7 (2)
0x2f0|                  41                           |      A         |                    i32.const: 0x41 (valid) 0x2f6-0x2f6.7 (1)
0x2f0|                     03                        |       .        |                    n: 3 0x2f7-0x2f7.7 (1)
     |                                               |                |                  [8]{}: instr 0x2f8-0x2fb.7 (4)
0x2f0|                        fd                     |        .       |                    prefix: 0xfd (valid) 0x2f8-0x2f8.7 (1)
0x2f0|                           00                  |         .      |                    v128.load: 0 (valid) 0x2f9-0x2f9.7 (1)
     |                                               |                |                    m{}: 0x2fa-0x2fb.7 (2)
0x2f0|                              04               |          .     |                      align: 4 0x2fa-0x2fa.7 (1)
0x2f0|                                 00            |           .    |                      offset: 0 0x2fb-0x2fb.7 (1)
     |                                               |                |                  [9]{}: instr 0x2fc-0x2fd.7 (2)
0x2f0|                                    fd         |            .   |                    prefix: 0xfd (valid) 0x2fc-0x2fc.7 (1)
0x2f0|                                       35      |             5  |                    i16x8.ge_s: 53 (valid) 0x2fd-0x2fd.7 (1)
     |                                               |                |                  [10]{}: instr 0x2fe-0x2ff.7 (2)
0x2f0|                                          fd   |              . |                    prefix: 0xfd (valid) 0x2fe-0x2fe.7 (1)
0x2f0|                                             35|               5|                    i16x8.ge_s: 53 (valid) 0x2ff-0x2ff.7 (1)
     |                                               |                |                  [11]{}: instr 0x300-0x301.7 (2)
0x300|41                                             |A               |                    i32.const: 0x41 (valid) 0x300-0x300.7 (1)
0x300|   00                                          | .              |                    n: 0 0x301-0x301.7 (1)
     |                                               |                |                  [12]{}: instr 0x302-0x305.7 (4)
0x300|      fd                                       |  .             |                    prefix: 0xfd (valid) 0x302-0x302.7 (1)
0x300|         00                                    |   .            |                    v128.load: 0 (valid) 0x303-0x303.7 (1)
     |                                               |                |                    m{}: 0x304-0x305.7 (2)
0x300|            04                                 |    .           |                      align: 4 0x304-0x304.7 (1)
0x300|               00                              |     .          |                      offset: 0 0x305-0x305.7 (1)
     |                                               |                |                  [13]{}: instr 0x306-0x307.7 (2)
0x300|                  41                           |      A         |                    i32.const: 0x41 (valid) 0x306-0x306.7 (1)
0x300|                     01                        |       .        |                    n: 1 0x307-0x307.7 (1)
     |                                               |                |                  [14]{}: instr 0x308-0x30b.7 (4)
0x300|                        fd                     |        .       |                    prefix: 0xfd (valid) 0x308-0x308.7 (1)
0x300|                           00                  |         .      |                    v128.load: 0 (valid) 0x309-0x309.7 (1)
     |                                               |                |                    m{}: 0x30a-0x30b.7 (2)
0x300|                              04               |          .     |                      align: 4 0x30a-0x30a.7 (1)
0x300|                                 00            |           .    |                      offset: 0 0x30b-0x30b.7 (1)
     |                                               |                |                  [15]{}: instr 0x30c-0x30d.7 (2)
0x300|                                    fd         |            .   |                    prefix: 0xfd (valid) 0x30c-0x30c.7 (1)
0x300|                                       35      |             5  |                    i16x8.ge_s: 53 (valid) 0x30d-0x30d.7 (1)
     |                                               |                |                  [16]{}: instr 0x30e-0x30f.7 (2)
0x300|                                          41   |              A |                    i32.const: 0x41 (valid) 0x30e-0x30e.7 (1)
0x300|                                             02|               .|                    n: 2 0x30f-0x30f.7 (1)
     |                                               |                |                  [17]{}: instr 0x310-0x313.7 (4)
0x310|fd                                             |.               |                    prefix: 0xfd (valid) 0x310-0x310.7 (1)
0x310|   00                                          | .              |                    v128.load: 0 (valid) 0x311-0x311.7 (1)
     |                                               |                |                    m{}: 0x312-0x313.7 (2)
0x310|      04                                       |  .             |                      align: 4 0x312-0x312.7 (1)
0x310|         00                                    |   .            |                      offset: 0 0x313-0x313.7 (1)
     |                                               |                |                  [18]{}: instr 0x314-0x315.7 (2)
0x310|            41                                 |    A           |                    i32.const: 0x41 (valid) 0x314-0x314.7 (1)
0x310|               03                              |     .          |                    n: 3 0x315-0x315.7 (1)
     |                                               |                |                  [19]{}: instr 0x316-0x319.7 (4)
0x310|                  fd                           |      .         |                    prefix: 0xfd (valid) 0x316-0x316.7 (1)
0x310|                     00                        |       .        |                    v128.load: 0 (valid) 0x317-0x317.7 (1)
     |                                               |                |                    m{}: 0x318-0x319.7 (2)
0x310|                        04                     |        .       |                      align: 4 0x318-0x318.7 (1)
0x310|                           00                  |         .      |                      offset: 0 0x319-0x319.7 (1)
     |                                               |                |                  [20]{}: instr 0x31a-0x31b.7 (2)
0x310|                              fd               |          .     |                    prefix: 0xfd (valid) 0x31a-0x31a.7 (1)
0x310|                                 35            |           5    |                    i16x8.ge_s: 53 (valid) 0x31b-0x31b.7 (1)
     |                                               |                |                  [21]{}: instr 0x31c-0x31d.7 (2)
0x310|                                    fd         |            .   |                    prefix: 0xfd (valid) 0x31c-0x31c.7 (1)
0x310|                                       35      |             5  |                    i16x8.ge_s: 53 (valid) 0x31d-0x31d.7 (1)
     |                                               |                |                  [22]{}: instr 0x31e-0x31f.7 (2)
0x310|                                          fd   |              . |                    prefix: 0xfd (valid) 0x31e-0x31e.7 (1)
0x310|                                             35|               5|                    i16x8.ge_s: 53 (valid) 0x31f-0x31f.7 (1)
     |                                               |                |                  [23]{}: instr 0x320-0x320.7 (1)
0x320|1a                                             |.               |                    drop: 0x1a (valid) 0x320-0x320.7 (1)
     |                                               |                |                  [24]{}: instr 0x321-0x321.7 (1)
0x320|   0b                                          | .              |                    end: 0xb (valid) 0x321-0x321.7 (1)
     |                                               |                |          [12]{}: code 0x322-0x363.7 (66)
0x320|      41                                       |  A             |            size: 65 0x322-0x322.7 (1)
     |                                               |                |            code{}: 0x323-0x363.7 (65)
     |                                               |                |              locals{}: 0x323-0x323.7 (1)
0x320|         00                                    |   .            |                n: 0 0x323-0x323.7 (1)
     |                                               |                |                items[0:0]: 0x324-NA (0)
     |                                               |                |              expr{}: 0x324-0x363.7 (64)
     |                                               |                |                instructions[0:25]: 0x324-0x363.7 (64)
     |                                               |                |                  [0]{}: instr 0x324-0x325.7 (2)
0x320|            41                                 |    A           |                    i32.const: 0x41 (valid) 0x324-0x324.7 (1)
0x320|               00                              |     .          |                    n: 0 0x325-0x325.7 (1)
     |                                               |                |                  [1]{}: instr 0x326-0x329.7 (4)
0x320|                  fd                           |      .         |                    prefix: 0xfd (valid) 0x326-0x326.7 (1)
0x320|                     00                        |       .        |                    v128.load: 0 (valid) 0x327-0x327.7 (1)
     |                                               |                |                    m{}: 0x328-0x329.7 (2)
0x320|                        04                     |        .       |                      align: 4 0x328-0x328.7 (1)
0x320|                           00                  |         .      |                      offset: 0 0x329-0x329.7 (1)
     |                                               |                |                  [2]{}: instr 0x32a-0x32b.7 (2)
0x320|                              41               |          A     |                    i32.const: 0x41 (valid) 0x32a-0x32a.7 (1)
0x320|                                 01            |           .    |                    n: 1 0x32b-0x32b.7 (1)
     |                                               |                |                  [3]{}: instr 0x32c-0x32f.7 (4)
0x320|                                    fd         |            .   |                    prefix: 0xfd (valid) 0x32c-0x32c.7 (1)
0x320|                                       00      |             .  |                    v128.load: 0 (valid) 0x32d-0x32d.7 (1)
     |                                               |                |                    m{}: 0x32e-0x32f.7 (2)
0x320|                                          04   |              . |                      align: 4 0x32e-0x32e.7 (1)
0x320|                                             00|               .|                      offset: 0 0x32f-0x32f.7 (1)
     |                                               |                |                  [4]{}: instr 0x330-0x331.7 (2)
0x330|fd                                             |.               |                    prefix: 0xfd (valid) 0x330-0x330.7 (1)
0x330|   2f                                          | /              |                    i16x8.lt_s: 47 (valid) 0x331-0x331.7 (1)
     |                                               |                |                  [5]{}: instr 0x332-0x333.7 (2)
0x330|      41                                       |  A             |                    i32.const: 0x41 (valid) 0x332-0x332.7 (1)
0x330|         02                                    |   .            |                    n: 2 0x333-0x333.7 (1)
     |                                               |                |                  [6]{}: instr 0x334-0x337.7 (4)
0x330|            fd                                 |    .           |                    prefix: 0xfd (valid) 0x334-0x334.7 (1)
0x330|               00                              |     .          |                    v128.load: 0 (valid) 0x335-0x335.7 (1)
     |                                               |                |                    m{}: 0x336-0x337.7 (2)
0x330|                  04                           |      .         |                      align: 4 0x336-0x336.7 (1)
0x330|                     00                        |       .        |                      offset: 0 0x337-0x337.7 (1)
     |                                               |                |                  [7]{}: instr 0x338-0x339.7 (2)
0x330|                        41                     |        A       |                    i32.const: 0x41 (valid) 0x338-0x338.7 (1)
0x330|                           03                  |         .      |                    n: 3 0x339-0x339.7 (1)
     |                                               |                |                  [8]{}: instr 0x33a-0x33d.7 (4)
0x330|                              fd               |          .     |                    prefix: 0xfd (valid) 0x33a-0x33a.7 (1)
0x330|                                 00            |           .    |                    v128.load: 0 (valid) 0x33b-0x33b.7 (1)
     |                                               |                |                    m{}: 0x33c-0x33d.7 (2)
0x330|                                    04         |            .   |                      align: 4 0x33c-0x33c.7 (1)
0x330|                                       00      |             .  |                      offset: 0 0x33d-0x33d.7 (1)
     |                                               |                |                  [9]{}: instr 0x33e-0x33f.7 (2)
0x330|                                          fd   |              . |                    prefix: 0xfd (valid) 0x33e-0x33e.7 (1)
0x330|                                             34|               4|                    i16x8.le_u: 52 (valid) 0x33f-0x33f.7 (1)
     |                                               |                |                  [10]{}: instr 0x340-0x341.7 (2)
0x340|fd                                             |.               |                    prefix: 0xfd (valid) 0x340-0x340.7 (1)
0x340|   2d                                          | -              |                    i16x8.eq: 45 (valid) 0x341-0x341.7 (1)
     |                                               |                |                  [11]{}: instr 0x342-0x343.7 (2)
0x340|      41                                       |  A             |                    i32.const: 0x41 (valid) 0x342-0x342.7 (1)
0x340|         00                                    |   .            |                    n: 0 0x343-0x343.7 (1)
     |                                               |                |                  [12]{}: instr 0x344-0x347.7 (4)
0x340|            fd                                 |    .           |                    prefix: 0xfd (valid) 0x344-0x344.7 (1)
0x340|               00                              |     .          |                    v128.load: 0 (valid) 0x345-0x345.7 (1)
     |                                               |                |                    m{}: 0x346-0x347.7 (2)
0x340|                  04                           |      .         |                      align: 4 0x346-0x346.7 (1)
0x340|                     00                        |       .        |                      offset: 0 0x347-0x347.7 (1)
     |                                               |                |                  [13]{}: instr 0x348-0x349.7 (2)
0x340|                        41                     |        A       |                    i32.const: 0x41 (valid) 0x348-0x348.7 (1)
0x340|                           01                  |         .      |                    n: 1 0x349-0x349.7 (1)
     |                                               |                |                  [14]{}: instr 0x34a-0x34d.7 (4)
0x340|                              fd               |          .     |                    prefix: 0xfd (valid) 0x34a-0x34a.7 (1)
0x340|                                 00            |           .    |                    v128.load: 0 (valid) 0x34b-0x34b.7 (1)
     |                                               |                |                    m{}: 0x34c-0x34d.7 (2)
0x340|                                    04         |            .   |                      align: 4 0x34c-0x34c.7 (1)
0x340|                                       00      |             .  |                      offset: 0 0x34d-0x34d.7 (1)
     |                                               |                |                  [15]{}: instr 0x34e-0x34f.7 (2)
0x340|                                          fd   |              . |                    prefix: 0xfd (valid) 0x34e-0x34e.7 (1)
0x340|                                             31|               1|                    i16x8.gt_s: 49 (valid) 0x34f-0x34f.7 (1)
     |                                               |                |                  [16]{}: instr 0x350-0x351.7 (2)
0x350|41                                             |A               |                    i32.const: 0x41 (valid) 0x350-0x350.7 (1)
0x350|   02                                          | .              |                    n: 2 0x351-0x351.7 (1)
     |                                               |                |                  [17]{}: instr 0x352-0x355.7 (4)
0x350|      fd                                       |  .             |                    prefix: 0xfd (valid) 0x352-0x352.7 (1)
0x350|         00                                    |   .            |                    v128.load: 0 (valid) 0x353-0x353.7 (1)
     |                                               |                |                    m{}: 0x354-0x355.7 (2)
0x350|            04                                 |    .           |                      align: 4 0x354-0x354.7 (1)
0x350|               00                              |     .          |                      offset: 0 0x355-0x355.7 (1)
     |                                               |                |                  [18]{}: instr 0x356-0x357.7 (2)
0x350|                  41                           |      A         |                    i32.const: 0x41 (valid) 0x356-0x356.7 (1)
0x350|                     03                        |       .        |                    n: 3 0x357-0x357.7 (1)
     |                                               |                |                  [19]{}: instr 0x358-0x35b.7 (4)
0x350|                        fd                     |        .       |                    prefix: 0xfd (valid) 0x358-0x358.7 (1)
0x350|                           00                  |         .      |                    v128.load: 0 (valid) 0x359-0x359.7 (1)
     |                                               |                |                    m{}: 0x35a-0x35b.7 (2)
0x350|                              04               |          .     |                      align: 4 0x35a-0x35a.7 (1)
0x350|                                 00            |           .    |                      offset: 0 0x35b-0x35b.7 (1)
     |                                               |                |                  [20]{}: instr 0x35c-0x35d.7 (2)
0x350|                                    fd         |            .   |                    prefix: 0xfd (valid) 0x35c-0x35c.7 (1)
0x350|                                       30      |             0  |                    i16x8.lt_u: 48 (valid) 0x35d-0x35d.7 (1)
     |                                               |                |                  [21]{}: instr 0x35e-0x35f.7 (2)
0x350|                                          fd   |              . |                    prefix: 0xfd (valid) 0x35e-0x35e.7 (1)
0x350|                                             2e|               .|                    i16x8.ne: 46 (valid) 0x35f-0x35f.7 (1)
     |                                               |                |                  [22]{}: instr 0x360-0x361.7 (2)
0x360|fd                                             |.               |                    prefix: 0xfd (valid) 0x360-0x360.7 (1)
0x360|   36                                          | 6              |                    i16x8.ge_u: 54 (valid) 0x361-0x361.7 (1)
     |                                               |                |                  [23]{}: instr 0x362-0x362.7 (1)
0x360|      1a                                       |  .             |                    drop: 0x1a (valid) 0x362-0x362.7 (1)
     |                                               |                |                  [24]{}: instr 0x363-0x363.7 (1)
0x360|         0b|                                   |   .|           |                    end: 0xb (valid) 0x363-0x363.7 (1)
