$ fq -d wasm dv simd_bitwise-0.wasm
    |00 01 02 03 04 05 06 07 08 09 0a 0b 0c 0d 0e 0f|0123456789abcdef|.{}: simd_bitwise-0.wasm (wasm) 0x0-0x8d.7 (142)
0x00|00 61 73 6d                                    |.asm            |  magic: raw bits (valid) 0x0-0x3.7 (4)
0x00|            01 00 00 00                        |    ....        |  version: 1 0x4-0x7.7 (4)
    |                                               |                |  sections[0:4]: 0x8-0x8d.7 (134)
    |                                               |                |    [0]{}: section 0x8-0x1c.7 (21)
0x00|                        01                     |        .       |      id: "type section" (1) 0x8-0x8.7 (1)
0x00|                           13                  |         .      |      size: 19 0x9-0x9.7 (1)
    |                                               |                |      content{}: 0xa-0x1c.7 (19)
0x00|                              03               |          .     |        n: 3 0xa-0xa.7 (1)
    |                                               |                |        items[0:3]: 0xb-0x1c.7 (18)
    |                                               |                |          [0]{}: functype 0xb-0xf.7 (5)
0x00|                                 60            |           `    |            tag: 0x60 (valid) 0xb-0xb.7 (1)
    |                                               |                |            rt1{}: 0xc-0xd.7 (2)
0x00|                                    01         |            .   |              n: 1 0xc-0xc.7 (1)
    |                                               |                |              items[0:1]: 0xd-0xd.7 (1)
0x00|                                       7b      |             {  |                [0]: "v128" (123) valtype 0xd-0xd.7 (1)
    |                                               |                |            rt2{}: 0xe-0xf.7 (2)
0x00|                                          01   |              . |              n: 1 0xe-0xe.7 (1)
    |                                               |                |              items[0:1]: 0xf-0xf.7 (1)
0x00|                                             7b|               {|                [0]: "v128" (123) valtype 0xf-0xf.7 (1)
    |                                               |                |          [1]{}: functype 0x10-0x15.7 (6)
0x10|60                                             |`               |            tag: 0x60 (valid) 0x10-0x10.7 (1)
    |                                               |                |            rt1{}: 0x11-0x13.7 (3)
0x10|   02                                          | .              |              n: 2 0x11-0x11.7 (1)
    |                                               |                |              items[0:2]: 0x12-0x13.7 (2)
0x10|      7b                                       |  {             |                [0]: "v128" (123) valtype 0x12-0x12.7 (1)
0x10|         7b                                    |   {            |                [1]: "v128" (123) valtype 0x13-0x13.7 (1)
    |                                               |                |            rt2{}: 0x14-0x15.7 (2)
0x10|            01                                 |    .           |              n: 1 0x14-0x14.7 (1)
    |                                               |                |              items[0:1]: 0x15-0x15.7 (1)
0x10|               7b                              |     {          |                [0]: "v128" (123) valtype 0x15-0x15.7 (1)
    |                                               |                |          [2]{}: functype 0x16-0x1c.7 (7)
0x10|                  60                           |      `         |            tag: 0x60 (valid) 0x16-0x16.7 (1)
    |                                               |                |            rt1{}: 0x17-0x1a.7 (4)
0x10|                     03                        |       .        |              n: 3 0x17-0x17.7 (1)
    |                                               |                |              items[0:3]: 0x18-0x1a.7 (3)
0x10|                        7b                     |        {       |                [0]: "v128" (123) valtype 0x18-0x18.7 (1)
0x10|                           7b                  |         {      |                [1]: "v128" (123) valtype 0x19-0x19.7 (1)
0x10|                              7b               |          {     |                [2]: "v128" (123) valtype 0x1a-0x1a.7 (1)
    |                                               |                |            rt2{}: 0x1b-0x1c.7 (2)
0x10|                                 01            |           .    |              n: 1 0x1b-0x1b.7 (1)
    |                                               |                |              items[0:1]: 0x1c-0x1c.7 (1)
0x10|                                    7b         |            {   |                [0]: "v128" (123) valtype 0x1c-0x1c.7 (1)
    |                                               |                |    [1]{}: section 0x1d-0x25.7 (9)
0x10|                                       03      |             .  |      id: "function section" (3) 0x1d-0x1d.7 (1)
0x10|                                          07   |              . |      size: 7 0x1e-0x1e.7 (1)
    |                                               |                |      content{}: 0x1f-0x25.7 (7)
0x10|                                             06|               .|        n: 6 0x1f-0x1f.7 (1)
    |                                               |                |        items[0:6]: 0x20-0x25.7 (6)
0x20|00                                             |.               |          [0]: 0 x 0x20-0x20.7 (1)
0x20|   01                                          | .              |          [1]: 1 x 0x21-0x21.7 (1)
0x20|      01                                       |  .             |          [2]: 1 x 0x22-0x22.7 (1)
0x20|         01                                    |   .            |          [3]: 1 x 0x23-0x23.7 (1)
0x20|            02                                 |    .           |          [4]: 2 x 0x24-0x24.7 (1)
0x20|               01                              |     .          |          [5]: 1 x 0x25-0x25.7 (1)
    |                                               |                |    [2]{}: section 0x26-0x54.7 (47)
0x20|                  07                           |      .         |      id: "export section" (7) 0x26-0x26.7 (1)
0x20|                     2d                        |       -        |      size: 45 0x27-0x27.7 (1)
    |                                               |                |      content{}: 0x28-0x54.7 (45)
0x20|                        06                     |        .       |        n: 6 0x28-0x28.7 (1)
    |                                               |                |        items[0:6]: 0x29-0x54.7 (44)
    |                                               |                |          [0]{}: export 0x29-0x2e.7 (6)
    |                                               |                |            name{}: 0x29-0x2c.7 (4)
0x20|                           03                  |         .      |              len: 3 0x29-0x29.7 (1)
0x20|                              6e 6f 74         |          not   |              utf8bytes: "not" 0x2a-0x2c.7 (3)
    |                                               |                |            expr{}: 0x2d-0x2e.7 (2)
0x20|                                       00      |             .  |              tag: "funcidx" (0x0) 0x2d-0x2d.7 (1)
0x20|                                          00   |              . |              x: 0 0x2e-0x2e.7 (1)
    |                                               |                |          [1]{}: export 0x2f-0x34.7 (6)
    |                                               |                |            name{}: 0x2f-0x32.7 (4)
0x20|                                             03|               .|              len: 3 0x2f-0x2f.7 (1)
0x30|61 6e 64                                       |and             |              utf8bytes: "and" 0x30-0x32.7 (3)
    |                                               |                |            expr{}: 0x33-0x34.7 (2)
0x30|         00                                    |   .            |              tag: "funcidx" (0x0) 0x33-0x33.7 (1)
0x30|            01                                 |    .           |              x: 1 0x34-0x34.7 (1)
    |                                               |                |          [2]{}: export 0x35-0x39.7 (5)
    |                                               |                |            name{}: 0x35-0x37.7 (3)
0x30|               02                              |     .          |              len: 2 0x35-0x35.7 (1)
0x30|                  6f 72                        |      or        |              utf8bytes: "or" 0x36-0x37.7 (2)
    |                                               |                |            expr{}: 0x38-0x39.7 (2)
0x30|                        00                     |        .       |              tag: "funcidx" (0x0) 0x38-0x38.7 (1)
0x30|                           02                  |         .      |              x: 2 0x39-0x39.7 (1)
    |                                               |                |          [3]{}: export 0x3a-0x3f.7 (6)
    |                                               |                |            name{}: 0x3a-0x3d.7 (4)
0x30|                              03               |          .     |              len: 3 0x3a-0x3a.7 (1)
0x30|                                 78 6f 72      |           xor  |              utf8bytes: "xor" 0x3b-0x3d.7 (3)
    |                                               |                |            expr{}: 0x3e-0x3f.7 (2)
0x30|                                          00   |              . |              tag: "funcidx" (0x0) 0x3e-0x3e.7 (1)
0x30|                                             03|               .|              x: 3 0x3f-0x3f.7 (1)
    |                                               |                |          [4]{}: export 0x40-0x4b.7 (12)
    |                                               |                |            name{}: 0x40-0x49.7 (10)
0x40|09                                             |.               |              len: 9 0x40-0x40.7 (1)
0x40|   62 69 74 73 65 6c 65 63 74                  | bitselect      |              utf8bytes: "bitselect" 0x41-0x49.7 (9)
    |                                               |                |            expr{}: 0x4a-0x4b.7 (2)
0x40|                              00               |          .     |              tag: "funcidx" (0x0) 0x4a-0x4a.7 (1)
0x40|                                 04            |           .    |              x: 4 0x4b-0x4b.7 (1)
    |                                               |                |          [5]{}: export 0x4c-0x54.7 (9)
    |                                               |                |            name{}: 0x4c-0x52.7 (7)
0x40|                                    06         |            .   |              len: 6 0x4c-0x4c.7 (1)
0x40|                                       61 6e 64|             and|              utf8bytes: "andnot" 0x4d-0x52.7 (6)
0x50|6e 6f 74                                       |not             |
    |                                               |                |            expr{}: 0x53-0x54.7 (2)
0x50|         00                                    |   .            |              tag: "funcidx" (0x0) 0x53-0x53.7 (1)
0x50|            05                                 |    .           |              x: 5 0x54-0x54.7 (1)
    |                                               |                |    [3]{}: section 0x55-0x8d.7 (57)
0x50|               0a                              |     .          |      id: "code section" (10) 0x55-0x55.7 (1)
0x50|                  37                           |      7         |      size: 55 0x56-0x56.7 (1)
    |                                               |                |      content{}: 0x57-0x8d.7 (55)
0x50|                     06                        |       .        |        n: 6 0x57-0x57.7 (1)
    |                                               |                |        items[0:6]: 0x58-0x8d.7 (54)
    |                                               |                |          [0]{}: code 0x58-0x5e.7 (7)
0x50|                        06                     |        .       |            size: 6 0x58-0x58.7 (1)
    |                                               |                |            code{}: 0x59-0x5e.7 (6)
    |                                               |                |              locals{}: 0x59-0x59.7 (1)
0x50|                           00                  |         .      |                n: 0 0x59-0x59.7 (1)
    |                                               |                |                items[0:0]: 0x5a-NA (0)
    |                                               |                |              expr{}: 0x5a-0x5e.7 (5)
    |                                               |                |                instructions[0:3]: 0x5a-0x5e.7 (5)
    |                                               |                |                  [0]{}: instr 0x5a-0x5b.7 (2)
0x50|                              20               |                |                    local.get: 0x20 (valid) 0x5a-0x5a.7 (1)
0x50|                                 00            |           .    |                    x: 0 0x5b-0x5b.7 (1)
    |                                               |                |                  [1]{}: instr 0x5c-0x5d.7 (2)
0x50|                                    fd         |            .   |                    prefix: 0xfd (valid) 0x5c-0x5c.7 (1)
0x50|                                       4d      |             M  |                    v128.not: 77 (valid) 0x5d-0x5d.7 (1)
    |                                               |                |                  [2]{}: instr 0x5e-0x5e.7 (1)
0x50|                                          0b   |              . |                    end: 0xb (valid) 0x5e-0x5e.7 (1)
    |                                               |                |          [1]{}: code 0x5f-0x67.7 (9)
0x50|                                             08|               .|            size: 8 0x5f-0x5f.7 (1)
    |                                               |                |            code{}: 0x60-0x67.7 (8)
    |                                               |                |              locals{}: 0x60-0x60.7 (1)
0x60|00                                             |.               |                n: 0 0x60-0x60.7 (1)
    |                                               |                |                items[0:0]: 0x61-NA (0)
    |                                               |                |              expr{}: 0x61-0x67.7 (7)
    |                                               |                |                instructions[0:4]: 0x61-0x67.7 (7)
    |                                               |                |                  [0]{}: instr 0x61-0x62.7 (2)
0x60|   20                                          |                |                    local.get: 0x20 (valid) 0x61-0x61.7 (1)
0x60|      00                                       |  .             |                    x: 0 0x62-0x62.7 (1)
    |                                               |                |                  [1]{}: instr 0x63-0x64.7 (2)
0x60|         20                                    |                |                    local.get: 0x20 (valid) 0x63-0x63.7 (1)
0x60|            01                                 |    .           |                    x: 1 0x64-0x64.7 (1)
    |                                               |                |                  [2]{}: instr 0x65-0x66.7 (2)
0x60|               fd                              |     .          |                    prefix: 0xfd (valid) 0x65-0x65.7 (1)
0x60|                  4e                           |      N         |                    v128.and: 78 (valid) 0x66-0x66.7 (1)
    |                                               |                |                  [3]{}: instr 0x67-0x67.7 (1)
0x60|                     0b                        |       .        |                    end: 0xb (valid) 0x67-0x67.7 (1)
    |                                               |                |          [2]{}: code 0x68-0x70.7 (9)
0x60|                        08                     |        .       |            size: 8 0x68-0x68.7 (1)
    |                                               |                |            code{}: 0x69-0x70.7 (8)
    |                                               |                |              locals{}: 0x69-0x69.7 (1)
0x60|                           00                  |         .      |                n: 0 0x69-0x69.7 (1)
    |                                               |                |                items[0:0]: 0x6a-NA (0)
    |                                               |                |              expr{}: 0x6a-0x70.7 (7)
    |                                               |                |                instructions[0:4]: 0x6a-0x70.7 (7)
    |                                               |                |                  [0]{}: instr 0x6a-0x6b.7 (2)
0x60|                              20               |                |                    local.get: 0x20 (valid) 0x6a-0x6a.7 (1)
0x60|                                 00            |           .    |                    x: 0 0x6b-0x6b.7 (1)
    |                                               |                |                  [1]{}: instr 0x6c-0x6d.7 (2)
0x60|                                    20         |                |                    local.get: 0x20 (valid) 0x6c-0x6c.7 (1)
0x60|                                       01      |             .  |                    x: 1 0x6d-0x6d.7 (1)
    |                                               |                |                  [2]{}: instr 0x6e-0x6f.7 (2)
0x60|                                          fd   |              . |                    prefix: 0xfd (valid) 0x6e-0x6e.7 (1)
0x60|                                             50|               P|                    v128.or: 80 (valid) 0x6f-0x6f.7 (1)
    |                                               |                |                  [3]{}: instr 0x70-0x70.7 (1)
0x70|0b                                             |.               |                    end: 0xb (valid) 0x70-0x70.7 (1)
    |                                               |                |          [3]{}: code 0x71-0x79.7 (9)
0x70|   08                                          | .              |            size: 8 0x71-0x71.7 (1)
    |                                               |                |            code{}: 0x72-0x79.7 (8)
    |                                               |                |              locals{}: 0x72-0x72.7 (1)
0x70|      00                                       |  .             |                n: 0 0x72-0x72.7 (1)
    |                                               |                |                items[0:0]: 0x73-NA (0)
    |                                               |                |              expr{}: 0x73-0x79.7 (7)
    |                                               |                |                instructions[0:4]: 0x73-0x79.7 (7)
    |                                               |                |                  [0]{}: instr 0x73-0x74.7 (2)
0x70|         20                                    |                |                    local.get: 0x20 (valid) 0x73-0x73.7 (1)
0x70|            00                                 |    .           |                    x: 0 0x74-0x74.7 (1)
    |                                               |                |                  [1]{}: instr 0x75-0x76.7 (2)
0x70|               20                              |                |                    local.get: 0x20 (valid) 0x75-0x75.7 (1)
0x70|                  01                           |      .         |                    x: 1 0x76-0x76.7 (1)
    |                                               |                |                  [2]{}: instr 0x77-0x78.7 (2)
0x70|                     fd                        |       .        |                    prefix: 0xfd (valid) 0x77-0x77.7 (1)
0x70|                        51                     |        Q       |                    v128.xor: 81 (valid) 0x78-0x78.7 (1)
    |                                               |                |                  [3]{}: instr 0x79-0x79.7 (1)
0x70|                           0b                  |         .      |                    end: 0xb (valid) 0x79-0x79.7 (1)
    |                                               |                |          [4]{}: code 0x7a-0x84.7 (11)
0x70|                              0a               |          .     |            size: 10 0x7a-0x7a.7 (1)
    |                                               |                |            code{}: 0x7b-0x84.7 (10)
    |                                               |                |              locals{}: 0x7b-0x7b.7 (1)
0x70|                                 00            |           .    |                n: 0 0x7b-0x7b.7 (1)
    |                                               |                |                items[0:0]: 0x7c-NA (0)
    |                                               |                |              expr{}: 0x7c-0x84.7 (9)
    |                                               |                |                instructions[0:5]: 0x7c-0x84.7 (9)
    |                                               |                |                  [0]{}: instr 0x7c-0x7d.7 (2)
0x70|                                    20         |                |                    local.get: 0x20 (valid) 0x7c-0x7c.7 (1)
0x70|                                       00      |             .  |                    x: 0 0x7d-0x7d.7 (1)
    |                                               |                |                  [1]{}: instr 0x7e-0x7f.7 (2)
0x70|                                          20   |                |                    local.get: 0x20 (valid) 0x7e-0x7e.7 (1)
0x70|                                             01|               .|                    x: 1 0x7f-0x7f.7 (1)
    |                                               |                |                  [2]{}: instr 0x80-0x81.7 (2)
0x80|20                                             |                |                    local.get: 0x20 (valid) 0x80-0x80.7 (1)
0x80|   02                                          | .              |                    x: 2 0x81-0x81.7 (1)
    |                                               |                |                  [3]{}: instr 0x82-0x83.7 (2)
0x80|      fd                                       |  .             |                    prefix: 0xfd (valid) 0x82-0x82.7 (1)
0x80|         52                                    |   R            |                    v128.bitselect: 82 (valid) 0x83-0x83.7 (1)
    |                                               |                |                  [4]{}: instr 0x84-0x84.7 (1)
0x80|            0b                                 |    .           |                    end: 0xb (valid) 0x84-0x84.7 (1)
    |                                               |                |          [5]{}: code 0x85-0x8d.7 (9)
0x80|               08                              |     .          |            size: 8 0x85-0x85.7 (1)
    |                                               |                |            code{}: 0x86-0x8d.7 (8)
    |                                               |                |              locals{}: 0x86-0x86.7 (1)
0x80|                  00                           |      .         |                n: 0 0x86-0x86.7 (1)
    |                                               |                |                items[0:0]: 0x87-NA (0)
    |                                               |                |              expr{}: 0x87-0x8d.7 (7)
    |                                               |                |                instructions[0:4]: 0x87-0x8d.7 (7)
    |                                               |                |                  [0]{}: instr 0x87-0x88.7 (2)
0x80|                     20                        |                |                    local.get: 0x20 (valid) 0x87-0x87.7 (1)
0x80|                        00                     |        .       |                    x: 0 0x88-0x88.7 (1)
    |                                               |                |                  [1]{}: instr 0x89-0x8a.7 (2)
0x80|                           20                  |                |                    local.get: 0x20 (valid) 0x89-0x89.7 (1)
0x80|                              01               |          .     |                    x: 1 0x8a-0x8a.7 (1)
    |                                               |                |                  [2]{}: instr 0x8b-0x8c.7 (2)
0x80|                                 fd            |           .    |                    prefix: 0xfd (valid) 0x8b-0x8b.7 (1)
0x80|                                    4f         |            O   |                    v128.andnot: 79 (valid) 0x8c-0x8c.7 (1)
    |                                               |                |                  [3]{}: instr 0x8d-0x8d.7 (1)
0x80|                                       0b|     |             .| |                    end: 0xb (valid) 0x8d-0x8d.7 (1)
