$ fq -d wasm dv simd_load-11.wasm
    |00 01 02 03 04 05 06 07 08 09 0a 0b 0c 0d 0e 0f|0123456789abcdef|.{}: simd_load-11.wasm (wasm) 0x0-0x64.7 (101)
0x00|00 61 73 6d                                    |.asm            |  magic: raw bits (valid) 0x0-0x3.7 (4)
0x00|            01 00 00 00                        |    ....        |  version: 1 0x4-0x7.7 (4)
    |                                               |                |  sections[0:6]: 0x8-0x64.7 (93)
    |                                               |                |    [0]{}: section 0x8-0xe.7 (7)
0x00|                        01                     |        .       |      id: "type section" (1) 0x8-0x8.7 (1)
0x00|                           05                  |         .      |      size: 5 0x9-0x9.7 (1)
    |                                               |                |      content{}: 0xa-0xe.7 (5)
0x00|                              01               |          .     |        n: 1 0xa-0xa.7 (1)
    |                                               |                |        items[0:1]: 0xb-0xe.7 (4)
    |                                               |                |          [0]{}: functype 0xb-0xe.7 (4)
0x00|                                 60            |           `    |            tag: 0x60 (valid) 0xb-0xb.7 (1)
    |                                               |                |            rt1{}: 0xc-0xc.7 (1)
0x00|                                    00         |            .   |              n: 0 0xc-0xc.7 (1)
    |                                               |                |              items[0:0]: 0xd-NA (0)
    |                                               |                |            rt2{}: 0xd-0xe.7 (2)
0x00|                                       01      |             .  |              n: 1 0xd-0xd.7 (1)
    |                                               |                |              items[0:1]: 0xe-0xe.7 (1)
0x00|                                          7b   |              { |                [0]: "v128" (123) valtype 0xe-0xe.7 (1)
    |                                               |                |    [1]{}: section 0xf-0x12.7 (4)
0x00|                                             03|               .|      id: "function section" (3) 0xf-0xf.7 (1)
0x10|02                                             |.               |      size: 2 0x10-0x10.7 (1)
    |                                               |                |      content{}: 0x11-0x12.7 (2)
0x10|   01                                          | .              |        n: 1 0x11-0x11.7 (1)
    |                                               |                |        items[0:1]: 0x12-0x12.7 (1)
0x10|      00                                       |  .             |          [0]: 0 x 0x12-0x12.7 (1)
    |                                               |                |    [2]{}: section 0x13-0x17.7 (5)
0x10|         05                                    |   .            |      id: "memory section" (5) 0x13-0x13.7 (1)
0x10|            03                                 |    .           |      size: 3 0x14-0x14.7 (1)
    |                                               |                |      content{}: 0x15-0x17.7 (3)
0x10|               01                              |     .          |        n: 1 0x15-0x15.7 (1)
    |                                               |                |        items[0:1]: 0x16-0x17.7 (2)
    |                                               |                |          [0]{}: mem 0x16-0x17.7 (2)
    |                                               |                |            limits{}: 0x16-0x17.7 (2)
0x10|                  00                           |      .         |              tag: 0x0 0x16-0x16.7 (1)
0x10|                     01                        |       .        |              min: 1 0x17-0x17.7 (1)
    |                                               |                |    [3]{}: section 0x18-0x3d.7 (38)
0x10|                        07                     |        .       |      id: "export section" (7) 0x18-0x18.7 (1)
0x10|                           24                  |         $      |      size: 36 0x19-0x19.7 (1)
    |                                               |                |      content{}: 0x1a-0x3d.7 (36)
0x10|                              01               |          .     |        n: 1 0x1a-0x1a.7 (1)
    |                                               |                |        items[0:1]: 0x1b-0x3d.7 (35)
    |                                               |                |          [0]{}: export 0x1b-0x3d.7 (35)
    |                                               |                |            name{}: 0x1b-0x3b.7 (33)
0x10|                                 20            |                |              len: 32 0x1b-0x1b.7 (1)
0x10|                                    61 73 2d 66|            as-f|              utf8bytes: "as-f32x4.convert_i32x4_u-operand" 0x1c-0x3b.7 (32)
0x20|33 32 78 34 2e 63 6f 6e 76 65 72 74 5f 69 33 32|32x4.convert_i32|
0x30|78 34 5f 75 2d 6f 70 65 72 61 6e 64            |x4_u-operand    |
    |                                               |                |            expr{}: 0x3c-0x3d.7 (2)
0x30|                                    00         |            .   |              tag: "funcidx" (0x0) 0x3c-0x3c.7 (1)
0x30|                                       00      |             .  |              x: 0 0x3d-0x3d.7 (1)
    |                                               |                |    [4]{}: section 0x3e-0x4c.7 (15)
0x30|                                          0a   |              . |      id: "code section" (10) 0x3e-0x3e.7 (1)
0x30|                                             0d|               .|      size: 13 0x3f-0x3f.7 (1)
    |                                               |                |      content{}: 0x40-0x4c.7 (13)
0x40|01                                             |.               |        n: 1 0x40-0x40.7 (1)
    |                                               |                |        items[0:1]: 0x41-0x4c.7 (12)
    |                                               |                |          [0]{}: code 0x41-0x4c.7 (12)
0x40|   0b                                          | .              |            size: 11 0x41-0x41.7 (1)
    |                                               |                |            code{}: 0x42-0x4c.7 (11)
    |                                               |                |              locals{}: 0x42-0x42.7 (1)
0x40|      00                                       |  .             |                n: 0 0x42-0x42.7 (1)
    |                                               |                |                items[0:0]: 0x43-NA (0)
    |                                               |                |              expr{}: 0x43-0x4c.7 (10)
    |                                               |                |                instructions[0:4]: 0x43-0x4c.7 (10)
    |                                               |                |                  [0]{}: instr 0x43-0x44.7 (2)
0x40|         41                                    |   A            |                    i32.const: 0x41 (valid) 0x43-0x43.7 (1)
0x40|            00                                 |    .           |                    n: 0 0x44-0x44.7 (1)
    |                                               |                |                  [1]{}: instr 0x45-0x48.7 (4)
0x40|               fd                              |     .          |                    prefix: 0xfd (valid) 0x45-0x45.7 (1)
0x40|                  00                           |      .         |                    v128.load: 0 (valid) 0x46-0x46.7 (1)
    |                                               |                |                    m{}: 0x47-0x48.7 (2)
0x40|                     04                        |       .        |                      align: 4 0x47-0x47.7 (1)
0x40|                        00                     |        .       |                      offset: 0 0x48-0x48.7 (1)
    |                                               |                |                  [2]{}: instr 0x49-0x4b.7 (3)
0x40|                           fd                  |         .      |                    prefix: 0xfd (valid) 0x49-0x49.7 (1)
0x40|                              fb 01            |          ..    |                    f32x4.convert_i32x4_u: 251 (valid) 0x4a-0x4b.7 (2)
    |                                               |                |                  [3]{}: instr 0x4c-0x4c.7 (1)
0x40|                                    0b         |            .   |                    end: 0xb (valid) 0x4c-0x4c.7 (1)
    |                                               |                |    [5]{}: section 0x4d-0x64.7 (24)
0x40|                                       0b      |             .  |      id: "data section" (11) 0x4d-0x4d.7 (1)
0x40|                                          16   |              . |      size: 22 0x4e-0x4e.7 (1)
    |                                               |                |      content{}: 0x4f-0x64.7 (22)
0x40|                                             01|               .|        n: 1 0x4f-0x4f.7 (1)
    |                                               |                |        items[0:1]: 0x50-0x64.7 (21)
    |                                               |                |          [0]{}: data 0x50-0x64.7 (21)
0x50|00                                             |.               |            tag: 0 0x50-0x50.7 (1)
    |                                               |                |            instructions[0:2]: 0x51-0x53.7 (3)
    |                                               |                |              [0]{}: instr 0x51-0x52.7 (2)
0x50|   41                                          | A              |                i32.const: 0x41 (valid) 0x51-0x51.7 (1)
0x50|      00                                       |  .             |                n: 0 0x52-0x52.7 (1)
    |                                               |                |              [1]{}: instr 0x53-0x53.7 (1)
0x50|         0b                                    |   .            |                end: 0xb (valid) 0x53-0x53.7 (1)
0x50|            10                                 |    .           |            n: 16 0x54-0x54.7 (1)
0x50|               02 00 00 00 02 00 00 00 02 00 00|     ...........|            bytes: raw bits 0x55-0x64.7 (16)
0x60|00 02 00 00 00|                                |.....|          |
