$ fq -d wasm dv simd_int_to_int_extend-0.wasm
     |00 01 02 03 04 05 06 07 08 09 0a 0b 0c 0d 0e 0f|0123456789abcdef|.{}: simd_int_to_int_extend-0.wasm (wasm) 0x0-0x1cf.7 (464)
0x000|00 61 73 6d                                    |.asm            |  magic: raw bits (valid) 0x0-0x3.7 (4)
0x000|            01 00 00 00                        |    ....        |  version: 1 0x4-0x7.7 (4)
     |                                               |                |  sections[0:4]: 0x8-0x1cf.7 (456)
     |                                               |                |    [0]{}: section 0x8-0xf.7 (8)
0x000|                        01                     |        .       |      id: "type section" (1) 0x8-0x8.7 (1)
0x000|                           06                  |         .      |      size: 6 0x9-0x9.7 (1)
     |                                               |                |      content{}: 0xa-0xf.7 (6)
0x000|                              01               |          .     |        n: 1 0xa-0xa.7 (1)
     |                                               |                |        items[0:1]: 0xb-0xf.7 (5)
     |                                               |                |          [0]{}: functype 0xb-0xf.7 (5)
0x000|                                 60            |           `    |            tag: 0x60 (valid) 0xb-0xb.7 (1)
     |                                               |                |            rt1{}: 0xc-0xd.7 (2)
0x000|                                    01         |            .   |              n: 1 0xc-0xc.7 (1)
     |                                               |                |              items[0:1]: 0xd-0xd.7 (1)
0x000|                                       7b      |             {  |                [0]: "v128" (123) valtype 0xd-0xd.7 (1)
     |                                               |                |            rt2{}: 0xe-0xf.7 (2)
0x000|                                          01   |              . |              n: 1 0xe-0xe.7 (1)
     |                                               |                |              items[0:1]: 0xf-0xf.7 (1)
0x000|                                             7b|               {|                [0]: "v128" (123) valtype 0xf-0xf.7 (1)
     |                                               |                |    [1]{}: section 0x10-0x1e.7 (15)
0x010|03                                             |.               |      id: "function section" (3) 0x10-0x10.7 (1)
0x010|   0d                                          | .              |      size: 13 0x11-0x11.7 (1)
     |                                               |                |      content{}: 0x12-0x1e.7 (13)
0x010|      0c                                       |  .             |        n: 12 0x12-0x12.7 (1)
     |                                               |                |        items[0:12]: 0x13-0x1e.7 (12)
0x010|         00                                    |   .            |          [0]: 0 x 0x13-0x13.7 (1)
0x010|            00                                 |    .           |          [1]: 0 x 0x14-0x14.7 (1)
0x010|               00                              |     .          |          [2]: 0 x 0x15-0x15.7 (1)
0x010|                  00                           |      .         |          [3]: 0 x 0x16-0x16.7 (1)
0x010|                     00                        |       .        |          [4]: 0 x 0x17-0x17.7 (1)
0x010|                        00                     |        .       |          [5]: 0 x 0x18-0x18.7 (1)
0x010|                           00                  |         .      |          [6]: 0 x 0x19-0x19.7 (1)
0x010|                              00               |          .     |          [7]: 0 x 0x1a-0x1a.7 (1)
0x010|                                 00            |           .    |          [8]: 0 x 0x1b-0x1b.7 (1)
0x010|                                    00         |            .   |          [9]: 0 x 0x1c-0x1c.7 (1)
0x010|                                       00      |             .  |          [10]: 0 x 0x1d-0x1d.7 (1)
0x010|                                          00   |              . |          [11]: 0 x 0x1e-0x1e.7 (1)
     |                                               |                |    [2]{}: section 0x1f-0x16c.7 (334)
0x010|                                             07|               .|      id: "export section" (7) 0x1f-0x1f.7 (1)
0x020|cb 02                                          |..              |      size: 331 0x20-0x21.7 (2)
     |                                               |                |      content{}: 0x22-0x16c.7 (331)
0x020|      0c                                       |  .             |        n: 12 0x22-0x22.7 (1)
     |                                               |                |        items[0:12]: 0x23-0x16c.7 (330)
     |                                               |                |          [0]{}: export 0x23-0x3e.7 (28)
     |                                               |                |            name{}: 0x23-0x3c.7 (26)
0x020|         19                                    |   .            |              len: 25 0x23-0x23.7 (1)
0x020|            69 31 36 78 38 2e 65 78 74 65 6e 64|    i16x8.extend|              utf8bytes: "i16x8.extend_high_i8x16_s" 0x24-0x3c.7 (25)
0x030|5f 68 69 67 68 5f 69 38 78 31 36 5f 73         |_high_i8x16_s   |
     |                                               |                |            expr{}: 0x3d-0x3e.7 (2)
0x030|                                       00      |             .  |              tag: "funcidx" (0x0) 0x3d-0x3d.7 (1)
0x030|                                          00   |              . |              x: 0 0x3e-0x3e.7 (1)
     |                                               |                |          [1]{}: export 0x3f-0x5a.7 (28)
     |                                               |                |            name{}: 0x3f-0x58.7 (26)
0x030|                                             19|               .|              len: 25 0x3f-0x3f.7 (1)
0x040|69 31 36 78 38 2e 65 78 74 65 6e 64 5f 68 69 67|i16x8.extend_hig|              utf8bytes: "i16x8.extend_high_i8x16_u" 0x40-0x58.7 (25)
0x050|68 5f 69 38 78 31 36 5f 75                     |h_i8x16_u       |
     |                                               |                |            expr{}: 0x59-0x5a.7 (2)
0x050|                           00                  |         .      |              tag: "funcidx" (0x0) 0x59-0x59.7 (1)
0x050|                              01               |          .     |              x: 1 0x5a-0x5a.7 (1)
     |                                               |                |          [2]{}: export 0x5b-0x75.7 (27)
     |                                               |                |            name{}: 0x5b-0x73.7 (25)
0x050|                                 18            |           .    |              len: 24 0x5b-0x5b.7 (1)
0x050|                                    69 31 36 78|            i16x|              utf8bytes: "i16x8.extend_low_i8x16_s" 0x5c-0x73.7 (24)
0x060|38 2e 65 78 74 65 6e 64 5f 6c 6f 77 5f 69 38 78|8.extend_low_i8x|
0x070|31 36 5f 73                                    |16_s            |
     |                                               |                |            expr{}: 0x74-0x75.7 (2)
0x070|            00                                 |    .           |              tag: "funcidx" (0x0) 0x74-0x74.7 (1)
0x070|               02                              |     .          |              x: 2 0x75-0x75.7 (1)
     |                                               |                |          [3]{}: export 0x76-0x90.7 (27)
     |                                               |                |            name{}: 0x76-0x8e.7 (25)
0x070|                  18                           |      .         |              len: 24 0x76-0x76.7 (1)
0x070|                     69 31 36 78 38 2e 65 78 74|       i16x8.ext|              utf8bytes: "i16x8.extend_low_i8x16_u" 0x77-0x8e.7 (24)
0x080|65 6e 64 5f 6c 6f 77 5f 69 38 78 31 36 5f 75   |end_low_i8x16_u |
     |                                               |                |            expr{}: 0x8f-0x90.7 (2)
0x080|                                             00|               .|              tag: "funcidx" (0x0) 0x8f-0x8f.7 (1)
0x090|03                                             |.               |              x: 3 0x90-0x90.7 (1)
     |                                               |                |          [4]{}: export 0x91-0xac.7 (28)
     |                                               |                |            name{}: 0x91-0xaa.7 (26)
0x090|   19                                          | .              |              len: 25 0x91-0x91.7 (1)
0x090|      69 33 32 78 34 2e 65 78 74 65 6e 64 5f 68|  i32x4.extend_h|              utf8bytes: "i32x4.extend_high_i16x8_s" 0x92-0xaa.7 (25)
0x0a0|69 67 68 5f 69 31 36 78 38 5f 73               |igh_i16x8_s     |
     |                                               |                |            expr{}: 0xab-0xac.7 (2)
0x0a0|                                 00            |           .    |              tag: "funcidx" (0x0) 0xab-0xab.7 (1)
0x0a0|                                    04         |            .   |              x: 4 0xac-0xac.7 (1)
     |                                               |                |          [5]{}: export 0xad-0xc8.7 (28)
     |                                               |                |            name{}: 0xad-0xc6.7 (26)
0x0a0|                                       19      |             .  |              len: 25 0xad-0xad.7 (1)
0x0a0|                                          69 33|              i3|              utf8bytes: "i32x4.extend_high_i16x8_u" 0xae-0xc6.7 (25)
0x0b0|32 78 34 2e 65 78 74 65 6e 64 5f 68 69 67 68 5f|2x4.extend_high_|
0x0c0|69 31 36 78 38 5f 75                           |i16x8_u         |
     |                                               |                |            expr{}: 0xc7-0xc8.7 (2)
0x0c0|                     00                        |       .        |              tag: "funcidx" (0x0) 0xc7-0xc7.7 (1)
0x0c0|                        05                     |        .       |              x: 5 0xc8-0xc8.7 (1)
     |                                               |                |          [6]{}: export 0xc9-0xe3.7 (27)
     |                                               |                |            name{}: 0xc9-0xe1.7 (25)
0x0c0|                           18                  |         .      |              len: 24 0xc9-0xc9.7 (1)
0x0c0|                              69 33 32 78 34 2e|          i32x4.|              utf8bytes: "i32x4.extend_low_i16x8_s" 0xca-0xe1.7 (24)
0x0d0|65 78 74 65 6e 64 5f 6c 6f 77 5f 69 31 36 78 38|extend_low_i16x8|
0x0e0|5f 73                                          |_s              |
     |                                               |                |            expr{}: 0xe2-0xe3.7 (2)
0x0e0|      00                                       |  .             |              tag: "funcidx" (0x0) 0xe2-0xe2.7 (1)
0x0e0|         06                                    |   .            |              x: 6 0xe3-0xe3.7 (1)
     |                                               |                |          [7]{}: export 0xe4-0xfe.7 (27)
     |                                               |                |            name{}: 0xe4-0xfc.7 (25)
0x0e0|            18                                 |    .           |              len: 24 0xe4-0xe4.7 (1)
0x0e0|               69 33 32 78 34 2e 65 78 74 65 6e|     i32x4.exten|              utf8bytes: "i32x4.extend_low_i16x8_u" 0xe5-0xfc.7 (24)
0x0f0|64 5f 6c 6f 77 5f 69 31 36 78 38 5f 75         |d_low_i16x8_u   |
     |                                               |                |            expr{}: 0xfd-0xfe.7 (2)
0x0f0|                                       00      |             .  |              tag: "funcidx" (0x0) 0xfd-0xfd.7 (1)
0x0f0|                                          07   |              . |              x: 7 0xfe-0xfe.7 (1)
     |                                               |                |          [8]{}: export 0xff-0x11a.7 (28)
     |                                               |                |            name{}: 0xff-0x118.7 (26)
0x0f0|                                             19|               .|              len: 25 0xff-0xff.7 (1)
0x100|69 36 34 78 32 2e 65 78 74 65 6e 64 5f 68 69 67|i64x2.extend_hig|              utf8bytes: "i64x2.extend_high_i32x4_s" 0x100-0x118.7 (25)
0x110|68 5f 69 33 32 78 34 5f 73                     |h_i32x4_s       |
     |                                               |                |            expr{}: 0x119-0x11a.7 (2)
0x110|                           00                  |         .      |              tag: "funcidx" (0x0) 0x119-0x119.7 (1)
0x110|                              08               |          .     |              x: 8 0x11a-0x11a.7 (1)
     |                                               |                |          [9]{}: export 0x11b-0x136.7 (28)
     |                                               |                |            name{}: 0x11b-0x134.7 (26)
0x110|                                 19            |           .    |              len: 25 0x11b-0x11b.7 (1)
0x110|                                    69 36 34 78|            i64x|              utf8bytes: "i64x2.extend_high_i32x4_u" 0x11c-0x134.7 (25)
0x120|32 2e 65 78 74 65 6e 64 5f 68 69 67 68 5f 69 33|2.extend_high_i3|
0x130|32 78 34 5f 75                                 |2x4_u           |
     |                                               |                |            expr{}: 0x135-0x136.7 (2)
0x130|               00                              |     .          |              tag: "funcidx" (0x0) 0x135-0x135.7 (1)
0x130|                  09                           |      .         |              x: 9 0x136-0x136.7 (1)
     |                                               |                |          [10]{}: export 0x137-0x151.7 (27)
     |                                               |                |            name{}: 0x137-0x14f.7 (25)
0x130|                     18                        |       .        |              len: 24 0x137-0x137.7 (1)
0x130|                        69 36 34 78 32 2e 65 78|        i64x2.ex|              utf8bytes: "i64x2.extend_low_i32x4_s" 0x138-0x14f.7 (24)
0x140|74 65 6e 64 5f 6c 6f 77 5f 69 33 32 78 34 5f 73|tend_low_i32x4_s|
     |                                               |                |            expr{}: 0x150-0x151.7 (2)
0x150|00                                             |.               |              tag: "funcidx" (0x0) 0x150-0x150.7 (1)
0x150|   0a                                          | .              |              x: 10 0x151-0x151.7 (1)
     |                                               |                |          [11]{}: export 0x152-0x16c.7 (27)
     |                                               |                |            name{}: 0x152-0x16a.7 (25)
0x150|      18                                       |  .             |              len: 24 0x152-0x152.7 (1)
0x150|         69 36 34 78 32 2e 65 78 74 65 6e 64 5f|   i64x2.extend_|              utf8bytes: "i64x2.extend_low_i32x4_u" 0x153-0x16a.7 (24)
0x160|6c 6f 77 5f 69 33 32 78 34 5f 75               |low_i32x4_u     |
     |                                               |                |            expr{}: 0x16b-0x16c.7 (2)
0x160|                                 00            |           .    |              tag: "funcidx" (0x0) 0x16b-0x16b.7 (1)
0x160|                                    0b         |            .   |              x: 11 0x16c-0x16c.7 (1)
     |                                               |                |    [3]{}: section 0x16d-0x1cf.7 (99)
0x160|                                       0a      |             .  |      id: "code section" (10) 0x16d-0x16d.7 (1)
0x160|                                          61   |              a |      size: 97 0x16e-0x16e.7 (1)
     |                                               |                |      content{}: 0x16f-0x1cf.7 (97)
0x160|                                             0c|               .|        n: 12 0x16f-0x16f.7 (1)
     |                                               |                |        items[0:12]: 0x170-0x1cf.7 (96)
     |                                               |                |          [0]{}: code 0x170-0x177.7 (8)
0x170|07                                             |.               |            size: 7 0x170-0x170.7 (1)
     |                                               |                |            code{}: 0x171-0x177.7 (7)
     |                                               |                |              locals{}: 0x171-0x171.7 (1)
0x170|   00                                          | .              |                n: 0 0x171-0x171.7 (1)
     |                                               |                |                items[0:0]: 0x172-NA (0)
     |                                               |                |              expr{}: 0x172-0x177.7 (6)
     |                                               |                |                instructions[0:3]: 0x172-0x177.7 (6)
     |                                               |                |                  [0]{}: instr 0x172-0x173.7 (2)
0x170|      20                                       |                |                    local.get: 0x20 (valid) 0x172-0x172.7 (1)
0x170|         00                                    |   .            |                    x: 0 0x173-0x173.7 (1)
     |                                               |                |                  [1]{}: instr 0x174-0x176.7 (3)
0x170|            fd                                 |    .           |                    prefix: 0xfd (valid) 0x174-0x174.7 (1)
0x170|               88 01                           |     ..         |                    i16x8.extend_high_i8x16_s: 136 (valid) 0x175-0x176.7 (2)
     |                                               |                |                  [2]{}: instr 0x177-0x177.7 (1)
0x170|                     0b                        |       .        |                    end: 0xb (valid) 0x177-0x177.7 (1)
     |                                               |                |          [1]{}: code 0x178-0x17f.7 (8)
0x170|                        07                     |        .       |            size: 7 0x178-0x178.7 (1)
     |                                               |                |            code{}: 0x179-0x17f.7 (7)
     |                                               |                |              locals{}: 0x179-0x179.7 (1)
0x170|                           00                  |         .      |                n: 0 0x179-0x179.7 (1)
     |                                               |                |                items[0:0]: 0x17a-NA (0)
     |                                               |                |              expr{}: 0x17a-0x17f.7 (6)
     |                                               |                |                instructions[0:3]: 0x17a-0x17f.7 (6)
     |                                               |                |                  [0]{}: instr 0x17a-0x17b.7 (2)
0x170|                              20               |                |                    local.get: 0x20 (valid) 0x17a-0x17a.7 (1)
0x170|                                 00            |           .    |                    x: 0 0x17b-0x17b.7 (1)
     |                                               |                |                  [1]{}: instr 0x17c-0x17e.7 (3)
0x170|                                    fd         |            .   |                    prefix: 0xfd (valid) 0x17c-0x17c.7 (1)
0x170|                                       8a 01   |             .. |                    i16x8.extend_high_i8x16_u: 138 (valid) 0x17d-0x17e.7 (2)
     |                                               |                |                  [2]{}: instr 0x17f-0x17f.7 (1)
0x170|                                             0b|               .|                    end: 0xb (valid) 0x17f-0x17f.7 (1)
     |                                               |                |          [2]{}: code 0x180-0x187.7 (8)
0x180|07                                             |.               |            size: 7 0x180-0x180.7 (1)
     |                                               |                |            code{}: 0x181-0x187.7 (7)
     |                                               |                |              locals{}: 0x181-0x181.7 (1)
0x180|   00                                          | .              |                n: 0 0x181-0x181.7 (1)
     |                                               |                |                items[0:0]: 0x182-NA (0)
     |                                               |                |              expr{}: 0x182-0x187.7 (6)
     |                                               |                |                instructions[0:3]: 0x182-0x187.7 (6)
     |                                               |                |                  [0]{}: instr 0x182-0x183.7 (2)
0x180|      20                                       |                |                    local.get: 0x20 (valid) 0x182-0x182.7 (1)
0x180|         00                                    |   .            |                    x: 0 0x183-0x183.7 (1)
     |                                               |                |                  [1]{}: instr 0x184-0x186.7 (3)
0x180|            fd                                 |    .           |                    prefix: 0xfd (valid) 0x184-0x184.7 (1)
0x180|               87 01                           |     ..         |                    i16x8.extend_low_i8x16_s: 135 (valid) 0x185-0x186.7 (2)
     |                                               |                |                  [2]{}: instr 0x187-0x187.7 (1)
0x180|                     0b                        |       .        |                    end: 0xb (valid) 0x187-0x187.7 (1)
     |                                               |                |          [3]{}: code 0x188-0x18f.7 (8)
0x180|                        07                     |        .       |            size: 7 0x188-0x188.7 (1)
     |                                               |                |            code{}: 0x189-0x18f.7 (7)
     |                                               |                |              locals{}: 0x189-0x189.7 (1)
0x180|                           00                  |         .      |                n: 0 0x189-0x189.7 (1)
     |                                               |                |                items[0:0]: 0x18a-NA (0)
     |                                               |                |              expr{}: 0x18a-0x18f.7 (6)
     |                                               |                |                instructions[0:3]: 0x18a-0x18f.7 (6)
     |                                               |                |                  [0]{}: instr 0x18a-0x18b.7 (2)
0x180|                              20               |                |                    local.get: 0x20 (valid) 0x18a-0x18a.7 (1)
0x180|                                 00            |           .    |                    x: 0 0x18b-0x18b.7 (1)
     |                                               |                |                  [1]{}: instr 0x18c-0x18e.7 (3)
0x180|                                    fd         |            .   |                    prefix: 0xfd (valid) 0x18c-0x18c.7 (1)
0x180|                                       89 01   |             .. |                    i16x8.extend_low_i8x16_u: 137 (valid) 0x18d-0x18e.7 (2)
     |                                               |                |                  [2]{}: instr 0x18f-0x18f.7 (1)
0x180|                                             0b|               .|                    end: 0xb (valid) 0x18f-0x18f.7 (1)
     |                                               |                |          [4]{}: code 0x190-0x197.7 (8)
0x190|07                                             |.               |            size: 7 0x190-0x190.7 (1)
     |                                               |                |            code{}: 0x191-0x197.7 (7)
     |                                               |                |              locals{}: 0x191-0x191.7 (1)
0x190|   00                                          | .              |                n: 0 0x191-0x191.7 (1)
     |                                               |                |                items[0:0]: 0x192-NA (0)
     |                                               |                |              expr{}: 0x192-0x197.7 (6)
     |                                               |                |                instructions[0:3]: 0x192-0x197.7 (6)
     |                                               |                |                  [0]{}: instr 0x192-0x193.7 (2)
0x190|      20                                       |                |                    local.get: 0x20 (valid) 0x192-0x192.7 (1)
0x190|         00                                    |   .            |                    x: 0 0x193-0x193.7 (1)
     |                                               |                |                  [1]{}: instr 0x194-0x196.7 (3)
0x190|            fd                                 |    .           |                    prefix: 0xfd (valid) 0x194-0x194.7 (1)
0x190|               a8 01                           |     ..         |                    i32x4.extend_high_i16x8_s: 168 (valid) 0x195-0x196.7 (2)
     |                                               |                |                  [2]{}: instr 0x197-0x197.7 (1)
0x190|                     0b                        |       .        |                    end: 0xb (valid) 0x197-0x197.7 (1)
     |                                               |                |          [5]{}: code 0x198-0x19f.7 (8)
0x190|                        07                     |        .       |            size: 7 0x198-0x198.7 (1)
     |                                               |                |            code{}: 0x199-0x19f.7 (7)
     |                                               |                |              locals{}: 0x199-0x199.7 (1)
0x190|                           00                  |         .      |                n: 0 0x199-0x199.7 (1)
     |                                               |                |                items[0:0]: 0x19a-NA (0)
     |                                               |                |              expr{}: 0x19a-0x19f.7 (6)
     |                                               |                |                instructions[0:3]: 0x19a-0x19f.7 (6)
     |                                               |                |                  [0]{}: instr 0x19a-0x19b.7 (2)
0x190|                              20               |                |                    local.get: 0x20 (valid) 0x19a-0x19a.7 (1)
0x190|                                 00            |           .    |                    x: 0 0x19b-0x19b.7 (1)
     |                                               |                |                  [1]{}: instr 0x19c-0x19e.7 (3)
0x190|                                    fd         |            .   |                    prefix: 0xfd (valid) 0x19c-0x19c.7 (1)
0x190|                                       aa 01   |             .. |                    i32x4.extend_high_i16x8_u: 170 (valid) 0x19d-0x19e.7 (2)
     |                                               |                |                  [2]{}: instr 0x19f-0x19f.7 (1)
0x190|                                             0b|               .|                    end: 0xb (valid) 0x19f-0x19f.7 (1)
     |                                               |                |          [6]{}: code 0x1a0-0x1a7.7 (8)
0x1a0|07                                             |.               |            size: 7 0x1a0-0x1a0.7 (1)
     |                                               |                |            code{}: 0x1a1-0x1a7.7 (7)
     |                                               |                |              locals{}: 0x1a1-0x1a1.7 (1)
0x1a0|   00                                          | .              |                n: 0 0x1a1-0x1a1.7 (1)
     |                                               |                |                items[0:0]: 0x1a2-NA (0)
     |                                               |                |              expr{}: 0x1a2-0x1a7.7 (6)
     |                                               |                |                instructions[0:3]: 0x1a2-0x1a7.7 (6)
     |                                               |                |                  [0]{}: instr 0x1a2-0x1a3.7 (2)
0x1a0|      20                                       |                |                    local.get: 0x20 (valid) 0x1a2-0x1a2.7 (1)
0x1a0|         00                                    |   .            |                    x: 0 0x1a3-0x1a3.7 (1)
     |                                               |                |                  [1]{}: instr 0x1a4-0x1a6.7 (3)
0x1a0|            fd                                 |    .           |                    prefix: 0xfd (valid) 0x1a4-0x1a4.7 (1)
0x1a0|               a7 01                           |     ..         |                    i32x4.extend_low_i16x8_s: 167 (valid) 0x1a5-0x1a6.7 (2)
     |                                               |                |                  [2]{}: instr 0x1a7-0x1a7.7 (1)
0x1a0|                     0b                        |       .        |                    end: 0xb (valid) 0x1a7-0x1a7.7 (1)
     |                                               |                |          [7]{}: code 0x1a8-0x1af.7 (8)
0x1a0|                        07                     |        .       |            size: 7 0x1a8-0x1a8.7 (1)
     |                                               |                |            code{}: 0x1a9-0x1af.7 (7)
     |                                               |                |              locals{}: 0x1a9-0x1a9.7 (1)
0x1a0|                           00                  |         .      |                n: 0 0x1a9-0x1a9.7 (1)
     |                                               |                |                items[0:0]: 0x1aa-NA (0)
     |                                               |                |              expr{}: 0x1aa-0x1af.7 (6)
     |                                               |                |                instructions[0:3]: 0x1aa-0x1af.7 (6)
     |                                               |                |                  [0]{}: instr 0x1aa-0x1ab.7 (2)
0x1a0|                              20               |                |                    local.get: 0x20 (valid) 0x1aa-0x1aa.7 (1)
0x1a0|                                 00            |           .    |                    x: 0 0x1ab-0x1ab.7 (1)
     |                                               |                |                  [1]{}: instr 0x1ac-0x1ae.7 (3)
0x1a0|                                    fd         |            .   |                    prefix: 0xfd (valid) 0x1ac-0x1ac.7 (1)
0x1a0|                                       a9 01   |             .. |                    i32x4.extend_low_i16x8_u: 169 (valid) 0x1ad-0x1ae.7 (2)
     |                                               |                |                  [2]{}: instr 0x1af-0x1af.7 (1)
0x1a0|                                             0b|               .|                    end: 0xb (valid) 0x1af-0x1af.7 (1)
     |                                               |                |          [8]{}: code 0x1b0-0x1b7.7 (8)
0x1b0|07                                             |.               |            size: 7 0x1b0-0x1b0.7 (1)
     |                                               |                |            code{}: 0x1b1-0x1b7.7 (7)
     |                                               |                |              locals{}: 0x1b1-0x1b1.7 (1)
0x1b0|   00                                          | .              |                n: 0 0x1b1-0x1b1.7 (1)
     |                                               |                |                items[0:0]: 0x1b2-NA (0)
     |                                               |                |              expr{}: 0x1b2-0x1b7.7 (6)
     |                                               |                |                instructions[0:3]: 0x1b2-0x1b7.7 (6)
     |                                               |                |                  [0]{}: instr 0x1b2-0x1b3.7 (2)
0x1b0|      20                                       |                |                    local.get: 0x20 (valid) 0x1b2-0x1b2.7 (1)
0x1b0|         00                                    |   .            |                    x: 0 0x1b3-0x1b3.7 (1)
     |                                               |                |                  [1]{}: instr 0x1b4-0x1b6.7 (3)
0x1b0|            fd                                 |    .           |                    prefix: 0xfd (valid) 0x1b4-0x1b4.7 (1)
0x1b0|               c8 01                           |     ..         |                    i64x2.extend_high_i32x4_s: 200 (valid) 0x1b5-0x1b6.7 (2)
     |                                               |                |                  [2]{}: instr 0x1b7-0x1b7.7 (1)
0x1b0|                     0b                        |       .        |                    end: 0xb (valid) 0x1b7-0x1b7.7 (1)
     |                                               |                |          [9]{}: code 0x1b8-0x1bf.7 (8)
0x1b0|                        07                     |        .       |            size: 7 0x1b8-0x1b8.7 (1)
     |                                               |                |            code{}: 0x1b9-0x1bf.7 (7)
     |                                               |                |              locals{}: 0x1b9-0x1b9.7 (1)
0x1b0|                           00                  |         .      |                n: 0 0x1b9-0x1b9.7 (1)
     |                                               |                |                items[0:0]: 0x1ba-NA (0)
     |                                               |                |              expr{}: 0x1ba-0x1bf.7 (6)
     |                                               |                |                instructions[0:3]: 0x1ba-0x1bf.7 (6)
     |                                               |                |                  [0]{}: instr 0x1ba-0x1bb.7 (2)
0x1b0|                              20               |                |                    local.get: 0x20 (valid) 0x1ba-0x1ba.7 (1)
0x1b0|                                 00            |           .    |                    x: 0 0x1bb-0x1bb.7 (1)
     |                                               |                |                  [1]{}: instr 0x1bc-0x1be.7 (3)
0x1b0|                                    fd         |            .   |                    prefix: 0xfd (valid) 0x1bc-0x1bc.7 (1)
0x1b0|                                       ca 01   |             .. |                    i64x2.extend_high_i32x4_u: 202 (valid) 0x1bd-0x1be.7 (2)
     |                                               |                |                  [2]{}: instr 0x1bf-0x1bf.7 (1)
0x1b0|                                             0b|               .|                    end: 0xb (valid) 0x1bf-0x1bf.7 (1)
     |                                               |                |          [10]{}: code 0x1c0-0x1c7.7 (8)
0x1c0|07                                             |.               |            size: 7 0x1c0-0x1c0.7 (1)
     |                                               |                |            code{}: 0x1c1-0x1c7.7 (7)
     |                                               |                |              locals{}: 0x1c1-0x1c1.7 (1)
0x1c0|   00                                          | .              |                n: 0 0x1c1-0x1c1.7 (1)
     |                                               |                |                items[0:0]: 0x1c2-NA (0)
     |                                               |                |              expr{}: 0x1c2-0x1c7.7 (6)
     |                                               |                |                instructions[0:3]: 0x1c2-0x1c7.7 (6)
     |                                               |                |                  [0]{}: instr 0x1c2-0x1c3.7 (2)
0x1c0|      20                                       |                |                    local.get: 0x20 (valid) 0x1c2-0x1c2.7 (1)
0x1c0|         00                                    |   .            |                    x: 0 0x1c3-0x1c3.7 (1)
     |                                               |                |                  [1]{}: instr 0x1c4-0x1c6.7 (3)
0x1c0|            fd                                 |    .           |                    prefix: 0xfd (valid) 0x1c4-0x1c4.7 (1)
0x1c0|               c7 01                           |     ..         |                    i64x2.extend_low_i32x4_s: 199 (valid) 0x1c5-0x1c6.7 (2)
     |                                               |                |                  [2]{}: instr 0x1c7-0x1c7.7 (1)
0x1c0|                     0b                        |       .        |                    end: 0xb (valid) 0x1c7-0x1c7.7 (1)
     |                                               |                |          [11]{}: code 0x1c8-0x1cf.7 (8)
0x1c0|                        07                     |        .       |            size: 7 0x1c8-0x1c8.7 (1)
     |                                               |                |            code{}: 0x1c9-0x1cf.7 (7)
     |                                               |                |              locals{}: 0x1c9-0x1c9.7 (1)
0x1c0|                           00                  |         .      |                n: 0 0x1c9-0x1c9.7 (1)
     |                                               |                |                items[0:0]: 0x1ca-NA (0)
     |                                               |                |              expr{}: 0x1ca-0x1cf.7 (6)
     |                                               |                |                instructions[0:3]: 0x1ca-0x1cf.7 (6)
     |                                               |                |                  [0]{}: instr 0x1ca-0x1cb.7 (2)
0x1c0|                              20               |                |                    local.get: 0x20 (valid) 0x1ca-0x1ca.7 (1)
0x1c0|                                 00            |           .    |                    x: 0 0x1cb-0x1cb.7 (1)
     |                                               |                |                  [1]{}: instr 0x1cc-0x1ce.7 (3)
0x1c0|                                    fd         |            .   |                    prefix: 0xfd (valid) 0x1cc-0x1cc.7 (1)
0x1c0|                                       c9 01   |             .. |                    i64x2.extend_low_i32x4_u: 201 (valid) 0x1cd-0x1ce.7 (2)
     |                                               |                |                  [2]{}: instr 0x1cf-0x1cf.7 (1)
0x1c0|                                             0b|               .|                    end: 0xb (valid) 0x1cf-0x1cf.7 (1)
