$ fq -d wasm dv simd_f64x2_arith-2.wasm
     |00 01 02 03 04 05 06 07 08 09 0a 0b 0c 0d 0e 0f|0123456789abcdef|.{}: simd_f64x2_arith-2.wasm (wasm) 0x0-0x1b6.7 (439)
0x000|00 61 73 6d                                    |.asm            |  magic: raw bits (valid) 0x0-0x3.7 (4)
0x000|            01 00 00 00                        |    ....        |  version: 1 0x4-0x7.7 (4)
     |                                               |                |  sections[0:4]: 0x8-0x1b6.7 (431)
     |                                               |                |    [0]{}: section 0x8-0x17.7 (16)
0x000|                        01                     |        .       |      id: "type section" (1) 0x8-0x8.7 (1)
0x000|                           0e                  |         .      |      size: 14 0x9-0x9.7 (1)
     |                                               |                |      content{}: 0xa-0x17.7 (14)
0x000|                              02               |          .     |        n: 2 0xa-0xa.7 (1)
     |                                               |                |        items[0:2]: 0xb-0x17.7 (13)
     |                                               |                |          [0]{}: functype 0xb-0x11.7 (7)
0x000|                                 60            |           `    |            tag: 0x60 (valid) 0xb-0xb.7 (1)
     |                                               |                |            rt1{}: 0xc-0xf.7 (4)
0x000|                                    03         |            .   |              n: 3 0xc-0xc.7 (1)
     |                                               |                |              items[0:3]: 0xd-0xf.7 (3)
0x000|                                       7b      |             {  |                [0]: "v128" (123) valtype 0xd-0xd.7 (1)
0x000|                                          7b   |              { |                [1]: "v128" (123) valtype 0xe-0xe.7 (1)
0x000|                                             7b|               {|                [2]: "v128" (123) valtype 0xf-0xf.7 (1)
     |                                               |                |            rt2{}: 0x10-0x11.7 (2)
0x010|01                                             |.               |              n: 1 0x10-0x10.7 (1)
     |                                               |                |              items[0:1]: 0x11-0x11.7 (1)
0x010|   7b                                          | {              |                [0]: "v128" (123) valtype 0x11-0x11.7 (1)
     |                                               |                |          [1]{}: functype 0x12-0x17.7 (6)
0x010|      60                                       |  `             |            tag: 0x60 (valid) 0x12-0x12.7 (1)
     |                                               |                |            rt1{}: 0x13-0x15.7 (3)
0x010|         02                                    |   .            |              n: 2 0x13-0x13.7 (1)
     |                                               |                |              items[0:2]: 0x14-0x15.7 (2)
0x010|            7b                                 |    {           |                [0]: "v128" (123) valtype 0x14-0x14.7 (1)
0x010|               7b                              |     {          |                [1]: "v128" (123) valtype 0x15-0x15.7 (1)
     |                                               |                |            rt2{}: 0x16-0x17.7 (2)
0x010|                  01                           |      .         |              n: 1 0x16-0x16.7 (1)
     |                                               |                |              items[0:1]: 0x17-0x17.7 (1)
0x010|                     7b                        |       {        |                [0]: "v128" (123) valtype 0x17-0x17.7 (1)
     |                                               |                |    [1]{}: section 0x18-0x2a.7 (19)
0x010|                        03                     |        .       |      id: "function section" (3) 0x18-0x18.7 (1)
0x010|                           11                  |         .      |      size: 17 0x19-0x19.7 (1)
     |                                               |                |      content{}: 0x1a-0x2a.7 (17)
0x010|                              10               |          .     |        n: 16 0x1a-0x1a.7 (1)
     |                                               |                |        items[0:16]: 0x1b-0x2a.7 (16)
0x010|                                 00            |           .    |          [0]: 0 x 0x1b-0x1b.7 (1)
0x010|                                    00         |            .   |          [1]: 0 x 0x1c-0x1c.7 (1)
0x010|                                       00      |             .  |          [2]: 0 x 0x1d-0x1d.7 (1)
0x010|                                          00   |              . |          [3]: 0 x 0x1e-0x1e.7 (1)
0x010|                                             00|               .|          [4]: 0 x 0x1f-0x1f.7 (1)
0x020|00                                             |.               |          [5]: 0 x 0x20-0x20.7 (1)
0x020|   00                                          | .              |          [6]: 0 x 0x21-0x21.7 (1)
0x020|      00                                       |  .             |          [7]: 0 x 0x22-0x22.7 (1)
0x020|         01                                    |   .            |          [8]: 1 x 0x23-0x23.7 (1)
0x020|            01                                 |    .           |          [9]: 1 x 0x24-0x24.7 (1)
0x020|               01                              |     .          |          [10]: 1 x 0x25-0x25.7 (1)
0x020|                  01                           |      .         |          [11]: 1 x 0x26-0x26.7 (1)
0x020|                     01                        |       .        |          [12]: 1 x 0x27-0x27.7 (1)
0x020|                        01                     |        .       |          [13]: 1 x 0x28-0x28.7 (1)
0x020|                           01                  |         .      |          [14]: 1 x 0x29-0x29.7 (1)
0x020|                              01               |          .     |          [15]: 1 x 0x2a-0x2a.7 (1)
     |                                               |                |    [2]{}: section 0x2b-0xd2.7 (168)
0x020|                                 07            |           .    |      id: "export section" (7) 0x2b-0x2b.7 (1)
0x020|                                    a5 01      |            ..  |      size: 165 0x2c-0x2d.7 (2)
     |                                               |                |      content{}: 0x2e-0xd2.7 (165)
0x020|                                          10   |              . |        n: 16 0x2e-0x2e.7 (1)
     |                                               |                |        items[0:16]: 0x2f-0xd2.7 (164)
     |                                               |                |          [0]{}: export 0x2f-0x38.7 (10)
     |                                               |                |            name{}: 0x2f-0x36.7 (8)
0x020|                                             07|               .|              len: 7 0x2f-0x2f.7 (1)
0x030|61 64 64 2d 73 75 62                           |add-sub         |              utf8bytes: "add-sub" 0x30-0x36.7 (7)
     |                                               |                |            expr{}: 0x37-0x38.7 (2)
0x030|                     00                        |       .        |              tag: "funcidx" (0x0) 0x37-0x37.7 (1)
0x030|                        00                     |        .       |              x: 0 0x38-0x38.7 (1)
     |                                               |                |          [1]{}: export 0x39-0x42.7 (10)
     |                                               |                |            name{}: 0x39-0x40.7 (8)
0x030|                           07                  |         .      |              len: 7 0x39-0x39.7 (1)
0x030|                              64 69 76 2d 61 64|          div-ad|              utf8bytes: "div-add" 0x3a-0x40.7 (7)
0x040|64                                             |d               |
     |                                               |                |            expr{}: 0x41-0x42.7 (2)
0x040|   00                                          | .              |              tag: "funcidx" (0x0) 0x41-0x41.7 (1)
0x040|      01                                       |  .             |              x: 1 0x42-0x42.7 (1)
     |                                               |                |          [2]{}: export 0x43-0x4c.7 (10)
     |                                               |                |            name{}: 0x43-0x4a.7 (8)
0x040|         07                                    |   .            |              len: 7 0x43-0x43.7 (1)
0x040|            64 69 76 2d 6d 75 6c               |    div-mul     |              utf8bytes: "div-mul" 0x44-0x4a.7 (7)
     |                                               |                |            expr{}: 0x4b-0x4c.7 (2)
0x040|                                 00            |           .    |              tag: "funcidx" (0x0) 0x4b-0x4b.7 (1)
0x040|                                    02         |            .   |              x: 2 0x4c-0x4c.7 (1)
     |                                               |                |          [3]{}: export 0x4d-0x56.7 (10)
     |                                               |                |            name{}: 0x4d-0x54.7 (8)
0x040|                                       07      |             .  |              len: 7 0x4d-0x4d.7 (1)
0x040|                                          64 69|              di|              utf8bytes: "div-sub" 0x4e-0x54.7 (7)
0x050|76 2d 73 75 62                                 |v-sub           |
     |                                               |                |            expr{}: 0x55-0x56.7 (2)
0x050|               00                              |     .          |              tag: "funcidx" (0x0) 0x55-0x55.7 (1)
0x050|                  03                           |      .         |              x: 3 0x56-0x56.7 (1)
     |                                               |                |          [4]{}: export 0x57-0x60.7 (10)
     |                                               |                |            name{}: 0x57-0x5e.7 (8)
0x050|                     07                        |       .        |              len: 7 0x57-0x57.7 (1)
0x050|                        6d 75 6c 2d 61 64 64   |        mul-add |              utf8bytes: "mul-add" 0x58-0x5e.7 (7)
     |                                               |                |            expr{}: 0x5f-0x60.7 (2)
0x050|                                             00|               .|              tag: "funcidx" (0x0) 0x5f-0x5f.7 (1)
0x060|04                                             |.               |              x: 4 0x60-0x60.7 (1)
     |                                               |                |          [5]{}: export 0x61-0x6a.7 (10)
     |                                               |                |            name{}: 0x61-0x68.7 (8)
0x060|   07                                          | .              |              len: 7 0x61-0x61.7 (1)
0x060|      6d 75 6c 2d 64 69 76                     |  mul-div       |              utf8bytes: "mul-div" 0x62-0x68.7 (7)
     |                                               |                |            expr{}: 0x69-0x6a.7 (2)
0x060|                           00                  |         .      |              tag: "funcidx" (0x0) 0x69-0x69.7 (1)
0x060|                              05               |          .     |              x: 5 0x6a-0x6a.7 (1)
     |                                               |                |          [6]{}: export 0x6b-0x74.7 (10)
     |                                               |                |            name{}: 0x6b-0x72.7 (8)
0x060|                                 07            |           .    |              len: 7 0x6b-0x6b.7 (1)
0x060|                                    6d 75 6c 2d|            mul-|              utf8bytes: "mul-sub" 0x6c-0x72.7 (7)
0x070|73 75 62                                       |sub             |
     |                                               |                |            expr{}: 0x73-0x74.7 (2)
0x070|         00                                    |   .            |              tag: "funcidx" (0x0) 0x73-0x73.7 (1)
0x070|            06                                 |    .           |              x: 6 0x74-0x74.7 (1)
     |                                               |                |          [7]{}: export 0x75-0x7e.7 (10)
     |                                               |                |            name{}: 0x75-0x7c.7 (8)
0x070|               07                              |     .          |              len: 7 0x75-0x75.7 (1)
0x070|                  73 75 62 2d 61 64 64         |      sub-add   |              utf8bytes: "sub-add" 0x76-0x7c.7 (7)
     |                                               |                |            expr{}: 0x7d-0x7e.7 (2)
0x070|                                       00      |             .  |              tag: "funcidx" (0x0) 0x7d-0x7d.7 (1)
0x070|                                          07   |              . |              x: 7 0x7e-0x7e.7 (1)
     |                                               |                |          [8]{}: export 0x7f-0x88.7 (10)
     |                                               |                |            name{}: 0x7f-0x86.7 (8)
0x070|                                             07|               .|              len: 7 0x7f-0x7f.7 (1)
0x080|61 64 64 2d 6e 65 67                           |add-neg         |              utf8bytes: "add-neg" 0x80-0x86.7 (7)
     |                                               |                |            expr{}: 0x87-0x88.7 (2)
0x080|                     00                        |       .        |              tag: "funcidx" (0x0) 0x87-0x87.7 (1)
0x080|                        08                     |        .       |              x: 8 0x88-0x88.7 (1)
     |                                               |                |          [9]{}: export 0x89-0x93.7 (11)
     |                                               |                |            name{}: 0x89-0x91.7 (9)
0x080|                           08                  |         .      |              len: 8 0x89-0x89.7 (1)
0x080|                              61 64 64 2d 73 71|          add-sq|              utf8bytes: "add-sqrt" 0x8a-0x91.7 (8)
0x090|72 74                                          |rt              |
     |                                               |                |            expr{}: 0x92-0x93.7 (2)
0x090|      00                                       |  .             |              tag: "funcidx" (0x0) 0x92-0x92.7 (1)
0x090|         09                                    |   .            |              x: 9 0x93-0x93.7 (1)
     |                                               |                |          [10]{}: export 0x94-0x9d.7 (10)
     |                                               |                |            name{}: 0x94-0x9b.7 (8)
0x090|            07                                 |    .           |              len: 7 0x94-0x94.7 (1)
0x090|               64 69 76 2d 6e 65 67            |     div-neg    |              utf8bytes: "div-neg" 0x95-0x9b.7 (7)
     |                                               |                |            expr{}: 0x9c-0x9d.7 (2)
0x090|                                    00         |            .   |              tag: "funcidx" (0x0) 0x9c-0x9c.7 (1)
0x090|                                       0a      |             .  |              x: 10 0x9d-0x9d.7 (1)
     |                                               |                |          [11]{}: export 0x9e-0xa8.7 (11)
     |                                               |                |            name{}: 0x9e-0xa6.7 (9)
0x090|                                          08   |              . |              len: 8 0x9e-0x9e.7 (1)
0x090|                                             64|               d|              utf8bytes: "div-sqrt" 0x9f-0xa6.7 (8)
0x0a0|69 76 2d 73 71 72 74                           |iv-sqrt         |
     |                                               |                |            expr{}: 0xa7-0xa8.7 (2)
0x0a0|                     00                        |       .        |              tag: "funcidx" (0x0) 0xa7-0xa7.7 (1)
0x0a0|                        0b                     |        .       |              x: 11 0xa8-0xa8.7 (1)
     |                                               |                |          [12]{}: export 0xa9-0xb2.7 (10)
     |                                               |                |            name{}: 0xa9-0xb0.7 (8)
0x0a0|                           07                  |         .      |              len: 7 0xa9-0xa9.7 (1)
0x0a0|                              6d 75 6c 2d 6e 65|          mul-ne|              utf8bytes: "mul-neg" 0xaa-0xb0.7 (7)
0x0b0|67                                             |g               |
     |                                               |                |            expr{}: 0xb1-0xb2.7 (2)
0x0b0|   00                                          | .              |              tag: "funcidx" (0x0) 0xb1-0xb1.7 (1)
0x0b0|      0c                                       |  .             |              x: 12 0xb2-0xb2.7 (1)
     |                                               |                |          [13]{}: export 0xb3-0xbd.7 (11)
     |                                               |                |            name{}: 0xb3-0xbb.7 (9)
0x0b0|         08                                    |   .            |              len: 8 0xb3-0xb3.7 (1)
0x0b0|            6d 75 6c 2d 73 71 72 74            |    mul-sqrt    |              utf8bytes: "mul-sqrt" 0xb4-0xbb.7 (8)
     |                                               |                |            expr{}: 0xbc-0xbd.7 (2)
0x0b0|                                    00         |            .   |              tag: "funcidx" (0x0) 0xbc-0xbc.7 (1)
0x0b0|                                       0d      |             .  |              x: 13 0xbd-0xbd.7 (1)
     |                                               |                |          [14]{}: export 0xbe-0xc7.7 (10)
     |                                               |                |            name{}: 0xbe-0xc5.7 (8)
0x0b0|                                          07   |              . |              len: 7 0xbe-0xbe.7 (1)
0x0b0|                                             73|               s|              utf8bytes: "sub-neg" 0xbf-0xc5.7 (7)
0x0c0|75 62 2d 6e 65 67                              |ub-neg          |
     |                                               |                |            expr{}: 0xc6-0xc7.7 (2)
0x0c0|                  00                           |      .         |              tag: "funcidx" (0x0) 0xc6-0xc6.7 (1)
0x0c0|                     0e                        |       .        |              x: 14 0xc7-0xc7.7 (1)
     |                                               |                |          [15]{}: export 0xc8-0xd2.7 (11)
     |                                               |                |            name{}: 0xc8-0xd0.7 (9)
0x0c0|                        08                     |        .       |              len: 8 0xc8-0xc8.7 (1)
0x0c0|                           73 75 62 2d 73 71 72|         sub-sqr|              utf8bytes: "sub-sqrt" 0xc9-0xd0.7 (8)
0x0d0|74                                             |t               |
     |                                               |                |            expr{}: 0xd1-0xd2.7 (2)
0x0d0|   00                                          | .              |              tag: "funcidx" (0x0) 0xd1-0xd1.7 (1)
0x0d0|      0f                                       |  .             |              x: 15 0xd2-0xd2.7 (1)
     |                                               |                |    [3]{}: section 0xd3-0x1b6.7 (228)
0x0d0|         0a                                    |   .            |      id: "code section" (10) 0xd3-0xd3.7 (1)
0x0d0|            e1 01                              |    ..          |      size: 225 0xd4-0xd5.7 (2)
     |                                               |                |      content{}: 0xd6-0x1b6.7 (225)
0x0d0|                  10                           |      .         |        n: 16 0xd6-0xd6.7 (1)
     |                                               |                |        items[0:16]: 0xd7-0x1b6.7 (224)
     |                                               |                |          [0]{}: code 0xd7-0xe5.7 (15)
0x0d0|                     0e                        |       .        |            size: 14 0xd7-0xd7.7 (1)
     |                                               |                |            code{}: 0xd8-0xe5.7 (14)
     |                                               |                |              locals{}: 0xd8-0xd8.7 (1)
0x0d0|                        00                     |        .       |                n: 0 0xd8-0xd8.7 (1)
     |                                               |                |                items[0:0]: 0xd9-NA (0)
     |                                               |                |              expr{}: 0xd9-0xe5.7 (13)
     |                                               |                |                instructions[0:6]: 0xd9-0xe5.7 (13)
     |                                               |                |                  [0]{}: instr 0xd9-0xda.7 (2)
0x0d0|                           20                  |                |                    local.get: 0x20 (valid) 0xd9-0xd9.7 (1)
0x0d0|                              00               |          .     |                    x: 0 0xda-0xda.7 (1)
     |                                               |                |                  [1]{}: instr 0xdb-0xdc.7 (2)
0x0d0|                                 20            |                |                    local.get: 0x20 (valid) 0xdb-0xdb.7 (1)
0x0d0|                                    01         |            .   |                    x: 1 0xdc-0xdc.7 (1)
     |                                               |                |                  [2]{}: instr 0xdd-0xdf.7 (3)
0x0d0|                                       fd      |             .  |                    prefix: 0xfd (valid) 0xdd-0xdd.7 (1)
0x0d0|                                          f1 01|              ..|                    f64x2.sub: 241 (valid) 0xde-0xdf.7 (2)
     |                                               |                |                  [3]{}: instr 0xe0-0xe1.7 (2)
0x0e0|20                                             |                |                    local.get: 0x20 (valid) 0xe0-0xe0.7 (1)
0x0e0|   02                                          | .              |                    x: 2 0xe1-0xe1.7 (1)
     |                                               |                |                  [4]{}: instr 0xe2-0xe4.7 (3)
0x0e0|      fd                                       |  .             |                    prefix: 0xfd (valid) 0xe2-0xe2.7 (1)
0x0e0|         f0 01                                 |   ..           |                    f64x2.add: 240 (valid) 0xe3-0xe4.7 (2)
     |                                               |                |                  [5]{}: instr 0xe5-0xe5.7 (1)
0x0e0|               0b                              |     .          |                    end: 0xb (valid) 0xe5-0xe5.7 (1)
     |                                               |                |          [1]{}: code 0xe6-0xf4.7 (15)
0x0e0|                  0e                           |      .         |            size: 14 0xe6-0xe6.7 (1)
     |                                               |                |            code{}: 0xe7-0xf4.7 (14)
     |                                               |                |              locals{}: 0xe7-0xe7.7 (1)
0x0e0|                     00                        |       .        |                n: 0 0xe7-0xe7.7 (1)
     |                                               |                |                items[0:0]: 0xe8-NA (0)
     |                                               |                |              expr{}: 0xe8-0xf4.7 (13)
     |                                               |                |                instructions[0:6]: 0xe8-0xf4.7 (13)
     |                                               |                |                  [0]{}: instr 0xe8-0xe9.7 (2)
0x0e0|                        20                     |                |                    local.get: 0x20 (valid) 0xe8-0xe8.7 (1)
0x0e0|                           00                  |         .      |                    x: 0 0xe9-0xe9.7 (1)
     |                                               |                |                  [1]{}: instr 0xea-0xeb.7 (2)
0x0e0|                              20               |                |                    local.get: 0x20 (valid) 0xea-0xea.7 (1)
0x0e0|                                 01            |           .    |                    x: 1 0xeb-0xeb.7 (1)
     |                                               |                |                  [2]{}: instr 0xec-0xee.7 (3)
0x0e0|                                    fd         |            .   |                    prefix: 0xfd (valid) 0xec-0xec.7 (1)
0x0e0|                                       f0 01   |             .. |                    f64x2.add: 240 (valid) 0xed-0xee.7 (2)
     |                                               |                |                  [3]{}: instr 0xef-0xf0.7 (2)
0x0e0|                                             20|                |                    local.get: 0x20 (valid) 0xef-0xef.7 (1)
0x0f0|02                                             |.               |                    x: 2 0xf0-0xf0.7 (1)
     |                                               |                |                  [4]{}: instr 0xf1-0xf3.7 (3)
0x0f0|   fd                                          | .              |                    prefix: 0xfd (valid) 0xf1-0xf1.7 (1)
0x0f0|      f3 01                                    |  ..            |                    f64x2.div: 243 (valid) 0xf2-0xf3.7 (2)
     |                                               |                |                  [5]{}: instr 0xf4-0xf4.7 (1)
0x0f0|            0b                                 |    .           |                    end: 0xb (valid) 0xf4-0xf4.7 (1)
     |                                               |                |          [2]{}: code 0xf5-0x103.7 (15)
0x0f0|               0e                              |     .          |            size: 14 0xf5-0xf5.7 (1)
     |                                               |                |            code{}: 0xf6-0x103.7 (14)
     |                                               |                |              locals{}: 0xf6-0xf6.7 (1)
0x0f0|                  00                           |      .         |                n: 0 0xf6-0xf6.7 (1)
     |                                               |                |                items[0:0]: 0xf7-NA (0)
     |                                               |                |              expr{}: 0xf7-0x103.7 (13)
     |                                               |                |                instructions[0:6]: 0xf7-0x103.7 (13)
     |                                               |                |                  [0]{}: instr 0xf7-0xf8.7 (2)
0x0f0|                     20                        |                |                    local.get: 0x20 (valid) 0xf7-0xf7.7 (1)
0x0f0|                        00                     |        .       |                    x: 0 0xf8-0xf8.7 (1)
     |                                               |                |                  [1]{}: instr 0xf9-0xfa.7 (2)
0x0f0|                           20                  |                |                    local.get: 0x20 (valid) 0xf9-0xf9.7 (1)
0x0f0|                              01               |          .     |                    x: 1 0xfa-0xfa.7 (1)
     |                                               |                |                  [2]{}: instr 0xfb-0xfd.7 (3)
0x0f0|                                 fd            |           .    |                    prefix: 0xfd (valid) 0xfb-0xfb.7 (1)
0x0f0|                                    f2 01      |            ..  |                    f64x2.mul: 242 (valid) 0xfc-0xfd.7 (2)
     |                                               |                |                  [3]{}: instr 0xfe-0xff.7 (2)
0x0f0|                                          20   |                |                    local.get: 0x20 (valid) 0xfe-0xfe.7 (1)
0x0f0|                                             02|               .|                    x: 2 0xff-0xff.7 (1)
     |                                               |                |                  [4]{}: instr 0x100-0x102.7 (3)
0x100|fd                                             |.               |                    prefix: 0xfd (valid) 0x100-0x100.7 (1)
0x100|   f3 01                                       | ..             |                    f64x2.div: 243 (valid) 0x101-0x102.7 (2)
     |                                               |                |                  [5]{}: instr 0x103-0x103.7 (1)
0x100|         0b                                    |   .            |                    end: 0xb (valid) 0x103-0x103.7 (1)
     |                                               |                |          [3]{}: code 0x104-0x112.7 (15)
0x100|            0e                                 |    .           |            size: 14 0x104-0x104.7 (1)
     |                                               |                |            code{}: 0x105-0x112.7 (14)
     |                                               |                |              locals{}: 0x105-0x105.7 (1)
0x100|               00                              |     .          |                n: 0 0x105-0x105.7 (1)
     |                                               |                |                items[0:0]: 0x106-NA (0)
     |                                               |                |              expr{}: 0x106-0x112.7 (13)
     |                                               |                |                instructions[0:6]: 0x106-0x112.7 (13)
     |                                               |                |                  [0]{}: instr 0x106-0x107.7 (2)
0x100|                  20                           |                |                    local.get: 0x20 (valid) 0x106-0x106.7 (1)
0x100|                     00                        |       .        |                    x: 0 0x107-0x107.7 (1)
     |                                               |                |                  [1]{}: instr 0x108-0x109.7 (2)
0x100|                        20                     |                |                    local.get: 0x20 (valid) 0x108-0x108.7 (1)
0x100|                           01                  |         .      |                    x: 1 0x109-0x109.7 (1)
     |                                               |                |                  [2]{}: instr 0x10a-0x10c.7 (3)
0x100|                              fd               |          .     |                    prefix: 0xfd (valid) 0x10a-0x10a.7 (1)
0x100|                                 f1 01         |           ..   |                    f64x2.sub: 241 (valid) 0x10b-0x10c.7 (2)
     |                                               |                |                  [3]{}: instr 0x10d-0x10e.7 (2)
0x100|                                       20      |                |                    local.get: 0x20 (valid) 0x10d-0x10d.7 (1)
0x100|                                          02   |              . |                    x: 2 0x10e-0x10e.7 (1)
     |                                               |                |                  [4]{}: instr 0x10f-0x111.7 (3)
0x100|                                             fd|               .|                    prefix: 0xfd (valid) 0x10f-0x10f.7 (1)
0x110|f3 01                                          |..              |                    f64x2.div: 243 (valid) 0x110-0x111.7 (2)
     |                                               |                |                  [5]{}: instr 0x112-0x112.7 (1)
0x110|      0b                                       |  .             |                    end: 0xb (valid) 0x112-0x112.7 (1)
     |                                               |                |          [4]{}: code 0x113-0x121.7 (15)
0x110|         0e                                    |   .            |            size: 14 0x113-0x113.7 (1)
     |                                               |                |            code{}: 0x114-0x121.7 (14)
     |                                               |                |              locals{}: 0x114-0x114.7 (1)
0x110|            00                                 |    .           |                n: 0 0x114-0x114.7 (1)
     |                                               |                |                items[0:0]: 0x115-NA (0)
     |                                               |                |              expr{}: 0x115-0x121.7 (13)
     |                                               |                |                instructions[0:6]: 0x115-0x121.7 (13)
     |                                               |                |                  [0]{}: instr 0x115-0x116.7 (2)
0x110|               20                              |                |                    local.get: 0x20 (valid) 0x115-0x115.7 (1)
0x110|                  00                           |      .         |                    x: 0 0x116-0x116.7 (1)
     |                                               |                |                  [1]{}: instr 0x117-0x118.7 (2)
0x110|                     20                        |                |                    local.get: 0x20 (valid) 0x117-0x117.7 (1)
0x110|                        01                     |        .       |                    x: 1 0x118-0x118.7 (1)
     |                                               |                |                  [2]{}: instr 0x119-0x11b.7 (3)
0x110|                           fd                  |         .      |                    prefix: 0xfd (valid) 0x119-0x119.7 (1)
0x110|                              f0 01            |          ..    |                    f64x2.add: 240 (valid) 0x11a-0x11b.7 (2)
     |                                               |                |                  [3]{}: instr 0x11c-0x11d.7 (2)
0x110|                                    20         |                |                    local.get: 0x20 (valid) 0x11c-0x11c.7 (1)
0x110|                                       02      |             .  |                    x: 2 0x11d-0x11d.7 (1)
     |                                               |                |                  [4]{}: instr 0x11e-0x120.7 (3)
0x110|                                          fd   |              . |                    prefix: 0xfd (valid) 0x11e-0x11e.7 (1)
0x110|                                             f2|               .|                    f64x2.mul: 242 (valid) 0x11f-0x120.7 (2)
0x120|01                                             |.               |
     |                                               |                |                  [5]{}: instr 0x121-0x121.7 (1)
0x120|   0b                                          | .              |                    end: 0xb (valid) 0x121-0x121.7 (1)
     |                                               |                |          [5]{}: code 0x122-0x130.7 (15)
0x120|      0e                                       |  .             |            size: 14 0x122-0x122.7 (1)
     |                                               |                |            code{}: 0x123-0x130.7 (14)
     |                                               |                |              locals{}: 0x123-0x123.7 (1)
0x120|         00                                    |   .            |                n: 0 0x123-0x123.7 (1)
     |                                               |                |                items[0:0]: 0x124-NA (0)
     |                                               |                |              expr{}: 0x124-0x130.7 (13)
     |                                               |                |                instructions[0:6]: 0x124-0x130.7 (13)
     |                                               |                |                  [0]{}: instr 0x124-0x125.7 (2)
0x120|            20                                 |                |                    local.get: 0x20 (valid) 0x124-0x124.7 (1)
0x120|               00                              |     .          |                    x: 0 0x125-0x125.7 (1)
     |                                               |                |                  [1]{}: instr 0x126-0x127.7 (2)
0x120|                  20                           |                |                    local.get: 0x20 (valid) 0x126-0x126.7 (1)
0x120|                     01                        |       .        |                    x: 1 0x127-0x127.7 (1)
     |                                               |                |                  [2]{}: instr 0x128-0x12a.7 (3)
0x120|                        fd                     |        .       |                    prefix: 0xfd (valid) 0x128-0x128.7 (1)
0x120|                           f3 01               |         ..     |                    f64x2.div: 243 (valid) 0x129-0x12a.7 (2)
     |                                               |                |                  [3]{}: instr 0x12b-0x12c.7 (2)
0x120|                                 20            |                |                    local.get: 0x20 (valid) 0x12b-0x12b.7 (1)
0x120|                                    02         |            .   |                    x: 2 0x12c-0x12c.7 (1)
     |                                               |                |                  [4]{}: instr 0x12d-0x12f.7 (3)
0x120|                                       fd      |             .  |                    prefix: 0xfd (valid) 0x12d-0x12d.7 (1)
0x120|                                          f2 01|              ..|                    f64x2.mul: 242 (valid) 0x12e-0x12f.7 (2)
     |                                               |                |                  [5]{}: instr 0x130-0x130.7 (1)
0x130|0b                                             |.               |                    end: 0xb (valid) 0x130-0x130.7 (1)
     |                                               |                |          [6]{}: code 0x131-0x13f.7 (15)
0x130|   0e                                          | .              |            size: 14 0x131-0x131.7 (1)
     |                                               |                |            code{}: 0x132-0x13f.7 (14)
     |                                               |                |              locals{}: 0x132-0x132.7 (1)
0x130|      00                                       |  .             |                n: 0 0x132-0x132.7 (1)
     |                                               |                |                items[0:0]: 0x133-NA (0)
     |                                               |                |              expr{}: 0x133-0x13f.7 (13)
     |                                               |                |                instructions[0:6]: 0x133-0x13f.7 (13)
     |                                               |                |                  [0]{}: instr 0x133-0x134.7 (2)
0x130|         20                                    |                |                    local.get: 0x20 (valid) 0x133-0x133.7 (1)
0x130|            00                                 |    .           |                    x: 0 0x134-0x134.7 (1)
     |                                               |                |                  [1]{}: instr 0x135-0x136.7 (2)
0x130|               20                              |                |                    local.get: 0x20 (valid) 0x135-0x135.7 (1)
0x130|                  01                           |      .         |                    x: 1 0x136-0x136.7 (1)
     |                                               |                |                  [2]{}: instr 0x137-0x139.7 (3)
0x130|                     fd                        |       .        |                    prefix: 0xfd (valid) 0x137-0x137.7 (1)
0x130|                        f1 01                  |        ..      |                    f64x2.sub: 241 (valid) 0x138-0x139.7 (2)
     |                                               |                |                  [3]{}: instr 0x13a-0x13b.7 (2)
0x130|                              20               |                |                    local.get: 0x20 (valid) 0x13a-0x13a.7 (1)
0x130|                                 02            |           .    |                    x: 2 0x13b-0x13b.7 (1)
     |                                               |                |                  [4]{}: instr 0x13c-0x13e.7 (3)
0x130|                                    fd         |            .   |                    prefix: 0xfd (valid) 0x13c-0x13c.7 (1)
0x130|                                       f2 01   |             .. |                    f64x2.mul: 242 (valid) 0x13d-0x13e.7 (2)
     |                                               |                |                  [5]{}: instr 0x13f-0x13f.7 (1)
0x130|                                             0b|               .|                    end: 0xb (valid) 0x13f-0x13f.7 (1)
     |                                               |                |          [7]{}: code 0x140-0x14e.7 (15)
0x140|0e                                             |.               |            size: 14 0x140-0x140.7 (1)
     |                                               |                |            code{}: 0x141-0x14e.7 (14)
     |                                               |                |              locals{}: 0x141-0x141.7 (1)
0x140|   00                                          | .              |                n: 0 0x141-0x141.7 (1)
     |                                               |                |                items[0:0]: 0x142-NA (0)
     |                                               |                |              expr{}: 0x142-0x14e.7 (13)
     |                                               |                |                instructions[0:6]: 0x142-0x14e.7 (13)
     |                                               |                |                  [0]{}: instr 0x142-0x143.7 (2)
0x140|      20                                       |                |                    local.get: 0x20 (valid) 0x142-0x142.7 (1)
0x140|         00                                    |   .            |                    x: 0 0x143-0x143.7 (1)
     |                                               |                |                  [1]{}: instr 0x144-0x145.7 (2)
0x140|            20                                 |                |                    local.get: 0x20 (valid) 0x144-0x144.7 (1)
0x140|               01                              |     .          |                    x: 1 0x145-0x145.7 (1)
     |                                               |                |                  [2]{}: instr 0x146-0x148.7 (3)
0x140|                  fd                           |      .         |                    prefix: 0xfd (valid) 0x146-0x146.7 (1)
0x140|                     f0 01                     |       ..       |                    f64x2.add: 240 (valid) 0x147-0x148.7 (2)
     |                                               |                |                  [3]{}: instr 0x149-0x14a.7 (2)
0x140|                           20                  |                |                    local.get: 0x20 (valid) 0x149-0x149.7 (1)
0x140|                              02               |          .     |                    x: 2 0x14a-0x14a.7 (1)
     |                                               |                |                  [4]{}: instr 0x14b-0x14d.7 (3)
0x140|                                 fd            |           .    |                    prefix: 0xfd (valid) 0x14b-0x14b.7 (1)
0x140|                                    f1 01      |            ..  |                    f64x2.sub: 241 (valid) 0x14c-0x14d.7 (2)
     |                                               |                |                  [5]{}: instr 0x14e-0x14e.7 (1)
0x140|                                          0b   |              . |                    end: 0xb (valid) 0x14e-0x14e.7 (1)
     |                                               |                |          [8]{}: code 0x14f-0x15b.7 (13)
0x140|                                             0c|               .|            size: 12 0x14f-0x14f.7 (1)
     |                                               |                |            code{}: 0x150-0x15b.7 (12)
     |                                               |                |              locals{}: 0x150-0x150.7 (1)
0x150|00                                             |.               |                n: 0 0x150-0x150.7 (1)
     |                                               |                |                items[0:0]: 0x151-NA (0)
     |                                               |                |              expr{}: 0x151-0x15b.7 (11)
     |                                               |                |                instructions[0:5]: 0x151-0x15b.7 (11)
     |                                               |                |                  [0]{}: instr 0x151-0x152.7 (2)
0x150|   20                                          |                |                    local.get: 0x20 (valid) 0x151-0x151.7 (1)
0x150|      00                                       |  .             |                    x: 0 0x152-0x152.7 (1)
     |                                               |                |                  [1]{}: instr 0x153-0x155.7 (3)
0x150|         fd                                    |   .            |                    prefix: 0xfd (valid) 0x153-0x153.7 (1)
0x150|            ed 01                              |    ..          |                    f64x2.neg: 237 (valid) 0x154-0x155.7 (2)
     |                                               |                |                  [2]{}: instr 0x156-0x157.7 (2)
0x150|                  20                           |                |                    local.get: 0x20 (valid) 0x156-0x156.7 (1)
0x150|                     01                        |       .        |                    x: 1 0x157-0x157.7 (1)
     |                                               |                |                  [3]{}: instr 0x158-0x15a.7 (3)
0x150|                        fd                     |        .       |                    prefix: 0xfd (valid) 0x158-0x158.7 (1)
0x150|                           f0 01               |         ..     |                    f64x2.add: 240 (valid) 0x159-0x15a.7 (2)
     |                                               |                |                  [4]{}: instr 0x15b-0x15b.7 (1)
0x150|                                 0b            |           .    |                    end: 0xb (valid) 0x15b-0x15b.7 (1)
     |                                               |                |          [9]{}: code 0x15c-0x168.7 (13)
0x150|                                    0c         |            .   |            size: 12 0x15c-0x15c.7 (1)
     |                                               |                |            code{}: 0x15d-0x168.7 (12)
     |                                               |                |              locals{}: 0x15d-0x15d.7 (1)
0x150|                                       00      |             .  |                n: 0 0x15d-0x15d.7 (1)
     |                                               |                |                items[0:0]: 0x15e-NA (0)
     |                                               |                |              expr{}: 0x15e-0x168.7 (11)
     |                                               |                |                instructions[0:5]: 0x15e-0x168.7 (11)
     |                                               |                |                  [0]{}: instr 0x15e-0x15f.7 (2)
0x150|                                          20   |                |                    local.get: 0x20 (valid) 0x15e-0x15e.7 (1)
0x150|                                             00|               .|                    x: 0 0x15f-0x15f.7 (1)
     |                                               |                |                  [1]{}: instr 0x160-0x162.7 (3)
0x160|fd                                             |.               |                    prefix: 0xfd (valid) 0x160-0x160.7 (1)
0x160|   ef 01                                       | ..             |                    f64x2.sqrt: 239 (valid) 0x161-0x162.7 (2)
     |                                               |                |                  [2]{}: instr 0x163-0x164.7 (2)
0x160|         20                                    |                |                    local.get: 0x20 (valid) 0x163-0x163.7 (1)
0x160|            01                                 |    .           |                    x: 1 0x164-0x164.7 (1)
     |                                               |                |                  [3]{}: instr 0x165-0x167.7 (3)
0x160|               fd                              |     .          |                    prefix: 0xfd (valid) 0x165-0x165.7 (1)
0x160|                  f0 01                        |      ..        |                    f64x2.add: 240 (valid) 0x166-0x167.7 (2)
     |                                               |                |                  [4]{}: instr 0x168-0x168.7 (1)
0x160|                        0b                     |        .       |                    end: 0xb (valid) 0x168-0x168.7 (1)
     |                                               |                |          [10]{}: code 0x169-0x175.7 (13)
0x160|                           0c                  |         .      |            size: 12 0x169-0x169.7 (1)
     |                                               |                |            code{}: 0x16a-0x175.7 (12)
     |                                               |                |              locals{}: 0x16a-0x16a.7 (1)
0x160|                              00               |          .     |                n: 0 0x16a-0x16a.7 (1)
     |                                               |                |                items[0:0]: 0x16b-NA (0)
     |                                               |                |              expr{}: 0x16b-0x175.7 (11)
     |                                               |                |                instructions[0:5]: 0x16b-0x175.7 (11)
     |                                               |                |                  [0]{}: instr 0x16b-0x16c.7 (2)
0x160|                                 20            |                |                    local.get: 0x20 (valid) 0x16b-0x16b.7 (1)
0x160|                                    00         |            .   |                    x: 0 0x16c-0x16c.7 (1)
     |                                               |                |                  [1]{}: instr 0x16d-0x16f.7 (3)
0x160|                                       fd      |             .  |                    prefix: 0xfd (valid) 0x16d-0x16d.7 (1)
0x160|                                          ed 01|              ..|                    f64x2.neg: 237 (valid) 0x16e-0x16f.7 (2)
     |                                               |                |                  [2]{}: instr 0x170-0x171.7 (2)
0x170|20                                             |                |                    local.get: 0x20 (valid) 0x170-0x170.7 (1)
0x170|   01                                          | .              |                    x: 1 0x171-0x171.7 (1)
     |                                               |                |                  [3]{}: instr 0x172-0x174.7 (3)
0x170|      fd                                       |  .             |                    prefix: 0xfd (valid) 0x172-0x172.7 (1)
0x170|         f3 01                                 |   ..           |                    f64x2.div: 243 (valid) 0x173-0x174.7 (2)
     |                                               |                |                  [4]{}: instr 0x175-0x175.7 (1)
0x170|               0b                              |     .          |                    end: 0xb (valid) 0x175-0x175.7 (1)
     |                                               |                |          [11]{}: code 0x176-0x182.7 (13)
0x170|                  0c                           |      .         |            size: 12 0x176-0x176.7 (1)
     |                                               |                |            code{}: 0x177-0x182.7 (12)
     |                                               |                |              locals{}: 0x177-0x177.7 (1)
0x170|                     00                        |       .        |                n: 0 0x177-0x177.7 (1)
     |                                               |                |                items[0:0]: 0x178-NA (0)
     |                                               |                |              expr{}: 0x178-0x182.7 (11)
     |                                               |                |                instructions[0:5]: 0x178-0x182.7 (11)
     |                                               |                |                  [0]{}: instr 0x178-0x179.7 (2)
0x170|                        20                     |                |                    local.get: 0x20 (valid) 0x178-0x178.7 (1)
0x170|                           00                  |         .      |                    x: 0 0x179-0x179.7 (1)
     |                                               |                |                  [1]{}: instr 0x17a-0x17c.7 (3)
0x170|                              fd               |          .     |                    prefix: 0xfd (valid) 0x17a-0x17a.7 (1)
0x170|                                 ef 01         |           ..   |                    f64x2.sqrt: 239 (valid) 0x17b-0x17c.7 (2)
     |                                               |                |                  [2]{}: instr 0x17d-0x17e.7 (2)
0x170|                                       20      |                |                    local.get: 0x20 (valid) 0x17d-0x17d.7 (1)
0x170|                                          01   |              . |                    x: 1 0x17e-0x17e.7 (1)
     |                                               |                |                  [3]{}: instr 0x17f-0x181.7 (3)
0x170|                                             fd|               .|                    prefix: 0xfd (valid) 0x17f-0x17f.7 (1)
0x180|f3 01                                          |..              |                    f64x2.div: 243 (valid) 0x180-0x181.7 (2)
     |                                               |                |                  [4]{}: instr 0x182-0x182.7 (1)
0x180|      0b                                       |  .             |                    end: 0xb (valid) 0x182-0x182.7 (1)
     |                                               |                |          [12]{}: code 0x183-0x18f.7 (13)
0x180|         0c                                    |   .            |            size: 12 0x183-0x183.7 (1)
     |                                               |                |            code{}: 0x184-0x18f.7 (12)
     |                                               |                |              locals{}: 0x184-0x184.7 (1)
0x180|            00                                 |    .           |                n: 0 0x184-0x184.7 (1)
     |                                               |                |                items[0:0]: 0x185-NA (0)
     |                                               |                |              expr{}: 0x185-0x18f.7 (11)
     |                                               |                |                instructions[0:5]: 0x185-0x18f.7 (11)
     |                                               |                |                  [0]{}: instr 0x185-0x186.7 (2)
0x180|               20                              |                |                    local.get: 0x20 (valid) 0x185-0x185.7 (1)
0x180|                  00                           |      .         |                    x: 0 0x186-0x186.7 (1)
     |                                               |                |                  [1]{}: instr 0x187-0x189.7 (3)
0x180|                     fd                        |       .        |                    prefix: 0xfd (valid) 0x187-0x187.7 (1)
0x180|                        ed 01                  |        ..      |                    f64x2.neg: 237 (valid) 0x188-0x189.7 (2)
     |                                               |                |                  [2]{}: instr 0x18a-0x18b.7 (2)
0x180|                              20               |                |                    local.get: 0x20 (valid) 0x18a-0x18a.7 (1)
0x180|                                 01            |           .    |                    x: 1 0x18b-0x18b.7 (1)
     |                                               |                |                  [3]{}: instr 0x18c-0x18e.7 (3)
0x180|                                    fd         |            .   |                    prefix: 0xfd (valid) 0x18c-0x18c.7 (1)
0x180|                                       f2 01   |             .. |                    f64x2.mul: 242 (valid) 0x18d-0x18e.7 (2)
     |                                               |                |                  [4]{}: instr 0x18f-0x18f.7 (1)
0x180|                                             0b|               .|                    end: 0xb (valid) 0x18f-0x18f.7 (1)
     |                                               |                |          [13]{}: code 0x190-0x19c.7 (13)
0x190|0c                                             |.               |            size: 12 0x190-0x190.7 (1)
     |                                               |                |            code{}: 0x191-0x19c.7 (12)
     |                                               |                |              locals{}: 0x191-0x191.7 (1)
0x190|   00                                          | .              |                n: 0 0x191-0x191.7 (1)
     |                                               |                |                items[0:0]: 0x192-NA (0)
     |                                               |                |              expr{}: 0x192-0x19c.7 (11)
     |                                               |                |                instructions[0:5]: 0x192-0x19c.7 (11)
     |                                               |                |                  [0]{}: instr 0x192-0x193.7 (2)
0x190|      20                                       |                |                    local.get: 0x20 (valid) 0x192-0x192.7 (1)
0x190|         00                                    |   .            |                    x: 0 0x193-0x193.7 (1)
     |                                               |                |                  [1]{}: instr 0x194-0x196.7 (3)
0x190|            fd                                 |    .           |                    prefix: 0xfd (valid) 0x194-0x194.7 (1)
0x190|               ef 01                           |     ..         |                    f64x2.sqrt: 239 (valid) 0x195-0x196.7 (2)
     |                                               |                |                  [2]{}: instr 0x197-0x198.7 (2)
0x190|                     20                        |                |                    local.get: 0x20 (valid) 0x197-0x197.7 (1)
0x190|                        01                     |        .       |                    x: 1 0x198-0x198.7 (1)
     |                                               |                |                  [3]{}: instr 0x199-0x19b.7 (3)
0x190|                           fd                  |         .      |                    prefix: 0xfd (valid) 0x199-0x199.7 (1)
0x190|                              f2 01            |          ..    |                    f64x2.mul: 242 (valid) 0x19a-0x19b.7 (2)
     |                                               |                |                  [4]{}: instr 0x19c-0x19c.7 (1)
0x190|                                    0b         |            .   |                    end: 0xb (valid) 0x19c-0x19c.7 (1)
     |                                               |                |          [14]{}: code 0x19d-0x1a9.7 (13)
0x190|                                       0c      |             .  |            size: 12 0x19d-0x19d.7 (1)
     |                                               |                |            code{}: 0x19e-0x1a9.7 (12)
     |                                               |                |              locals{}: 0x19e-0x19e.7 (1)
0x190|                                          00   |              . |                n: 0 0x19e-0x19e.7 (1)
     |                                               |                |                items[0:0]: 0x19f-NA (0)
     |                                               |                |              expr{}: 0x19f-0x1a9.7 (11)
     |                                               |                |                instructions[0:5]: 0x19f-0x1a9.7 (11)
     |                                               |                |                  [0]{}: instr 0x19f-0x1a0.7 (2)
0x190|                                             20|                |                    local.get: 0x20 (valid) 0x19f-0x19f.7 (1)
0x1a0|00                                             |.               |                    x: 0 0x1a0-0x1a0.7 (1)
     |                                               |                |                  [1]{}: instr 0x1a1-0x1a3.7 (3)
0x1a0|   fd                                          | .              |                    prefix: 0xfd (valid) 0x1a1-0x1a1.7 (1)
0x1a0|      ed 01                                    |  ..            |                    f64x2.neg: 237 (valid) 0x1a2-0x1a3.7 (2)
     |                                               |                |                  [2]{}: instr 0x1a4-0x1a5.7 (2)
0x1a0|            20                                 |                |                    local.get: 0x20 (valid) 0x1a4-0x1a4.7 (1)
0x1a0|               01                              |     .          |                    x: 1 0x1a5-0x1a5.7 (1)
     |                                               |                |                  [3]{}: instr 0x1a6-0x1a8.7 (3)
0x1a0|                  fd                           |      .         |                    prefix: 0xfd (valid) 0x1a6-0x1a6.7 (1)
0x1a0|                     f1 01                     |       ..       |                    f64x2.sub: 241 (valid) 0x1a7-0x1a8.7 (2)
     |                                               |                |                  [4]{}: instr 0x1a9-0x1a9.7 (1)
0x1a0|                           0b                  |         .      |                    end: 0xb (valid) 0x1a9-0x1a9.7 (1)
     |                                               |                |          [15]{}: code 0x1aa-0x1b6.7 (13)
0x1a0|                              0c               |          .     |            size: 12 0x1aa-0x1aa.7 (1)
     |                                               |                |            code{}: 0x1ab-0x1b6.7 (12)
     |                                               |                |              locals{}: 0x1ab-0x1ab.7 (1)
0x1a0|                                 00            |           .    |                n: 0 0x1ab-0x1ab.7 (1)
     |                                               |                |                items[0:0]: 0x1ac-NA (0)
     |                                               |                |              expr{}: 0x1ac-0x1b6.7 (11)
     |                                               |                |                instructions[0:5]: 0x1ac-0x1b6.7 (11)
     |                                               |                |                  [0]{}: instr 0x1ac-0x1ad.7 (2)
0x1a0|                                    20         |                |                    local.get: 0x20 (valid) 0x1ac-0x1ac.7 (1)
0x1a0|                                       00      |             .  |                    x: 0 0x1ad-0x1ad.7 (1)
     |                                               |                |                  [1]{}: instr 0x1ae-0x1b0.7 (3)
0x1a0|                                          fd   |              . |                    prefix: 0xfd (valid) 0x1ae-0x1ae.7 (1)
0x1a0|                                             ef|               .|                    f64x2.sqrt: 239 (valid) 0x1af-0x1b0.7 (2)
0x1b0|01                                             |.               |
     |                                               |                |                  [2]{}: instr 0x1b1-0x1b2.7 (2)
0x1b0|   20                                          |                |                    local.get: 0x20 (valid) 0x1b1-0x1b1.7 (1)
0x1b0|      01                                       |  .             |                    x: 1 0x1b2-0x1b2.7 (1)
     |                                               |                |                  [3]{}: instr 0x1b3-0x1b5.7 (3)
0x1b0|         fd                                    |   .            |                    prefix: 0xfd (valid) 0x1b3-0x1b3.7 (1)
0x1b0|            f1 01                              |    ..          |                    f64x2.sub: 241 (valid) 0x1b4-0x1b5.7 (2)
     |                                               |                |                  [4]{}: instr 0x1b6-0x1b6.7 (1)
0x1b0|                  0b|                          |      .|        |                    end: 0xb (valid) 0x1b6-0x1b6.7 (1)
