$ fq -d wasm dv simd_load_extend-1.wasm
     |00 01 02 03 04 05 06 07 08 09 0a 0b 0c 0d 0e 0f|0123456789abcdef|.{}: simd_load_extend-1.wasm (wasm) 0x0-0x392.7 (915)
0x000|00 61 73 6d                                    |.asm            |  magic: raw bits (valid) 0x0-0x3.7 (4)
0x000|            01 00 00 00                        |    ....        |  version: 1 0x4-0x7.7 (4)
     |                                               |                |  sections[0:6]: 0x8-0x392.7 (907)
     |                                               |                |    [0]{}: section 0x8-0x12.7 (11)
0x000|                        01                     |        .       |      id: "type section" (1) 0x8-0x8.7 (1)
0x000|                           09                  |         .      |      size: 9 0x9-0x9.7 (1)
     |                                               |                |      content{}: 0xa-0x12.7 (9)
0x000|                              02               |          .     |        n: 2 0xa-0xa.7 (1)
     |                                               |                |        items[0:2]: 0xb-0x12.7 (8)
     |                                               |                |          [0]{}: functype 0xb-0xe.7 (4)
0x000|                                 60            |           `    |            tag: 0x60 (valid) 0xb-0xb.7 (1)
     |                                               |                |            rt1{}: 0xc-0xc.7 (1)
0x000|                                    00         |            .   |              n: 0 0xc-0xc.7 (1)
     |                                               |                |              items[0:0]: 0xd-NA (0)
     |                                               |                |            rt2{}: 0xd-0xe.7 (2)
0x000|                                       01      |             .  |              n: 1 0xd-0xd.7 (1)
     |                                               |                |              items[0:1]: 0xe-0xe.7 (1)
0x000|                                          7b   |              { |                [0]: "v128" (123) valtype 0xe-0xe.7 (1)
     |                                               |                |          [1]{}: functype 0xf-0x12.7 (4)
0x000|                                             60|               `|            tag: 0x60 (valid) 0xf-0xf.7 (1)
     |                                               |                |            rt1{}: 0x10-0x10.7 (1)
0x010|00                                             |.               |              n: 0 0x10-0x10.7 (1)
     |                                               |                |              items[0:0]: 0x11-NA (0)
     |                                               |                |            rt2{}: 0x11-0x12.7 (2)
0x010|   01                                          | .              |              n: 1 0x11-0x11.7 (1)
     |                                               |                |              items[0:1]: 0x12-0x12.7 (1)
0x010|      7f                                       |  .             |                [0]: "i32" (127) valtype 0x12-0x12.7 (1)
     |                                               |                |    [1]{}: section 0x13-0x27.7 (21)
0x010|         03                                    |   .            |      id: "function section" (3) 0x13-0x13.7 (1)
0x010|            13                                 |    .           |      size: 19 0x14-0x14.7 (1)
     |                                               |                |      content{}: 0x15-0x27.7 (19)
0x010|               12                              |     .          |        n: 18 0x15-0x15.7 (1)
     |                                               |                |        items[0:18]: 0x16-0x27.7 (18)
0x010|                  00                           |      .         |          [0]: 0 x 0x16-0x16.7 (1)
0x010|                     00                        |       .        |          [1]: 0 x 0x17-0x17.7 (1)
0x010|                        00                     |        .       |          [2]: 0 x 0x18-0x18.7 (1)
0x010|                           00                  |         .      |          [3]: 0 x 0x19-0x19.7 (1)
0x010|                              00               |          .     |          [4]: 0 x 0x1a-0x1a.7 (1)
0x010|                                 00            |           .    |          [5]: 0 x 0x1b-0x1b.7 (1)
0x010|                                    00         |            .   |          [6]: 0 x 0x1c-0x1c.7 (1)
0x010|                                       00      |             .  |          [7]: 0 x 0x1d-0x1d.7 (1)
0x010|                                          00   |              . |          [8]: 0 x 0x1e-0x1e.7 (1)
0x010|                                             00|               .|          [9]: 0 x 0x1f-0x1f.7 (1)
0x020|00                                             |.               |          [10]: 0 x 0x20-0x20.7 (1)
0x020|   00                                          | .              |          [11]: 0 x 0x21-0x21.7 (1)
0x020|      01                                       |  .             |          [12]: 1 x 0x22-0x22.7 (1)
0x020|         01                                    |   .            |          [13]: 1 x 0x23-0x23.7 (1)
0x020|            01                                 |    .           |          [14]: 1 x 0x24-0x24.7 (1)
0x020|               01                              |     .          |          [15]: 1 x 0x25-0x25.7 (1)
0x020|                  01                           |      .         |          [16]: 1 x 0x26-0x26.7 (1)
0x020|                     01                        |       .        |          [17]: 1 x 0x27-0x27.7 (1)
     |                                               |                |    [2]{}: section 0x28-0x2c.7 (5)
0x020|                        05                     |        .       |      id: "memory section" (5) 0x28-0x28.7 (1)
0x020|                           03                  |         .      |      size: 3 0x29-0x29.7 (1)
     |                                               |                |      content{}: 0x2a-0x2c.7 (3)
0x020|                              01               |          .     |        n: 1 0x2a-0x2a.7 (1)
     |                                               |                |        items[0:1]: 0x2b-0x2c.7 (2)
     |                                               |                |          [0]{}: mem 0x2b-0x2c.7 (2)
     |                                               |                |            limits{}: 0x2b-0x2c.7 (2)
0x020|                                 00            |           .    |              tag: 0x0 0x2b-0x2b.7 (1)
0x020|                                    01         |            .   |              min: 1 0x2c-0x2c.7 (1)
     |                                               |                |    [3]{}: section 0x2d-0x276.7 (586)
0x020|                                       07      |             .  |      id: "export section" (7) 0x2d-0x2d.7 (1)
0x020|                                          c7 04|              ..|      size: 583 0x2e-0x2f.7 (2)
     |                                               |                |      content{}: 0x30-0x276.7 (583)
0x030|12                                             |.               |        n: 18 0x30-0x30.7 (1)
     |                                               |                |        items[0:18]: 0x31-0x276.7 (582)
     |                                               |                |          [0]{}: export 0x31-0x4a.7 (26)
     |                                               |                |            name{}: 0x31-0x48.7 (24)
0x030|   17                                          | .              |              len: 23 0x31-0x31.7 (1)
0x030|      76 31 32 38 2e 6c 6f 61 64 38 78 38 5f 73|  v128.load8x8_s|              utf8bytes: "v128.load8x8_s-in-block" 0x32-0x48.7 (23)
0x040|2d 69 6e 2d 62 6c 6f 63 6b                     |-in-block       |
     |                                               |                |            expr{}: 0x49-0x4a.7 (2)
0x040|                           00                  |         .      |              tag: "funcidx" (0x0) 0x49-0x49.7 (1)
0x040|                              00               |          .     |              x: 0 0x4a-0x4a.7 (1)
     |                                               |                |          [1]{}: export 0x4b-0x64.7 (26)
     |                                               |                |            name{}: 0x4b-0x62.7 (24)
0x040|                                 17            |           .    |              len: 23 0x4b-0x4b.7 (1)
0x040|                                    76 31 32 38|            v128|              utf8bytes: "v128.load8x8_u-in-block" 0x4c-0x62.7 (23)
0x050|2e 6c 6f 61 64 38 78 38 5f 75 2d 69 6e 2d 62 6c|.load8x8_u-in-bl|
0x060|6f 63 6b                                       |ock             |
     |                                               |                |            expr{}: 0x63-0x64.7 (2)
0x060|         00                                    |   .            |              tag: "funcidx" (0x0) 0x63-0x63.7 (1)
0x060|            01                                 |    .           |              x: 1 0x64-0x64.7 (1)
     |                                               |                |          [2]{}: export 0x65-0x7f.7 (27)
     |                                               |                |            name{}: 0x65-0x7d.7 (25)
0x060|               18                              |     .          |              len: 24 0x65-0x65.7 (1)
0x060|                  76 31 32 38 2e 6c 6f 61 64 31|      v128.load1|              utf8bytes: "v128.load16x4_s-in-block" 0x66-0x7d.7 (24)
0x070|36 78 34 5f 73 2d 69 6e 2d 62 6c 6f 63 6b      |6x4_s-in-block  |
     |                                               |                |            expr{}: 0x7e-0x7f.7 (2)
0x070|                                          00   |              . |              tag: "funcidx" (0x0) 0x7e-0x7e.7 (1)
0x070|                                             02|               .|              x: 2 0x7f-0x7f.7 (1)
     |                                               |                |          [3]{}: export 0x80-0x9a.7 (27)
     |                                               |                |            name{}: 0x80-0x98.7 (25)
0x080|18                                             |.               |              len: 24 0x80-0x80.7 (1)
0x080|   76 31 32 38 2e 6c 6f 61 64 31 36 78 34 5f 75| v128.load16x4_u|              utf8bytes: "v128.load16x4_u-in-block" 0x81-0x98.7 (24)
0x090|2d 69 6e 2d 62 6c 6f 63 6b                     |-in-block       |
     |                                               |                |            expr{}: 0x99-0x9a.7 (2)
0x090|                           00                  |         .      |              tag: "funcidx" (0x0) 0x99-0x99.7 (1)
0x090|                              03               |          .     |              x: 3 0x9a-0x9a.7 (1)
     |                                               |                |          [4]{}: export 0x9b-0xb5.7 (27)
     |                                               |                |            name{}: 0x9b-0xb3.7 (25)
0x090|                                 18            |           .    |              len: 24 0x9b-0x9b.7 (1)
0x090|                                    76 31 32 38|            v128|              utf8bytes: "v128.load32x2_s-in-block" 0x9c-0xb3.7 (24)
0x0a0|2e 6c 6f 61 64 33 32 78 32 5f 73 2d 69 6e 2d 62|.load32x2_s-in-b|
0x0b0|6c 6f 63 6b                                    |lock            |
     |                                               |                |            expr{}: 0xb4-0xb5.7 (2)
0x0b0|            00                                 |    .           |              tag: "funcidx" (0x0) 0xb4-0xb4.7 (1)
0x0b0|               04                              |     .          |              x: 4 0xb5-0xb5.7 (1)
     |                                               |                |          [5]{}: export 0xb6-0xd0.7 (27)
     |                                               |                |            name{}: 0xb6-0xce.7 (25)
0x0b0|                  18                           |      .         |              len: 24 0xb6-0xb6.7 (1)
0x0b0|                     76 31 32 38 2e 6c 6f 61 64|       v128.load|              utf8bytes: "v128.load32x2_u-in-block" 0xb7-0xce.7 (24)
0x0c0|33 32 78 32 5f 75 2d 69 6e 2d 62 6c 6f 63 6b   |32x2_u-in-block |
     |                                               |                |            expr{}: 0xcf-0xd0.7 (2)
0x0c0|                                             00|               .|              tag: "funcidx" (0x0) 0xcf-0xcf.7 (1)
0x0d0|05                                             |.               |              x: 5 0xd0-0xd0.7 (1)
     |                                               |                |          [6]{}: export 0xd1-0xed.7 (29)
     |                                               |                |            name{}: 0xd1-0xeb.7 (27)
0x0d0|   1a                                          | .              |              len: 26 0xd1-0xd1.7 (1)
0x0d0|      76 31 32 38 2e 6c 6f 61 64 38 78 38 5f 73|  v128.load8x8_s|              utf8bytes: "v128.load8x8_s-as-br-value" 0xd2-0xeb.7 (26)
0x0e0|2d 61 73 2d 62 72 2d 76 61 6c 75 65            |-as-br-value    |
     |                                               |                |            expr{}: 0xec-0xed.7 (2)
0x0e0|                                    00         |            .   |              tag: "funcidx" (0x0) 0xec-0xec.7 (1)
0x0e0|                                       06      |             .  |              x: 6 0xed-0xed.7 (1)
     |                                               |                |          [7]{}: export 0xee-0x10a.7 (29)
     |                                               |                |            name{}: 0xee-0x108.7 (27)
0x0e0|                                          1a   |              . |              len: 26 0xee-0xee.7 (1)
0x0e0|                                             76|               v|              utf8bytes: "v128.load8x8_u-as-br-value" 0xef-0x108.7 (26)
0x0f0|31 32 38 2e 6c 6f 61 64 38 78 38 5f 75 2d 61 73|128.load8x8_u-as|
0x100|2d 62 72 2d 76 61 6c 75 65                     |-br-value       |
     |                                               |                |            expr{}: 0x109-0x10a.7 (2)
0x100|                           00                  |         .      |              tag: "funcidx" (0x0) 0x109-0x109.7 (1)
0x100|                              07               |          .     |              x: 7 0x10a-0x10a.7 (1)
     |                                               |                |          [8]{}: export 0x10b-0x128.7 (30)
     |                                               |                |            name{}: 0x10b-0x126.7 (28)
0x100|                                 1b            |           .    |              len: 27 0x10b-0x10b.7 (1)
0x100|                                    76 31 32 38|            v128|              utf8bytes: "v128.load16x4_s-as-br-value" 0x10c-0x126.7 (27)
0x110|2e 6c 6f 61 64 31 36 78 34 5f 73 2d 61 73 2d 62|.load16x4_s-as-b|
0x120|72 2d 76 61 6c 75 65                           |r-value         |
     |                                               |                |            expr{}: 0x127-0x128.7 (2)
0x120|                     00                        |       .        |              tag: "funcidx" (0x0) 0x127-0x127.7 (1)
0x120|                        08                     |        .       |              x: 8 0x128-0x128.7 (1)
     |                                               |                |          [9]{}: export 0x129-0x146.7 (30)
     |                                               |                |            name{}: 0x129-0x144.7 (28)
0x120|                           1b                  |         .      |              len: 27 0x129-0x129.7 (1)
0x120|                              76 31 32 38 2e 6c|          v128.l|              utf8bytes: "v128.load16x4_u-as-br-value" 0x12a-0x144.7 (27)
0x130|6f 61 64 31 36 78 34 5f 75 2d 61 73 2d 62 72 2d|oad16x4_u-as-br-|
0x140|76 61 6c 75 65                                 |value           |
     |                                               |                |            expr{}: 0x145-0x146.7 (2)
0x140|               00                              |     .          |              tag: "funcidx" (0x0) 0x145-0x145.7 (1)
0x140|                  09                           |      .         |              x: 9 0x146-0x146.7 (1)
     |                                               |                |          [10]{}: export 0x147-0x164.7 (30)
     |                                               |                |            name{}: 0x147-0x162.7 (28)
0x140|                     1b                        |       .        |              len: 27 0x147-0x147.7 (1)
0x140|                        76 31 32 38 2e 6c 6f 61|        v128.loa|              utf8bytes: "v128.load32x2_s-as-br-value" 0x148-0x162.7 (27)
0x150|64 33 32 78 32 5f 73 2d 61 73 2d 62 72 2d 76 61|d32x2_s-as-br-va|
0x160|6c 75 65                                       |lue             |
     |                                               |                |            expr{}: 0x163-0x164.7 (2)
0x160|         00                                    |   .            |              tag: "funcidx" (0x0) 0x163-0x163.7 (1)
0x160|            0a                                 |    .           |              x: 10 0x164-0x164.7 (1)
     |                                               |                |          [11]{}: export 0x165-0x182.7 (30)
     |                                               |                |            name{}: 0x165-0x180.7 (28)
0x160|               1b                              |     .          |              len: 27 0x165-0x165.7 (1)
0x160|                  76 31 32 38 2e 6c 6f 61 64 33|      v128.load3|              utf8bytes: "v128.load32x2_u-as-br-value" 0x166-0x180.7 (27)
0x170|32 78 32 5f 75 2d 61 73 2d 62 72 2d 76 61 6c 75|2x2_u-as-br-valu|
0x180|65                                             |e               |
     |                                               |                |            expr{}: 0x181-0x182.7 (2)
0x180|   00                                          | .              |              tag: "funcidx" (0x0) 0x181-0x181.7 (1)
0x180|      0b                                       |  .             |              x: 11 0x182-0x182.7 (1)
     |                                               |                |          [12]{}: export 0x183-0x1aa.7 (40)
     |                                               |                |            name{}: 0x183-0x1a8.7 (38)
0x180|         25                                    |   %            |              len: 37 0x183-0x183.7 (1)
0x180|            76 31 32 38 2e 6c 6f 61 64 38 78 38|    v128.load8x8|              utf8bytes: "v128.load8x8_s-extract_lane_s-operand" 0x184-0x1a8.7 (37)
0x190|5f 73 2d 65 78 74 72 61 63 74 5f 6c 61 6e 65 5f|_s-extract_lane_|
0x1a0|73 2d 6f 70 65 72 61 6e 64                     |s-operand       |
     |                                               |                |            expr{}: 0x1a9-0x1aa.7 (2)
0x1a0|                           00                  |         .      |              tag: "funcidx" (0x0) 0x1a9-0x1a9.7 (1)
0x1a0|                              0c               |          .     |              x: 12 0x1aa-0x1aa.7 (1)
     |                                               |                |          [13]{}: export 0x1ab-0x1d2.7 (40)
     |                                               |                |            name{}: 0x1ab-0x1d0.7 (38)
0x1a0|                                 25            |           %    |              len: 37 0x1ab-0x1ab.7 (1)
0x1a0|                                    76 31 32 38|            v128|              utf8bytes: "v128.load8x8_u-extract_lane_s-operand" 0x1ac-0x1d0.7 (37)
0x1b0|2e 6c 6f 61 64 38 78 38 5f 75 2d 65 78 74 72 61|.load8x8_u-extra|
*    |until 0x1d0.7 (37)                             |                |
     |                                               |                |            expr{}: 0x1d1-0x1d2.7 (2)
0x1d0|   00                                          | .              |              tag: "funcidx" (0x0) 0x1d1-0x1d1.7 (1)
0x1d0|      0d                                       |  .             |              x: 13 0x1d2-0x1d2.7 (1)
     |                                               |                |          [14]{}: export 0x1d3-0x1fb.7 (41)
     |                                               |                |            name{}: 0x1d3-0x1f9.7 (39)
0x1d0|         26                                    |   &            |              len: 38 0x1d3-0x1d3.7 (1)
0x1d0|            76 31 32 38 2e 6c 6f 61 64 31 36 78|    v128.load16x|              utf8bytes: "v128.load16x4_s-extract_lane_s-operand" 0x1d4-0x1f9.7 (38)
0x1e0|34 5f 73 2d 65 78 74 72 61 63 74 5f 6c 61 6e 65|4_s-extract_lane|
0x1f0|5f 73 2d 6f 70 65 72 61 6e 64                  |_s-operand      |
     |                                               |                |            expr{}: 0x1fa-0x1fb.7 (2)
0x1f0|                              00               |          .     |              tag: "funcidx" (0x0) 0x1fa-0x1fa.7 (1)
0x1f0|                                 0e            |           .    |              x: 14 0x1fb-0x1fb.7 (1)
     |                                               |                |          [15]{}: export 0x1fc-0x224.7 (41)
     |                                               |                |            name{}: 0x1fc-0x222.7 (39)
0x1f0|                                    26         |            &   |              len: 38 0x1fc-0x1fc.7 (1)
0x1f0|                                       76 31 32|             v12|              utf8bytes: "v128.load16x4_u-extract_lane_s-operand" 0x1fd-0x222.7 (38)
0x200|38 2e 6c 6f 61 64 31 36 78 34 5f 75 2d 65 78 74|8.load16x4_u-ext|
*    |until 0x222.7 (38)                             |                |
     |                                               |                |            expr{}: 0x223-0x224.7 (2)
0x220|         00                                    |   .            |              tag: "funcidx" (0x0) 0x223-0x223.7 (1)
0x220|            0f                                 |    .           |              x: 15 0x224-0x224.7 (1)
     |                                               |                |          [16]{}: export 0x225-0x24d.7 (41)
     |                                               |                |            name{}: 0x225-0x24b.7 (39)
0x220|               26                              |     &          |              len: 38 0x225-0x225.7 (1)
0x220|                  76 31 32 38 2e 6c 6f 61 64 33|      v128.load3|              utf8bytes: "v128.load32x2_s-extract_lane_s-operand" 0x226-0x24b.7 (38)
0x230|32 78 32 5f 73 2d 65 78 74 72 61 63 74 5f 6c 61|2x2_s-extract_la|
0x240|6e 65 5f 73 2d 6f 70 65 72 61 6e 64            |ne_s-operand    |
     |                                               |                |            expr{}: 0x24c-0x24d.7 (2)
0x240|                                    00         |            .   |              tag: "funcidx" (0x0) 0x24c-0x24c.7 (1)
0x240|                                       10      |             .  |              x: 16 0x24d-0x24d.7 (1)
     |                                               |                |          [17]{}: export 0x24e-0x276.7 (41)
     |                                               |                |            name{}: 0x24e-0x274.7 (39)
0x240|                                          26   |              & |              len: 38 0x24e-0x24e.7 (1)
0x240|                                             76|               v|              utf8bytes: "v128.load32x2_u-extract_lane_s-operand" 0x24f-0x274.7 (38)
0x250|31 32 38 2e 6c 6f 61 64 33 32 78 32 5f 75 2d 65|128.load32x2_u-e|
*    |until 0x274.7 (38)                             |                |
     |                                               |                |            expr{}: 0x275-0x276.7 (2)
0x270|               00                              |     .          |              tag: "funcidx" (0x0) 0x275-0x275.7 (1)
0x270|                  11                           |      .         |              x: 17 0x276-0x276.7 (1)
     |                                               |                |    [4]{}: section 0x277-0x370.7 (250)
0x270|                     0a                        |       .        |      id: "code section" (10) 0x277-0x277.7 (1)
0x270|                        f7 01                  |        ..      |      size: 247 0x278-0x279.7 (2)
     |                                               |                |      content{}: 0x27a-0x370.7 (247)
0x270|                              12               |          .     |        n: 18 0x27a-0x27a.7 (1)
     |                                               |                |        items[0:18]: 0x27b-0x370.7 (246)
     |                                               |                |          [0]{}: code 0x27b-0x289.7 (15)
0x270|                                 0e            |           .    |            size: 14 0x27b-0x27b.7 (1)
     |                                               |                |            code{}: 0x27c-0x289.7 (14)
     |                                               |                |              locals{}: 0x27c-0x27c.7 (1)
0x270|                                    00         |            .   |                n: 0 0x27c-0x27c.7 (1)
     |                                               |                |                items[0:0]: 0x27d-NA (0)
     |                                               |                |              expr{}: 0x27d-0x289.7 (13)
     |                                               |                |                instructions[0:2]: 0x27d-0x289.7 (13)
     |                                               |                |                  [0]{}: instr 0x27d-0x288.7 (12)
0x270|                                       02      |             .  |                    block: 0x2 (valid) 0x27d-0x27d.7 (1)
0x270|                                          7b   |              { |                    valtype: "v128" (123) 0x27e-0x27e.7 (1)
     |                                               |                |                    instructions[0:1]: 0x27f-0x287.7 (9)
     |                                               |                |                      [0]{}: instr 0x27f-0x287.7 (9)
0x270|                                             02|               .|                        block: 0x2 (valid) 0x27f-0x27f.7 (1)
0x280|7b                                             |{               |                        valtype: "v128" (123) 0x280-0x280.7 (1)
     |                                               |                |                        instructions[0:2]: 0x281-0x286.7 (6)
     |                                               |                |                          [0]{}: instr 0x281-0x282.7 (2)
0x280|   41                                          | A              |                            i32.const: 0x41 (valid) 0x281-0x281.7 (1)
0x280|      00                                       |  .             |                            n: 0 0x282-0x282.7 (1)
     |                                               |                |                          [1]{}: instr 0x283-0x286.7 (4)
0x280|         fd                                    |   .            |                            prefix: 0xfd (valid) 0x283-0x283.7 (1)
0x280|            01                                 |    .           |                            v128.load8x8_s: 1 (valid) 0x284-0x284.7 (1)
     |                                               |                |                            m{}: 0x285-0x286.7 (2)
0x280|               03                              |     .          |                              align: 3 0x285-0x285.7 (1)
0x280|                  00                           |      .         |                              offset: 0 0x286-0x286.7 (1)
0x280|                     0b                        |       .        |                        end: 11 (valid) 0x287-0x287.7 (1)
0x280|                        0b                     |        .       |                    end: 11 (valid) 0x288-0x288.7 (1)
     |                                               |                |                  [1]{}: instr 0x289-0x289.7 (1)
0x280|                           0b                  |         .      |                    end: 0xb (valid) 0x289-0x289.7 (1)
     |                                               |                |          [1]{}: code 0x28a-0x298.7 (15)
0x280|                              0e               |          .     |            size: 14 0x28a-0x28a.7 (1)
     |                                               |                |            code{}: 0x28b-0x298.7 (14)
     |                                               |                |              locals{}: 0x28b-0x28b.7 (1)
0x280|                                 00            |           .    |                n: 0 0x28b-0x28b.7 (1)
     |                                               |                |                items[0:0]: 0x28c-NA (0)
     |                                               |                |              expr{}: 0x28c-0x298.7 (13)
     |                                               |                |                instructions[0:2]: 0x28c-0x298.7 (13)
     |                                               |                |                  [0]{}: instr 0x28c-0x297.7 (12)
0x280|                                    02         |            .   |                    block: 0x2 (valid) 0x28c-0x28c.7 (1)
0x280|                                       7b      |             {  |                    valtype: "v128" (123) 0x28d-0x28d.7 (1)
     |                                               |                |                    instructions[0:1]: 0x28e-0x296.7 (9)
     |                                               |                |                      [0]{}: instr 0x28e-0x296.7 (9)
0x280|                                          02   |              . |                        block: 0x2 (valid) 0x28e-0x28e.7 (1)
0x280|                                             7b|               {|                        valtype: "v128" (123) 0x28f-0x28f.7 (1)
     |                                               |                |                        instructions[0:2]: 0x290-0x295.7 (6)
     |                                               |                |                          [0]{}: instr 0x290-0x291.7 (2)
0x290|41                                             |A               |                            i32.const: 0x41 (valid) 0x290-0x290.7 (1)
0x290|   01                                          | .              |                            n: 1 0x291-0x291.7 (1)
     |                                               |                |                          [1]{}: instr 0x292-0x295.7 (4)
0x290|      fd                                       |  .             |                            prefix: 0xfd (valid) 0x292-0x292.7 (1)
0x290|         02                                    |   .            |                            v128.load8x8_u: 2 (valid) 0x293-0x293.7 (1)
     |                                               |                |                            m{}: 0x294-0x295.7 (2)
0x290|            03                                 |    .           |                              align: 3 0x294-0x294.7 (1)
0x290|               00                              |     .          |                              offset: 0 0x295-0x295.7 (1)
0x290|                  0b                           |      .         |                        end: 11 (valid) 0x296-0x296.7 (1)
0x290|                     0b                        |       .        |                    end: 11 (valid) 0x297-0x297.7 (1)
     |                                               |                |                  [1]{}: instr 0x298-0x298.7 (1)
0x290|                        0b                     |        .       |                    end: 0xb (valid) 0x298-0x298.7 (1)
     |                                               |                |          [2]{}: code 0x299-0x2a7.7 (15)
0x290|                           0e                  |         .      |            size: 14 0x299-0x299.7 (1)
     |                                               |                |            code{}: 0x29a-0x2a7.7 (14)
     |                                               |                |              locals{}: 0x29a-0x29a.7 (1)
0x290|                              00               |          .     |                n: 0 0x29a-0x29a.7 (1)
     |                                               |                |                items[0:0]: 0x29b-NA (0)
     |                                               |                |              expr{}: 0x29b-0x2a7.7 (13)
     |                                               |                |                instructions[0:2]: 0x29b-0x2a7.7 (13)
     |                                               |                |                  [0]{}: instr 0x29b-0x2a6.7 (12)
0x290|                                 02            |           .    |                    block: 0x2 (valid) 0x29b-0x29b.7 (1)
0x290|                                    7b         |            {   |                    valtype: "v128" (123) 0x29c-0x29c.7 (1)
     |                                               |                |                    instructions[0:1]: 0x29d-0x2a5.7 (9)
     |                                               |                |                      [0]{}: instr 0x29d-0x2a5.7 (9)
0x290|                                       02      |             .  |                        block: 0x2 (valid) 0x29d-0x29d.7 (1)
0x290|                                          7b   |              { |                        valtype: "v128" (123) 0x29e-0x29e.7 (1)
     |                                               |                |                        instructions[0:2]: 0x29f-0x2a4.7 (6)
     |                                               |                |                          [0]{}: instr 0x29f-0x2a0.7 (2)
0x290|                                             41|               A|                            i32.const: 0x41 (valid) 0x29f-0x29f.7 (1)
0x2a0|02                                             |.               |                            n: 2 0x2a0-0x2a0.7 (1)
     |                                               |                |                          [1]{}: instr 0x2a1-0x2a4.7 (4)
0x2a0|   fd                                          | .              |                            prefix: 0xfd (valid) 0x2a1-0x2a1.7 (1)
0x2a0|      03                                       |  .             |                            v128.load16x4_s: 3 (valid) 0x2a2-0x2a2.7 (1)
     |                                               |                |                            m{}: 0x2a3-0x2a4.7 (2)
0x2a0|         03                                    |   .            |                              align: 3 0x2a3-0x2a3.7 (1)
0x2a0|            00                                 |    .           |                              offset: 0 0x2a4-0x2a4.7 (1)
0x2a0|               0b                              |     .          |                        end: 11 (valid) 0x2a5-0x2a5.7 (1)
0x2a0|                  0b                           |      .         |                    end: 11 (valid) 0x2a6-0x2a6.7 (1)
     |                                               |                |                  [1]{}: instr 0x2a7-0x2a7.7 (1)
0x2a0|                     0b                        |       .        |                    end: 0xb (valid) 0x2a7-0x2a7.7 (1)
     |                                               |                |          [3]{}: code 0x2a8-0x2b6.7 (15)
0x2a0|                        0e                     |        .       |            size: 14 0x2a8-0x2a8.7 (1)
     |                                               |                |            code{}: 0x2a9-0x2b6.7 (14)
     |                                               |                |              locals{}: 0x2a9-0x2a9.7 (1)
0x2a0|                           00                  |         .      |                n: 0 0x2a9-0x2a9.7 (1)
     |                                               |                |                items[0:0]: 0x2aa-NA (0)
     |                                               |                |              expr{}: 0x2aa-0x2b6.7 (13)
     |                                               |                |                instructions[0:2]: 0x2aa-0x2b6.7 (13)
     |                                               |                |                  [0]{}: instr 0x2aa-0x2b5.7 (12)
0x2a0|                              02               |          .     |                    block: 0x2 (valid) 0x2aa-0x2aa.7 (1)
0x2a0|                                 7b            |           {    |                    valtype: "v128" (123) 0x2ab-0x2ab.7 (1)
     |                                               |                |                    instructions[0:1]: 0x2ac-0x2b4.7 (9)
     |                                               |                |                      [0]{}: instr 0x2ac-0x2b4.7 (9)
0x2a0|                                    02         |            .   |                        block: 0x2 (valid) 0x2ac-0x2ac.7 (1)
0x2a0|                                       7b      |             {  |                        valtype: "v128" (123) 0x2ad-0x2ad.7 (1)
     |                                               |                |                        instructions[0:2]: 0x2ae-0x2b3.7 (6)
     |                                               |                |                          [0]{}: instr 0x2ae-0x2af.7 (2)
0x2a0|                                          41   |              A |                            i32.const: 0x41 (valid) 0x2ae-0x2ae.7 (1)
0x2a0|                                             03|               .|                            n: 3 0x2af-0x2af.7 (1)
     |                                               |                |                          [1]{}: instr 0x2b0-0x2b3.7 (4)
0x2b0|fd                                             |.               |                            prefix: 0xfd (valid) 0x2b0-0x2b0.7 (1)
0x2b0|   04                                          | .              |                            v128.load16x4_u: 4 (valid) 0x2b1-0x2b1.7 (1)
     |                                               |                |                            m{}: 0x2b2-0x2b3.7 (2)
0x2b0|      03                                       |  .             |                              align: 3 0x2b2-0x2b2.7 (1)
0x2b0|         00                                    |   .            |                              offset: 0 0x2b3-0x2b3.7 (1)
0x2b0|            0b                                 |    .           |                        end: 11 (valid) 0x2b4-0x2b4.7 (1)
0x2b0|               0b                              |     .          |                    end: 11 (valid) 0x2b5-0x2b5.7 (1)
     |                                               |                |                  [1]{}: instr 0x2b6-0x2b6.7 (1)
0x2b0|                  0b                           |      .         |                    end: 0xb (valid) 0x2b6-0x2b6.7 (1)
     |                                               |                |          [4]{}: code 0x2b7-0x2c5.7 (15)
0x2b0|                     0e                        |       .        |            size: 14 0x2b7-0x2b7.7 (1)
     |                                               |                |            code{}: 0x2b8-0x2c5.7 (14)
     |                                               |                |              locals{}: 0x2b8-0x2b8.7 (1)
0x2b0|                        00                     |        .       |                n: 0 0x2b8-0x2b8.7 (1)
     |                                               |                |                items[0:0]: 0x2b9-NA (0)
     |                                               |                |              expr{}: 0x2b9-0x2c5.7 (13)
     |                                               |                |                instructions[0:2]: 0x2b9-0x2c5.7 (13)
     |                                               |                |                  [0]{}: instr 0x2b9-0x2c4.7 (12)
0x2b0|                           02                  |         .      |                    block: 0x2 (valid) 0x2b9-0x2b9.7 (1)
0x2b0|                              7b               |          {     |                    valtype: "v128" (123) 0x2ba-0x2ba.7 (1)
     |                                               |                |                    instructions[0:1]: 0x2bb-0x2c3.7 (9)
     |                                               |                |                      [0]{}: instr 0x2bb-0x2c3.7 (9)
0x2b0|                                 02            |           .    |                        block: 0x2 (valid) 0x2bb-0x2bb.7 (1)
0x2b0|                                    7b         |            {   |                        valtype: "v128" (123) 0x2bc-0x2bc.7 (1)
     |                                               |                |                        instructions[0:2]: 0x2bd-0x2c2.7 (6)
     |                                               |                |                          [0]{}: instr 0x2bd-0x2be.7 (2)
0x2b0|                                       41      |             A  |                            i32.const: 0x41 (valid) 0x2bd-0x2bd.7 (1)
0x2b0|                                          04   |              . |                            n: 4 0x2be-0x2be.7 (1)
     |                                               |                |                          [1]{}: instr 0x2bf-0x2c2.7 (4)
0x2b0|                                             fd|               .|                            prefix: 0xfd (valid) 0x2bf-0x2bf.7 (1)
0x2c0|05                                             |.               |                            v128.load32x2_s: 5 (valid) 0x2c0-0x2c0.7 (1)
     |                                               |                |                            m{}: 0x2c1-0x2c2.7 (2)
0x2c0|   03                                          | .              |                              align: 3 0x2c1-0x2c1.7 (1)
0x2c0|      00                                       |  .             |                              offset: 0 0x2c2-0x2c2.7 (1)
0x2c0|         0b                                    |   .            |                        end: 11 (valid) 0x2c3-0x2c3.7 (1)
0x2c0|            0b                                 |    .           |                    end: 11 (valid) 0x2c4-0x2c4.7 (1)
     |                                               |                |                  [1]{}: instr 0x2c5-0x2c5.7 (1)
0x2c0|               0b                              |     .          |                    end: 0xb (valid) 0x2c5-0x2c5.7 (1)
     |                                               |                |          [5]{}: code 0x2c6-0x2d4.7 (15)
0x2c0|                  0e                           |      .         |            size: 14 0x2c6-0x2c6.7 (1)
     |                                               |                |            code{}: 0x2c7-0x2d4.7 (14)
     |                                               |                |              locals{}: 0x2c7-0x2c7.7 (1)
0x2c0|                     00                        |       .        |                n: 0 0x2c7-0x2c7.7 (1)
     |                                               |                |                items[0:0]: 0x2c8-NA (0)
     |                                               |                |              expr{}: 0x2c8-0x2d4.7 (13)
     |                                               |                |                instructions[0:2]: 0x2c8-0x2d4.7 (13)
     |                                               |                |                  [0]{}: instr 0x2c8-0x2d3.7 (12)
0x2c0|                        02                     |        .       |                    block: 0x2 (valid) 0x2c8-0x2c8.7 (1)
0x2c0|                           7b                  |         {      |                    valtype: "v128" (123) 0x2c9-0x2c9.7 (1)
     |                                               |                |                    instructions[0:1]: 0x2ca-0x2d2.7 (9)
     |                                               |                |                      [0]{}: instr 0x2ca-0x2d2.7 (9)
0x2c0|                              02               |          .     |                        block: 0x2 (valid) 0x2ca-0x2ca.7 (1)
0x2c0|                                 7b            |           {    |                        valtype: "v128" (123) 0x2cb-0x2cb.7 (1)
     |                                               |                |                        instructions[0:2]: 0x2cc-0x2d1.7 (6)
     |                                               |                |                          [0]{}: instr 0x2cc-0x2cd.7 (2)
0x2c0|                                    41         |            A   |                            i32.const: 0x41 (valid) 0x2cc-0x2cc.7 (1)
0x2c0|                                       05      |             .  |                            n: 5 0x2cd-0x2cd.7 (1)
     |                                               |                |                          [1]{}: instr 0x2ce-0x2d1.7 (4)
0x2c0|                                          fd   |              . |                            prefix: 0xfd (valid) 0x2ce-0x2ce.7 (1)
0x2c0|                                             06|               .|                            v128.load32x2_u: 6 (valid) 0x2cf-0x2cf.7 (1)
     |                                               |                |                            m{}: 0x2d0-0x2d1.7 (2)
0x2d0|03                                             |.               |                              align: 3 0x2d0-0x2d0.7 (1)
0x2d0|   00                                          | .              |                              offset: 0 0x2d1-0x2d1.7 (1)
0x2d0|      0b                                       |  .             |                        end: 11 (valid) 0x2d2-0x2d2.7 (1)
0x2d0|         0b                                    |   .            |                    end: 11 (valid) 0x2d3-0x2d3.7 (1)
     |                                               |                |                  [1]{}: instr 0x2d4-0x2d4.7 (1)
0x2d0|            0b                                 |    .           |                    end: 0xb (valid) 0x2d4-0x2d4.7 (1)
     |                                               |                |          [6]{}: code 0x2d5-0x2e2.7 (14)
0x2d0|               0d                              |     .          |            size: 13 0x2d5-0x2d5.7 (1)
     |                                               |                |            code{}: 0x2d6-0x2e2.7 (13)
     |                                               |                |              locals{}: 0x2d6-0x2d6.7 (1)
0x2d0|                  00                           |      .         |                n: 0 0x2d6-0x2d6.7 (1)
     |                                               |                |                items[0:0]: 0x2d7-NA (0)
     |                                               |                |              expr{}: 0x2d7-0x2e2.7 (12)
     |                                               |                |                instructions[0:2]: 0x2d7-0x2e2.7 (12)
     |                                               |                |                  [0]{}: instr 0x2d7-0x2e1.7 (11)
0x2d0|                     02                        |       .        |                    block: 0x2 (valid) 0x2d7-0x2d7.7 (1)
0x2d0|                        7b                     |        {       |                    valtype: "v128" (123) 0x2d8-0x2d8.7 (1)
     |                                               |                |                    instructions[0:3]: 0x2d9-0x2e0.7 (8)
     |                                               |                |                      [0]{}: instr 0x2d9-0x2da.7 (2)
0x2d0|                           41                  |         A      |                        i32.const: 0x41 (valid) 0x2d9-0x2d9.7 (1)
0x2d0|                              06               |          .     |                        n: 6 0x2da-0x2da.7 (1)
     |                                               |                |                      [1]{}: instr 0x2db-0x2de.7 (4)
0x2d0|                                 fd            |           .    |                        prefix: 0xfd (valid) 0x2db-0x2db.7 (1)
0x2d0|                                    01         |            .   |                        v128.load8x8_s: 1 (valid) 0x2dc-0x2dc.7 (1)
     |                                               |                |                        m{}: 0x2dd-0x2de.7 (2)
0x2d0|                                       03      |             .  |                          align: 3 0x2dd-0x2dd.7 (1)
0x2d0|                                          00   |              . |                          offset: 0 0x2de-0x2de.7 (1)
     |                                               |                |                      [2]{}: instr 0x2df-0x2e0.7 (2)
0x2d0|                                             0c|               .|                        br: 0xc (valid) 0x2df-0x2df.7 (1)
0x2e0|00                                             |.               |                        l: 0 0x2e0-0x2e0.7 (1)
0x2e0|   0b                                          | .              |                    end: 11 (valid) 0x2e1-0x2e1.7 (1)
     |                                               |                |                  [1]{}: instr 0x2e2-0x2e2.7 (1)
0x2e0|      0b                                       |  .             |                    end: 0xb (valid) 0x2e2-0x2e2.7 (1)
     |                                               |                |          [7]{}: code 0x2e3-0x2f0.7 (14)
0x2e0|         0d                                    |   .            |            size: 13 0x2e3-0x2e3.7 (1)
     |                                               |                |            code{}: 0x2e4-0x2f0.7 (13)
     |                                               |                |              locals{}: 0x2e4-0x2e4.7 (1)
0x2e0|            00                                 |    .           |                n: 0 0x2e4-0x2e4.7 (1)
     |                                               |                |                items[0:0]: 0x2e5-NA (0)
     |                                               |                |              expr{}: 0x2e5-0x2f0.7 (12)
     |                                               |                |                instructions[0:2]: 0x2e5-0x2f0.7 (12)
     |                                               |                |                  [0]{}: instr 0x2e5-0x2ef.7 (11)
0x2e0|               02                              |     .          |                    block: 0x2 (valid) 0x2e5-0x2e5.7 (1)
0x2e0|                  7b                           |      {         |                    valtype: "v128" (123) 0x2e6-0x2e6.7 (1)
     |                                               |                |                    instructions[0:3]: 0x2e7-0x2ee.7 (8)
     |                                               |                |                      [0]{}: instr 0x2e7-0x2e8.7 (2)
0x2e0|                     41                        |       A        |                        i32.const: 0x41 (valid) 0x2e7-0x2e7.7 (1)
0x2e0|                        07                     |        .       |                        n: 7 0x2e8-0x2e8.7 (1)
     |                                               |                |                      [1]{}: instr 0x2e9-0x2ec.7 (4)
0x2e0|                           fd                  |         .      |                        prefix: 0xfd (valid) 0x2e9-0x2e9.7 (1)
0x2e0|                              02               |          .     |                        v128.load8x8_u: 2 (valid) 0x2ea-0x2ea.7 (1)
     |                                               |                |                        m{}: 0x2eb-0x2ec.7 (2)
0x2e0|                                 03            |           .    |                          align: 3 0x2eb-0x2eb.7 (1)
0x2e0|                                    00         |            .   |                          offset: 0 0x2ec-0x2ec.7 (1)
     |                                               |                |                      [2]{}: instr 0x2ed-0x2ee.7 (2)
0x2e0|                                       0c      |             .  |                        br: 0xc (valid) 0x2ed-0x2ed.7 (1)
0x2e0|                                          00   |              . |                        l: 0 0x2ee-0x2ee.7 (1)
0x2e0|                                             0b|               .|                    end: 11 (valid) 0x2ef-0x2ef.7 (1)
     |                                               |                |                  [1]{}: instr 0x2f0-0x2f0.7 (1)
0x2f0|0b                                             |.               |                    end: 0xb (valid) 0x2f0-0x2f0.7 (1)
     |                                               |                |          [8]{}: code 0x2f1-0x2fe.7 (14)
0x2f0|   0d                                          | .              |            size: 13 0x2f1-0x2f1.7 (1)
     |                                               |                |            code{}: 0x2f2-0x2fe.7 (13)
     |                                               |                |              locals{}: 0x2f2-0x2f2.7 (1)
0x2f0|      00                                       |  .             |                n: 0 0x2f2-0x2f2.7 (1)
     |                                               |                |                items[0:0]: 0x2f3-NA (0)
     |                                               |                |              expr{}: 0x2f3-0x2fe.7 (12)
     |                                               |                |                instructions[0:2]: 0x2f3-0x2fe.7 (12)
     |                                               |                |                  [0]{}: instr 0x2f3-0x2fd.7 (11)
0x2f0|         02                                    |   .            |                    block: 0x2 (valid) 0x2f3-0x2f3.7 (1)
0x2f0|            7b                                 |    {           |                    valtype: "v128" (123) 0x2f4-0x2f4.7 (1)
     |                                               |                |                    instructions[0:3]: 0x2f5-0x2fc.7 (8)
     |                                               |                |                      [0]{}: instr 0x2f5-0x2f6.7 (2)
0x2f0|               41                              |     A          |                        i32.const: 0x41 (valid) 0x2f5-0x2f5.7 (1)
0x2f0|                  08                           |      .         |                        n: 8 0x2f6-0x2f6.7 (1)
     |                                               |                |                      [1]{}: instr 0x2f7-0x2fa.7 (4)
0x2f0|                     fd                        |       .        |                        prefix: 0xfd (valid) 0x2f7-0x2f7.7 (1)
0x2f0|                        03                     |        .       |                        v128.load16x4_s: 3 (valid) 0x2f8-0x2f8.7 (1)
     |                                               |                |                        m{}: 0x2f9-0x2fa.7 (2)
0x2f0|                           03                  |         .      |                          align: 3 0x2f9-0x2f9.7 (1)
0x2f0|                              00               |          .     |                          offset: 0 0x2fa-0x2fa.7 (1)
     |                                               |                |                      [2]{}: instr 0x2fb-0x2fc.7 (2)
0x2f0|                                 0c            |           .    |                        br: 0xc (valid) 0x2fb-0x2fb.7 (1)
0x2f0|                                    00         |            .   |                        l: 0 0x2fc-0x2fc.7 (1)
0x2f0|                                       0b      |             .  |                    end: 11 (valid) 0x2fd-0x2fd.7 (1)
     |                                               |                |                  [1]{}: instr 0x2fe-0x2fe.7 (1)
0x2f0|                                          0b   |              . |                    end: 0xb (valid) 0x2fe-0x2fe.7 (1)
     |                                               |                |          [9]{}: code 0x2ff-0x30c.7 (14)
0x2f0|                                             0d|               .|            size: 13 0x2ff-0x2ff.7 (1)
     |                                               |                |            code{}: 0x300-0x30c.7 (13)
     |                                               |                |              locals{}: 0x300-0x300.7 (1)
0x300|00                                             |.               |                n: 0 0x300-0x300.7 (1)
     |                                               |                |                items[0:0]: 0x301-NA (0)
     |                                               |                |              expr{}: 0x301-0x30c.7 (12)
     |                                               |                |                instructions[0:2]: 0x301-0x30c.7 (12)
     |                                               |                |                  [0]{}: instr 0x301-0x30b.7 (11)
0x300|   02                                          | .              |                    block: 0x2 (valid) 0x301-0x301.7 (1)
0x300|      7b                                       |  {             |                    valtype: "v128" (123) 0x302-0x302.7 (1)
     |                                               |                |                    instructions[0:3]: 0x303-0x30a.7 (8)
     |                                               |                |                      [0]{}: instr 0x303-0x304.7 (2)
0x300|         41                                    |   A            |                        i32.const: 0x41 (valid) 0x303-0x303.7 (1)
0x300|            09                                 |    .           |                        n: 9 0x304-0x304.7 (1)
     |                                               |                |                      [1]{}: instr 0x305-0x308.7 (4)
0x300|               fd                              |     .          |                        prefix: 0xfd (valid) 0x305-0x305.7 (1)
0x300|                  04                           |      .         |                        v128.load16x4_u: 4 (valid) 0x306-0x306.7 (1)
     |                                               |                |                        m{}: 0x307-0x308.7 (2)
0x300|                     03                        |       .        |                          align: 3 0x307-0x307.7 (1)
0x300|                        00                     |        .       |                          offset: 0 0x308-0x308.7 (1)
     |                                               |                |                      [2]{}: instr 0x309-0x30a.7 (2)
0x300|                           0c                  |         .      |                        br: 0xc (valid) 0x309-0x309.7 (1)
0x300|                              00               |          .     |                        l: 0 0x30a-0x30a.7 (1)
0x300|                                 0b            |           .    |                    end: 11 (valid) 0x30b-0x30b.7 (1)
     |                                               |                |                  [1]{}: instr 0x30c-0x30c.7 (1)
0x300|                                    0b         |            .   |                    end: 0xb (valid) 0x30c-0x30c.7 (1)
     |                                               |                |          [10]{}: code 0x30d-0x31a.7 (14)
0x300|                                       0d      |             .  |            size: 13 0x30d-0x30d.7 (1)
     |                                               |                |            code{}: 0x30e-0x31a.7 (13)
     |                                               |                |              locals{}: 0x30e-0x30e.7 (1)
0x300|                                          00   |              . |                n: 0 0x30e-0x30e.7 (1)
     |                                               |                |                items[0:0]: 0x30f-NA (0)
     |                                               |                |              expr{}: 0x30f-0x31a.7 (12)
     |                                               |                |                instructions[0:2]: 0x30f-0x31a.7 (12)
     |                                               |                |                  [0]{}: instr 0x30f-0x319.7 (11)
0x300|                                             02|               .|                    block: 0x2 (valid) 0x30f-0x30f.7 (1)
0x310|7b                                             |{               |                    valtype: "v128" (123) 0x310-0x310.7 (1)
     |                                               |                |                    instructions[0:3]: 0x311-0x318.7 (8)
     |                                               |                |                      [0]{}: instr 0x311-0x312.7 (2)
0x310|   41                                          | A              |                        i32.const: 0x41 (valid) 0x311-0x311.7 (1)
0x310|      0a                                       |  .             |                        n: 10 0x312-0x312.7 (1)
     |                                               |                |                      [1]{}: instr 0x313-0x316.7 (4)
0x310|         fd                                    |   .            |                        prefix: 0xfd (valid) 0x313-0x313.7 (1)
0x310|            05                                 |    .           |                        v128.load32x2_s: 5 (valid) 0x314-0x314.7 (1)
     |                                               |                |                        m{}: 0x315-0x316.7 (2)
0x310|               03                              |     .          |                          align: 3 0x315-0x315.7 (1)
0x310|                  00                           |      .         |                          offset: 0 0x316-0x316.7 (1)
     |                                               |                |                      [2]{}: instr 0x317-0x318.7 (2)
0x310|                     0c                        |       .        |                        br: 0xc (valid) 0x317-0x317.7 (1)
0x310|                        00                     |        .       |                        l: 0 0x318-0x318.7 (1)
0x310|                           0b                  |         .      |                    end: 11 (valid) 0x319-0x319.7 (1)
     |                                               |                |                  [1]{}: instr 0x31a-0x31a.7 (1)
0x310|                              0b               |          .     |                    end: 0xb (valid) 0x31a-0x31a.7 (1)
     |                                               |                |          [11]{}: code 0x31b-0x328.7 (14)
0x310|                                 0d            |           .    |            size: 13 0x31b-0x31b.7 (1)
     |                                               |                |            code{}: 0x31c-0x328.7 (13)
     |                                               |                |              locals{}: 0x31c-0x31c.7 (1)
0x310|                                    00         |            .   |                n: 0 0x31c-0x31c.7 (1)
     |                                               |                |                items[0:0]: 0x31d-NA (0)
     |                                               |                |              expr{}: 0x31d-0x328.7 (12)
     |                                               |                |                instructions[0:2]: 0x31d-0x328.7 (12)
     |                                               |                |                  [0]{}: instr 0x31d-0x327.7 (11)
0x310|                                       02      |             .  |                    block: 0x2 (valid) 0x31d-0x31d.7 (1)
0x310|                                          7b   |              { |                    valtype: "v128" (123) 0x31e-0x31e.7 (1)
     |                                               |                |                    instructions[0:3]: 0x31f-0x326.7 (8)
     |                                               |                |                      [0]{}: instr 0x31f-0x320.7 (2)
0x310|                                             41|               A|                        i32.const: 0x41 (valid) 0x31f-0x31f.7 (1)
0x320|0b                                             |.               |                        n: 11 0x320-0x320.7 (1)
     |                                               |                |                      [1]{}: instr 0x321-0x324.7 (4)
0x320|   fd                                          | .              |                        prefix: 0xfd (valid) 0x321-0x321.7 (1)
0x320|      06                                       |  .             |                        v128.load32x2_u: 6 (valid) 0x322-0x322.7 (1)
     |                                               |                |                        m{}: 0x323-0x324.7 (2)
0x320|         03                                    |   .            |                          align: 3 0x323-0x323.7 (1)
0x320|            00                                 |    .           |                          offset: 0 0x324-0x324.7 (1)
     |                                               |                |                      [2]{}: instr 0x325-0x326.7 (2)
0x320|               0c                              |     .          |                        br: 0xc (valid) 0x325-0x325.7 (1)
0x320|                  00                           |      .         |                        l: 0 0x326-0x326.7 (1)
0x320|                     0b                        |       .        |                    end: 11 (valid) 0x327-0x327.7 (1)
     |                                               |                |                  [1]{}: instr 0x328-0x328.7 (1)
0x320|                        0b                     |        .       |                    end: 0xb (valid) 0x328-0x328.7 (1)
     |                                               |                |          [12]{}: code 0x329-0x334.7 (12)
0x320|                           0b                  |         .      |            size: 11 0x329-0x329.7 (1)
     |                                               |                |            code{}: 0x32a-0x334.7 (11)
     |                                               |                |              locals{}: 0x32a-0x32a.7 (1)
0x320|                              00               |          .     |                n: 0 0x32a-0x32a.7 (1)
     |                                               |                |                items[0:0]: 0x32b-NA (0)
     |                                               |                |              expr{}: 0x32b-0x334.7 (10)
     |                                               |                |                instructions[0:4]: 0x32b-0x334.7 (10)
     |                                               |                |                  [0]{}: instr 0x32b-0x32c.7 (2)
0x320|                                 41            |           A    |                    i32.const: 0x41 (valid) 0x32b-0x32b.7 (1)
0x320|                                    0c         |            .   |                    n: 12 0x32c-0x32c.7 (1)
     |                                               |                |                  [1]{}: instr 0x32d-0x330.7 (4)
0x320|                                       fd      |             .  |                    prefix: 0xfd (valid) 0x32d-0x32d.7 (1)
0x320|                                          01   |              . |                    v128.load8x8_s: 1 (valid) 0x32e-0x32e.7 (1)
     |                                               |                |                    m{}: 0x32f-0x330.7 (2)
0x320|                                             03|               .|                      align: 3 0x32f-0x32f.7 (1)
0x330|00                                             |.               |                      offset: 0 0x330-0x330.7 (1)
     |                                               |                |                  [2]{}: instr 0x331-0x333.7 (3)
0x330|   fd                                          | .              |                    prefix: 0xfd (valid) 0x331-0x331.7 (1)
0x330|      15                                       |  .             |                    i8x16.extract_lane_s: 21 (valid) 0x332-0x332.7 (1)
0x330|         00                                    |   .            |                    laneidx: 0 0x333-0x333.7 (1)
     |                                               |                |                  [3]{}: instr 0x334-0x334.7 (1)
0x330|            0b                                 |    .           |                    end: 0xb (valid) 0x334-0x334.7 (1)
     |                                               |                |          [13]{}: code 0x335-0x340.7 (12)
0x330|               0b                              |     .          |            size: 11 0x335-0x335.7 (1)
     |                                               |                |            code{}: 0x336-0x340.7 (11)
     |                                               |                |              locals{}: 0x336-0x336.7 (1)
0x330|                  00                           |      .         |                n: 0 0x336-0x336.7 (1)
     |                                               |                |                items[0:0]: 0x337-NA (0)
     |                                               |                |              expr{}: 0x337-0x340.7 (10)
     |                                               |                |                instructions[0:4]: 0x337-0x340.7 (10)
     |                                               |                |                  [0]{}: instr 0x337-0x338.7 (2)
0x330|                     41                        |       A        |                    i32.const: 0x41 (valid) 0x337-0x337.7 (1)
0x330|                        0d                     |        .       |                    n: 13 0x338-0x338.7 (1)
     |                                               |                |                  [1]{}: instr 0x339-0x33c.7 (4)
0x330|                           fd                  |         .      |                    prefix: 0xfd (valid) 0x339-0x339.7 (1)
0x330|                              02               |          .     |                    v128.load8x8_u: 2 (valid) 0x33a-0x33a.7 (1)
     |                                               |                |                    m{}: 0x33b-0x33c.7 (2)
0x330|                                 03            |           .    |                      align: 3 0x33b-0x33b.7 (1)
0x330|                                    00         |            .   |                      offset: 0 0x33c-0x33c.7 (1)
     |                                               |                |                  [2]{}: instr 0x33d-0x33f.7 (3)
0x330|                                       fd      |             .  |                    prefix: 0xfd (valid) 0x33d-0x33d.7 (1)
0x330|                                          15   |              . |                    i8x16.extract_lane_s: 21 (valid) 0x33e-0x33e.7 (1)
0x330|                                             00|               .|                    laneidx: 0 0x33f-0x33f.7 (1)
     |                                               |                |                  [3]{}: instr 0x340-0x340.7 (1)
0x340|0b                                             |.               |                    end: 0xb (valid) 0x340-0x340.7 (1)
     |                                               |                |          [14]{}: code 0x341-0x34c.7 (12)
0x340|   0b                                          | .              |            size: 11 0x341-0x341.7 (1)
     |                                               |                |            code{}: 0x342-0x34c.7 (11)
     |                                               |                |              locals{}: 0x342-0x342.7 (1)
0x340|      00                                       |  .             |                n: 0 0x342-0x342.7 (1)
     |                                               |                |                items[0:0]: 0x343-NA (0)
     |                                               |                |              expr{}: 0x343-0x34c.7 (10)
     |                                               |                |                instructions[0:4]: 0x343-0x34c.7 (10)
     |                                               |                |                  [0]{}: instr 0x343-0x344.7 (2)
0x340|         41                                    |   A            |                    i32.const: 0x41 (valid) 0x343-0x343.7 (1)
0x340|            0e                                 |    .           |                    n: 14 0x344-0x344.7 (1)
     |                                               |                |                  [1]{}: instr 0x345-0x348.7 (4)
0x340|               fd                              |     .          |                    prefix: 0xfd (valid) 0x345-0x345.7 (1)
0x340|                  03                           |      .         |                    v128.load16x4_s: 3 (valid) 0x346-0x346.7 (1)
     |                                               |                |                    m{}: 0x347-0x348.7 (2)
0x340|                     03                        |       .        |                      align: 3 0x347-0x347.7 (1)
0x340|                        00                     |        .       |                      offset: 0 0x348-0x348.7 (1)
     |                                               |                |                  [2]{}: instr 0x349-0x34b.7 (3)
0x340|                           fd                  |         .      |                    prefix: 0xfd (valid) 0x349-0x349.7 (1)
0x340|                              15               |          .     |                    i8x16.extract_lane_s: 21 (valid) 0x34a-0x34a.7 (1)
0x340|                                 00            |           .    |                    laneidx: 0 0x34b-0x34b.7 (1)
     |                                               |                |                  [3]{}: instr 0x34c-0x34c.7 (1)
0x340|                                    0b         |            .   |                    end: 0xb (valid) 0x34c-0x34c.7 (1)
     |                                               |                |          [15]{}: code 0x34d-0x358.7 (12)
0x340|                                       0b      |             .  |            size: 11 0x34d-0x34d.7 (1)
     |                                               |                |            code{}: 0x34e-0x358.7 (11)
     |                                               |                |              locals{}: 0x34e-0x34e.7 (1)
0x340|                                          00   |              . |                n: 0 0x34e-0x34e.7 (1)
     |                                               |                |                items[0:0]: 0x34f-NA (0)
     |                                               |                |              expr{}: 0x34f-0x358.7 (10)
     |                                               |                |                instructions[0:4]: 0x34f-0x358.7 (10)
     |                                               |                |                  [0]{}: instr 0x34f-0x350.7 (2)
0x340|                                             41|               A|                    i32.const: 0x41 (valid) 0x34f-0x34f.7 (1)
0x350|0f                                             |.               |                    n: 15 0x350-0x350.7 (1)
     |                                               |                |                  [1]{}: instr 0x351-0x354.7 (4)
0x350|   fd                                          | .              |                    prefix: 0xfd (valid) 0x351-0x351.7 (1)
0x350|      04                                       |  .             |                    v128.load16x4_u: 4 (valid) 0x352-0x352.7 (1)
     |                                               |                |                    m{}: 0x353-0x354.7 (2)
0x350|         03                                    |   .            |                      align: 3 0x353-0x353.7 (1)
0x350|            00                                 |    .           |                      offset: 0 0x354-0x354.7 (1)
     |                                               |                |                  [2]{}: instr 0x355-0x357.7 (3)
0x350|               fd                              |     .          |                    prefix: 0xfd (valid) 0x355-0x355.7 (1)
0x350|                  15                           |      .         |                    i8x16.extract_lane_s: 21 (valid) 0x356-0x356.7 (1)
0x350|                     00                        |       .        |                    laneidx: 0 0x357-0x357.7 (1)
     |                                               |                |                  [3]{}: instr 0x358-0x358.7 (1)
0x350|                        0b                     |        .       |                    end: 0xb (valid) 0x358-0x358.7 (1)
     |                                               |                |          [16]{}: code 0x359-0x364.7 (12)
0x350|                           0b                  |         .      |            size: 11 0x359-0x359.7 (1)
     |                                               |                |            code{}: 0x35a-0x364.7 (11)
     |                                               |                |              locals{}: 0x35a-0x35a.7 (1)
0x350|                              00               |          .     |                n: 0 0x35a-0x35a.7 (1)
     |                                               |                |                items[0:0]: 0x35b-NA (0)
     |                                               |                |              expr{}: 0x35b-0x364.7 (10)
     |                                               |                |                instructions[0:4]: 0x35b-0x364.7 (10)
     |                                               |                |                  [0]{}: instr 0x35b-0x35c.7 (2)
0x350|                                 41            |           A    |                    i32.const: 0x41 (valid) 0x35b-0x35b.7 (1)
0x350|                                    10         |            .   |                    n: 16 0x35c-0x35c.7 (1)
     |                                               |                |                  [1]{}: instr 0x35d-0x360.7 (4)
0x350|                                       fd      |             .  |                    prefix: 0xfd (valid) 0x35d-0x35d.7 (1)
0x350|                                          05   |              . |                    v128.load32x2_s: 5 (valid) 0x35e-0x35e.7 (1)
     |                                               |                |                    m{}: 0x35f-0x360.7 (2)
0x350|                                             03|               .|                      align: 3 0x35f-0x35f.7 (1)
0x360|00                                             |.               |                      offset: 0 0x360-0x360.7 (1)
     |                                               |                |                  [2]{}: instr 0x361-0x363.7 (3)
0x360|   fd                                          | .              |                    prefix: 0xfd (valid) 0x361-0x361.7 (1)
0x360|      15                                       |  .             |                    i8x16.extract_lane_s: 21 (valid) 0x362-0x362.7 (1)
0x360|         00                                    |   .            |                    laneidx: 0 0x363-0x363.7 (1)
     |                                               |                |                  [3]{}: instr 0x364-0x364.7 (1)
0x360|            0b                                 |    .           |                    end: 0xb (valid) 0x364-0x364.7 (1)
     |                                               |                |          [17]{}: code 0x365-0x370.7 (12)
0x360|               0b                              |     .          |            size: 11 0x365-0x365.7 (1)
     |                                               |                |            code{}: 0x366-0x370.7 (11)
     |                                               |                |              locals{}: 0x366-0x366.7 (1)
0x360|                  00                           |      .         |                n: 0 0x366-0x366.7 (1)
     |                                               |                |                items[0:0]: 0x367-NA (0)
     |                                               |                |              expr{}: 0x367-0x370.7 (10)
     |                                               |                |                instructions[0:4]: 0x367-0x370.7 (10)
     |                                               |                |                  [0]{}: instr 0x367-0x368.7 (2)
0x360|                     41                        |       A        |                    i32.const: 0x41 (valid) 0x367-0x367.7 (1)
0x360|                        11                     |        .       |                    n: 17 0x368-0x368.7 (1)
     |                                               |                |                  [1]{}: instr 0x369-0x36c.7 (4)
0x360|                           fd                  |         .      |                    prefix: 0xfd (valid) 0x369-0x369.7 (1)
0x360|                              06               |          .     |                    v128.load32x2_u: 6 (valid) 0x36a-0x36a.7 (1)
     |                                               |                |                    m{}: 0x36b-0x36c.7 (2)
0x360|                                 03            |           .    |                      align: 3 0x36b-0x36b.7 (1)
0x360|                                    00         |            .   |                      offset: 0 0x36c-0x36c.7 (1)
     |                                               |                |                  [2]{}: instr 0x36d-0x36f.7 (3)
0x360|                                       fd      |             .  |                    prefix: 0xfd (valid) 0x36d-0x36d.7 (1)
0x360|                                          15   |              . |                    i8x16.extract_lane_s: 21 (valid) 0x36e-0x36e.7 (1)
0x360|                                             00|               .|                    laneidx: 0 0x36f-0x36f.7 (1)
     |                                               |                |                  [3]{}: instr 0x370-0x370.7 (1)
0x370|0b                                             |.               |                    end: 0xb (valid) 0x370-0x370.7 (1)
     |                                               |                |    [5]{}: section 0x371-0x392.7 (34)
0x370|   0b                                          | .              |      id: "data section" (11) 0x371-0x371.7 (1)
0x370|      20                                       |                |      size: 32 0x372-0x372.7 (1)
     |                                               |                |      content{}: 0x373-0x392.7 (32)
0x370|         01                                    |   .            |        n: 1 0x373-0x373.7 (1)
     |                                               |                |        items[0:1]: 0x374-0x392.7 (31)
     |                                               |                |          [0]{}: data 0x374-0x392.7 (31)
0x370|            00                                 |    .           |            tag: 0 0x374-0x374.7 (1)
     |                                               |                |            instructions[0:2]: 0x375-0x377.7 (3)
     |                                               |                |              [0]{}: instr 0x375-0x376.7 (2)
0x370|               41                              |     A          |                i32.const: 0x41 (valid) 0x375-0x375.7 (1)
0x370|                  00                           |      .         |                n: 0 0x376-0x376.7 (1)
     |                                               |                |              [1]{}: instr 0x377-0x377.7 (1)
0x370|                     0b                        |       .        |                end: 0xb (valid) 0x377-0x377.7 (1)
0x370|                        1a                     |        .       |            n: 26 0x378-0x378.7 (1)
0x370|                           00 01 02 03 04 05 06|         .......|            bytes: raw bits 0x379-0x392.7 (26)
0x380|07 08 09 0a 0b 0c 0d 0e 0f 80 81 82 83 84 85 86|................|
0x390|87 88 89|                                      |...|            |
