$ fq -d wasm dv simd_i16x8_sat_arith-0.wasm
    |00 01 02 03 04 05 06 07 08 09 0a 0b 0c 0d 0e 0f|0123456789abcdef|.{}: simd_i16x8_sat_arith-0.wasm (wasm) 0x0-0x8d.7 (142)
0x00|00 61 73 6d                                    |.asm            |  magic: raw bits (valid) 0x0-0x3.7 (4)
0x00|            01 00 00 00                        |    ....        |  version: 1 0x4-0x7.7 (4)
    |                                               |                |  sections[0:4]: 0x8-0x8d.7 (134)
    |                                               |                |    [0]{}: section 0x8-0x10.7 (9)
0x00|                        01                     |        .       |      id: "type section" (1) 0x8-0x8.7 (1)
0x00|                           07                  |         .      |      size: 7 0x9-0x9.7 (1)
    |                                               |                |      content{}: 0xa-0x10.7 (7)
0x00|                              01               |          .     |        n: 1 0xa-0xa.7 (1)
    |                                               |                |        items[0:1]: 0xb-0x10.7 (6)
    |                                               |                |          [0]{}: functype 0xb-0x10.7 (6)
0x00|                                 60            |           `    |            tag: 0x60 (valid) 0xb-0xb.7 (1)
    |                                               |                |            rt1{}: 0xc-0xe.7 (3)
0x00|                                    02         |            .   |              n: 2 0xc-0xc.7 (1)
    |                                               |                |              items[0:2]: 0xd-0xe.7 (2)
0x00|                                       7b      |             {  |                [0]: "v128" (123) valtype 0xd-0xd.7 (1)
0x00|                                          7b   |              { |                [1]: "v128" (123) valtype 0xe-0xe.7 (1)
    |                                               |                |            rt2{}: 0xf-0x10.7 (2)
0x00|                                             01|               .|              n: 1 0xf-0xf.7 (1)
    |                                               |                |              items[0:1]: 0x10-0x10.7 (1)
0x10|7b                                             |{               |                [0]: "v128" (123) valtype 0x10-0x10.7 (1)
    |                                               |                |    [1]{}: section 0x11-0x17.7 (7)
0x10|   03                                          | .              |      id: "function section" (3) 0x11-0x11.7 (1)
0x10|      05                                       |  .             |      size: 5 0x12-0x12.7 (1)
    |                                               |                |      content{}: 0x13-0x17.7 (5)
0x10|         04                                    |   .            |        n: 4 0x13-0x13.7 (1)
    |                                               |                |        items[0:4]: 0x14-0x17.7 (4)
0x10|            00                                 |    .           |          [0]: 0 x 0x14-0x14.7 (1)
0x10|               00                              |     .          |          [1]: 0 x 0x15-0x15.7 (1)
0x10|                  00                           |      .         |          [2]: 0 x 0x16-0x16.7 (1)
0x10|                     00                        |       .        |          [3]: 0 x 0x17-0x17.7 (1)
    |                                               |                |    [2]{}: section 0x18-0x62.7 (75)
0x10|                        07                     |        .       |      id: "export section" (7) 0x18-0x18.7 (1)
0x10|                           49                  |         I      |      size: 73 0x19-0x19.7 (1)
    |                                               |                |      content{}: 0x1a-0x62.7 (73)
0x10|                              04               |          .     |        n: 4 0x1a-0x1a.7 (1)
    |                                               |                |        items[0:4]: 0x1b-0x62.7 (72)
    |                                               |                |          [0]{}: export 0x1b-0x2c.7 (18)
    |                                               |                |            name{}: 0x1b-0x2a.7 (16)
0x10|                                 0f            |           .    |              len: 15 0x1b-0x1b.7 (1)
0x10|                                    69 31 36 78|            i16x|              utf8bytes: "i16x8.add_sat_s" 0x1c-0x2a.7 (15)
0x20|38 2e 61 64 64 5f 73 61 74 5f 73               |8.add_sat_s     |
    |                                               |                |            expr{}: 0x2b-0x2c.7 (2)
0x20|                                 00            |           .    |              tag: "funcidx" (0x0) 0x2b-0x2b.7 (1)
0x20|                                    00         |            .   |              x: 0 0x2c-0x2c.7 (1)
    |                                               |                |          [1]{}: export 0x2d-0x3e.7 (18)
    |                                               |                |            name{}: 0x2d-0x3c.7 (16)
0x20|                                       0f      |             .  |              len: 15 0x2d-0x2d.7 (1)
0x20|                                          69 31|              i1|              utf8bytes: "i16x8.add_sat_u" 0x2e-0x3c.7 (15)
0x30|36 78 38 2e 61 64 64 5f 73 61 74 5f 75         |6x8.add_sat_u   |
    |                                               |                |            expr{}: 0x3d-0x3e.7 (2)
0x30|                                       00      |             .  |              tag: "funcidx" (0x0) 0x3d-0x3d.7 (1)
0x30|                                          01   |              . |              x: 1 0x3e-0x3e.7 (1)
    |                                               |                |          [2]{}: export 0x3f-0x50.7 (18)
    |                                               |                |            name{}: 0x3f-0x4e.7 (16)
0x30|                                             0f|               .|              len: 15 0x3f-0x3f.7 (1)
0x40|69 31 36 78 38 2e 73 75 62 5f 73 61 74 5f 73   |i16x8.sub_sat_s |              utf8bytes: "i16x8.sub_sat_s" 0x40-0x4e.7 (15)
    |                                               |                |            expr{}: 0x4f-0x50.7 (2)
0x40|                                             00|               .|              tag: "funcidx" (0x0) 0x4f-0x4f.7 (1)
0x50|02                                             |.               |              x: 2 0x50-0x50.7 (1)
    |                                               |                |          [3]{}: export 0x51-0x62.7 (18)
    |                                               |                |            name{}: 0x51-0x60.7 (16)
0x50|   0f                                          | .              |              len: 15 0x51-0x51.7 (1)
0x50|      69 31 36 78 38 2e 73 75 62 5f 73 61 74 5f|  i16x8.sub_sat_|              utf8bytes: "i16x8.sub_sat_u" 0x52-0x60.7 (15)
0x60|75                                             |u               |
    |                                               |                |            expr{}: 0x61-0x62.7 (2)
0x60|   00                                          | .              |              tag: "funcidx" (0x0) 0x61-0x61.7 (1)
0x60|      03                                       |  .             |              x: 3 0x62-0x62.7 (1)
    |                                               |                |    [3]{}: section 0x63-0x8d.7 (43)
0x60|         0a                                    |   .            |      id: "code section" (10) 0x63-0x63.7 (1)
0x60|            29                                 |    )           |      size: 41 0x64-0x64.7 (1)
    |                                               |                |      content{}: 0x65-0x8d.7 (41)
0x60|               04                              |     .          |        n: 4 0x65-0x65.7 (1)
    |                                               |                |        items[0:4]: 0x66-0x8d.7 (40)
    |                                               |                |          [0]{}: code 0x66-0x6f.7 (10)
0x60|                  09                           |      .         |            size: 9 0x66-0x66.7 (1)
    |                                               |                |            code{}: 0x67-0x6f.7 (9)
    |                                               |                |              locals{}: 0x67-0x67.7 (1)
0x60|                     00                        |       .        |                n: 0 0x67-0x67.7 (1)
    |                                               |                |                items[0:0]: 0x68-NA (0)
    |                                               |                |              expr{}: 0x68-0x6f.7 (8)
    |                                               |                |                instructions[0:4]: 0x68-0x6f.7 (8)
    |                                               |                |                  [0]{}: instr 0x68-0x69.7 (2)
0x60|                        20                     |                |                    local.get: 0x20 (valid) 0x68-0x68.7 (1)
0x60|                           00                  |         .      |                    x: 0 0x69-0x69.7 (1)
    |                                               |                |                  [1]{}: instr 0x6a-0x6b.7 (2)
0x60|                              20               |                |                    local.get: 0x20 (valid) 0x6a-0x6a.7 (1)
0x60|                                 01            |           .    |                    x: 1 0x6b-0x6b.7 (1)
    |                                               |                |                  [2]{}: instr 0x6c-0x6e.7 (3)
0x60|                                    fd         |            .   |                    prefix: 0xfd (valid) 0x6c-0x6c.7 (1)
0x60|                                       8f 01   |             .. |                    i16x8.add_sat_s: 143 (valid) 0x6d-0x6e.7 (2)
    |                                               |                |                  [3]{}: instr 0x6f-0x6f.7 (1)
0x60|                                             0b|               .|                    end: 0xb (valid) 0x6f-0x6f.7 (1)
    |                                               |                |          [1]{}: code 0x70-0x79.7 (10)
0x70|09                                             |.               |            size: 9 0x70-0x70.7 (1)
    |                                               |                |            code{}: 0x71-0x79.7 (9)
    |                                               |                |              locals{}: 0x71-0x71.7 (1)
0x70|   00                                          | .              |                n: 0 0x71-0x71.7 (1)
    |                                               |                |                items[0:0]: 0x72-NA (0)
    |                                               |                |              expr{}: 0x72-0x79.7 (8)
    |                                               |                |                instructions[0:4]: 0x72-0x79.7 (8)
    |                                               |                |                  [0]{}: instr 0x72-0x73.7 (2)
0x70|      20                                       |                |                    local.get: 0x20 (valid) 0x72-0x72.7 (1)
0x70|         00                                    |   .            |                    x: 0 0x73-0x73.7 (1)
    |                                               |                |                  [1]{}: instr 0x74-0x75.7 (2)
0x70|            20                                 |                |                    local.get: 0x20 (valid) 0x74-0x74.7 (1)
0x70|               01                              |     .          |                    x: 1 0x75-0x75.7 (1)
    |                                               |                |                  [2]{}: instr 0x76-0x78.7 (3)
0x70|                  fd                           |      .         |                    prefix: 0xfd (valid) 0x76-0x76.7 (1)
0x70|                     90 01                     |       ..       |                    i16x8.add_sat_u: 144 (valid) 0x77-0x78.7 (2)
    |                                               |                |                  [3]{}: instr 0x79-0x79.7 (1)
0x70|                           0b                  |         .      |                    end: 0xb (valid) 0x79-0x79.7 (1)
    |                                               |                |          [2]{}: code 0x7a-0x83.7 (10)
0x70|                              09               |          .     |            size: 9 0x7a-0x7a.7 (1)
    |                                               |                |            code{}: 0x7b-0x83.7 (9)
    |                                               |                |              locals{}: 0x7b-0x7b.7 (1)
0x70|                                 00            |           .    |                n: 0 0x7b-0x7b.7 (1)
    |                                               |                |                items[0:0]: 0x7c-NA (0)
    |                                               |                |              expr{}: 0x7c-0x83.7 (8)
    |                                               |                |                instructions[0:4]: 0x7c-0x83.7 (8)
    |                                               |                |                  [0]{}: instr 0x7c-0x7d.7 (2)
0x70|                                    20         |                |                    local.get: 0x20 (valid) 0x7c-0x7c.7 (1)
0x70|                                       00      |             .  |                    x: 0 0x7d-0x7d.7 (1)
    |                                               |                |                  [1]{}: instr 0x7e-0x7f.7 (2)
0x70|                                          20   |                |                    local.get: 0x20 (valid) 0x7e-0x7e.7 (1)
0x70|                                             01|               .|                    x: 1 0x7f-0x7f.7 (1)
    |                                               |                |                  [2]{}: instr 0x80-0x82.7 (3)
0x80|fd                                             |.               |                    prefix: 0xfd (valid) 0x80-0x80.7 (1)
0x80|   92 01                                       | ..             |                    i16x8.sub_sat_s: 146 (valid) 0x81-0x82.7 (2)
    |                                               |                |                  [3]{}: instr 0x83-0x83.7 (1)
0x80|         0b                                    |   .            |                    end: 0xb (valid) 0x83-0x83.7 (1)
    |                                               |                |          [3]{}: code 0x84-0x8d.7 (10)
0x80|            09                                 |    .           |            size: 9 0x84-0x84.7 (1)
    |                                               |                |            code{}: 0x85-0x8d.7 (9)
    |                                               |                |              locals{}: 0x85-0x85.7 (1)
0x80|               00                              |     .          |                n: 0 0x85-0x85.7 (1)
    |                                               |                |                items[0:0]: 0x86-NA (0)
    |                                               |                |              expr{}: 0x86-0x8d.7 (8)
    |                                               |                |                instructions[0:4]: 0x86-0x8d.7 (8)
    |                                               |                |                  [0]{}: instr 0x86-0x87.7 (2)
0x80|                  20                           |                |                    local.get: 0x20 (valid) 0x86-0x86.7 (1)
0x80|                     00                        |       .        |                    x: 0 0x87-0x87.7 (1)
    |                                               |                |                  [1]{}: instr 0x88-0x89.7 (2)
0x80|                        20                     |                |                    local.get: 0x20 (valid) 0x88-0x88.7 (1)
0x80|                           01                  |         .      |                    x: 1 0x89-0x89.7 (1)
    |                                               |                |                  [2]{}: instr 0x8a-0x8c.7 (3)
0x80|                              fd               |          .     |                    prefix: 0xfd (valid) 0x8a-0x8a.7 (1)
0x80|                                 93 01         |           ..   |                    i16x8.sub_sat_u: 147 (valid) 0x8b-0x8c.7 (2)
    |                                               |                |                  [3]{}: instr 0x8d-0x8d.7 (1)
0x80|                                       0b|     |             .| |                    end: 0xb (valid) 0x8d-0x8d.7 (1)
