$ fq -d wasm dv simd_const-301.wasm
     |00 01 02 03 04 05 06 07 08 09 0a 0b 0c 0d 0e 0f|0123456789abcdef|.{}: simd_const-301.wasm (wasm) 0x0-0x4c1.7 (1218)
0x000|00 61 73 6d                                    |.asm            |  magic: raw bits (valid) 0x0-0x3.7 (4)
0x000|            01 00 00 00                        |    ....        |  version: 1 0x4-0x7.7 (4)
     |                                               |                |  sections[0:7]: 0x8-0x4c1.7 (1210)
     |                                               |                |    [0]{}: section 0x8-0x18.7 (17)
0x000|                        01                     |        .       |      id: "type section" (1) 0x8-0x8.7 (1)
0x000|                           0f                  |         .      |      size: 15 0x9-0x9.7 (1)
     |                                               |                |      content{}: 0xa-0x18.7 (15)
0x000|                              03               |          .     |        n: 3 0xa-0xa.7 (1)
     |                                               |                |        items[0:3]: 0xb-0x18.7 (14)
     |                                               |                |          [0]{}: functype 0xb-0x11.7 (7)
0x000|                                 60            |           `    |            tag: 0x60 (valid) 0xb-0xb.7 (1)
     |                                               |                |            rt1{}: 0xc-0xf.7 (4)
0x000|                                    03         |            .   |              n: 3 0xc-0xc.7 (1)
     |                                               |                |              items[0:3]: 0xd-0xf.7 (3)
0x000|                                       7b      |             {  |                [0]: "v128" (123) valtype 0xd-0xd.7 (1)
0x000|                                          7b   |              { |                [1]: "v128" (123) valtype 0xe-0xe.7 (1)
0x000|                                             7b|               {|                [2]: "v128" (123) valtype 0xf-0xf.7 (1)
     |                                               |                |            rt2{}: 0x10-0x11.7 (2)
0x010|01                                             |.               |              n: 1 0x10-0x10.7 (1)
     |                                               |                |              items[0:1]: 0x11-0x11.7 (1)
0x010|   7b                                          | {              |                [0]: "v128" (123) valtype 0x11-0x11.7 (1)
     |                                               |                |          [1]{}: functype 0x12-0x15.7 (4)
0x010|      60                                       |  `             |            tag: 0x60 (valid) 0x12-0x12.7 (1)
     |                                               |                |            rt1{}: 0x13-0x13.7 (1)
0x010|         00                                    |   .            |              n: 0 0x13-0x13.7 (1)
     |                                               |                |              items[0:0]: 0x14-NA (0)
     |                                               |                |            rt2{}: 0x14-0x15.7 (2)
0x010|            01                                 |    .           |              n: 1 0x14-0x14.7 (1)
     |                                               |                |              items[0:1]: 0x15-0x15.7 (1)
0x010|               7b                              |     {          |                [0]: "v128" (123) valtype 0x15-0x15.7 (1)
     |                                               |                |          [2]{}: functype 0x16-0x18.7 (3)
0x010|                  60                           |      `         |            tag: 0x60 (valid) 0x16-0x16.7 (1)
     |                                               |                |            rt1{}: 0x17-0x17.7 (1)
0x010|                     00                        |       .        |              n: 0 0x17-0x17.7 (1)
     |                                               |                |              items[0:0]: 0x18-NA (0)
     |                                               |                |            rt2{}: 0x18-0x18.7 (1)
0x010|                        00                     |        .       |              n: 0 0x18-0x18.7 (1)
     |                                               |                |              items[0:0]: 0x19-NA (0)
     |                                               |                |    [1]{}: section 0x19-0x31.7 (25)
0x010|                           03                  |         .      |      id: "function section" (3) 0x19-0x19.7 (1)
0x010|                              17               |          .     |      size: 23 0x1a-0x1a.7 (1)
     |                                               |                |      content{}: 0x1b-0x31.7 (23)
0x010|                                 16            |           .    |        n: 22 0x1b-0x1b.7 (1)
     |                                               |                |        items[0:22]: 0x1c-0x31.7 (22)
0x010|                                    01         |            .   |          [0]: 1 x 0x1c-0x1c.7 (1)
0x010|                                       01      |             .  |          [1]: 1 x 0x1d-0x1d.7 (1)
0x010|                                          01   |              . |          [2]: 1 x 0x1e-0x1e.7 (1)
0x010|                                             01|               .|          [3]: 1 x 0x1f-0x1f.7 (1)
0x020|01                                             |.               |          [4]: 1 x 0x20-0x20.7 (1)
0x020|   00                                          | .              |          [5]: 0 x 0x21-0x21.7 (1)
0x020|      01                                       |  .             |          [6]: 1 x 0x22-0x22.7 (1)
0x020|         01                                    |   .            |          [7]: 1 x 0x23-0x23.7 (1)
0x020|            01                                 |    .           |          [8]: 1 x 0x24-0x24.7 (1)
0x020|               02                              |     .          |          [9]: 2 x 0x25-0x25.7 (1)
0x020|                  01                           |      .         |          [10]: 1 x 0x26-0x26.7 (1)
0x020|                     01                        |       .        |          [11]: 1 x 0x27-0x27.7 (1)
0x020|                        01                     |        .       |          [12]: 1 x 0x28-0x28.7 (1)
0x020|                           01                  |         .      |          [13]: 1 x 0x29-0x29.7 (1)
0x020|                              01               |          .     |          [14]: 1 x 0x2a-0x2a.7 (1)
0x020|                                 00            |           .    |          [15]: 0 x 0x2b-0x2b.7 (1)
0x020|                                    01         |            .   |          [16]: 1 x 0x2c-0x2c.7 (1)
0x020|                                       01      |             .  |          [17]: 1 x 0x2d-0x2d.7 (1)
0x020|                                          01   |              . |          [18]: 1 x 0x2e-0x2e.7 (1)
0x020|                                             01|               .|          [19]: 1 x 0x2f-0x2f.7 (1)
0x030|01                                             |.               |          [20]: 1 x 0x30-0x30.7 (1)
0x030|   02                                          | .              |          [21]: 2 x 0x31-0x31.7 (1)
     |                                               |                |    [2]{}: section 0x32-0x38.7 (7)
0x030|      04                                       |  .             |      id: "table section" (4) 0x32-0x32.7 (1)
0x030|         05                                    |   .            |      size: 5 0x33-0x33.7 (1)
     |                                               |                |      content{}: 0x34-0x38.7 (5)
0x030|            01                                 |    .           |        n: 1 0x34-0x34.7 (1)
     |                                               |                |        items[0:1]: 0x35-0x38.7 (4)
     |                                               |                |          [0]{}: table 0x35-0x38.7 (4)
0x030|               70                              |     p          |            reftype: "funcref" (112) 0x35-0x35.7 (1)
     |                                               |                |            limits{}: 0x36-0x38.7 (3)
0x030|                  01                           |      .         |              tag: 0x1 0x36-0x36.7 (1)
0x030|                     02                        |       .        |              min: 2 0x37-0x37.7 (1)
0x030|                        02                     |        .       |              max: 2 0x38-0x38.7 (1)
     |                                               |                |    [3]{}: section 0x39-0x3d.7 (5)
0x030|                           05                  |         .      |      id: "memory section" (5) 0x39-0x39.7 (1)
0x030|                              03               |          .     |      size: 3 0x3a-0x3a.7 (1)
     |                                               |                |      content{}: 0x3b-0x3d.7 (3)
0x030|                                 01            |           .    |        n: 1 0x3b-0x3b.7 (1)
     |                                               |                |        items[0:1]: 0x3c-0x3d.7 (2)
     |                                               |                |          [0]{}: mem 0x3c-0x3d.7 (2)
     |                                               |                |            limits{}: 0x3c-0x3d.7 (2)
0x030|                                    00         |            .   |              tag: 0x0 0x3c-0x3c.7 (1)
0x030|                                       01      |             .  |              min: 1 0x3d-0x3d.7 (1)
     |                                               |                |    [4]{}: section 0x3e-0x1bf.7 (386)
0x030|                                          07   |              . |      id: "export section" (7) 0x3e-0x3e.7 (1)
0x030|                                             ff|               .|      size: 383 0x3f-0x40.7 (2)
0x040|02                                             |.               |
     |                                               |                |      content{}: 0x41-0x1bf.7 (383)
0x040|   14                                          | .              |        n: 20 0x41-0x41.7 (1)
     |                                               |                |        items[0:20]: 0x42-0x1bf.7 (382)
     |                                               |                |          [0]{}: export 0x42-0x50.7 (15)
     |                                               |                |            name{}: 0x42-0x4e.7 (13)
0x040|      0c                                       |  .             |              len: 12 0x42-0x42.7 (1)
0x040|         61 73 2d 62 72 2d 72 65 74 76 61 6c   |   as-br-retval |              utf8bytes: "as-br-retval" 0x43-0x4e.7 (12)
     |                                               |                |            expr{}: 0x4f-0x50.7 (2)
0x040|                                             00|               .|              tag: "funcidx" (0x0) 0x4f-0x4f.7 (1)
0x050|00                                             |.               |              x: 0 0x50-0x50.7 (1)
     |                                               |                |          [1]{}: export 0x51-0x62.7 (18)
     |                                               |                |            name{}: 0x51-0x60.7 (16)
0x050|   0f                                          | .              |              len: 15 0x51-0x51.7 (1)
0x050|      61 73 2d 62 72 5f 69 66 2d 72 65 74 76 61|  as-br_if-retva|              utf8bytes: "as-br_if-retval" 0x52-0x60.7 (15)
0x060|6c                                             |l               |
     |                                               |                |            expr{}: 0x61-0x62.7 (2)
0x060|   00                                          | .              |              tag: "funcidx" (0x0) 0x61-0x61.7 (1)
0x060|      01                                       |  .             |              x: 1 0x62-0x62.7 (1)
     |                                               |                |          [2]{}: export 0x63-0x75.7 (19)
     |                                               |                |            name{}: 0x63-0x73.7 (17)
0x060|         10                                    |   .            |              len: 16 0x63-0x63.7 (1)
0x060|            61 73 2d 72 65 74 75 72 6e 2d 72 65|    as-return-re|              utf8bytes: "as-return-retval" 0x64-0x73.7 (16)
0x070|74 76 61 6c                                    |tval            |
     |                                               |                |            expr{}: 0x74-0x75.7 (2)
0x070|            00                                 |    .           |              tag: "funcidx" (0x0) 0x74-0x74.7 (1)
0x070|               02                              |     .          |              x: 2 0x75-0x75.7 (1)
     |                                               |                |          [3]{}: export 0x76-0x89.7 (20)
     |                                               |                |            name{}: 0x76-0x87.7 (18)
0x070|                  11                           |      .         |              len: 17 0x76-0x76.7 (1)
0x070|                     61 73 2d 69 66 2d 74 68 65|       as-if-the|              utf8bytes: "as-if-then-retval" 0x77-0x87.7 (17)
0x080|6e 2d 72 65 74 76 61 6c                        |n-retval        |
     |                                               |                |            expr{}: 0x88-0x89.7 (2)
0x080|                        00                     |        .       |              tag: "funcidx" (0x0) 0x88-0x88.7 (1)
0x080|                           03                  |         .      |              x: 3 0x89-0x89.7 (1)
     |                                               |                |          [4]{}: export 0x8a-0x9d.7 (20)
     |                                               |                |            name{}: 0x8a-0x9b.7 (18)
0x080|                              11               |          .     |              len: 17 0x8a-0x8a.7 (1)
0x080|                                 61 73 2d 69 66|           as-if|              utf8bytes: "as-if-else-retval" 0x8b-0x9b.7 (17)
0x090|2d 65 6c 73 65 2d 72 65 74 76 61 6c            |-else-retval    |
     |                                               |                |            expr{}: 0x9c-0x9d.7 (2)
0x090|                                    00         |            .   |              tag: "funcidx" (0x0) 0x9c-0x9c.7 (1)
0x090|                                       04      |             .  |              x: 4 0x9d-0x9d.7 (1)
     |                                               |                |          [5]{}: export 0x9e-0xad.7 (16)
     |                                               |                |            name{}: 0x9e-0xab.7 (14)
0x090|                                          0d   |              . |              len: 13 0x9e-0x9e.7 (1)
0x090|                                             61|               a|              utf8bytes: "as-call-param" 0x9f-0xab.7 (13)
0x0a0|73 2d 63 61 6c 6c 2d 70 61 72 61 6d            |s-call-param    |
     |                                               |                |            expr{}: 0xac-0xad.7 (2)
0x0a0|                                    00         |            .   |              tag: "funcidx" (0x0) 0xac-0xac.7 (1)
0x0a0|                                       06      |             .  |              x: 6 0xad-0xad.7 (1)
     |                                               |                |          [6]{}: export 0xae-0xbf.7 (18)
     |                                               |                |            name{}: 0xae-0xbd.7 (16)
0x0a0|                                          0f   |              . |              len: 15 0xae-0xae.7 (1)
0x0a0|                                             61|               a|              utf8bytes: "as-block-retval" 0xaf-0xbd.7 (15)
0x0b0|73 2d 62 6c 6f 63 6b 2d 72 65 74 76 61 6c      |s-block-retval  |
     |                                               |                |            expr{}: 0xbe-0xbf.7 (2)
0x0b0|                                          00   |              . |              tag: "funcidx" (0x0) 0xbe-0xbe.7 (1)
0x0b0|                                             07|               .|              x: 7 0xbf-0xbf.7 (1)
     |                                               |                |          [7]{}: export 0xc0-0xd0.7 (17)
     |                                               |                |            name{}: 0xc0-0xce.7 (15)
0x0c0|0e                                             |.               |              len: 14 0xc0-0xc0.7 (1)
0x0c0|   61 73 2d 6c 6f 6f 70 2d 72 65 74 76 61 6c   | as-loop-retval |              utf8bytes: "as-loop-retval" 0xc1-0xce.7 (14)
     |                                               |                |            expr{}: 0xcf-0xd0.7 (2)
0x0c0|                                             00|               .|              tag: "funcidx" (0x0) 0xcf-0xcf.7 (1)
0x0d0|08                                             |.               |              x: 8 0xd0-0xd0.7 (1)
     |                                               |                |          [8]{}: export 0xd1-0xe2.7 (18)
     |                                               |                |            name{}: 0xd1-0xe0.7 (16)
0x0d0|   0f                                          | .              |              len: 15 0xd1-0xd1.7 (1)
0x0d0|      61 73 2d 64 72 6f 70 2d 6f 70 65 72 61 6e|  as-drop-operan|              utf8bytes: "as-drop-operand" 0xd2-0xe0.7 (15)
0x0e0|64                                             |d               |
     |                                               |                |            expr{}: 0xe1-0xe2.7 (2)
0x0e0|   00                                          | .              |              tag: "funcidx" (0x0) 0xe1-0xe1.7 (1)
0x0e0|      09                                       |  .             |              x: 9 0xe2-0xe2.7 (1)
     |                                               |                |          [9]{}: export 0xe3-0xf2.7 (16)
     |                                               |                |            name{}: 0xe3-0xf0.7 (14)
0x0e0|         0d                                    |   .            |              len: 13 0xe3-0xe3.7 (1)
0x0e0|            61 73 2d 62 72 2d 72 65 74 76 61 6c|    as-br-retval|              utf8bytes: "as-br-retval2" 0xe4-0xf0.7 (13)
0x0f0|32                                             |2               |
     |                                               |                |            expr{}: 0xf1-0xf2.7 (2)
0x0f0|   00                                          | .              |              tag: "funcidx" (0x0) 0xf1-0xf1.7 (1)
0x0f0|      0a                                       |  .             |              x: 10 0xf2-0xf2.7 (1)
     |                                               |                |          [10]{}: export 0xf3-0x105.7 (19)
     |                                               |                |            name{}: 0xf3-0x103.7 (17)
0x0f0|         10                                    |   .            |              len: 16 0xf3-0xf3.7 (1)
0x0f0|            61 73 2d 62 72 5f 69 66 2d 72 65 74|    as-br_if-ret|              utf8bytes: "as-br_if-retval2" 0xf4-0x103.7 (16)
0x100|76 61 6c 32                                    |val2            |
     |                                               |                |            expr{}: 0x104-0x105.7 (2)
0x100|            00                                 |    .           |              tag: "funcidx" (0x0) 0x104-0x104.7 (1)
0x100|               0b                              |     .          |              x: 11 0x105-0x105.7 (1)
     |                                               |                |          [11]{}: export 0x106-0x119.7 (20)
     |                                               |                |            name{}: 0x106-0x117.7 (18)
0x100|                  11                           |      .         |              len: 17 0x106-0x106.7 (1)
0x100|                     61 73 2d 72 65 74 75 72 6e|       as-return|              utf8bytes: "as-return-retval2" 0x107-0x117.7 (17)
0x110|2d 72 65 74 76 61 6c 32                        |-retval2        |
     |                                               |                |            expr{}: 0x118-0x119.7 (2)
0x110|                        00                     |        .       |              tag: "funcidx" (0x0) 0x118-0x118.7 (1)
0x110|                           0c                  |         .      |              x: 12 0x119-0x119.7 (1)
     |                                               |                |          [12]{}: export 0x11a-0x12e.7 (21)
     |                                               |                |            name{}: 0x11a-0x12c.7 (19)
0x110|                              12               |          .     |              len: 18 0x11a-0x11a.7 (1)
0x110|                                 61 73 2d 69 66|           as-if|              utf8bytes: "as-if-then-retval2" 0x11b-0x12c.7 (18)
0x120|2d 74 68 65 6e 2d 72 65 74 76 61 6c 32         |-then-retval2   |
     |                                               |                |            expr{}: 0x12d-0x12e.7 (2)
0x120|                                       00      |             .  |              tag: "funcidx" (0x0) 0x12d-0x12d.7 (1)
0x120|                                          0d   |              . |              x: 13 0x12e-0x12e.7 (1)
     |                                               |                |          [13]{}: export 0x12f-0x143.7 (21)
     |                                               |                |            name{}: 0x12f-0x141.7 (19)
0x120|                                             12|               .|              len: 18 0x12f-0x12f.7 (1)
0x130|61 73 2d 69 66 2d 65 6c 73 65 2d 72 65 74 76 61|as-if-else-retva|              utf8bytes: "as-if-else-retval2" 0x130-0x141.7 (18)
0x140|6c 32                                          |l2              |
     |                                               |                |            expr{}: 0x142-0x143.7 (2)
0x140|      00                                       |  .             |              tag: "funcidx" (0x0) 0x142-0x142.7 (1)
0x140|         0e                                    |   .            |              x: 14 0x143-0x143.7 (1)
     |                                               |                |          [14]{}: export 0x144-0x154.7 (17)
     |                                               |                |            name{}: 0x144-0x152.7 (15)
0x140|            0e                                 |    .           |              len: 14 0x144-0x144.7 (1)
0x140|               61 73 2d 63 61 6c 6c 2d 70 61 72|     as-call-par|              utf8bytes: "as-call-param2" 0x145-0x152.7 (14)
0x150|61 6d 32                                       |am2             |
     |                                               |                |            expr{}: 0x153-0x154.7 (2)
0x150|         00                                    |   .            |              tag: "funcidx" (0x0) 0x153-0x153.7 (1)
0x150|            10                                 |    .           |              x: 16 0x154-0x154.7 (1)
     |                                               |                |          [15]{}: export 0x155-0x16d.7 (25)
     |                                               |                |            name{}: 0x155-0x16b.7 (23)
0x150|               16                              |     .          |              len: 22 0x155-0x155.7 (1)
0x150|                  61 73 2d 63 61 6c 6c 5f 69 6e|      as-call_in|              utf8bytes: "as-call_indirect-param" 0x156-0x16b.7 (22)
0x160|64 69 72 65 63 74 2d 70 61 72 61 6d            |direct-param    |
     |                                               |                |            expr{}: 0x16c-0x16d.7 (2)
0x160|                                    00         |            .   |              tag: "funcidx" (0x0) 0x16c-0x16c.7 (1)
0x160|                                       11      |             .  |              x: 17 0x16d-0x16d.7 (1)
     |                                               |                |          [16]{}: export 0x16e-0x187.7 (26)
     |                                               |                |            name{}: 0x16e-0x185.7 (24)
0x160|                                          17   |              . |              len: 23 0x16e-0x16e.7 (1)
0x160|                                             61|               a|              utf8bytes: "as-call_indirect-param2" 0x16f-0x185.7 (23)
0x170|73 2d 63 61 6c 6c 5f 69 6e 64 69 72 65 63 74 2d|s-call_indirect-|
0x180|70 61 72 61 6d 32                              |param2          |
     |                                               |                |            expr{}: 0x186-0x187.7 (2)
0x180|                  00                           |      .         |              tag: "funcidx" (0x0) 0x186-0x186.7 (1)
0x180|                     12                        |       .        |              x: 18 0x187-0x187.7 (1)
     |                                               |                |          [17]{}: export 0x188-0x19a.7 (19)
     |                                               |                |            name{}: 0x188-0x198.7 (17)
0x180|                        10                     |        .       |              len: 16 0x188-0x188.7 (1)
0x180|                           61 73 2d 62 6c 6f 63|         as-bloc|              utf8bytes: "as-block-retval2" 0x189-0x198.7 (16)
0x190|6b 2d 72 65 74 76 61 6c 32                     |k-retval2       |
     |                                               |                |            expr{}: 0x199-0x19a.7 (2)
0x190|                           00                  |         .      |              tag: "funcidx" (0x0) 0x199-0x199.7 (1)
0x190|                              13               |          .     |              x: 19 0x19a-0x19a.7 (1)
     |                                               |                |          [18]{}: export 0x19b-0x1ac.7 (18)
     |                                               |                |            name{}: 0x19b-0x1aa.7 (16)
0x190|                                 0f            |           .    |              len: 15 0x19b-0x19b.7 (1)
0x190|                                    61 73 2d 6c|            as-l|              utf8bytes: "as-loop-retval2" 0x19c-0x1aa.7 (15)
0x1a0|6f 6f 70 2d 72 65 74 76 61 6c 32               |oop-retval2     |
     |                                               |                |            expr{}: 0x1ab-0x1ac.7 (2)
0x1a0|                                 00            |           .    |              tag: "funcidx" (0x0) 0x1ab-0x1ab.7 (1)
0x1a0|                                    14         |            .   |              x: 20 0x1ac-0x1ac.7 (1)
     |                                               |                |          [19]{}: export 0x1ad-0x1bf.7 (19)
     |                                               |                |            name{}: 0x1ad-0x1bd.7 (17)
0x1a0|                                       10      |             .  |              len: 16 0x1ad-0x1ad.7 (1)
0x1a0|                                          61 73|              as|              utf8bytes: "as-drop-operand2" 0x1ae-0x1bd.7 (16)
0x1b0|2d 64 72 6f 70 2d 6f 70 65 72 61 6e 64 32      |-drop-operand2  |
     |                                               |                |            expr{}: 0x1be-0x1bf.7 (2)
0x1b0|                                          00   |              . |              tag: "funcidx" (0x0) 0x1be-0x1be.7 (1)
0x1b0|                                             15|               .|              x: 21 0x1bf-0x1bf.7 (1)
     |                                               |                |    [5]{}: section 0x1c0-0x1c9.7 (10)
0x1c0|09                                             |.               |      id: "element section" (9) 0x1c0-0x1c0.7 (1)
0x1c0|   08                                          | .              |      size: 8 0x1c1-0x1c1.7 (1)
     |                                               |                |      element{}: 0x1c2-0x1c9.7 (8)
0x1c0|      01                                       |  .             |        n: 1 0x1c2-0x1c2.7 (1)
     |                                               |                |        items[0:1]: 0x1c3-0x1c9.7 (7)
     |                                               |                |          [0]{}: elem 0x1c3-0x1c9.7 (7)
0x1c0|         00                                    |   .            |            tag: 0 0x1c3-0x1c3.7 (1)
     |                                               |                |            instructions[0:2]: 0x1c4-0x1c6.7 (3)
     |                                               |                |              [0]{}: instr 0x1c4-0x1c5.7 (2)
0x1c0|            41                                 |    A           |                i32.const: 0x41 (valid) 0x1c4-0x1c4.7 (1)
0x1c0|               00                              |     .          |                n: 0 0x1c5-0x1c5.7 (1)
     |                                               |                |              [1]{}: instr 0x1c6-0x1c6.7 (1)
0x1c0|                  0b                           |      .         |                end: 0xb (valid) 0x1c6-0x1c6.7 (1)
0x1c0|                     02                        |       .        |            n: 2 0x1c7-0x1c7.7 (1)
     |                                               |                |            items[0:2]: 0x1c8-0x1c9.7 (2)
0x1c0|                        05                     |        .       |              [0]: 5 y 0x1c8-0x1c8.7 (1)
0x1c0|                           0f                  |         .      |              [1]: 15 y 0x1c9-0x1c9.7 (1)
     |                                               |                |    [6]{}: section 0x1ca-0x4c1.7 (760)
0x1c0|                              0a               |          .     |      id: "code section" (10) 0x1ca-0x1ca.7 (1)
0x1c0|                                 f5 05         |           ..   |      size: 757 0x1cb-0x1cc.7 (2)
     |                                               |                |      content{}: 0x1cd-0x4c1.7 (757)
0x1c0|                                       16      |             .  |        n: 22 0x1cd-0x1cd.7 (1)
     |                                               |                |        items[0:22]: 0x1ce-0x4c1.7 (756)
     |                                               |                |          [0]{}: code 0x1ce-0x1e7.7 (26)
0x1c0|                                          19   |              . |            size: 25 0x1ce-0x1ce.7 (1)
     |                                               |                |            code{}: 0x1cf-0x1e7.7 (25)
     |                                               |                |              locals{}: 0x1cf-0x1cf.7 (1)
0x1c0|                                             00|               .|                n: 0 0x1cf-0x1cf.7 (1)
     |                                               |                |                items[0:0]: 0x1d0-NA (0)
     |                                               |                |              expr{}: 0x1d0-0x1e7.7 (24)
     |                                               |                |                instructions[0:2]: 0x1d0-0x1e7.7 (24)
     |                                               |                |                  [0]{}: instr 0x1d0-0x1e6.7 (23)
0x1d0|02                                             |.               |                    block: 0x2 (valid) 0x1d0-0x1d0.7 (1)
0x1d0|   7b                                          | {              |                    valtype: "v128" (123) 0x1d1-0x1d1.7 (1)
     |                                               |                |                    instructions[0:2]: 0x1d2-0x1e5.7 (20)
     |                                               |                |                      [0]{}: instr 0x1d2-0x1e3.7 (18)
0x1d0|      fd                                       |  .             |                        prefix: 0xfd (valid) 0x1d2-0x1d2.7 (1)
0x1d0|         0c                                    |   .            |                        v128.const: 12 (valid) 0x1d3-0x1d3.7 (1)
0x1d0|            00 01 02 03 04 05 06 07 08 09 0a 0b|    ............|                        bytes: raw bits 0x1d4-0x1e3.7 (16)
0x1e0|0c 0d 0e 0f                                    |....            |
     |                                               |                |                      [1]{}: instr 0x1e4-0x1e5.7 (2)
0x1e0|            0c                                 |    .           |                        br: 0xc (valid) 0x1e4-0x1e4.7 (1)
0x1e0|               00                              |     .          |                        l: 0 0x1e5-0x1e5.7 (1)
0x1e0|                  0b                           |      .         |                    end: 11 (valid) 0x1e6-0x1e6.7 (1)
     |                                               |                |                  [1]{}: instr 0x1e7-0x1e7.7 (1)
0x1e0|                     0b                        |       .        |                    end: 0xb (valid) 0x1e7-0x1e7.7 (1)
     |                                               |                |          [1]{}: code 0x1e8-0x203.7 (28)
0x1e0|                        1b                     |        .       |            size: 27 0x1e8-0x1e8.7 (1)
     |                                               |                |            code{}: 0x1e9-0x203.7 (27)
     |                                               |                |              locals{}: 0x1e9-0x1e9.7 (1)
0x1e0|                           00                  |         .      |                n: 0 0x1e9-0x1e9.7 (1)
     |                                               |                |                items[0:0]: 0x1ea-NA (0)
     |                                               |                |              expr{}: 0x1ea-0x203.7 (26)
     |                                               |                |                instructions[0:2]: 0x1ea-0x203.7 (26)
     |                                               |                |                  [0]{}: instr 0x1ea-0x202.7 (25)
0x1e0|                              02               |          .     |                    block: 0x2 (valid) 0x1ea-0x1ea.7 (1)
0x1e0|                                 7b            |           {    |                    valtype: "v128" (123) 0x1eb-0x1eb.7 (1)
     |                                               |                |                    instructions[0:3]: 0x1ec-0x201.7 (22)
     |                                               |                |                      [0]{}: instr 0x1ec-0x1fd.7 (18)
0x1e0|                                    fd         |            .   |                        prefix: 0xfd (valid) 0x1ec-0x1ec.7 (1)
0x1e0|                                       0c      |             .  |                        v128.const: 12 (valid) 0x1ed-0x1ed.7 (1)
0x1e0|                                          00 00|              ..|                        bytes: raw bits 0x1ee-0x1fd.7 (16)
0x1f0|00 00 01 00 00 00 02 00 00 00 03 00 00 00      |..............  |
     |                                               |                |                      [1]{}: instr 0x1fe-0x1ff.7 (2)
0x1f0|                                          41   |              A |                        i32.const: 0x41 (valid) 0x1fe-0x1fe.7 (1)
0x1f0|                                             01|               .|                        n: 1 0x1ff-0x1ff.7 (1)
     |                                               |                |                      [2]{}: instr 0x200-0x201.7 (2)
0x200|0d                                             |.               |                        br_if: 0xd (valid) 0x200-0x200.7 (1)
0x200|   00                                          | .              |                        l: 0 0x201-0x201.7 (1)
0x200|      0b                                       |  .             |                    end: 11 (valid) 0x202-0x202.7 (1)
     |                                               |                |                  [1]{}: instr 0x203-0x203.7 (1)
0x200|         0b                                    |   .            |                    end: 0xb (valid) 0x203-0x203.7 (1)
     |                                               |                |          [2]{}: code 0x204-0x219.7 (22)
0x200|            15                                 |    .           |            size: 21 0x204-0x204.7 (1)
     |                                               |                |            code{}: 0x205-0x219.7 (21)
     |                                               |                |              locals{}: 0x205-0x205.7 (1)
0x200|               00                              |     .          |                n: 0 0x205-0x205.7 (1)
     |                                               |                |                items[0:0]: 0x206-NA (0)
     |                                               |                |              expr{}: 0x206-0x219.7 (20)
     |                                               |                |                instructions[0:3]: 0x206-0x219.7 (20)
     |                                               |                |                  [0]{}: instr 0x206-0x217.7 (18)
0x200|                  fd                           |      .         |                    prefix: 0xfd (valid) 0x206-0x206.7 (1)
0x200|                     0c                        |       .        |                    v128.const: 12 (valid) 0x207-0x207.7 (1)
0x200|                        00 00 00 00 01 00 00 00|        ........|                    bytes: raw bits 0x208-0x217.7 (16)
0x210|02 00 00 00 03 00 00 00                        |........        |
     |                                               |                |                  [1]{}: instr 0x218-0x218.7 (1)
0x210|                        0f                     |        .       |                    return: 0xf (valid) 0x218-0x218.7 (1)
     |                                               |                |                  [2]{}: instr 0x219-0x219.7 (1)
0x210|                           0b                  |         .      |                    end: 0xb (valid) 0x219-0x219.7 (1)
     |                                               |                |          [3]{}: code 0x21a-0x246.7 (45)
0x210|                              2c               |          ,     |            size: 44 0x21a-0x21a.7 (1)
     |                                               |                |            code{}: 0x21b-0x246.7 (44)
     |                                               |                |              locals{}: 0x21b-0x21b.7 (1)
0x210|                                 00            |           .    |                n: 0 0x21b-0x21b.7 (1)
     |                                               |                |                items[0:0]: 0x21c-NA (0)
     |                                               |                |              expr{}: 0x21c-0x246.7 (43)
     |                                               |                |                instructions[0:3]: 0x21c-0x246.7 (43)
     |                                               |                |                  [0]{}: instr 0x21c-0x21d.7 (2)
0x210|                                    41         |            A   |                    i32.const: 0x41 (valid) 0x21c-0x21c.7 (1)
0x210|                                       01      |             .  |                    n: 1 0x21d-0x21d.7 (1)
     |                                               |                |                  [1]{}: instr 0x21e-0x245.7 (40)
0x210|                                          04   |              . |                    if: 0x4 (valid) 0x21e-0x21e.7 (1)
0x210|                                             7b|               {|                    valtype: "v128" (123) 0x21f-0x21f.7 (1)
     |                                               |                |                    in1[0:1]: 0x220-0x231.7 (18)
     |                                               |                |                      [0]{}: instr 0x220-0x231.7 (18)
0x220|fd                                             |.               |                        prefix: 0xfd (valid) 0x220-0x220.7 (1)
0x220|   0c                                          | .              |                        v128.const: 12 (valid) 0x221-0x221.7 (1)
0x220|      00 00 00 00 01 00 00 00 02 00 00 00 03 00|  ..............|                        bytes: raw bits 0x222-0x231.7 (16)
0x230|00 00                                          |..              |
0x230|      05                                       |  .             |                    else: 0x5 (valid) 0x232-0x232.7 (1)
     |                                               |                |                    in2[0:1]: 0x233-0x244.7 (18)
     |                                               |                |                      [0]{}: instr 0x233-0x244.7 (18)
0x230|         fd                                    |   .            |                        prefix: 0xfd (valid) 0x233-0x233.7 (1)
0x230|            0c                                 |    .           |                        v128.const: 12 (valid) 0x234-0x234.7 (1)
0x230|               03 00 00 00 02 00 00 00 01 00 00|     ...........|                        bytes: raw bits 0x235-0x244.7 (16)
0x240|00 00 00 00 00                                 |.....           |
0x240|               0b                              |     .          |                    end: 11 (valid) 0x245-0x245.7 (1)
     |                                               |                |                  [2]{}: instr 0x246-0x246.7 (1)
0x240|                  0b                           |      .         |                    end: 0xb (valid) 0x246-0x246.7 (1)
     |                                               |                |          [4]{}: code 0x247-0x273.7 (45)
0x240|                     2c                        |       ,        |            size: 44 0x247-0x247.7 (1)
     |                                               |                |            code{}: 0x248-0x273.7 (44)
     |                                               |                |              locals{}: 0x248-0x248.7 (1)
0x240|                        00                     |        .       |                n: 0 0x248-0x248.7 (1)
     |                                               |                |                items[0:0]: 0x249-NA (0)
     |                                               |                |              expr{}: 0x249-0x273.7 (43)
     |                                               |                |                instructions[0:3]: 0x249-0x273.7 (43)
     |                                               |                |                  [0]{}: instr 0x249-0x24a.7 (2)
0x240|                           41                  |         A      |                    i32.const: 0x41 (valid) 0x249-0x249.7 (1)
0x240|                              00               |          .     |                    n: 0 0x24a-0x24a.7 (1)
     |                                               |                |                  [1]{}: instr 0x24b-0x272.7 (40)
0x240|                                 04            |           .    |                    if: 0x4 (valid) 0x24b-0x24b.7 (1)
0x240|                                    7b         |            {   |                    valtype: "v128" (123) 0x24c-0x24c.7 (1)
     |                                               |                |                    in1[0:1]: 0x24d-0x25e.7 (18)
     |                                               |                |                      [0]{}: instr 0x24d-0x25e.7 (18)
0x240|                                       fd      |             .  |                        prefix: 0xfd (valid) 0x24d-0x24d.7 (1)
0x240|                                          0c   |              . |                        v128.const: 12 (valid) 0x24e-0x24e.7 (1)
0x240|                                             00|               .|                        bytes: raw bits 0x24f-0x25e.7 (16)
0x250|00 00 00 01 00 00 00 02 00 00 00 03 00 00 00   |............... |
0x250|                                             05|               .|                    else: 0x5 (valid) 0x25f-0x25f.7 (1)
     |                                               |                |                    in2[0:1]: 0x260-0x271.7 (18)
     |                                               |                |                      [0]{}: instr 0x260-0x271.7 (18)
0x260|fd                                             |.               |                        prefix: 0xfd (valid) 0x260-0x260.7 (1)
0x260|   0c                                          | .              |                        v128.const: 12 (valid) 0x261-0x261.7 (1)
0x260|      03 00 00 00 02 00 00 00 01 00 00 00 00 00|  ..............|                        bytes: raw bits 0x262-0x271.7 (16)
0x270|00 00                                          |..              |
0x270|      0b                                       |  .             |                    end: 11 (valid) 0x272-0x272.7 (1)
     |                                               |                |                  [2]{}: instr 0x273-0x273.7 (1)
0x270|         0b                                    |   .            |                    end: 0xb (valid) 0x273-0x273.7 (1)
     |                                               |                |          [5]{}: code 0x274-0x288.7 (21)
0x270|            14                                 |    .           |            size: 20 0x274-0x274.7 (1)
     |                                               |                |            code{}: 0x275-0x288.7 (20)
     |                                               |                |              locals{}: 0x275-0x275.7 (1)
0x270|               00                              |     .          |                n: 0 0x275-0x275.7 (1)
     |                                               |                |                items[0:0]: 0x276-NA (0)
     |                                               |                |              expr{}: 0x276-0x288.7 (19)
     |                                               |                |                instructions[0:2]: 0x276-0x288.7 (19)
     |                                               |                |                  [0]{}: instr 0x276-0x287.7 (18)
0x270|                  fd                           |      .         |                    prefix: 0xfd (valid) 0x276-0x276.7 (1)
0x270|                     0c                        |       .        |                    v128.const: 12 (valid) 0x277-0x277.7 (1)
0x270|                        00 00 00 00 01 00 00 00|        ........|                    bytes: raw bits 0x278-0x287.7 (16)
0x280|02 00 00 00 03 00 00 00                        |........        |
     |                                               |                |                  [1]{}: instr 0x288-0x288.7 (1)
0x280|                        0b                     |        .       |                    end: 0xb (valid) 0x288-0x288.7 (1)
     |                                               |                |          [6]{}: code 0x289-0x2c3.7 (59)
0x280|                           3a                  |         :      |            size: 58 0x289-0x289.7 (1)
     |                                               |                |            code{}: 0x28a-0x2c3.7 (58)
     |                                               |                |              locals{}: 0x28a-0x28a.7 (1)
0x280|                              00               |          .     |                n: 0 0x28a-0x28a.7 (1)
     |                                               |                |                items[0:0]: 0x28b-NA (0)
     |                                               |                |              expr{}: 0x28b-0x2c3.7 (57)
     |                                               |                |                instructions[0:5]: 0x28b-0x2c3.7 (57)
     |                                               |                |                  [0]{}: instr 0x28b-0x29c.7 (18)
0x280|                                 fd            |           .    |                    prefix: 0xfd (valid) 0x28b-0x28b.7 (1)
0x280|                                    0c         |            .   |                    v128.const: 12 (valid) 0x28c-0x28c.7 (1)
0x280|                                       00 00 00|             ...|                    bytes: raw bits 0x28d-0x29c.7 (16)
0x290|00 01 00 00 00 02 00 00 00 03 00 00 00         |.............   |
     |                                               |                |                  [1]{}: instr 0x29d-0x2ae.7 (18)
0x290|                                       fd      |             .  |                    prefix: 0xfd (valid) 0x29d-0x29d.7 (1)
0x290|                                          0c   |              . |                    v128.const: 12 (valid) 0x29e-0x29e.7 (1)
0x290|                                             00|               .|                    bytes: raw bits 0x29f-0x2ae.7 (16)
0x2a0|00 00 00 01 00 00 00 02 00 00 00 03 00 00 00   |............... |
     |                                               |                |                  [2]{}: instr 0x2af-0x2c0.7 (18)
0x2a0|                                             fd|               .|                    prefix: 0xfd (valid) 0x2af-0x2af.7 (1)
0x2b0|0c                                             |.               |                    v128.const: 12 (valid) 0x2b0-0x2b0.7 (1)
0x2b0|   00 00 00 00 01 00 00 00 02 00 00 00 03 00 00| ...............|                    bytes: raw bits 0x2b1-0x2c0.7 (16)
0x2c0|00                                             |.               |
     |                                               |                |                  [3]{}: instr 0x2c1-0x2c2.7 (2)
0x2c0|   10                                          | .              |                    call: 0x10 (valid) 0x2c1-0x2c1.7 (1)
0x2c0|      05                                       |  .             |                    x: 5 0x2c2-0x2c2.7 (1)
     |                                               |                |                  [4]{}: instr 0x2c3-0x2c3.7 (1)
0x2c0|         0b                                    |   .            |                    end: 0xb (valid) 0x2c3-0x2c3.7 (1)
     |                                               |                |          [7]{}: code 0x2c4-0x2db.7 (24)
0x2c0|            17                                 |    .           |            size: 23 0x2c4-0x2c4.7 (1)
     |                                               |                |            code{}: 0x2c5-0x2db.7 (23)
     |                                               |                |              locals{}: 0x2c5-0x2c5.7 (1)
0x2c0|               00                              |     .          |                n: 0 0x2c5-0x2c5.7 (1)
     |                                               |                |                items[0:0]: 0x2c6-NA (0)
     |                                               |                |              expr{}: 0x2c6-0x2db.7 (22)
     |                                               |                |                instructions[0:2]: 0x2c6-0x2db.7 (22)
     |                                               |                |                  [0]{}: instr 0x2c6-0x2da.7 (21)
0x2c0|                  02                           |      .         |                    block: 0x2 (valid) 0x2c6-0x2c6.7 (1)
0x2c0|                     7b                        |       {        |                    valtype: "v128" (123) 0x2c7-0x2c7.7 (1)
     |                                               |                |                    instructions[0:1]: 0x2c8-0x2d9.7 (18)
     |                                               |                |                      [0]{}: instr 0x2c8-0x2d9.7 (18)
0x2c0|                        fd                     |        .       |                        prefix: 0xfd (valid) 0x2c8-0x2c8.7 (1)
0x2c0|                           0c                  |         .      |                        v128.const: 12 (valid) 0x2c9-0x2c9.7 (1)
0x2c0|                              00 00 00 00 01 00|          ......|                        bytes: raw bits 0x2ca-0x2d9.7 (16)
0x2d0|00 00 02 00 00 00 03 00 00 00                  |..........      |
0x2d0|                              0b               |          .     |                    end: 11 (valid) 0x2da-0x2da.7 (1)
     |                                               |                |                  [1]{}: instr 0x2db-0x2db.7 (1)
0x2d0|                                 0b            |           .    |                    end: 0xb (valid) 0x2db-0x2db.7 (1)
     |                                               |                |          [8]{}: code 0x2dc-0x2f3.7 (24)
0x2d0|                                    17         |            .   |            size: 23 0x2dc-0x2dc.7 (1)
     |                                               |                |            code{}: 0x2dd-0x2f3.7 (23)
     |                                               |                |              locals{}: 0x2dd-0x2dd.7 (1)
0x2d0|                                       00      |             .  |                n: 0 0x2dd-0x2dd.7 (1)
     |                                               |                |                items[0:0]: 0x2de-NA (0)
     |                                               |                |              expr{}: 0x2de-0x2f3.7 (22)
     |                                               |                |                instructions[0:2]: 0x2de-0x2f3.7 (22)
     |                                               |                |                  [0]{}: instr 0x2de-0x2f2.7 (21)
0x2d0|                                          03   |              . |                    loop: 0x3 (valid) 0x2de-0x2de.7 (1)
0x2d0|                                             7b|               {|                    valtype: "v128" (123) 0x2df-0x2df.7 (1)
     |                                               |                |                    instructions[0:1]: 0x2e0-0x2f1.7 (18)
     |                                               |                |                      [0]{}: instr 0x2e0-0x2f1.7 (18)
0x2e0|fd                                             |.               |                        prefix: 0xfd (valid) 0x2e0-0x2e0.7 (1)
0x2e0|   0c                                          | .              |                        v128.const: 12 (valid) 0x2e1-0x2e1.7 (1)
0x2e0|      00 00 00 00 01 00 00 00 02 00 00 00 03 00|  ..............|                        bytes: raw bits 0x2e2-0x2f1.7 (16)
0x2f0|00 00                                          |..              |
0x2f0|      0b                                       |  .             |                    end: 11 (valid) 0x2f2-0x2f2.7 (1)
     |                                               |                |                  [1]{}: instr 0x2f3-0x2f3.7 (1)
0x2f0|         0b                                    |   .            |                    end: 0xb (valid) 0x2f3-0x2f3.7 (1)
     |                                               |                |          [9]{}: code 0x2f4-0x309.7 (22)
0x2f0|            15                                 |    .           |            size: 21 0x2f4-0x2f4.7 (1)
     |                                               |                |            code{}: 0x2f5-0x309.7 (21)
     |                                               |                |              locals{}: 0x2f5-0x2f5.7 (1)
0x2f0|               00                              |     .          |                n: 0 0x2f5-0x2f5.7 (1)
     |                                               |                |                items[0:0]: 0x2f6-NA (0)
     |                                               |                |              expr{}: 0x2f6-0x309.7 (20)
     |                                               |                |                instructions[0:3]: 0x2f6-0x309.7 (20)
     |                                               |                |                  [0]{}: instr 0x2f6-0x307.7 (18)
0x2f0|                  fd                           |      .         |                    prefix: 0xfd (valid) 0x2f6-0x2f6.7 (1)
0x2f0|                     0c                        |       .        |                    v128.const: 12 (valid) 0x2f7-0x2f7.7 (1)
0x2f0|                        00 00 00 00 01 00 00 00|        ........|                    bytes: raw bits 0x2f8-0x307.7 (16)
0x300|02 00 00 00 03 00 00 00                        |........        |
     |                                               |                |                  [1]{}: instr 0x308-0x308.7 (1)
0x300|                        1a                     |        .       |                    drop: 0x1a (valid) 0x308-0x308.7 (1)
     |                                               |                |                  [2]{}: instr 0x309-0x309.7 (1)
0x300|                           0b                  |         .      |                    end: 0xb (valid) 0x309-0x309.7 (1)
     |                                               |                |          [10]{}: code 0x30a-0x323.7 (26)
0x300|                              19               |          .     |            size: 25 0x30a-0x30a.7 (1)
     |                                               |                |            code{}: 0x30b-0x323.7 (25)
     |                                               |                |              locals{}: 0x30b-0x30b.7 (1)
0x300|                                 00            |           .    |                n: 0 0x30b-0x30b.7 (1)
     |                                               |                |                items[0:0]: 0x30c-NA (0)
     |                                               |                |              expr{}: 0x30c-0x323.7 (24)
     |                                               |                |                instructions[0:2]: 0x30c-0x323.7 (24)
     |                                               |                |                  [0]{}: instr 0x30c-0x322.7 (23)
0x300|                                    02         |            .   |                    block: 0x2 (valid) 0x30c-0x30c.7 (1)
0x300|                                       7b      |             {  |                    valtype: "v128" (123) 0x30d-0x30d.7 (1)
     |                                               |                |                    instructions[0:2]: 0x30e-0x321.7 (20)
     |                                               |                |                      [0]{}: instr 0x30e-0x31f.7 (18)
0x300|                                          fd   |              . |                        prefix: 0xfd (valid) 0x30e-0x30e.7 (1)
0x300|                                             0c|               .|                        v128.const: 12 (valid) 0x30f-0x30f.7 (1)
0x310|04 05 06 07 00 01 02 03 0c 0d 0e 0f 08 09 0a 0b|................|                        bytes: raw bits 0x310-0x31f.7 (16)
     |                                               |                |                      [1]{}: instr 0x320-0x321.7 (2)
0x320|0c                                             |.               |                        br: 0xc (valid) 0x320-0x320.7 (1)
0x320|   00                                          | .              |                        l: 0 0x321-0x321.7 (1)
0x320|      0b                                       |  .             |                    end: 11 (valid) 0x322-0x322.7 (1)
     |                                               |                |                  [1]{}: instr 0x323-0x323.7 (1)
0x320|         0b                                    |   .            |                    end: 0xb (valid) 0x323-0x323.7 (1)
     |                                               |                |          [11]{}: code 0x324-0x33f.7 (28)
0x320|            1b                                 |    .           |            size: 27 0x324-0x324.7 (1)
     |                                               |                |            code{}: 0x325-0x33f.7 (27)
     |                                               |                |              locals{}: 0x325-0x325.7 (1)
0x320|               00                              |     .          |                n: 0 0x325-0x325.7 (1)
     |                                               |                |                items[0:0]: 0x326-NA (0)
     |                                               |                |              expr{}: 0x326-0x33f.7 (26)
     |                                               |                |                instructions[0:2]: 0x326-0x33f.7 (26)
     |                                               |                |                  [0]{}: instr 0x326-0x33e.7 (25)
0x320|                  02                           |      .         |                    block: 0x2 (valid) 0x326-0x326.7 (1)
0x320|                     7b                        |       {        |                    valtype: "v128" (123) 0x327-0x327.7 (1)
     |                                               |                |                    instructions[0:3]: 0x328-0x33d.7 (22)
     |                                               |                |                      [0]{}: instr 0x328-0x339.7 (18)
0x320|                        fd                     |        .       |                        prefix: 0xfd (valid) 0x328-0x328.7 (1)
0x320|                           0c                  |         .      |                        v128.const: 12 (valid) 0x329-0x329.7 (1)
0x320|                              00 00 00 00 00 00|          ......|                        bytes: raw bits 0x32a-0x339.7 (16)
0x330|00 00 01 00 00 00 00 00 00 00                  |..........      |
     |                                               |                |                      [1]{}: instr 0x33a-0x33b.7 (2)
0x330|                              41               |          A     |                        i32.const: 0x41 (valid) 0x33a-0x33a.7 (1)
0x330|                                 01            |           .    |                        n: 1 0x33b-0x33b.7 (1)
     |                                               |                |                      [2]{}: instr 0x33c-0x33d.7 (2)
0x330|                                    0d         |            .   |                        br_if: 0xd (valid) 0x33c-0x33c.7 (1)
0x330|                                       00      |             .  |                        l: 0 0x33d-0x33d.7 (1)
0x330|                                          0b   |              . |                    end: 11 (valid) 0x33e-0x33e.7 (1)
     |                                               |                |                  [1]{}: instr 0x33f-0x33f.7 (1)
0x330|                                             0b|               .|                    end: 0xb (valid) 0x33f-0x33f.7 (1)
     |                                               |                |          [12]{}: code 0x340-0x355.7 (22)
0x340|15                                             |.               |            size: 21 0x340-0x340.7 (1)
     |                                               |                |            code{}: 0x341-0x355.7 (21)
     |                                               |                |              locals{}: 0x341-0x341.7 (1)
0x340|   00                                          | .              |                n: 0 0x341-0x341.7 (1)
     |                                               |                |                items[0:0]: 0x342-NA (0)
     |                                               |                |              expr{}: 0x342-0x355.7 (20)
     |                                               |                |                instructions[0:3]: 0x342-0x355.7 (20)
     |                                               |                |                  [0]{}: instr 0x342-0x353.7 (18)
0x340|      fd                                       |  .             |                    prefix: 0xfd (valid) 0x342-0x342.7 (1)
0x340|         0c                                    |   .            |                    v128.const: 12 (valid) 0x343-0x343.7 (1)
0x340|            00 00 00 00 00 00 00 00 01 00 00 00|    ............|                    bytes: raw bits 0x344-0x353.7 (16)
0x350|00 00 00 00                                    |....            |
     |                                               |                |                  [1]{}: instr 0x354-0x354.7 (1)
0x350|            0f                                 |    .           |                    return: 0xf (valid) 0x354-0x354.7 (1)
     |                                               |                |                  [2]{}: instr 0x355-0x355.7 (1)
0x350|               0b                              |     .          |                    end: 0xb (valid) 0x355-0x355.7 (1)
     |                                               |                |          [13]{}: code 0x356-0x382.7 (45)
0x350|                  2c                           |      ,         |            size: 44 0x356-0x356.7 (1)
     |                                               |                |            code{}: 0x357-0x382.7 (44)
     |                                               |                |              locals{}: 0x357-0x357.7 (1)
0x350|                     00                        |       .        |                n: 0 0x357-0x357.7 (1)
     |                                               |                |                items[0:0]: 0x358-NA (0)
     |                                               |                |              expr{}: 0x358-0x382.7 (43)
     |                                               |                |                instructions[0:3]: 0x358-0x382.7 (43)
     |                                               |                |                  [0]{}: instr 0x358-0x359.7 (2)
0x350|                        41                     |        A       |                    i32.const: 0x41 (valid) 0x358-0x358.7 (1)
0x350|                           01                  |         .      |                    n: 1 0x359-0x359.7 (1)
     |                                               |                |                  [1]{}: instr 0x35a-0x381.7 (40)
0x350|                              04               |          .     |                    if: 0x4 (valid) 0x35a-0x35a.7 (1)
0x350|                                 7b            |           {    |                    valtype: "v128" (123) 0x35b-0x35b.7 (1)
     |                                               |                |                    in1[0:1]: 0x35c-0x36d.7 (18)
     |                                               |                |                      [0]{}: instr 0x35c-0x36d.7 (18)
0x350|                                    fd         |            .   |                        prefix: 0xfd (valid) 0x35c-0x35c.7 (1)
0x350|                                       0c      |             .  |                        v128.const: 12 (valid) 0x35d-0x35d.7 (1)
0x350|                                          00 00|              ..|                        bytes: raw bits 0x35e-0x36d.7 (16)
0x360|00 00 00 00 00 00 01 00 00 00 00 00 00 00      |..............  |
0x360|                                          05   |              . |                    else: 0x5 (valid) 0x36e-0x36e.7 (1)
     |                                               |                |                    in2[0:1]: 0x36f-0x380.7 (18)
     |                                               |                |                      [0]{}: instr 0x36f-0x380.7 (18)
0x360|                                             fd|               .|                        prefix: 0xfd (valid) 0x36f-0x36f.7 (1)
0x370|0c                                             |.               |                        v128.const: 12 (valid) 0x370-0x370.7 (1)
0x370|   01 00 00 00 00 00 00 00 00 00 00 00 00 00 00| ...............|                        bytes: raw bits 0x371-0x380.7 (16)
0x380|00                                             |.               |
0x380|   0b                                          | .              |                    end: 11 (valid) 0x381-0x381.7 (1)
     |                                               |                |                  [2]{}: instr 0x382-0x382.7 (1)
0x380|      0b                                       |  .             |                    end: 0xb (valid) 0x382-0x382.7 (1)
     |                                               |                |          [14]{}: code 0x383-0x3af.7 (45)
0x380|         2c                                    |   ,            |            size: 44 0x383-0x383.7 (1)
     |                                               |                |            code{}: 0x384-0x3af.7 (44)
     |                                               |                |              locals{}: 0x384-0x384.7 (1)
0x380|            00                                 |    .           |                n: 0 0x384-0x384.7 (1)
     |                                               |                |                items[0:0]: 0x385-NA (0)
     |                                               |                |              expr{}: 0x385-0x3af.7 (43)
     |                                               |                |                instructions[0:3]: 0x385-0x3af.7 (43)
     |                                               |                |                  [0]{}: instr 0x385-0x386.7 (2)
0x380|               41                              |     A          |                    i32.const: 0x41 (valid) 0x385-0x385.7 (1)
0x380|                  00                           |      .         |                    n: 0 0x386-0x386.7 (1)
     |                                               |                |                  [1]{}: instr 0x387-0x3ae.7 (40)
0x380|                     04                        |       .        |                    if: 0x4 (valid) 0x387-0x387.7 (1)
0x380|                        7b                     |        {       |                    valtype: "v128" (123) 0x388-0x388.7 (1)
     |                                               |                |                    in1[0:1]: 0x389-0x39a.7 (18)
     |                                               |                |                      [0]{}: instr 0x389-0x39a.7 (18)
0x380|                           fd                  |         .      |                        prefix: 0xfd (valid) 0x389-0x389.7 (1)
0x380|                              0c               |          .     |                        v128.const: 12 (valid) 0x38a-0x38a.7 (1)
0x380|                                 00 00 00 00 00|           .....|                        bytes: raw bits 0x38b-0x39a.7 (16)
0x390|00 00 00 01 00 00 00 00 00 00 00               |...........     |
0x390|                                 05            |           .    |                    else: 0x5 (valid) 0x39b-0x39b.7 (1)
     |                                               |                |                    in2[0:1]: 0x39c-0x3ad.7 (18)
     |                                               |                |                      [0]{}: instr 0x39c-0x3ad.7 (18)
0x390|                                    fd         |            .   |                        prefix: 0xfd (valid) 0x39c-0x39c.7 (1)
0x390|                                       0c      |             .  |                        v128.const: 12 (valid) 0x39d-0x39d.7 (1)
0x390|                                          01 00|              ..|                        bytes: raw bits 0x39e-0x3ad.7 (16)
0x3a0|00 00 00 00 00 00 00 00 00 00 00 00 00 00      |..............  |
0x3a0|                                          0b   |              . |                    end: 11 (valid) 0x3ae-0x3ae.7 (1)
     |                                               |                |                  [2]{}: instr 0x3af-0x3af.7 (1)
0x3a0|                                             0b|               .|                    end: 0xb (valid) 0x3af-0x3af.7 (1)
     |                                               |                |          [15]{}: code 0x3b0-0x3c4.7 (21)
0x3b0|14                                             |.               |            size: 20 0x3b0-0x3b0.7 (1)
     |                                               |                |            code{}: 0x3b1-0x3c4.7 (20)
     |                                               |                |              locals{}: 0x3b1-0x3b1.7 (1)
0x3b0|   00                                          | .              |                n: 0 0x3b1-0x3b1.7 (1)
     |                                               |                |                items[0:0]: 0x3b2-NA (0)
     |                                               |                |              expr{}: 0x3b2-0x3c4.7 (19)
     |                                               |                |                instructions[0:2]: 0x3b2-0x3c4.7 (19)
     |                                               |                |                  [0]{}: instr 0x3b2-0x3c3.7 (18)
0x3b0|      fd                                       |  .             |                    prefix: 0xfd (valid) 0x3b2-0x3b2.7 (1)
0x3b0|         0c                                    |   .            |                    v128.const: 12 (valid) 0x3b3-0x3b3.7 (1)
0x3b0|            00 00 00 00 00 00 00 00 01 00 00 00|    ............|                    bytes: raw bits 0x3b4-0x3c3.7 (16)
0x3c0|00 00 00 00                                    |....            |
     |                                               |                |                  [1]{}: instr 0x3c4-0x3c4.7 (1)
0x3c0|            0b                                 |    .           |                    end: 0xb (valid) 0x3c4-0x3c4.7 (1)
     |                                               |                |          [16]{}: code 0x3c5-0x3ff.7 (59)
0x3c0|               3a                              |     :          |            size: 58 0x3c5-0x3c5.7 (1)
     |                                               |                |            code{}: 0x3c6-0x3ff.7 (58)
     |                                               |                |              locals{}: 0x3c6-0x3c6.7 (1)
0x3c0|                  00                           |      .         |                n: 0 0x3c6-0x3c6.7 (1)
     |                                               |                |                items[0:0]: 0x3c7-NA (0)
     |                                               |                |              expr{}: 0x3c7-0x3ff.7 (57)
     |                                               |                |                instructions[0:5]: 0x3c7-0x3ff.7 (57)
     |                                               |                |                  [0]{}: instr 0x3c7-0x3d8.7 (18)
0x3c0|                     fd                        |       .        |                    prefix: 0xfd (valid) 0x3c7-0x3c7.7 (1)
0x3c0|                        0c                     |        .       |                    v128.const: 12 (valid) 0x3c8-0x3c8.7 (1)
0x3c0|                           00 00 00 00 00 00 00|         .......|                    bytes: raw bits 0x3c9-0x3d8.7 (16)
0x3d0|00 01 00 00 00 00 00 00 00                     |.........       |
     |                                               |                |                  [1]{}: instr 0x3d9-0x3ea.7 (18)
0x3d0|                           fd                  |         .      |                    prefix: 0xfd (valid) 0x3d9-0x3d9.7 (1)
0x3d0|                              0c               |          .     |                    v128.const: 12 (valid) 0x3da-0x3da.7 (1)
0x3d0|                                 00 00 00 00 00|           .....|                    bytes: raw bits 0x3db-0x3ea.7 (16)
0x3e0|00 00 00 01 00 00 00 00 00 00 00               |...........     |
     |                                               |                |                  [2]{}: instr 0x3eb-0x3fc.7 (18)
0x3e0|                                 fd            |           .    |                    prefix: 0xfd (valid) 0x3eb-0x3eb.7 (1)
0x3e0|                                    0c         |            .   |                    v128.const: 12 (valid) 0x3ec-0x3ec.7 (1)
0x3e0|                                       00 00 00|             ...|                    bytes: raw bits 0x3ed-0x3fc.7 (16)
0x3f0|00 00 00 00 00 01 00 00 00 00 00 00 00         |.............   |
     |                                               |                |                  [3]{}: instr 0x3fd-0x3fe.7 (2)
0x3f0|                                       10      |             .  |                    call: 0x10 (valid) 0x3fd-0x3fd.7 (1)
0x3f0|                                          0f   |              . |                    x: 15 0x3fe-0x3fe.7 (1)
     |                                               |                |                  [4]{}: instr 0x3ff-0x3ff.7 (1)
0x3f0|                                             0b|               .|                    end: 0xb (valid) 0x3ff-0x3ff.7 (1)
     |                                               |                |          [17]{}: code 0x400-0x43d.7 (62)
0x400|3d                                             |=               |            size: 61 0x400-0x400.7 (1)
     |                                               |                |            code{}: 0x401-0x43d.7 (61)
     |                                               |                |              locals{}: 0x401-0x401.7 (1)
0x400|   00                                          | .              |                n: 0 0x401-0x401.7 (1)
     |                                               |                |                items[0:0]: 0x402-NA (0)
     |                                               |                |              expr{}: 0x402-0x43d.7 (60)
     |                                               |                |                instructions[0:6]: 0x402-0x43d.7 (60)
     |                                               |                |                  [0]{}: instr 0x402-0x413.7 (18)
0x400|      fd                                       |  .             |                    prefix: 0xfd (valid) 0x402-0x402.7 (1)
0x400|         0c                                    |   .            |                    v128.const: 12 (valid) 0x403-0x403.7 (1)
0x400|            00 00 00 00 01 00 00 00 02 00 00 00|    ............|                    bytes: raw bits 0x404-0x413.7 (16)
0x410|03 00 00 00                                    |....            |
     |                                               |                |                  [1]{}: instr 0x414-0x425.7 (18)
0x410|            fd                                 |    .           |                    prefix: 0xfd (valid) 0x414-0x414.7 (1)
0x410|               0c                              |     .          |                    v128.const: 12 (valid) 0x415-0x415.7 (1)
0x410|                  00 00 00 00 01 00 00 00 02 00|      ..........|                    bytes: raw bits 0x416-0x425.7 (16)
0x420|00 00 03 00 00 00                              |......          |
     |                                               |                |                  [2]{}: instr 0x426-0x437.7 (18)
0x420|                  fd                           |      .         |                    prefix: 0xfd (valid) 0x426-0x426.7 (1)
0x420|                     0c                        |       .        |                    v128.const: 12 (valid) 0x427-0x427.7 (1)
0x420|                        00 00 00 00 01 00 00 00|        ........|                    bytes: raw bits 0x428-0x437.7 (16)
0x430|02 00 00 00 03 00 00 00                        |........        |
     |                                               |                |                  [3]{}: instr 0x438-0x439.7 (2)
0x430|                        41                     |        A       |                    i32.const: 0x41 (valid) 0x438-0x438.7 (1)
0x430|                           00                  |         .      |                    n: 0 0x439-0x439.7 (1)
     |                                               |                |                  [4]{}: instr 0x43a-0x43c.7 (3)
0x430|                              11               |          .     |                    call: 0x11 (valid) 0x43a-0x43a.7 (1)
0x430|                                 00            |           .    |                    y: 0 0x43b-0x43b.7 (1)
0x430|                                    00         |            .   |                    x: 0 0x43c-0x43c.7 (1)
     |                                               |                |                  [5]{}: instr 0x43d-0x43d.7 (1)
0x430|                                       0b      |             .  |                    end: 0xb (valid) 0x43d-0x43d.7 (1)
     |                                               |                |          [18]{}: code 0x43e-0x47b.7 (62)
0x430|                                          3d   |              = |            size: 61 0x43e-0x43e.7 (1)
     |                                               |                |            code{}: 0x43f-0x47b.7 (61)
     |                                               |                |              locals{}: 0x43f-0x43f.7 (1)
0x430|                                             00|               .|                n: 0 0x43f-0x43f.7 (1)
     |                                               |                |                items[0:0]: 0x440-NA (0)
     |                                               |                |              expr{}: 0x440-0x47b.7 (60)
     |                                               |                |                instructions[0:6]: 0x440-0x47b.7 (60)
     |                                               |                |                  [0]{}: instr 0x440-0x451.7 (18)
0x440|fd                                             |.               |                    prefix: 0xfd (valid) 0x440-0x440.7 (1)
0x440|   0c                                          | .              |                    v128.const: 12 (valid) 0x441-0x441.7 (1)
0x440|      00 00 00 00 00 00 00 00 01 00 00 00 00 00|  ..............|                    bytes: raw bits 0x442-0x451.7 (16)
0x450|00 00                                          |..              |
     |                                               |                |                  [1]{}: instr 0x452-0x463.7 (18)
0x450|      fd                                       |  .             |                    prefix: 0xfd (valid) 0x452-0x452.7 (1)
0x450|         0c                                    |   .            |                    v128.const: 12 (valid) 0x453-0x453.7 (1)
0x450|            00 00 00 00 00 00 00 00 01 00 00 00|    ............|                    bytes: raw bits 0x454-0x463.7 (16)
0x460|00 00 00 00                                    |....            |
     |                                               |                |                  [2]{}: instr 0x464-0x475.7 (18)
0x460|            fd                                 |    .           |                    prefix: 0xfd (valid) 0x464-0x464.7 (1)
0x460|               0c                              |     .          |                    v128.const: 12 (valid) 0x465-0x465.7 (1)
0x460|                  00 00 00 00 00 00 00 00 01 00|      ..........|                    bytes: raw bits 0x466-0x475.7 (16)
0x470|00 00 00 00 00 00                              |......          |
     |                                               |                |                  [3]{}: instr 0x476-0x477.7 (2)
0x470|                  41                           |      A         |                    i32.const: 0x41 (valid) 0x476-0x476.7 (1)
0x470|                     01                        |       .        |                    n: 1 0x477-0x477.7 (1)
     |                                               |                |                  [4]{}: instr 0x478-0x47a.7 (3)
0x470|                        11                     |        .       |                    call: 0x11 (valid) 0x478-0x478.7 (1)
0x470|                           00                  |         .      |                    y: 0 0x479-0x479.7 (1)
0x470|                              00               |          .     |                    x: 0 0x47a-0x47a.7 (1)
     |                                               |                |                  [5]{}: instr 0x47b-0x47b.7 (1)
0x470|                                 0b            |           .    |                    end: 0xb (valid) 0x47b-0x47b.7 (1)
     |                                               |                |          [19]{}: code 0x47c-0x493.7 (24)
0x470|                                    17         |            .   |            size: 23 0x47c-0x47c.7 (1)
     |                                               |                |            code{}: 0x47d-0x493.7 (23)
     |                                               |                |              locals{}: 0x47d-0x47d.7 (1)
0x470|                                       00      |             .  |                n: 0 0x47d-0x47d.7 (1)
     |                                               |                |                items[0:0]: 0x47e-NA (0)
     |                                               |                |              expr{}: 0x47e-0x493.7 (22)
     |                                               |                |                instructions[0:2]: 0x47e-0x493.7 (22)
     |                                               |                |                  [0]{}: instr 0x47e-0x492.7 (21)
0x470|                                          02   |              . |                    block: 0x2 (valid) 0x47e-0x47e.7 (1)
0x470|                                             7b|               {|                    valtype: "v128" (123) 0x47f-0x47f.7 (1)
     |                                               |                |                    instructions[0:1]: 0x480-0x491.7 (18)
     |                                               |                |                      [0]{}: instr 0x480-0x491.7 (18)
0x480|fd                                             |.               |                        prefix: 0xfd (valid) 0x480-0x480.7 (1)
0x480|   0c                                          | .              |                        v128.const: 12 (valid) 0x481-0x481.7 (1)
0x480|      00 00 00 00 00 00 00 00 01 00 00 00 00 00|  ..............|                        bytes: raw bits 0x482-0x491.7 (16)
0x490|00 00                                          |..              |
0x490|      0b                                       |  .             |                    end: 11 (valid) 0x492-0x492.7 (1)
     |                                               |                |                  [1]{}: instr 0x493-0x493.7 (1)
0x490|         0b                                    |   .            |                    end: 0xb (valid) 0x493-0x493.7 (1)
     |                                               |                |          [20]{}: code 0x494-0x4ab.7 (24)
0x490|            17                                 |    .           |            size: 23 0x494-0x494.7 (1)
     |                                               |                |            code{}: 0x495-0x4ab.7 (23)
     |                                               |                |              locals{}: 0x495-0x495.7 (1)
0x490|               00                              |     .          |                n: 0 0x495-0x495.7 (1)
     |                                               |                |                items[0:0]: 0x496-NA (0)
     |                                               |                |              expr{}: 0x496-0x4ab.7 (22)
     |                                               |                |                instructions[0:2]: 0x496-0x4ab.7 (22)
     |                                               |                |                  [0]{}: instr 0x496-0x4aa.7 (21)
0x490|                  03                           |      .         |                    loop: 0x3 (valid) 0x496-0x496.7 (1)
0x490|                     7b                        |       {        |                    valtype: "v128" (123) 0x497-0x497.7 (1)
     |                                               |                |                    instructions[0:1]: 0x498-0x4a9.7 (18)
     |                                               |                |                      [0]{}: instr 0x498-0x4a9.7 (18)
0x490|                        fd                     |        .       |                        prefix: 0xfd (valid) 0x498-0x498.7 (1)
0x490|                           0c                  |         .      |                        v128.const: 12 (valid) 0x499-0x499.7 (1)
0x490|                              00 00 00 00 00 00|          ......|                        bytes: raw bits 0x49a-0x4a9.7 (16)
0x4a0|00 00 01 00 00 00 00 00 00 00                  |..........      |
0x4a0|                              0b               |          .     |                    end: 11 (valid) 0x4aa-0x4aa.7 (1)
     |                                               |                |                  [1]{}: instr 0x4ab-0x4ab.7 (1)
0x4a0|                                 0b            |           .    |                    end: 0xb (valid) 0x4ab-0x4ab.7 (1)
     |                                               |                |          [21]{}: code 0x4ac-0x4c1.7 (22)
0x4a0|                                    15         |            .   |            size: 21 0x4ac-0x4ac.7 (1)
     |                                               |                |            code{}: 0x4ad-0x4c1.7 (21)
     |                                               |                |              locals{}: 0x4ad-0x4ad.7 (1)
0x4a0|                                       00      |             .  |                n: 0 0x4ad-0x4ad.7 (1)
     |                                               |                |                items[0:0]: 0x4ae-NA (0)
     |                                               |                |              expr{}: 0x4ae-0x4c1.7 (20)
     |                                               |                |                instructions[0:3]: 0x4ae-0x4c1.7 (20)
     |                                               |                |                  [0]{}: instr 0x4ae-0x4bf.7 (18)
0x4a0|                                          fd   |              . |                    prefix: 0xfd (valid) 0x4ae-0x4ae.7 (1)
0x4a0|                                             0c|               .|                    v128.const: 12 (valid) 0x4af-0x4af.7 (1)
0x4b0|00 00 00 00 00 00 00 00 01 00 00 00 00 00 00 00|................|                    bytes: raw bits 0x4b0-0x4bf.7 (16)
     |                                               |                |                  [1]{}: instr 0x4c0-0x4c0.7 (1)
0x4c0|1a                                             |.               |                    drop: 0x1a (valid) 0x4c0-0x4c0.7 (1)
     |                                               |                |                  [2]{}: instr 0x4c1-0x4c1.7 (1)
0x4c0|   0b|                                         | .|             |                    end: 0xb (valid) 0x4c1-0x4c1.7 (1)
