$ fq -d wasm dv simd_const-307.wasm
    |00 01 02 03 04 05 06 07 08 09 0a 0b 0c 0d 0e 0f|0123456789abcdef|.{}: simd_const-307.wasm (wasm) 0x0-0x3b.7 (60)
0x00|00 61 73 6d                                    |.asm            |  magic: raw bits (valid) 0x0-0x3.7 (4)
0x00|            01 00 00 00                        |    ....        |  version: 1 0x4-0x7.7 (4)
    |                                               |                |  sections[0:4]: 0x8-0x3b.7 (52)
    |                                               |                |    [0]{}: section 0x8-0xe.7 (7)
0x00|                        01                     |        .       |      id: "type section" (1) 0x8-0x8.7 (1)
0x00|                           05                  |         .      |      size: 5 0x9-0x9.7 (1)
    |                                               |                |      content{}: 0xa-0xe.7 (5)
0x00|                              01               |          .     |        n: 1 0xa-0xa.7 (1)
    |                                               |                |        items[0:1]: 0xb-0xe.7 (4)
    |                                               |                |          [0]{}: functype 0xb-0xe.7 (4)
0x00|                                 60            |           `    |            tag: 0x60 (valid) 0xb-0xb.7 (1)
    |                                               |                |            rt1{}: 0xc-0xc.7 (1)
0x00|                                    00         |            .   |              n: 0 0xc-0xc.7 (1)
    |                                               |                |              items[0:0]: 0xd-NA (0)
    |                                               |                |            rt2{}: 0xd-0xe.7 (2)
0x00|                                       01      |             .  |              n: 1 0xd-0xd.7 (1)
    |                                               |                |              items[0:1]: 0xe-0xe.7 (1)
0x00|                                          7b   |              { |                [0]: "v128" (123) valtype 0xe-0xe.7 (1)
    |                                               |                |    [1]{}: section 0xf-0x12.7 (4)
0x00|                                             03|               .|      id: "function section" (3) 0xf-0xf.7 (1)
0x10|02                                             |.               |      size: 2 0x10-0x10.7 (1)
    |                                               |                |      content{}: 0x11-0x12.7 (2)
0x10|   01                                          | .              |        n: 1 0x11-0x11.7 (1)
    |                                               |                |        items[0:1]: 0x12-0x12.7 (1)
0x10|      00                                       |  .             |          [0]: 0 x 0x12-0x12.7 (1)
    |                                               |                |    [2]{}: section 0x13-0x23.7 (17)
0x10|         07                                    |   .            |      id: "export section" (7) 0x13-0x13.7 (1)
0x10|            0f                                 |    .           |      size: 15 0x14-0x14.7 (1)
    |                                               |                |      content{}: 0x15-0x23.7 (15)
0x10|               01                              |     .          |        n: 1 0x15-0x15.7 (1)
    |                                               |                |        items[0:1]: 0x16-0x23.7 (14)
    |                                               |                |          [0]{}: export 0x16-0x23.7 (14)
    |                                               |                |            name{}: 0x16-0x21.7 (12)
0x10|                  0b                           |      .         |              len: 11 0x16-0x16.7 (1)
0x10|                     70 61 72 73 65 5f 69 31 36|       parse_i16|              utf8bytes: "parse_i16x8" 0x17-0x21.7 (11)
0x20|78 38                                          |x8              |
    |                                               |                |            expr{}: 0x22-0x23.7 (2)
0x20|      00                                       |  .             |              tag: "funcidx" (0x0) 0x22-0x22.7 (1)
0x20|         00                                    |   .            |              x: 0 0x23-0x23.7 (1)
    |                                               |                |    [3]{}: section 0x24-0x3b.7 (24)
0x20|            0a                                 |    .           |      id: "code section" (10) 0x24-0x24.7 (1)
0x20|               16                              |     .          |      size: 22 0x25-0x25.7 (1)
    |                                               |                |      content{}: 0x26-0x3b.7 (22)
0x20|                  01                           |      .         |        n: 1 0x26-0x26.7 (1)
    |                                               |                |        items[0:1]: 0x27-0x3b.7 (21)
    |                                               |                |          [0]{}: code 0x27-0x3b.7 (21)
0x20|                     14                        |       .        |            size: 20 0x27-0x27.7 (1)
    |                                               |                |            code{}: 0x28-0x3b.7 (20)
    |                                               |                |              locals{}: 0x28-0x28.7 (1)
0x20|                        00                     |        .       |                n: 0 0x28-0x28.7 (1)
    |                                               |                |                items[0:0]: 0x29-NA (0)
    |                                               |                |              expr{}: 0x29-0x3b.7 (19)
    |                                               |                |                instructions[0:2]: 0x29-0x3b.7 (19)
    |                                               |                |                  [0]{}: instr 0x29-0x3a.7 (18)
0x20|                           fd                  |         .      |                    prefix: 0xfd (valid) 0x29-0x29.7 (1)
0x20|                              0c               |          .     |                    v128.const: 12 (valid) 0x2a-0x2a.7 (1)
0x20|                                 00 00 00 00 00|           .....|                    bytes: raw bits 0x2b-0x3a.7 (16)
0x30|80 00 80 ff ff ff ff ff ff ff ff               |...........     |
    |                                               |                |                  [1]{}: instr 0x3b-0x3b.7 (1)
0x30|                                 0b|           |           .|   |                    end: 0xb (valid) 0x3b-0x3b.7 (1)
