$ fq -d wasm dv simd_const-303.wasm
     |00 01 02 03 04 05 06 07 08 09 0a 0b 0c 0d 0e 0f|0123456789abcdef|.{}: simd_const-303.wasm (wasm) 0x0-0x175.7 (374)
0x000|00 61 73 6d                                    |.asm            |  magic: raw bits (valid) 0x0-0x3.7 (4)
0x000|            01 00 00 00                        |    ....        |  version: 1 0x4-0x7.7 (4)
     |                                               |                |  sections[0:6]: 0x8-0x175.7 (366)
     |                                               |                |    [0]{}: section 0x8-0x1e.7 (23)
0x000|                        01                     |        .       |      id: "type section" (1) 0x8-0x8.7 (1)
0x000|                           15                  |         .      |      size: 21 0x9-0x9.7 (1)
     |                                               |                |      content{}: 0xa-0x1e.7 (21)
0x000|                              04               |          .     |        n: 4 0xa-0xa.7 (1)
     |                                               |                |        items[0:4]: 0xb-0x1e.7 (20)
     |                                               |                |          [0]{}: functype 0xb-0xe.7 (4)
0x000|                                 60            |           `    |            tag: 0x60 (valid) 0xb-0xb.7 (1)
     |                                               |                |            rt1{}: 0xc-0xd.7 (2)
0x000|                                    01         |            .   |              n: 1 0xc-0xc.7 (1)
     |                                               |                |              items[0:1]: 0xd-0xd.7 (1)
0x000|                                       7b      |             {  |                [0]: "v128" (123) valtype 0xd-0xd.7 (1)
     |                                               |                |            rt2{}: 0xe-0xe.7 (1)
0x000|                                          00   |              . |              n: 0 0xe-0xe.7 (1)
     |                                               |                |              items[0:0]: 0xf-NA (0)
     |                                               |                |          [1]{}: functype 0xf-0x13.7 (5)
0x000|                                             60|               `|            tag: 0x60 (valid) 0xf-0xf.7 (1)
     |                                               |                |            rt1{}: 0x10-0x12.7 (3)
0x010|02                                             |.               |              n: 2 0x10-0x10.7 (1)
     |                                               |                |              items[0:2]: 0x11-0x12.7 (2)
0x010|   7b                                          | {              |                [0]: "v128" (123) valtype 0x11-0x11.7 (1)
0x010|      7b                                       |  {             |                [1]: "v128" (123) valtype 0x12-0x12.7 (1)
     |                                               |                |            rt2{}: 0x13-0x13.7 (1)
0x010|         00                                    |   .            |              n: 0 0x13-0x13.7 (1)
     |                                               |                |              items[0:0]: 0x14-NA (0)
     |                                               |                |          [2]{}: functype 0x14-0x1a.7 (7)
0x010|            60                                 |    `           |            tag: 0x60 (valid) 0x14-0x14.7 (1)
     |                                               |                |            rt1{}: 0x15-0x19.7 (5)
0x010|               04                              |     .          |              n: 4 0x15-0x15.7 (1)
     |                                               |                |              items[0:4]: 0x16-0x19.7 (4)
0x010|                  7b                           |      {         |                [0]: "v128" (123) valtype 0x16-0x16.7 (1)
0x010|                     7b                        |       {        |                [1]: "v128" (123) valtype 0x17-0x17.7 (1)
0x010|                        7b                     |        {       |                [2]: "v128" (123) valtype 0x18-0x18.7 (1)
0x010|                           7b                  |         {      |                [3]: "v128" (123) valtype 0x19-0x19.7 (1)
     |                                               |                |            rt2{}: 0x1a-0x1a.7 (1)
0x010|                              00               |          .     |              n: 0 0x1a-0x1a.7 (1)
     |                                               |                |              items[0:0]: 0x1b-NA (0)
     |                                               |                |          [3]{}: functype 0x1b-0x1e.7 (4)
0x010|                                 60            |           `    |            tag: 0x60 (valid) 0x1b-0x1b.7 (1)
     |                                               |                |            rt1{}: 0x1c-0x1c.7 (1)
0x010|                                    00         |            .   |              n: 0 0x1c-0x1c.7 (1)
     |                                               |                |              items[0:0]: 0x1d-NA (0)
     |                                               |                |            rt2{}: 0x1d-0x1e.7 (2)
0x010|                                       01      |             .  |              n: 1 0x1d-0x1d.7 (1)
     |                                               |                |              items[0:1]: 0x1e-0x1e.7 (1)
0x010|                                          7b   |              { |                [0]: "v128" (123) valtype 0x1e-0x1e.7 (1)
     |                                               |                |    [1]{}: section 0x1f-0x28.7 (10)
0x010|                                             03|               .|      id: "function section" (3) 0x1f-0x1f.7 (1)
0x020|08                                             |.               |      size: 8 0x20-0x20.7 (1)
     |                                               |                |      content{}: 0x21-0x28.7 (8)
0x020|   07                                          | .              |        n: 7 0x21-0x21.7 (1)
     |                                               |                |        items[0:7]: 0x22-0x28.7 (7)
0x020|      00                                       |  .             |          [0]: 0 x 0x22-0x22.7 (1)
0x020|         01                                    |   .            |          [1]: 1 x 0x23-0x23.7 (1)
0x020|            02                                 |    .           |          [2]: 2 x 0x24-0x24.7 (1)
0x020|               03                              |     .          |          [3]: 3 x 0x25-0x25.7 (1)
0x020|                  03                           |      .         |          [4]: 3 x 0x26-0x26.7 (1)
0x020|                     03                        |       .        |          [5]: 3 x 0x27-0x27.7 (1)
0x020|                        03                     |        .       |          [6]: 3 x 0x28-0x28.7 (1)
     |                                               |                |    [2]{}: section 0x29-0x2d.7 (5)
0x020|                           05                  |         .      |      id: "memory section" (5) 0x29-0x29.7 (1)
0x020|                              03               |          .     |      size: 3 0x2a-0x2a.7 (1)
     |                                               |                |      content{}: 0x2b-0x2d.7 (3)
0x020|                                 01            |           .    |        n: 1 0x2b-0x2b.7 (1)
     |                                               |                |        items[0:1]: 0x2c-0x2d.7 (2)
     |                                               |                |          [0]{}: mem 0x2c-0x2d.7 (2)
     |                                               |                |            limits{}: 0x2c-0x2d.7 (2)
0x020|                                    00         |            .   |              tag: 0x0 0x2c-0x2c.7 (1)
0x020|                                       01      |             .  |              min: 1 0x2d-0x2d.7 (1)
     |                                               |                |    [3]{}: section 0x2e-0x99.7 (108)
0x020|                                          06   |              . |      id: "global section" (6) 0x2e-0x2e.7 (1)
0x020|                                             6a|               j|      size: 106 0x2f-0x2f.7 (1)
     |                                               |                |      content{}: 0x30-0x99.7 (106)
0x030|05                                             |.               |        n: 5 0x30-0x30.7 (1)
     |                                               |                |        items[0:5]: 0x31-0x99.7 (105)
     |                                               |                |          [0]{}: global 0x31-0x45.7 (21)
     |                                               |                |            globaltype{}: 0x31-0x32.7 (2)
0x030|   7b                                          | {              |              valtype: "v128" (123) 0x31-0x31.7 (1)
0x030|      01                                       |  .             |              mut: "var" (1) 0x32-0x32.7 (1)
     |                                               |                |            expr{}: 0x33-0x45.7 (19)
     |                                               |                |              instructions[0:2]: 0x33-0x45.7 (19)
     |                                               |                |                [0]{}: instr 0x33-0x44.7 (18)
0x030|         fd                                    |   .            |                  prefix: 0xfd (valid) 0x33-0x33.7 (1)
0x030|            0c                                 |    .           |                  v128.const: 12 (valid) 0x34-0x34.7 (1)
0x030|               00 00 00 00 01 00 00 00 02 00 00|     ...........|                  bytes: raw bits 0x35-0x44.7 (16)
0x040|00 03 00 00 00                                 |.....           |
     |                                               |                |                [1]{}: instr 0x45-0x45.7 (1)
0x040|               0b                              |     .          |                  end: 0xb (valid) 0x45-0x45.7 (1)
     |                                               |                |          [1]{}: global 0x46-0x5a.7 (21)
     |                                               |                |            globaltype{}: 0x46-0x47.7 (2)
0x040|                  7b                           |      {         |              valtype: "v128" (123) 0x46-0x46.7 (1)
0x040|                     01                        |       .        |              mut: "var" (1) 0x47-0x47.7 (1)
     |                                               |                |            expr{}: 0x48-0x5a.7 (19)
     |                                               |                |              instructions[0:2]: 0x48-0x5a.7 (19)
     |                                               |                |                [0]{}: instr 0x48-0x59.7 (18)
0x040|                        fd                     |        .       |                  prefix: 0xfd (valid) 0x48-0x48.7 (1)
0x040|                           0c                  |         .      |                  v128.const: 12 (valid) 0x49-0x49.7 (1)
0x040|                              04 00 00 00 05 00|          ......|                  bytes: raw bits 0x4a-0x59.7 (16)
0x050|00 00 06 00 00 00 07 00 00 00                  |..........      |
     |                                               |                |                [1]{}: instr 0x5a-0x5a.7 (1)
0x050|                              0b               |          .     |                  end: 0xb (valid) 0x5a-0x5a.7 (1)
     |                                               |                |          [2]{}: global 0x5b-0x6f.7 (21)
     |                                               |                |            globaltype{}: 0x5b-0x5c.7 (2)
0x050|                                 7b            |           {    |              valtype: "v128" (123) 0x5b-0x5b.7 (1)
0x050|                                    01         |            .   |              mut: "var" (1) 0x5c-0x5c.7 (1)
     |                                               |                |            expr{}: 0x5d-0x6f.7 (19)
     |                                               |                |              instructions[0:2]: 0x5d-0x6f.7 (19)
     |                                               |                |                [0]{}: instr 0x5d-0x6e.7 (18)
0x050|                                       fd      |             .  |                  prefix: 0xfd (valid) 0x5d-0x5d.7 (1)
0x050|                                          0c   |              . |                  v128.const: 12 (valid) 0x5e-0x5e.7 (1)
0x050|                                             08|               .|                  bytes: raw bits 0x5f-0x6e.7 (16)
0x060|00 00 00 09 00 00 00 0a 00 00 00 0b 00 00 00   |............... |
     |                                               |                |                [1]{}: instr 0x6f-0x6f.7 (1)
0x060|                                             0b|               .|                  end: 0xb (valid) 0x6f-0x6f.7 (1)
     |                                               |                |          [3]{}: global 0x70-0x84.7 (21)
     |                                               |                |            globaltype{}: 0x70-0x71.7 (2)
0x070|7b                                             |{               |              valtype: "v128" (123) 0x70-0x70.7 (1)
0x070|   01                                          | .              |              mut: "var" (1) 0x71-0x71.7 (1)
     |                                               |                |            expr{}: 0x72-0x84.7 (19)
     |                                               |                |              instructions[0:2]: 0x72-0x84.7 (19)
     |                                               |                |                [0]{}: instr 0x72-0x83.7 (18)
0x070|      fd                                       |  .             |                  prefix: 0xfd (valid) 0x72-0x72.7 (1)
0x070|         0c                                    |   .            |                  v128.const: 12 (valid) 0x73-0x73.7 (1)
0x070|            0c 00 00 00 0d 00 00 00 0e 00 00 00|    ............|                  bytes: raw bits 0x74-0x83.7 (16)
0x080|0f 00 00 00                                    |....            |
     |                                               |                |                [1]{}: instr 0x84-0x84.7 (1)
0x080|            0b                                 |    .           |                  end: 0xb (valid) 0x84-0x84.7 (1)
     |                                               |                |          [4]{}: global 0x85-0x99.7 (21)
     |                                               |                |            globaltype{}: 0x85-0x86.7 (2)
0x080|               7b                              |     {          |              valtype: "v128" (123) 0x85-0x85.7 (1)
0x080|                  01                           |      .         |              mut: "var" (1) 0x86-0x86.7 (1)
     |                                               |                |            expr{}: 0x87-0x99.7 (19)
     |                                               |                |              instructions[0:2]: 0x87-0x99.7 (19)
     |                                               |                |                [0]{}: instr 0x87-0x98.7 (18)
0x080|                     fd                        |       .        |                  prefix: 0xfd (valid) 0x87-0x87.7 (1)
0x080|                        0c                     |        .       |                  v128.const: 12 (valid) 0x88-0x88.7 (1)
0x080|                           10 00 00 00 11 00 00|         .......|                  bytes: raw bits 0x89-0x98.7 (16)
0x090|00 12 00 00 00 13 00 00 00                     |.........       |
     |                                               |                |                [1]{}: instr 0x99-0x99.7 (1)
0x090|                           0b                  |         .      |                  end: 0xb (valid) 0x99-0x99.7 (1)
     |                                               |                |    [4]{}: section 0x9a-0x13b.7 (162)
0x090|                              07               |          .     |      id: "export section" (7) 0x9a-0x9a.7 (1)
0x090|                                 9f 01         |           ..   |      size: 159 0x9b-0x9c.7 (2)
     |                                               |                |      content{}: 0x9d-0x13b.7 (159)
0x090|                                       07      |             .  |        n: 7 0x9d-0x9d.7 (1)
     |                                               |                |        items[0:7]: 0x9e-0x13b.7 (158)
     |                                               |                |          [0]{}: export 0x9e-0xb7.7 (26)
     |                                               |                |            name{}: 0x9e-0xb5.7 (24)
0x090|                                          17   |              . |              len: 23 0x9e-0x9e.7 (1)
0x090|                                             61|               a|              utf8bytes: "as-global.set_value_$g0" 0x9f-0xb5.7 (23)
0x0a0|73 2d 67 6c 6f 62 61 6c 2e 73 65 74 5f 76 61 6c|s-global.set_val|
0x0b0|75 65 5f 24 67 30                              |ue_$g0          |
     |                                               |                |            expr{}: 0xb6-0xb7.7 (2)
0x0b0|                  00                           |      .         |              tag: "funcidx" (0x0) 0xb6-0xb6.7 (1)
0x0b0|                     00                        |       .        |              x: 0 0xb7-0xb7.7 (1)
     |                                               |                |          [1]{}: export 0xb8-0xd5.7 (30)
     |                                               |                |            name{}: 0xb8-0xd3.7 (28)
0x0b0|                        1b                     |        .       |              len: 27 0xb8-0xb8.7 (1)
0x0b0|                           61 73 2d 67 6c 6f 62|         as-glob|              utf8bytes: "as-global.set_value_$g1_$g2" 0xb9-0xd3.7 (27)
0x0c0|61 6c 2e 73 65 74 5f 76 61 6c 75 65 5f 24 67 31|al.set_value_$g1|
0x0d0|5f 24 67 32                                    |_$g2            |
     |                                               |                |            expr{}: 0xd4-0xd5.7 (2)
0x0d0|            00                                 |    .           |              tag: "funcidx" (0x0) 0xd4-0xd4.7 (1)
0x0d0|               01                              |     .          |              x: 1 0xd5-0xd5.7 (1)
     |                                               |                |          [2]{}: export 0xd6-0xfb.7 (38)
     |                                               |                |            name{}: 0xd6-0xf9.7 (36)
0x0d0|                  23                           |      #         |              len: 35 0xd6-0xd6.7 (1)
0x0d0|                     61 73 2d 67 6c 6f 62 61 6c|       as-global|              utf8bytes: "as-global.set_value_$g0_$g1_$g2_$g3" 0xd7-0xf9.7 (35)
0x0e0|2e 73 65 74 5f 76 61 6c 75 65 5f 24 67 30 5f 24|.set_value_$g0_$|
0x0f0|67 31 5f 24 67 32 5f 24 67 33                  |g1_$g2_$g3      |
     |                                               |                |            expr{}: 0xfa-0xfb.7 (2)
0x0f0|                              00               |          .     |              tag: "funcidx" (0x0) 0xfa-0xfa.7 (1)
0x0f0|                                 02            |           .    |              x: 2 0xfb-0xfb.7 (1)
     |                                               |                |          [3]{}: export 0xfc-0x10b.7 (16)
     |                                               |                |            name{}: 0xfc-0x109.7 (14)
0x0f0|                                    0d         |            .   |              len: 13 0xfc-0xfc.7 (1)
0x0f0|                                       67 6c 6f|             glo|              utf8bytes: "global.get_g0" 0xfd-0x109.7 (13)
0x100|62 61 6c 2e 67 65 74 5f 67 30                  |bal.get_g0      |
     |                                               |                |            expr{}: 0x10a-0x10b.7 (2)
0x100|                              00               |          .     |              tag: "funcidx" (0x0) 0x10a-0x10a.7 (1)
0x100|                                 03            |           .    |              x: 3 0x10b-0x10b.7 (1)
     |                                               |                |          [4]{}: export 0x10c-0x11b.7 (16)
     |                                               |                |            name{}: 0x10c-0x119.7 (14)
0x100|                                    0d         |            .   |              len: 13 0x10c-0x10c.7 (1)
0x100|                                       67 6c 6f|             glo|              utf8bytes: "global.get_g1" 0x10d-0x119.7 (13)
0x110|62 61 6c 2e 67 65 74 5f 67 31                  |bal.get_g1      |
     |                                               |                |            expr{}: 0x11a-0x11b.7 (2)
0x110|                              00               |          .     |              tag: "funcidx" (0x0) 0x11a-0x11a.7 (1)
0x110|                                 04            |           .    |              x: 4 0x11b-0x11b.7 (1)
     |                                               |                |          [5]{}: export 0x11c-0x12b.7 (16)
     |                                               |                |            name{}: 0x11c-0x129.7 (14)
0x110|                                    0d         |            .   |              len: 13 0x11c-0x11c.7 (1)
0x110|                                       67 6c 6f|             glo|              utf8bytes: "global.get_g2" 0x11d-0x129.7 (13)
0x120|62 61 6c 2e 67 65 74 5f 67 32                  |bal.get_g2      |
     |                                               |                |            expr{}: 0x12a-0x12b.7 (2)
0x120|                              00               |          .     |              tag: "funcidx" (0x0) 0x12a-0x12a.7 (1)
0x120|                                 05            |           .    |              x: 5 0x12b-0x12b.7 (1)
     |                                               |                |          [6]{}: export 0x12c-0x13b.7 (16)
     |                                               |                |            name{}: 0x12c-0x139.7 (14)
0x120|                                    0d         |            .   |              len: 13 0x12c-0x12c.7 (1)
0x120|                                       67 6c 6f|             glo|              utf8bytes: "global.get_g3" 0x12d-0x139.7 (13)
0x130|62 61 6c 2e 67 65 74 5f 67 33                  |bal.get_g3      |
     |                                               |                |            expr{}: 0x13a-0x13b.7 (2)
0x130|                              00               |          .     |              tag: "funcidx" (0x0) 0x13a-0x13a.7 (1)
0x130|                                 06            |           .    |              x: 6 0x13b-0x13b.7 (1)
     |                                               |                |    [5]{}: section 0x13c-0x175.7 (58)
0x130|                                    0a         |            .   |      id: "code section" (10) 0x13c-0x13c.7 (1)
0x130|                                       38      |             8  |      size: 56 0x13d-0x13d.7 (1)
     |                                               |                |      content{}: 0x13e-0x175.7 (56)
0x130|                                          07   |              . |        n: 7 0x13e-0x13e.7 (1)
     |                                               |                |        items[0:7]: 0x13f-0x175.7 (55)
     |                                               |                |          [0]{}: code 0x13f-0x145.7 (7)
0x130|                                             06|               .|            size: 6 0x13f-0x13f.7 (1)
     |                                               |                |            code{}: 0x140-0x145.7 (6)
     |                                               |                |              locals{}: 0x140-0x140.7 (1)
0x140|00                                             |.               |                n: 0 0x140-0x140.7 (1)
     |                                               |                |                items[0:0]: 0x141-NA (0)
     |                                               |                |              expr{}: 0x141-0x145.7 (5)
     |                                               |                |                instructions[0:3]: 0x141-0x145.7 (5)
     |                                               |                |                  [0]{}: instr 0x141-0x142.7 (2)
0x140|   20                                          |                |                    local.get: 0x20 (valid) 0x141-0x141.7 (1)
0x140|      00                                       |  .             |                    x: 0 0x142-0x142.7 (1)
     |                                               |                |                  [1]{}: instr 0x143-0x144.7 (2)
0x140|         24                                    |   $            |                    global.set: 0x24 (valid) 0x143-0x143.7 (1)
0x140|            00                                 |    .           |                    x: 0 0x144-0x144.7 (1)
     |                                               |                |                  [2]{}: instr 0x145-0x145.7 (1)
0x140|               0b                              |     .          |                    end: 0xb (valid) 0x145-0x145.7 (1)
     |                                               |                |          [1]{}: code 0x146-0x150.7 (11)
0x140|                  0a                           |      .         |            size: 10 0x146-0x146.7 (1)
     |                                               |                |            code{}: 0x147-0x150.7 (10)
     |                                               |                |              locals{}: 0x147-0x147.7 (1)
0x140|                     00                        |       .        |                n: 0 0x147-0x147.7 (1)
     |                                               |                |                items[0:0]: 0x148-NA (0)
     |                                               |                |              expr{}: 0x148-0x150.7 (9)
     |                                               |                |                instructions[0:5]: 0x148-0x150.7 (9)
     |                                               |                |                  [0]{}: instr 0x148-0x149.7 (2)
0x140|                        20                     |                |                    local.get: 0x20 (valid) 0x148-0x148.7 (1)
0x140|                           00                  |         .      |                    x: 0 0x149-0x149.7 (1)
     |                                               |                |                  [1]{}: instr 0x14a-0x14b.7 (2)
0x140|                              24               |          $     |                    global.set: 0x24 (valid) 0x14a-0x14a.7 (1)
0x140|                                 01            |           .    |                    x: 1 0x14b-0x14b.7 (1)
     |                                               |                |                  [2]{}: instr 0x14c-0x14d.7 (2)
0x140|                                    20         |                |                    local.get: 0x20 (valid) 0x14c-0x14c.7 (1)
0x140|                                       01      |             .  |                    x: 1 0x14d-0x14d.7 (1)
     |                                               |                |                  [3]{}: instr 0x14e-0x14f.7 (2)
0x140|                                          24   |              $ |                    global.set: 0x24 (valid) 0x14e-0x14e.7 (1)
0x140|                                             02|               .|                    x: 2 0x14f-0x14f.7 (1)
     |                                               |                |                  [4]{}: instr 0x150-0x150.7 (1)
0x150|0b                                             |.               |                    end: 0xb (valid) 0x150-0x150.7 (1)
     |                                               |                |          [2]{}: code 0x151-0x161.7 (17)
0x150|   10                                          | .              |            size: 16 0x151-0x151.7 (1)
     |                                               |                |            code{}: 0x152-0x161.7 (16)
     |                                               |                |              locals{}: 0x152-0x152.7 (1)
0x150|      00                                       |  .             |                n: 0 0x152-0x152.7 (1)
     |                                               |                |                items[0:0]: 0x153-NA (0)
     |                                               |                |              expr{}: 0x153-0x161.7 (15)
     |                                               |                |                instructions[0:8]: 0x153-0x161.7 (15)
     |                                               |                |                  [0]{}: instr 0x153-0x154.7 (2)
0x150|         20                                    |                |                    local.get: 0x20 (valid) 0x153-0x153.7 (1)
0x150|            00                                 |    .           |                    x: 0 0x154-0x154.7 (1)
     |                                               |                |                  [1]{}: instr 0x155-0x156.7 (2)
0x150|               10                              |     .          |                    call: 0x10 (valid) 0x155-0x155.7 (1)
0x150|                  00                           |      .         |                    x: 0 0x156-0x156.7 (1)
     |                                               |                |                  [2]{}: instr 0x157-0x158.7 (2)
0x150|                     20                        |                |                    local.get: 0x20 (valid) 0x157-0x157.7 (1)
0x150|                        01                     |        .       |                    x: 1 0x158-0x158.7 (1)
     |                                               |                |                  [3]{}: instr 0x159-0x15a.7 (2)
0x150|                           20                  |                |                    local.get: 0x20 (valid) 0x159-0x159.7 (1)
0x150|                              02               |          .     |                    x: 2 0x15a-0x15a.7 (1)
     |                                               |                |                  [4]{}: instr 0x15b-0x15c.7 (2)
0x150|                                 10            |           .    |                    call: 0x10 (valid) 0x15b-0x15b.7 (1)
0x150|                                    01         |            .   |                    x: 1 0x15c-0x15c.7 (1)
     |                                               |                |                  [5]{}: instr 0x15d-0x15e.7 (2)
0x150|                                       20      |                |                    local.get: 0x20 (valid) 0x15d-0x15d.7 (1)
0x150|                                          03   |              . |                    x: 3 0x15e-0x15e.7 (1)
     |                                               |                |                  [6]{}: instr 0x15f-0x160.7 (2)
0x150|                                             24|               $|                    global.set: 0x24 (valid) 0x15f-0x15f.7 (1)
0x160|03                                             |.               |                    x: 3 0x160-0x160.7 (1)
     |                                               |                |                  [7]{}: instr 0x161-0x161.7 (1)
0x160|   0b                                          | .              |                    end: 0xb (valid) 0x161-0x161.7 (1)
     |                                               |                |          [3]{}: code 0x162-0x166.7 (5)
0x160|      04                                       |  .             |            size: 4 0x162-0x162.7 (1)
     |                                               |                |            code{}: 0x163-0x166.7 (4)
     |                                               |                |              locals{}: 0x163-0x163.7 (1)
0x160|         00                                    |   .            |                n: 0 0x163-0x163.7 (1)
     |                                               |                |                items[0:0]: 0x164-NA (0)
     |                                               |                |              expr{}: 0x164-0x166.7 (3)
     |                                               |                |                instructions[0:2]: 0x164-0x166.7 (3)
     |                                               |                |                  [0]{}: instr 0x164-0x165.7 (2)
0x160|            23                                 |    #           |                    global.get: 0x23 (valid) 0x164-0x164.7 (1)
0x160|               00                              |     .          |                    x: 0 0x165-0x165.7 (1)
     |                                               |                |                  [1]{}: instr 0x166-0x166.7 (1)
0x160|                  0b                           |      .         |                    end: 0xb (valid) 0x166-0x166.7 (1)
     |                                               |                |          [4]{}: code 0x167-0x16b.7 (5)
0x160|                     04                        |       .        |            size: 4 0x167-0x167.7 (1)
     |                                               |                |            code{}: 0x168-0x16b.7 (4)
     |                                               |                |              locals{}: 0x168-0x168.7 (1)
0x160|                        00                     |        .       |                n: 0 0x168-0x168.7 (1)
     |                                               |                |                items[0:0]: 0x169-NA (0)
     |                                               |                |              expr{}: 0x169-0x16b.7 (3)
     |                                               |                |                instructions[0:2]: 0x169-0x16b.7 (3)
     |                                               |                |                  [0]{}: instr 0x169-0x16a.7 (2)
0x160|                           23                  |         #      |                    global.get: 0x23 (valid) 0x169-0x169.7 (1)
0x160|                              01               |          .     |                    x: 1 0x16a-0x16a.7 (1)
     |                                               |                |                  [1]{}: instr 0x16b-0x16b.7 (1)
0x160|                                 0b            |           .    |                    end: 0xb (valid) 0x16b-0x16b.7 (1)
     |                                               |                |          [5]{}: code 0x16c-0x170.7 (5)
0x160|                                    04         |            .   |            size: 4 0x16c-0x16c.7 (1)
     |                                               |                |            code{}: 0x16d-0x170.7 (4)
     |                                               |                |              locals{}: 0x16d-0x16d.7 (1)
0x160|                                       00      |             .  |                n: 0 0x16d-0x16d.7 (1)
     |                                               |                |                items[0:0]: 0x16e-NA (0)
     |                                               |                |              expr{}: 0x16e-0x170.7 (3)
     |                                               |                |                instructions[0:2]: 0x16e-0x170.7 (3)
     |                                               |                |                  [0]{}: instr 0x16e-0x16f.7 (2)
0x160|                                          23   |              # |                    global.get: 0x23 (valid) 0x16e-0x16e.7 (1)
0x160|                                             02|               .|                    x: 2 0x16f-0x16f.7 (1)
     |                                               |                |                  [1]{}: instr 0x170-0x170.7 (1)
0x170|0b                                             |.               |                    end: 0xb (valid) 0x170-0x170.7 (1)
     |                                               |                |          [6]{}: code 0x171-0x175.7 (5)
0x170|   04                                          | .              |            size: 4 0x171-0x171.7 (1)
     |                                               |                |            code{}: 0x172-0x175.7 (4)
     |                                               |                |              locals{}: 0x172-0x172.7 (1)
0x170|      00                                       |  .             |                n: 0 0x172-0x172.7 (1)
     |                                               |                |                items[0:0]: 0x173-NA (0)
     |                                               |                |              expr{}: 0x173-0x175.7 (3)
     |                                               |                |                instructions[0:2]: 0x173-0x175.7 (3)
     |                                               |                |                  [0]{}: instr 0x173-0x174.7 (2)
0x170|         23                                    |   #            |                    global.get: 0x23 (valid) 0x173-0x173.7 (1)
0x170|            03                                 |    .           |                    x: 3 0x174-0x174.7 (1)
     |                                               |                |                  [1]{}: instr 0x175-0x175.7 (1)
0x170|               0b|                             |     .|         |                    end: 0xb (valid) 0x175-0x175.7 (1)
