$ fq -d wasm dv simd_align-45.wasm
     |00 01 02 03 04 05 06 07 08 09 0a 0b 0c 0d 0e 0f|0123456789abcdef|.{}: simd_align-45.wasm (wasm) 0x0-0x13c.7 (317)
0x000|00 61 73 6d                                    |.asm            |  magic: raw bits (valid) 0x0-0x3.7 (4)
0x000|            01 00 00 00                        |    ....        |  version: 1 0x4-0x7.7 (4)
     |                                               |                |  sections[0:5]: 0x8-0x13c.7 (309)
     |                                               |                |    [0]{}: section 0x8-0xe.7 (7)
0x000|                        01                     |        .       |      id: "type section" (1) 0x8-0x8.7 (1)
0x000|                           05                  |         .      |      size: 5 0x9-0x9.7 (1)
     |                                               |                |      content{}: 0xa-0xe.7 (5)
0x000|                              01               |          .     |        n: 1 0xa-0xa.7 (1)
     |                                               |                |        items[0:1]: 0xb-0xe.7 (4)
     |                                               |                |          [0]{}: functype 0xb-0xe.7 (4)
0x000|                                 60            |           `    |            tag: 0x60 (valid) 0xb-0xb.7 (1)
     |                                               |                |            rt1{}: 0xc-0xc.7 (1)
0x000|                                    00         |            .   |              n: 0 0xc-0xc.7 (1)
     |                                               |                |              items[0:0]: 0xd-NA (0)
     |                                               |                |            rt2{}: 0xd-0xe.7 (2)
0x000|                                       01      |             .  |              n: 1 0xd-0xd.7 (1)
     |                                               |                |              items[0:1]: 0xe-0xe.7 (1)
0x000|                                          7b   |              { |                [0]: "v128" (123) valtype 0xe-0xe.7 (1)
     |                                               |                |    [1]{}: section 0xf-0x15.7 (7)
0x000|                                             03|               .|      id: "function section" (3) 0xf-0xf.7 (1)
0x010|05                                             |.               |      size: 5 0x10-0x10.7 (1)
     |                                               |                |      content{}: 0x11-0x15.7 (5)
0x010|   04                                          | .              |        n: 4 0x11-0x11.7 (1)
     |                                               |                |        items[0:4]: 0x12-0x15.7 (4)
0x010|      00                                       |  .             |          [0]: 0 x 0x12-0x12.7 (1)
0x010|         00                                    |   .            |          [1]: 0 x 0x13-0x13.7 (1)
0x010|            00                                 |    .           |          [2]: 0 x 0x14-0x14.7 (1)
0x010|               00                              |     .          |          [3]: 0 x 0x15-0x15.7 (1)
     |                                               |                |    [2]{}: section 0x16-0x1a.7 (5)
0x010|                  05                           |      .         |      id: "memory section" (5) 0x16-0x16.7 (1)
0x010|                     03                        |       .        |      size: 3 0x17-0x17.7 (1)
     |                                               |                |      content{}: 0x18-0x1a.7 (3)
0x010|                        01                     |        .       |        n: 1 0x18-0x18.7 (1)
     |                                               |                |        items[0:1]: 0x19-0x1a.7 (2)
     |                                               |                |          [0]{}: mem 0x19-0x1a.7 (2)
     |                                               |                |            limits{}: 0x19-0x1a.7 (2)
0x010|                           00                  |         .      |              tag: 0x0 0x19-0x19.7 (1)
0x010|                              01               |          .     |              min: 1 0x1a-0x1a.7 (1)
     |                                               |                |    [3]{}: section 0x1b-0xac.7 (146)
0x010|                                 07            |           .    |      id: "export section" (7) 0x1b-0x1b.7 (1)
0x010|                                    8f 01      |            ..  |      size: 143 0x1c-0x1d.7 (2)
     |                                               |                |      content{}: 0x1e-0xac.7 (143)
0x010|                                          04   |              . |        n: 4 0x1e-0x1e.7 (1)
     |                                               |                |        items[0:4]: 0x1f-0xac.7 (142)
     |                                               |                |          [0]{}: export 0x1f-0x3e.7 (32)
     |                                               |                |            name{}: 0x1f-0x3c.7 (30)
0x010|                                             1d|               .|              len: 29 0x1f-0x1f.7 (1)
0x020|76 31 32 38 5f 75 6e 61 6c 69 67 6e 65 64 5f 72|v128_unaligned_r|              utf8bytes: "v128_unaligned_read_and_write" 0x20-0x3c.7 (29)
0x030|65 61 64 5f 61 6e 64 5f 77 72 69 74 65         |ead_and_write   |
     |                                               |                |            expr{}: 0x3d-0x3e.7 (2)
0x030|                                       00      |             .  |              tag: "funcidx" (0x0) 0x3d-0x3d.7 (1)
0x030|                                          00   |              . |              x: 0 0x3e-0x3e.7 (1)
     |                                               |                |          [1]{}: export 0x3f-0x5c.7 (30)
     |                                               |                |            name{}: 0x3f-0x5a.7 (28)
0x030|                                             1b|               .|              len: 27 0x3f-0x3f.7 (1)
0x040|76 31 32 38 5f 61 6c 69 67 6e 65 64 5f 72 65 61|v128_aligned_rea|              utf8bytes: "v128_aligned_read_and_write" 0x40-0x5a.7 (27)
0x050|64 5f 61 6e 64 5f 77 72 69 74 65               |d_and_write     |
     |                                               |                |            expr{}: 0x5b-0x5c.7 (2)
0x050|                                 00            |           .    |              tag: "funcidx" (0x0) 0x5b-0x5b.7 (1)
0x050|                                    01         |            .   |              x: 1 0x5c-0x5c.7 (1)
     |                                               |                |          [2]{}: export 0x5d-0x84.7 (40)
     |                                               |                |            name{}: 0x5d-0x82.7 (38)
0x050|                                       25      |             %  |              len: 37 0x5d-0x5d.7 (1)
0x050|                                          76 31|              v1|              utf8bytes: "v128_aligned_read_and_unaligned_write" 0x5e-0x82.7 (37)
0x060|32 38 5f 61 6c 69 67 6e 65 64 5f 72 65 61 64 5f|28_aligned_read_|
*    |until 0x82.7 (37)                              |                |
     |                                               |                |            expr{}: 0x83-0x84.7 (2)
0x080|         00                                    |   .            |              tag: "funcidx" (0x0) 0x83-0x83.7 (1)
0x080|            02                                 |    .           |              x: 2 0x84-0x84.7 (1)
     |                                               |                |          [3]{}: export 0x85-0xac.7 (40)
     |                                               |                |            name{}: 0x85-0xaa.7 (38)
0x080|               25                              |     %          |              len: 37 0x85-0x85.7 (1)
0x080|                  76 31 32 38 5f 75 6e 61 6c 69|      v128_unali|              utf8bytes: "v128_unaligned_read_and_aligned_write" 0x86-0xaa.7 (37)
0x090|67 6e 65 64 5f 72 65 61 64 5f 61 6e 64 5f 61 6c|gned_read_and_al|
0x0a0|69 67 6e 65 64 5f 77 72 69 74 65               |igned_write     |
     |                                               |                |            expr{}: 0xab-0xac.7 (2)
0x0a0|                                 00            |           .    |              tag: "funcidx" (0x0) 0xab-0xab.7 (1)
0x0a0|                                    03         |            .   |              x: 3 0xac-0xac.7 (1)
     |                                               |                |    [4]{}: section 0xad-0x13c.7 (144)
0x0a0|                                       0a      |             .  |      id: "code section" (10) 0xad-0xad.7 (1)
0x0a0|                                          8d 01|              ..|      size: 141 0xae-0xaf.7 (2)
     |                                               |                |      content{}: 0xb0-0x13c.7 (141)
0x0b0|04                                             |.               |        n: 4 0xb0-0xb0.7 (1)
     |                                               |                |        items[0:4]: 0xb1-0x13c.7 (140)
     |                                               |                |          [0]{}: code 0xb1-0xd3.7 (35)
0x0b0|   22                                          | "              |            size: 34 0xb1-0xb1.7 (1)
     |                                               |                |            code{}: 0xb2-0xd3.7 (34)
     |                                               |                |              locals{}: 0xb2-0xb4.7 (3)
0x0b0|      01                                       |  .             |                n: 1 0xb2-0xb2.7 (1)
     |                                               |                |                items[0:1]: 0xb3-0xb4.7 (2)
     |                                               |                |                  [0]{}: locals 0xb3-0xb4.7 (2)
0x0b0|         01                                    |   .            |                    n: 1 0xb3-0xb3.7 (1)
0x0b0|            7b                                 |    {           |                    valtype: "v128" (123) 0xb4-0xb4.7 (1)
     |                                               |                |              expr{}: 0xb5-0xd3.7 (31)
     |                                               |                |                instructions[0:6]: 0xb5-0xd3.7 (31)
     |                                               |                |                  [0]{}: instr 0xb5-0xb6.7 (2)
0x0b0|               41                              |     A          |                    i32.const: 0x41 (valid) 0xb5-0xb5.7 (1)
0x0b0|                  00                           |      .         |                    n: 0 0xb6-0xb6.7 (1)
     |                                               |                |                  [1]{}: instr 0xb7-0xc8.7 (18)
0x0b0|                     fd                        |       .        |                    prefix: 0xfd (valid) 0xb7-0xb7.7 (1)
0x0b0|                        0c                     |        .       |                    v128.const: 12 (valid) 0xb8-0xb8.7 (1)
0x0b0|                           00 01 02 03 04 05 06|         .......|                    bytes: raw bits 0xb9-0xc8.7 (16)
0x0c0|07 08 09 0a 0b 0c 0d 0e 0f                     |.........       |
     |                                               |                |                  [2]{}: instr 0xc9-0xcc.7 (4)
0x0c0|                           fd                  |         .      |                    prefix: 0xfd (valid) 0xc9-0xc9.7 (1)
0x0c0|                              0b               |          .     |                    v128.store: 11 (valid) 0xca-0xca.7 (1)
     |                                               |                |                    m{}: 0xcb-0xcc.7 (2)
0x0c0|                                 04            |           .    |                      align: 4 0xcb-0xcb.7 (1)
0x0c0|                                    00         |            .   |                      offset: 0 0xcc-0xcc.7 (1)
     |                                               |                |                  [3]{}: instr 0xcd-0xce.7 (2)
0x0c0|                                       41      |             A  |                    i32.const: 0x41 (valid) 0xcd-0xcd.7 (1)
0x0c0|                                          00   |              . |                    n: 0 0xce-0xce.7 (1)
     |                                               |                |                  [4]{}: instr 0xcf-0xd2.7 (4)
0x0c0|                                             fd|               .|                    prefix: 0xfd (valid) 0xcf-0xcf.7 (1)
0x0d0|00                                             |.               |                    v128.load: 0 (valid) 0xd0-0xd0.7 (1)
     |                                               |                |                    m{}: 0xd1-0xd2.7 (2)
0x0d0|   04                                          | .              |                      align: 4 0xd1-0xd1.7 (1)
0x0d0|      00                                       |  .             |                      offset: 0 0xd2-0xd2.7 (1)
     |                                               |                |                  [5]{}: instr 0xd3-0xd3.7 (1)
0x0d0|         0b                                    |   .            |                    end: 0xb (valid) 0xd3-0xd3.7 (1)
     |                                               |                |          [1]{}: code 0xd4-0xf6.7 (35)
0x0d0|            22                                 |    "           |            size: 34 0xd4-0xd4.7 (1)
     |                                               |                |            code{}: 0xd5-0xf6.7 (34)
     |                                               |                |              locals{}: 0xd5-0xd7.7 (3)
0x0d0|               01                              |     .          |                n: 1 0xd5-0xd5.7 (1)
     |                                               |                |                items[0:1]: 0xd6-0xd7.7 (2)
     |                                               |                |                  [0]{}: locals 0xd6-0xd7.7 (2)
0x0d0|                  01                           |      .         |                    n: 1 0xd6-0xd6.7 (1)
0x0d0|                     7b                        |       {        |                    valtype: "v128" (123) 0xd7-0xd7.7 (1)
     |                                               |                |              expr{}: 0xd8-0xf6.7 (31)
     |                                               |                |                instructions[0:6]: 0xd8-0xf6.7 (31)
     |                                               |                |                  [0]{}: instr 0xd8-0xd9.7 (2)
0x0d0|                        41                     |        A       |                    i32.const: 0x41 (valid) 0xd8-0xd8.7 (1)
0x0d0|                           00                  |         .      |                    n: 0 0xd9-0xd9.7 (1)
     |                                               |                |                  [1]{}: instr 0xda-0xeb.7 (18)
0x0d0|                              fd               |          .     |                    prefix: 0xfd (valid) 0xda-0xda.7 (1)
0x0d0|                                 0c            |           .    |                    v128.const: 12 (valid) 0xdb-0xdb.7 (1)
0x0d0|                                    00 00 01 00|            ....|                    bytes: raw bits 0xdc-0xeb.7 (16)
0x0e0|02 00 03 00 04 00 05 00 06 00 07 00            |............    |
     |                                               |                |                  [2]{}: instr 0xec-0xef.7 (4)
0x0e0|                                    fd         |            .   |                    prefix: 0xfd (valid) 0xec-0xec.7 (1)
0x0e0|                                       0b      |             .  |                    v128.store: 11 (valid) 0xed-0xed.7 (1)
     |                                               |                |                    m{}: 0xee-0xef.7 (2)
0x0e0|                                          01   |              . |                      align: 1 0xee-0xee.7 (1)
0x0e0|                                             00|               .|                      offset: 0 0xef-0xef.7 (1)
     |                                               |                |                  [3]{}: instr 0xf0-0xf1.7 (2)
0x0f0|41                                             |A               |                    i32.const: 0x41 (valid) 0xf0-0xf0.7 (1)
0x0f0|   00                                          | .              |                    n: 0 0xf1-0xf1.7 (1)
     |                                               |                |                  [4]{}: instr 0xf2-0xf5.7 (4)
0x0f0|      fd                                       |  .             |                    prefix: 0xfd (valid) 0xf2-0xf2.7 (1)
0x0f0|         00                                    |   .            |                    v128.load: 0 (valid) 0xf3-0xf3.7 (1)
     |                                               |                |                    m{}: 0xf4-0xf5.7 (2)
0x0f0|            01                                 |    .           |                      align: 1 0xf4-0xf4.7 (1)
0x0f0|               00                              |     .          |                      offset: 0 0xf5-0xf5.7 (1)
     |                                               |                |                  [5]{}: instr 0xf6-0xf6.7 (1)
0x0f0|                  0b                           |      .         |                    end: 0xb (valid) 0xf6-0xf6.7 (1)
     |                                               |                |          [2]{}: code 0xf7-0x119.7 (35)
0x0f0|                     22                        |       "        |            size: 34 0xf7-0xf7.7 (1)
     |                                               |                |            code{}: 0xf8-0x119.7 (34)
     |                                               |                |              locals{}: 0xf8-0xfa.7 (3)
0x0f0|                        01                     |        .       |                n: 1 0xf8-0xf8.7 (1)
     |                                               |                |                items[0:1]: 0xf9-0xfa.7 (2)
     |                                               |                |                  [0]{}: locals 0xf9-0xfa.7 (2)
0x0f0|                           01                  |         .      |                    n: 1 0xf9-0xf9.7 (1)
0x0f0|                              7b               |          {     |                    valtype: "v128" (123) 0xfa-0xfa.7 (1)
     |                                               |                |              expr{}: 0xfb-0x119.7 (31)
     |                                               |                |                instructions[0:6]: 0xfb-0x119.7 (31)
     |                                               |                |                  [0]{}: instr 0xfb-0xfc.7 (2)
0x0f0|                                 41            |           A    |                    i32.const: 0x41 (valid) 0xfb-0xfb.7 (1)
0x0f0|                                    00         |            .   |                    n: 0 0xfc-0xfc.7 (1)
     |                                               |                |                  [1]{}: instr 0xfd-0x10e.7 (18)
0x0f0|                                       fd      |             .  |                    prefix: 0xfd (valid) 0xfd-0xfd.7 (1)
0x0f0|                                          0c   |              . |                    v128.const: 12 (valid) 0xfe-0xfe.7 (1)
0x0f0|                                             00|               .|                    bytes: raw bits 0xff-0x10e.7 (16)
0x100|00 00 00 01 00 00 00 02 00 00 00 03 00 00 00   |............... |
     |                                               |                |                  [2]{}: instr 0x10f-0x112.7 (4)
0x100|                                             fd|               .|                    prefix: 0xfd (valid) 0x10f-0x10f.7 (1)
0x110|0b                                             |.               |                    v128.store: 11 (valid) 0x110-0x110.7 (1)
     |                                               |                |                    m{}: 0x111-0x112.7 (2)
0x110|   04                                          | .              |                      align: 4 0x111-0x111.7 (1)
0x110|      00                                       |  .             |                      offset: 0 0x112-0x112.7 (1)
     |                                               |                |                  [3]{}: instr 0x113-0x114.7 (2)
0x110|         41                                    |   A            |                    i32.const: 0x41 (valid) 0x113-0x113.7 (1)
0x110|            00                                 |    .           |                    n: 0 0x114-0x114.7 (1)
     |                                               |                |                  [4]{}: instr 0x115-0x118.7 (4)
0x110|               fd                              |     .          |                    prefix: 0xfd (valid) 0x115-0x115.7 (1)
0x110|                  00                           |      .         |                    v128.load: 0 (valid) 0x116-0x116.7 (1)
     |                                               |                |                    m{}: 0x117-0x118.7 (2)
0x110|                     01                        |       .        |                      align: 1 0x117-0x117.7 (1)
0x110|                        00                     |        .       |                      offset: 0 0x118-0x118.7 (1)
     |                                               |                |                  [5]{}: instr 0x119-0x119.7 (1)
0x110|                           0b                  |         .      |                    end: 0xb (valid) 0x119-0x119.7 (1)
     |                                               |                |          [3]{}: code 0x11a-0x13c.7 (35)
0x110|                              22               |          "     |            size: 34 0x11a-0x11a.7 (1)
     |                                               |                |            code{}: 0x11b-0x13c.7 (34)
     |                                               |                |              locals{}: 0x11b-0x11d.7 (3)
0x110|                                 01            |           .    |                n: 1 0x11b-0x11b.7 (1)
     |                                               |                |                items[0:1]: 0x11c-0x11d.7 (2)
     |                                               |                |                  [0]{}: locals 0x11c-0x11d.7 (2)
0x110|                                    01         |            .   |                    n: 1 0x11c-0x11c.7 (1)
0x110|                                       7b      |             {  |                    valtype: "v128" (123) 0x11d-0x11d.7 (1)
     |                                               |                |              expr{}: 0x11e-0x13c.7 (31)
     |                                               |                |                instructions[0:6]: 0x11e-0x13c.7 (31)
     |                                               |                |                  [0]{}: instr 0x11e-0x11f.7 (2)
0x110|                                          41   |              A |                    i32.const: 0x41 (valid) 0x11e-0x11e.7 (1)
0x110|                                             00|               .|                    n: 0 0x11f-0x11f.7 (1)
     |                                               |                |                  [1]{}: instr 0x120-0x131.7 (18)
0x120|fd                                             |.               |                    prefix: 0xfd (valid) 0x120-0x120.7 (1)
0x120|   0c                                          | .              |                    v128.const: 12 (valid) 0x121-0x121.7 (1)
0x120|      00 00 00 00 01 00 00 00 02 00 00 00 03 00|  ..............|                    bytes: raw bits 0x122-0x131.7 (16)
0x130|00 00                                          |..              |
     |                                               |                |                  [2]{}: instr 0x132-0x135.7 (4)
0x130|      fd                                       |  .             |                    prefix: 0xfd (valid) 0x132-0x132.7 (1)
0x130|         0b                                    |   .            |                    v128.store: 11 (valid) 0x133-0x133.7 (1)
     |                                               |                |                    m{}: 0x134-0x135.7 (2)
0x130|            01                                 |    .           |                      align: 1 0x134-0x134.7 (1)
0x130|               00                              |     .          |                      offset: 0 0x135-0x135.7 (1)
     |                                               |                |                  [3]{}: instr 0x136-0x137.7 (2)
0x130|                  41                           |      A         |                    i32.const: 0x41 (valid) 0x136-0x136.7 (1)
0x130|                     00                        |       .        |                    n: 0 0x137-0x137.7 (1)
     |                                               |                |                  [4]{}: instr 0x138-0x13b.7 (4)
0x130|                        fd                     |        .       |                    prefix: 0xfd (valid) 0x138-0x138.7 (1)
0x130|                           00                  |         .      |                    v128.load: 0 (valid) 0x139-0x139.7 (1)
     |                                               |                |                    m{}: 0x13a-0x13b.7 (2)
0x130|                              04               |          .     |                      align: 4 0x13a-0x13a.7 (1)
0x130|                                 00            |           .    |                      offset: 0 0x13b-0x13b.7 (1)
     |                                               |                |                  [5]{}: instr 0x13c-0x13c.7 (1)
0x130|                                    0b|        |            .|  |                    end: 0xb (valid) 0x13c-0x13c.7 (1)
