$ fq -d wasm dv simd_i32x4_extadd_pairwise_i16x8-0.wasm
    |00 01 02 03 04 05 06 07 08 09 0a 0b 0c 0d 0e 0f|0123456789abcdef|.{}: simd_i32x4_extadd_pairwise_i16x8-0.wasm (wasm) 0x0-0x68.7 (105)
0x00|00 61 73 6d                                    |.asm            |  magic: raw bits (valid) 0x0-0x3.7 (4)
0x00|            01 00 00 00                        |    ....        |  version: 1 0x4-0x7.7 (4)
    |                                               |                |  sections[0:4]: 0x8-0x68.7 (97)
    |                                               |                |    [0]{}: section 0x8-0xf.7 (8)
0x00|                        01                     |        .       |      id: "type section" (1) 0x8-0x8.7 (1)
0x00|                           06                  |         .      |      size: 6 0x9-0x9.7 (1)
    |                                               |                |      content{}: 0xa-0xf.7 (6)
0x00|                              01               |          .     |        n: 1 0xa-0xa.7 (1)
    |                                               |                |        items[0:1]: 0xb-0xf.7 (5)
    |                                               |                |          [0]{}: functype 0xb-0xf.7 (5)
0x00|                                 60            |           `    |            tag: 0x60 (valid) 0xb-0xb.7 (1)
    |                                               |                |            rt1{}: 0xc-0xd.7 (2)
0x00|                                    01         |            .   |              n: 1 0xc-0xc.7 (1)
    |                                               |                |              items[0:1]: 0xd-0xd.7 (1)
0x00|                                       7b      |             {  |                [0]: "v128" (123) valtype 0xd-0xd.7 (1)
    |                                               |                |            rt2{}: 0xe-0xf.7 (2)
0x00|                                          01   |              . |              n: 1 0xe-0xe.7 (1)
    |                                               |                |              items[0:1]: 0xf-0xf.7 (1)
0x00|                                             7b|               {|                [0]: "v128" (123) valtype 0xf-0xf.7 (1)
    |                                               |                |    [1]{}: section 0x10-0x14.7 (5)
0x10|03                                             |.               |      id: "function section" (3) 0x10-0x10.7 (1)
0x10|   03                                          | .              |      size: 3 0x11-0x11.7 (1)
    |                                               |                |      content{}: 0x12-0x14.7 (3)
0x10|      02                                       |  .             |        n: 2 0x12-0x12.7 (1)
    |                                               |                |        items[0:2]: 0x13-0x14.7 (2)
0x10|         00                                    |   .            |          [0]: 0 x 0x13-0x13.7 (1)
0x10|            00                                 |    .           |          [1]: 0 x 0x14-0x14.7 (1)
    |                                               |                |    [2]{}: section 0x15-0x57.7 (67)
0x10|               07                              |     .          |      id: "export section" (7) 0x15-0x15.7 (1)
0x10|                  41                           |      A         |      size: 65 0x16-0x16.7 (1)
    |                                               |                |      content{}: 0x17-0x57.7 (65)
0x10|                     02                        |       .        |        n: 2 0x17-0x17.7 (1)
    |                                               |                |        items[0:2]: 0x18-0x57.7 (64)
    |                                               |                |          [0]{}: export 0x18-0x37.7 (32)
    |                                               |                |            name{}: 0x18-0x35.7 (30)
0x10|                        1d                     |        .       |              len: 29 0x18-0x18.7 (1)
0x10|                           69 33 32 78 34 2e 65|         i32x4.e|              utf8bytes: "i32x4.extadd_pairwise_i16x8_s" 0x19-0x35.7 (29)
0x20|78 74 61 64 64 5f 70 61 69 72 77 69 73 65 5f 69|xtadd_pairwise_i|
0x30|31 36 78 38 5f 73                              |16x8_s          |
    |                                               |                |            expr{}: 0x36-0x37.7 (2)
0x30|                  00                           |      .         |              tag: "funcidx" (0x0) 0x36-0x36.7 (1)
0x30|                     00                        |       .        |              x: 0 0x37-0x37.7 (1)
    |                                               |                |          [1]{}: export 0x38-0x57.7 (32)
    |                                               |                |            name{}: 0x38-0x55.7 (30)
0x30|                        1d                     |        .       |              len: 29 0x38-0x38.7 (1)
0x30|                           69 33 32 78 34 2e 65|         i32x4.e|              utf8bytes: "i32x4.extadd_pairwise_i16x8_u" 0x39-0x55.7 (29)
0x40|78 74 61 64 64 5f 70 61 69 72 77 69 73 65 5f 69|xtadd_pairwise_i|
0x50|31 36 78 38 5f 75                              |16x8_u          |
    |                                               |                |            expr{}: 0x56-0x57.7 (2)
0x50|                  00                           |      .         |              tag: "funcidx" (0x0) 0x56-0x56.7 (1)
0x50|                     01                        |       .        |              x: 1 0x57-0x57.7 (1)
    |                                               |                |    [3]{}: section 0x58-0x68.7 (17)
0x50|                        0a                     |        .       |      id: "code section" (10) 0x58-0x58.7 (1)
0x50|                           0f                  |         .      |      size: 15 0x59-0x59.7 (1)
    |                                               |                |      content{}: 0x5a-0x68.7 (15)
0x50|                              02               |          .     |        n: 2 0x5a-0x5a.7 (1)
    |                                               |                |        items[0:2]: 0x5b-0x68.7 (14)
    |                                               |                |          [0]{}: code 0x5b-0x61.7 (7)
0x50|                                 06            |           .    |            size: 6 0x5b-0x5b.7 (1)
    |                                               |                |            code{}: 0x5c-0x61.7 (6)
    |                                               |                |              locals{}: 0x5c-0x5c.7 (1)
0x50|                                    00         |            .   |                n: 0 0x5c-0x5c.7 (1)
    |                                               |                |                items[0:0]: 0x5d-NA (0)
    |                                               |                |              expr{}: 0x5d-0x61.7 (5)
    |                                               |                |                instructions[0:3]: 0x5d-0x61.7 (5)
    |                                               |                |                  [0]{}: instr 0x5d-0x5e.7 (2)
0x50|                                       20      |                |                    local.get: 0x20 (valid) 0x5d-0x5d.7 (1)
0x50|                                          00   |              . |                    x: 0 0x5e-0x5e.7 (1)
    |                                               |                |                  [1]{}: instr 0x5f-0x60.7 (2)
0x50|                                             fd|               .|                    prefix: 0xfd (valid) 0x5f-0x5f.7 (1)
0x60|7e                                             |~               |                    i32x4.extadd_pairwise_i16x8_s: 126 (valid) 0x60-0x60.7 (1)
    |                                               |                |                  [2]{}: instr 0x61-0x61.7 (1)
0x60|   0b                                          | .              |                    end: 0xb (valid) 0x61-0x61.7 (1)
    |                                               |                |          [1]{}: code 0x62-0x68.7 (7)
0x60|      06                                       |  .             |            size: 6 0x62-0x62.7 (1)
    |                                               |                |            code{}: 0x63-0x68.7 (6)
    |                                               |                |              locals{}: 0x63-0x63.7 (1)
0x60|         00                                    |   .            |                n: 0 0x63-0x63.7 (1)
    |                                               |                |                items[0:0]: 0x64-NA (0)
    |                                               |                |              expr{}: 0x64-0x68.7 (5)
    |                                               |                |                instructions[0:3]: 0x64-0x68.7 (5)
    |                                               |                |                  [0]{}: instr 0x64-0x65.7 (2)
0x60|            20                                 |                |                    local.get: 0x20 (valid) 0x64-0x64.7 (1)
0x60|               00                              |     .          |                    x: 0 0x65-0x65.7 (1)
    |                                               |                |                  [1]{}: instr 0x66-0x67.7 (2)
0x60|                  fd                           |      .         |                    prefix: 0xfd (valid) 0x66-0x66.7 (1)
0x60|                     7f                        |       .        |                    i32x4.extadd_pairwise_i16x8_u: 127 (valid) 0x67-0x67.7 (1)
    |                                               |                |                  [2]{}: instr 0x68-0x68.7 (1)
0x60|                        0b|                    |        .|      |                    end: 0xb (valid) 0x68-0x68.7 (1)
