$ fq -d wasm dv simd_load64_lane-0.wasm
     |00 01 02 03 04 05 06 07 08 09 0a 0b 0c 0d 0e 0f|0123456789abcdef|.{}: simd_load64_lane-0.wasm (wasm) 0x0-0x227.7 (552)
0x000|00 61 73 6d                                    |.asm            |  magic: raw bits (valid) 0x0-0x3.7 (4)
0x000|            01 00 00 00                        |    ....        |  version: 1 0x4-0x7.7 (4)
     |                                               |                |  sections[0:6]: 0x8-0x227.7 (544)
     |                                               |                |    [0]{}: section 0x8-0x15.7 (14)
0x000|                        01                     |        .       |      id: "type section" (1) 0x8-0x8.7 (1)
0x000|                           0c                  |         .      |      size: 12 0x9-0x9.7 (1)
     |                                               |                |      content{}: 0xa-0x15.7 (12)
0x000|                              02               |          .     |        n: 2 0xa-0xa.7 (1)
     |                                               |                |        items[0:2]: 0xb-0x15.7 (11)
     |                                               |                |          [0]{}: functype 0xb-0x10.7 (6)
0x000|                                 60            |           `    |            tag: 0x60 (valid) 0xb-0xb.7 (1)
     |                                               |                |            rt1{}: 0xc-0xe.7 (3)
0x000|                                    02         |            .   |              n: 2 0xc-0xc.7 (1)
     |                                               |                |              items[0:2]: 0xd-0xe.7 (2)
0x000|                                       7f      |             .  |                [0]: "i32" (127) valtype 0xd-0xd.7 (1)
0x000|                                          7b   |              { |                [1]: "v128" (123) valtype 0xe-0xe.7 (1)
     |                                               |                |            rt2{}: 0xf-0x10.7 (2)
0x000|                                             01|               .|              n: 1 0xf-0xf.7 (1)
     |                                               |                |              items[0:1]: 0x10-0x10.7 (1)
0x010|7b                                             |{               |                [0]: "v128" (123) valtype 0x10-0x10.7 (1)
     |                                               |                |          [1]{}: functype 0x11-0x15.7 (5)
0x010|   60                                          | `              |            tag: 0x60 (valid) 0x11-0x11.7 (1)
     |                                               |                |            rt1{}: 0x12-0x13.7 (2)
0x010|      01                                       |  .             |              n: 1 0x12-0x12.7 (1)
     |                                               |                |              items[0:1]: 0x13-0x13.7 (1)
0x010|         7b                                    |   {            |                [0]: "v128" (123) valtype 0x13-0x13.7 (1)
     |                                               |                |            rt2{}: 0x14-0x15.7 (2)
0x010|            01                                 |    .           |              n: 1 0x14-0x14.7 (1)
     |                                               |                |              items[0:1]: 0x15-0x15.7 (1)
0x010|               7b                              |     {          |                [0]: "v128" (123) valtype 0x15-0x15.7 (1)
     |                                               |                |    [1]{}: section 0x16-0x24.7 (15)
0x010|                  03                           |      .         |      id: "function section" (3) 0x16-0x16.7 (1)
0x010|                     0d                        |       .        |      size: 13 0x17-0x17.7 (1)
     |                                               |                |      content{}: 0x18-0x24.7 (13)
0x010|                        0c                     |        .       |        n: 12 0x18-0x18.7 (1)
     |                                               |                |        items[0:12]: 0x19-0x24.7 (12)
0x010|                           00                  |         .      |          [0]: 0 x 0x19-0x19.7 (1)
0x010|                              00               |          .     |          [1]: 0 x 0x1a-0x1a.7 (1)
0x010|                                 01            |           .    |          [2]: 1 x 0x1b-0x1b.7 (1)
0x010|                                    01         |            .   |          [3]: 1 x 0x1c-0x1c.7 (1)
0x010|                                       00      |             .  |          [4]: 0 x 0x1d-0x1d.7 (1)
0x010|                                          00   |              . |          [5]: 0 x 0x1e-0x1e.7 (1)
0x010|                                             00|               .|          [6]: 0 x 0x1f-0x1f.7 (1)
0x020|00                                             |.               |          [7]: 0 x 0x20-0x20.7 (1)
0x020|   00                                          | .              |          [8]: 0 x 0x21-0x21.7 (1)
0x020|      00                                       |  .             |          [9]: 0 x 0x22-0x22.7 (1)
0x020|         00                                    |   .            |          [10]: 0 x 0x23-0x23.7 (1)
0x020|            00                                 |    .           |          [11]: 0 x 0x24-0x24.7 (1)
     |                                               |                |    [2]{}: section 0x25-0x29.7 (5)
0x020|               05                              |     .          |      id: "memory section" (5) 0x25-0x25.7 (1)
0x020|                  03                           |      .         |      size: 3 0x26-0x26.7 (1)
     |                                               |                |      content{}: 0x27-0x29.7 (3)
0x020|                     01                        |       .        |        n: 1 0x27-0x27.7 (1)
     |                                               |                |        items[0:1]: 0x28-0x29.7 (2)
     |                                               |                |          [0]{}: mem 0x28-0x29.7 (2)
     |                                               |                |            limits{}: 0x28-0x29.7 (2)
0x020|                        00                     |        .       |              tag: 0x0 0x28-0x28.7 (1)
0x020|                           01                  |         .      |              min: 1 0x29-0x29.7 (1)
     |                                               |                |    [3]{}: section 0x2a-0x17b.7 (338)
0x020|                              07               |          .     |      id: "export section" (7) 0x2a-0x2a.7 (1)
0x020|                                 cf 02         |           ..   |      size: 335 0x2b-0x2c.7 (2)
     |                                               |                |      content{}: 0x2d-0x17b.7 (335)
0x020|                                       0c      |             .  |        n: 12 0x2d-0x2d.7 (1)
     |                                               |                |        items[0:12]: 0x2e-0x17b.7 (334)
     |                                               |                |          [0]{}: export 0x2e-0x42.7 (21)
     |                                               |                |            name{}: 0x2e-0x40.7 (19)
0x020|                                          12   |              . |              len: 18 0x2e-0x2e.7 (1)
0x020|                                             76|               v|              utf8bytes: "v128.load64_lane_0" 0x2f-0x40.7 (18)
0x030|31 32 38 2e 6c 6f 61 64 36 34 5f 6c 61 6e 65 5f|128.load64_lane_|
0x040|30                                             |0               |
     |                                               |                |            expr{}: 0x41-0x42.7 (2)
0x040|   00                                          | .              |              tag: "funcidx" (0x0) 0x41-0x41.7 (1)
0x040|      00                                       |  .             |              x: 0 0x42-0x42.7 (1)
     |                                               |                |          [1]{}: export 0x43-0x57.7 (21)
     |                                               |                |            name{}: 0x43-0x55.7 (19)
0x040|         12                                    |   .            |              len: 18 0x43-0x43.7 (1)
0x040|            76 31 32 38 2e 6c 6f 61 64 36 34 5f|    v128.load64_|              utf8bytes: "v128.load64_lane_1" 0x44-0x55.7 (18)
0x050|6c 61 6e 65 5f 31                              |lane_1          |
     |                                               |                |            expr{}: 0x56-0x57.7 (2)
0x050|                  00                           |      .         |              tag: "funcidx" (0x0) 0x56-0x56.7 (1)
0x050|                     01                        |       .        |              x: 1 0x57-0x57.7 (1)
     |                                               |                |          [2]{}: export 0x58-0x75.7 (30)
     |                                               |                |            name{}: 0x58-0x73.7 (28)
0x050|                        1b                     |        .       |              len: 27 0x58-0x58.7 (1)
0x050|                           76 31 32 38 2e 6c 6f|         v128.lo|              utf8bytes: "v128.load64_lane_0_offset_0" 0x59-0x73.7 (27)
0x060|61 64 36 34 5f 6c 61 6e 65 5f 30 5f 6f 66 66 73|ad64_lane_0_offs|
0x070|65 74 5f 30                                    |et_0            |
     |                                               |                |            expr{}: 0x74-0x75.7 (2)
0x070|            00                                 |    .           |              tag: "funcidx" (0x0) 0x74-0x74.7 (1)
0x070|               02                              |     .          |              x: 2 0x75-0x75.7 (1)
     |                                               |                |          [3]{}: export 0x76-0x93.7 (30)
     |                                               |                |            name{}: 0x76-0x91.7 (28)
0x070|                  1b                           |      .         |              len: 27 0x76-0x76.7 (1)
0x070|                     76 31 32 38 2e 6c 6f 61 64|       v128.load|              utf8bytes: "v128.load64_lane_1_offset_1" 0x77-0x91.7 (27)
0x080|36 34 5f 6c 61 6e 65 5f 31 5f 6f 66 66 73 65 74|64_lane_1_offset|
0x090|5f 31                                          |_1              |
     |                                               |                |            expr{}: 0x92-0x93.7 (2)
0x090|      00                                       |  .             |              tag: "funcidx" (0x0) 0x92-0x92.7 (1)
0x090|         03                                    |   .            |              x: 3 0x93-0x93.7 (1)
     |                                               |                |          [4]{}: export 0x94-0xb0.7 (29)
     |                                               |                |            name{}: 0x94-0xae.7 (27)
0x090|            1a                                 |    .           |              len: 26 0x94-0x94.7 (1)
0x090|               76 31 32 38 2e 6c 6f 61 64 36 34|     v128.load64|              utf8bytes: "v128.load64_lane_0_align_1" 0x95-0xae.7 (26)
0x0a0|5f 6c 61 6e 65 5f 30 5f 61 6c 69 67 6e 5f 31   |_lane_0_align_1 |
     |                                               |                |            expr{}: 0xaf-0xb0.7 (2)
0x0a0|                                             00|               .|              tag: "funcidx" (0x0) 0xaf-0xaf.7 (1)
0x0b0|04                                             |.               |              x: 4 0xb0-0xb0.7 (1)
     |                                               |                |          [5]{}: export 0xb1-0xcd.7 (29)
     |                                               |                |            name{}: 0xb1-0xcb.7 (27)
0x0b0|   1a                                          | .              |              len: 26 0xb1-0xb1.7 (1)
0x0b0|      76 31 32 38 2e 6c 6f 61 64 36 34 5f 6c 61|  v128.load64_la|              utf8bytes: "v128.load64_lane_0_align_2" 0xb2-0xcb.7 (26)
0x0c0|6e 65 5f 30 5f 61 6c 69 67 6e 5f 32            |ne_0_align_2    |
     |                                               |                |            expr{}: 0xcc-0xcd.7 (2)
0x0c0|                                    00         |            .   |              tag: "funcidx" (0x0) 0xcc-0xcc.7 (1)
0x0c0|                                       05      |             .  |              x: 5 0xcd-0xcd.7 (1)
     |                                               |                |          [6]{}: export 0xce-0xea.7 (29)
     |                                               |                |            name{}: 0xce-0xe8.7 (27)
0x0c0|                                          1a   |              . |              len: 26 0xce-0xce.7 (1)
0x0c0|                                             76|               v|              utf8bytes: "v128.load64_lane_0_align_4" 0xcf-0xe8.7 (26)
0x0d0|31 32 38 2e 6c 6f 61 64 36 34 5f 6c 61 6e 65 5f|128.load64_lane_|
0x0e0|30 5f 61 6c 69 67 6e 5f 34                     |0_align_4       |
     |                                               |                |            expr{}: 0xe9-0xea.7 (2)
0x0e0|                           00                  |         .      |              tag: "funcidx" (0x0) 0xe9-0xe9.7 (1)
0x0e0|                              06               |          .     |              x: 6 0xea-0xea.7 (1)
     |                                               |                |          [7]{}: export 0xeb-0x107.7 (29)
     |                                               |                |            name{}: 0xeb-0x105.7 (27)
0x0e0|                                 1a            |           .    |              len: 26 0xeb-0xeb.7 (1)
0x0e0|                                    76 31 32 38|            v128|              utf8bytes: "v128.load64_lane_0_align_8" 0xec-0x105.7 (26)
0x0f0|2e 6c 6f 61 64 36 34 5f 6c 61 6e 65 5f 30 5f 61|.load64_lane_0_a|
0x100|6c 69 67 6e 5f 38                              |lign_8          |
     |                                               |                |            expr{}: 0x106-0x107.7 (2)
0x100|                  00                           |      .         |              tag: "funcidx" (0x0) 0x106-0x106.7 (1)
0x100|                     07                        |       .        |              x: 7 0x107-0x107.7 (1)
     |                                               |                |          [8]{}: export 0x108-0x124.7 (29)
     |                                               |                |            name{}: 0x108-0x122.7 (27)
0x100|                        1a                     |        .       |              len: 26 0x108-0x108.7 (1)
0x100|                           76 31 32 38 2e 6c 6f|         v128.lo|              utf8bytes: "v128.load64_lane_1_align_1" 0x109-0x122.7 (26)
0x110|61 64 36 34 5f 6c 61 6e 65 5f 31 5f 61 6c 69 67|ad64_lane_1_alig|
0x120|6e 5f 31                                       |n_1             |
     |                                               |                |            expr{}: 0x123-0x124.7 (2)
0x120|         00                                    |   .            |              tag: "funcidx" (0x0) 0x123-0x123.7 (1)
0x120|            08                                 |    .           |              x: 8 0x124-0x124.7 (1)
     |                                               |                |          [9]{}: export 0x125-0x141.7 (29)
     |                                               |                |            name{}: 0x125-0x13f.7 (27)
0x120|               1a                              |     .          |              len: 26 0x125-0x125.7 (1)
0x120|                  76 31 32 38 2e 6c 6f 61 64 36|      v128.load6|              utf8bytes: "v128.load64_lane_1_align_2" 0x126-0x13f.7 (26)
0x130|34 5f 6c 61 6e 65 5f 31 5f 61 6c 69 67 6e 5f 32|4_lane_1_align_2|
     |                                               |                |            expr{}: 0x140-0x141.7 (2)
0x140|00                                             |.               |              tag: "funcidx" (0x0) 0x140-0x140.7 (1)
0x140|   09                                          | .              |              x: 9 0x141-0x141.7 (1)
     |                                               |                |          [10]{}: export 0x142-0x15e.7 (29)
     |                                               |                |            name{}: 0x142-0x15c.7 (27)
0x140|      1a                                       |  .             |              len: 26 0x142-0x142.7 (1)
0x140|         76 31 32 38 2e 6c 6f 61 64 36 34 5f 6c|   v128.load64_l|              utf8bytes: "v128.load64_lane_1_align_4" 0x143-0x15c.7 (26)
0x150|61 6e 65 5f 31 5f 61 6c 69 67 6e 5f 34         |ane_1_align_4   |
     |                                               |                |            expr{}: 0x15d-0x15e.7 (2)
0x150|                                       00      |             .  |              tag: "funcidx" (0x0) 0x15d-0x15d.7 (1)
0x150|                                          0a   |              . |              x: 10 0x15e-0x15e.7 (1)
     |                                               |                |          [11]{}: export 0x15f-0x17b.7 (29)
     |                                               |                |            name{}: 0x15f-0x179.7 (27)
0x150|                                             1a|               .|              len: 26 0x15f-0x15f.7 (1)
0x160|76 31 32 38 2e 6c 6f 61 64 36 34 5f 6c 61 6e 65|v128.load64_lane|              utf8bytes: "v128.load64_lane_1_align_8" 0x160-0x179.7 (26)
0x170|5f 31 5f 61 6c 69 67 6e 5f 38                  |_1_align_8      |
     |                                               |                |            expr{}: 0x17a-0x17b.7 (2)
0x170|                              00               |          .     |              tag: "funcidx" (0x0) 0x17a-0x17a.7 (1)
0x170|                                 0b            |           .    |              x: 11 0x17b-0x17b.7 (1)
     |                                               |                |    [4]{}: section 0x17c-0x20f.7 (148)
0x170|                                    0a         |            .   |      id: "code section" (10) 0x17c-0x17c.7 (1)
0x170|                                       91 01   |             .. |      size: 145 0x17d-0x17e.7 (2)
     |                                               |                |      content{}: 0x17f-0x20f.7 (145)
0x170|                                             0c|               .|        n: 12 0x17f-0x17f.7 (1)
     |                                               |                |        items[0:12]: 0x180-0x20f.7 (144)
     |                                               |                |          [0]{}: code 0x180-0x18b.7 (12)
0x180|0b                                             |.               |            size: 11 0x180-0x180.7 (1)
     |                                               |                |            code{}: 0x181-0x18b.7 (11)
     |                                               |                |              locals{}: 0x181-0x181.7 (1)
0x180|   00                                          | .              |                n: 0 0x181-0x181.7 (1)
     |                                               |                |                items[0:0]: 0x182-NA (0)
     |                                               |                |              expr{}: 0x182-0x18b.7 (10)
     |                                               |                |                instructions[0:4]: 0x182-0x18b.7 (10)
     |                                               |                |                  [0]{}: instr 0x182-0x183.7 (2)
0x180|      20                                       |                |                    local.get: 0x20 (valid) 0x182-0x182.7 (1)
0x180|         00                                    |   .            |                    x: 0 0x183-0x183.7 (1)
     |                                               |                |                  [1]{}: instr 0x184-0x185.7 (2)
0x180|            20                                 |                |                    local.get: 0x20 (valid) 0x184-0x184.7 (1)
0x180|               01                              |     .          |                    x: 1 0x185-0x185.7 (1)
     |                                               |                |                  [2]{}: instr 0x186-0x18a.7 (5)
0x180|                  fd                           |      .         |                    prefix: 0xfd (valid) 0x186-0x186.7 (1)
0x180|                     57                        |       W        |                    v128.load64_lane: 87 (valid) 0x187-0x187.7 (1)
     |                                               |                |                    m{}: 0x188-0x189.7 (2)
0x180|                        03                     |        .       |                      align: 3 0x188-0x188.7 (1)
0x180|                           00                  |         .      |                      offset: 0 0x189-0x189.7 (1)
0x180|                              00               |          .     |                    laneidx: 0 0x18a-0x18a.7 (1)
     |                                               |                |                  [3]{}: instr 0x18b-0x18b.7 (1)
0x180|                                 0b            |           .    |                    end: 0xb (valid) 0x18b-0x18b.7 (1)
     |                                               |                |          [1]{}: code 0x18c-0x197.7 (12)
0x180|                                    0b         |            .   |            size: 11 0x18c-0x18c.7 (1)
     |                                               |                |            code{}: 0x18d-0x197.7 (11)
     |                                               |                |              locals{}: 0x18d-0x18d.7 (1)
0x180|                                       00      |             .  |                n: 0 0x18d-0x18d.7 (1)
     |                                               |                |                items[0:0]: 0x18e-NA (0)
     |                                               |                |              expr{}: 0x18e-0x197.7 (10)
     |                                               |                |                instructions[0:4]: 0x18e-0x197.7 (10)
     |                                               |                |                  [0]{}: instr 0x18e-0x18f.7 (2)
0x180|                                          20   |                |                    local.get: 0x20 (valid) 0x18e-0x18e.7 (1)
0x180|                                             00|               .|                    x: 0 0x18f-0x18f.7 (1)
     |                                               |                |                  [1]{}: instr 0x190-0x191.7 (2)
0x190|20                                             |                |                    local.get: 0x20 (valid) 0x190-0x190.7 (1)
0x190|   01                                          | .              |                    x: 1 0x191-0x191.7 (1)
     |                                               |                |                  [2]{}: instr 0x192-0x196.7 (5)
0x190|      fd                                       |  .             |                    prefix: 0xfd (valid) 0x192-0x192.7 (1)
0x190|         57                                    |   W            |                    v128.load64_lane: 87 (valid) 0x193-0x193.7 (1)
     |                                               |                |                    m{}: 0x194-0x195.7 (2)
0x190|            03                                 |    .           |                      align: 3 0x194-0x194.7 (1)
0x190|               00                              |     .          |                      offset: 0 0x195-0x195.7 (1)
0x190|                  01                           |      .         |                    laneidx: 1 0x196-0x196.7 (1)
     |                                               |                |                  [3]{}: instr 0x197-0x197.7 (1)
0x190|                     0b                        |       .        |                    end: 0xb (valid) 0x197-0x197.7 (1)
     |                                               |                |          [2]{}: code 0x198-0x1a3.7 (12)
0x190|                        0b                     |        .       |            size: 11 0x198-0x198.7 (1)
     |                                               |                |            code{}: 0x199-0x1a3.7 (11)
     |                                               |                |              locals{}: 0x199-0x199.7 (1)
0x190|                           00                  |         .      |                n: 0 0x199-0x199.7 (1)
     |                                               |                |                items[0:0]: 0x19a-NA (0)
     |                                               |                |              expr{}: 0x19a-0x1a3.7 (10)
     |                                               |                |                instructions[0:4]: 0x19a-0x1a3.7 (10)
     |                                               |                |                  [0]{}: instr 0x19a-0x19b.7 (2)
0x190|                              41               |          A     |                    i32.const: 0x41 (valid) 0x19a-0x19a.7 (1)
0x190|                                 00            |           .    |                    n: 0 0x19b-0x19b.7 (1)
     |                                               |                |                  [1]{}: instr 0x19c-0x19d.7 (2)
0x190|                                    20         |                |                    local.get: 0x20 (valid) 0x19c-0x19c.7 (1)
0x190|                                       00      |             .  |                    x: 0 0x19d-0x19d.7 (1)
     |                                               |                |                  [2]{}: instr 0x19e-0x1a2.7 (5)
0x190|                                          fd   |              . |                    prefix: 0xfd (valid) 0x19e-0x19e.7 (1)
0x190|                                             57|               W|                    v128.load64_lane: 87 (valid) 0x19f-0x19f.7 (1)
     |                                               |                |                    m{}: 0x1a0-0x1a1.7 (2)
0x1a0|03                                             |.               |                      align: 3 0x1a0-0x1a0.7 (1)
0x1a0|   00                                          | .              |                      offset: 0 0x1a1-0x1a1.7 (1)
0x1a0|      00                                       |  .             |                    laneidx: 0 0x1a2-0x1a2.7 (1)
     |                                               |                |                  [3]{}: instr 0x1a3-0x1a3.7 (1)
0x1a0|         0b                                    |   .            |                    end: 0xb (valid) 0x1a3-0x1a3.7 (1)
     |                                               |                |          [3]{}: code 0x1a4-0x1af.7 (12)
0x1a0|            0b                                 |    .           |            size: 11 0x1a4-0x1a4.7 (1)
     |                                               |                |            code{}: 0x1a5-0x1af.7 (11)
     |                                               |                |              locals{}: 0x1a5-0x1a5.7 (1)
0x1a0|               00                              |     .          |                n: 0 0x1a5-0x1a5.7 (1)
     |                                               |                |                items[0:0]: 0x1a6-NA (0)
     |                                               |                |              expr{}: 0x1a6-0x1af.7 (10)
     |                                               |                |                instructions[0:4]: 0x1a6-0x1af.7 (10)
     |                                               |                |                  [0]{}: instr 0x1a6-0x1a7.7 (2)
0x1a0|                  41                           |      A         |                    i32.const: 0x41 (valid) 0x1a6-0x1a6.7 (1)
0x1a0|                     00                        |       .        |                    n: 0 0x1a7-0x1a7.7 (1)
     |                                               |                |                  [1]{}: instr 0x1a8-0x1a9.7 (2)
0x1a0|                        20                     |                |                    local.get: 0x20 (valid) 0x1a8-0x1a8.7 (1)
0x1a0|                           00                  |         .      |                    x: 0 0x1a9-0x1a9.7 (1)
     |                                               |                |                  [2]{}: instr 0x1aa-0x1ae.7 (5)
0x1a0|                              fd               |          .     |                    prefix: 0xfd (valid) 0x1aa-0x1aa.7 (1)
0x1a0|                                 57            |           W    |                    v128.load64_lane: 87 (valid) 0x1ab-0x1ab.7 (1)
     |                                               |                |                    m{}: 0x1ac-0x1ad.7 (2)
0x1a0|                                    03         |            .   |                      align: 3 0x1ac-0x1ac.7 (1)
0x1a0|                                       01      |             .  |                      offset: 1 0x1ad-0x1ad.7 (1)
0x1a0|                                          01   |              . |                    laneidx: 1 0x1ae-0x1ae.7 (1)
     |                                               |                |                  [3]{}: instr 0x1af-0x1af.7 (1)
0x1a0|                                             0b|               .|                    end: 0xb (valid) 0x1af-0x1af.7 (1)
     |                                               |                |          [4]{}: code 0x1b0-0x1bb.7 (12)
0x1b0|0b                                             |.               |            size: 11 0x1b0-0x1b0.7 (1)
     |                                               |                |            code{}: 0x1b1-0x1bb.7 (11)
     |                                               |                |              locals{}: 0x1b1-0x1b1.7 (1)
0x1b0|   00                                          | .              |                n: 0 0x1b1-0x1b1.7 (1)
     |                                               |                |                items[0:0]: 0x1b2-NA (0)
     |                                               |                |              expr{}: 0x1b2-0x1bb.7 (10)
     |                                               |                |                instructions[0:4]: 0x1b2-0x1bb.7 (10)
     |                                               |                |                  [0]{}: instr 0x1b2-0x1b3.7 (2)
0x1b0|      20                                       |                |                    local.get: 0x20 (valid) 0x1b2-0x1b2.7 (1)
0x1b0|         00                                    |   .            |                    x: 0 0x1b3-0x1b3.7 (1)
     |                                               |                |                  [1]{}: instr 0x1b4-0x1b5.7 (2)
0x1b0|            20                                 |                |                    local.get: 0x20 (valid) 0x1b4-0x1b4.7 (1)
0x1b0|               01                              |     .          |                    x: 1 0x1b5-0x1b5.7 (1)
     |                                               |                |                  [2]{}: instr 0x1b6-0x1ba.7 (5)
0x1b0|                  fd                           |      .         |                    prefix: 0xfd (valid) 0x1b6-0x1b6.7 (1)
0x1b0|                     57                        |       W        |                    v128.load64_lane: 87 (valid) 0x1b7-0x1b7.7 (1)
     |                                               |                |                    m{}: 0x1b8-0x1b9.7 (2)
0x1b0|                        00                     |        .       |                      align: 0 0x1b8-0x1b8.7 (1)
0x1b0|                           00                  |         .      |                      offset: 0 0x1b9-0x1b9.7 (1)
0x1b0|                              00               |          .     |                    laneidx: 0 0x1ba-0x1ba.7 (1)
     |                                               |                |                  [3]{}: instr 0x1bb-0x1bb.7 (1)
0x1b0|                                 0b            |           .    |                    end: 0xb (valid) 0x1bb-0x1bb.7 (1)
     |                                               |                |          [5]{}: code 0x1bc-0x1c7.7 (12)
0x1b0|                                    0b         |            .   |            size: 11 0x1bc-0x1bc.7 (1)
     |                                               |                |            code{}: 0x1bd-0x1c7.7 (11)
     |                                               |                |              locals{}: 0x1bd-0x1bd.7 (1)
0x1b0|                                       00      |             .  |                n: 0 0x1bd-0x1bd.7 (1)
     |                                               |                |                items[0:0]: 0x1be-NA (0)
     |                                               |                |              expr{}: 0x1be-0x1c7.7 (10)
     |                                               |                |                instructions[0:4]: 0x1be-0x1c7.7 (10)
     |                                               |                |                  [0]{}: instr 0x1be-0x1bf.7 (2)
0x1b0|                                          20   |                |                    local.get: 0x20 (valid) 0x1be-0x1be.7 (1)
0x1b0|                                             00|               .|                    x: 0 0x1bf-0x1bf.7 (1)
     |                                               |                |                  [1]{}: instr 0x1c0-0x1c1.7 (2)
0x1c0|20                                             |                |                    local.get: 0x20 (valid) 0x1c0-0x1c0.7 (1)
0x1c0|   01                                          | .              |                    x: 1 0x1c1-0x1c1.7 (1)
     |                                               |                |                  [2]{}: instr 0x1c2-0x1c6.7 (5)
0x1c0|      fd                                       |  .             |                    prefix: 0xfd (valid) 0x1c2-0x1c2.7 (1)
0x1c0|         57                                    |   W            |                    v128.load64_lane: 87 (valid) 0x1c3-0x1c3.7 (1)
     |                                               |                |                    m{}: 0x1c4-0x1c5.7 (2)
0x1c0|            01                                 |    .           |                      align: 1 0x1c4-0x1c4.7 (1)
0x1c0|               00                              |     .          |                      offset: 0 0x1c5-0x1c5.7 (1)
0x1c0|                  00                           |      .         |                    laneidx: 0 0x1c6-0x1c6.7 (1)
     |                                               |                |                  [3]{}: instr 0x1c7-0x1c7.7 (1)
0x1c0|                     0b                        |       .        |                    end: 0xb (valid) 0x1c7-0x1c7.7 (1)
     |                                               |                |          [6]{}: code 0x1c8-0x1d3.7 (12)
0x1c0|                        0b                     |        .       |            size: 11 0x1c8-0x1c8.7 (1)
     |                                               |                |            code{}: 0x1c9-0x1d3.7 (11)
     |                                               |                |              locals{}: 0x1c9-0x1c9.7 (1)
0x1c0|                           00                  |         .      |                n: 0 0x1c9-0x1c9.7 (1)
     |                                               |                |                items[0:0]: 0x1ca-NA (0)
     |                                               |                |              expr{}: 0x1ca-0x1d3.7 (10)
     |                                               |                |                instructions[0:4]: 0x1ca-0x1d3.7 (10)
     |                                               |                |                  [0]{}: instr 0x1ca-0x1cb.7 (2)
0x1c0|                              20               |                |                    local.get: 0x20 (valid) 0x1ca-0x1ca.7 (1)
0x1c0|                                 00            |           .    |                    x: 0 0x1cb-0x1cb.7 (1)
     |                                               |                |                  [1]{}: instr 0x1cc-0x1cd.7 (2)
0x1c0|                                    20         |                |                    local.get: 0x20 (valid) 0x1cc-0x1cc.7 (1)
0x1c0|                                       01      |             .  |                    x: 1 0x1cd-0x1cd.7 (1)
     |                                               |                |                  [2]{}: instr 0x1ce-0x1d2.7 (5)
0x1c0|                                          fd   |              . |                    prefix: 0xfd (valid) 0x1ce-0x1ce.7 (1)
0x1c0|                                             57|               W|                    v128.load64_lane: 87 (valid) 0x1cf-0x1cf.7 (1)
     |                                               |                |                    m{}: 0x1d0-0x1d1.7 (2)
0x1d0|02                                             |.               |                      align: 2 0x1d0-0x1d0.7 (1)
0x1d0|   00                                          | .              |                      offset: 0 0x1d1-0x1d1.7 (1)
0x1d0|      00                                       |  .             |                    laneidx: 0 0x1d2-0x1d2.7 (1)
     |                                               |                |                  [3]{}: instr 0x1d3-0x1d3.7 (1)
0x1d0|         0b                                    |   .            |                    end: 0xb (valid) 0x1d3-0x1d3.7 (1)
     |                                               |                |          [7]{}: code 0x1d4-0x1df.7 (12)
0x1d0|            0b                                 |    .           |            size: 11 0x1d4-0x1d4.7 (1)
     |                                               |                |            code{}: 0x1d5-0x1df.7 (11)
     |                                               |                |              locals{}: 0x1d5-0x1d5.7 (1)
0x1d0|               00                              |     .          |                n: 0 0x1d5-0x1d5.7 (1)
     |                                               |                |                items[0:0]: 0x1d6-NA (0)
     |                                               |                |              expr{}: 0x1d6-0x1df.7 (10)
     |                                               |                |                instructions[0:4]: 0x1d6-0x1df.7 (10)
     |                                               |                |                  [0]{}: instr 0x1d6-0x1d7.7 (2)
0x1d0|                  20                           |                |                    local.get: 0x20 (valid) 0x1d6-0x1d6.7 (1)
0x1d0|                     00                        |       .        |                    x: 0 0x1d7-0x1d7.7 (1)
     |                                               |                |                  [1]{}: instr 0x1d8-0x1d9.7 (2)
0x1d0|                        20                     |                |                    local.get: 0x20 (valid) 0x1d8-0x1d8.7 (1)
0x1d0|                           01                  |         .      |                    x: 1 0x1d9-0x1d9.7 (1)
     |                                               |                |                  [2]{}: instr 0x1da-0x1de.7 (5)
0x1d0|                              fd               |          .     |                    prefix: 0xfd (valid) 0x1da-0x1da.7 (1)
0x1d0|                                 57            |           W    |                    v128.load64_lane: 87 (valid) 0x1db-0x1db.7 (1)
     |                                               |                |                    m{}: 0x1dc-0x1dd.7 (2)
0x1d0|                                    03         |            .   |                      align: 3 0x1dc-0x1dc.7 (1)
0x1d0|                                       00      |             .  |                      offset: 0 0x1dd-0x1dd.7 (1)
0x1d0|                                          00   |              . |                    laneidx: 0 0x1de-0x1de.7 (1)
     |                                               |                |                  [3]{}: instr 0x1df-0x1df.7 (1)
0x1d0|                                             0b|               .|                    end: 0xb (valid) 0x1df-0x1df.7 (1)
     |                                               |                |          [8]{}: code 0x1e0-0x1eb.7 (12)
0x1e0|0b                                             |.               |            size: 11 0x1e0-0x1e0.7 (1)
     |                                               |                |            code{}: 0x1e1-0x1eb.7 (11)
     |                                               |                |              locals{}: 0x1e1-0x1e1.7 (1)
0x1e0|   00                                          | .              |                n: 0 0x1e1-0x1e1.7 (1)
     |                                               |                |                items[0:0]: 0x1e2-NA (0)
     |                                               |                |              expr{}: 0x1e2-0x1eb.7 (10)
     |                                               |                |                instructions[0:4]: 0x1e2-0x1eb.7 (10)
     |                                               |                |                  [0]{}: instr 0x1e2-0x1e3.7 (2)
0x1e0|      20                                       |                |                    local.get: 0x20 (valid) 0x1e2-0x1e2.7 (1)
0x1e0|         00                                    |   .            |                    x: 0 0x1e3-0x1e3.7 (1)
     |                                               |                |                  [1]{}: instr 0x1e4-0x1e5.7 (2)
0x1e0|            20                                 |                |                    local.get: 0x20 (valid) 0x1e4-0x1e4.7 (1)
0x1e0|               01                              |     .          |                    x: 1 0x1e5-0x1e5.7 (1)
     |                                               |                |                  [2]{}: instr 0x1e6-0x1ea.7 (5)
0x1e0|                  fd                           |      .         |                    prefix: 0xfd (valid) 0x1e6-0x1e6.7 (1)
0x1e0|                     57                        |       W        |                    v128.load64_lane: 87 (valid) 0x1e7-0x1e7.7 (1)
     |                                               |                |                    m{}: 0x1e8-0x1e9.7 (2)
0x1e0|                        00                     |        .       |                      align: 0 0x1e8-0x1e8.7 (1)
0x1e0|                           00                  |         .      |                      offset: 0 0x1e9-0x1e9.7 (1)
0x1e0|                              01               |          .     |                    laneidx: 1 0x1ea-0x1ea.7 (1)
     |                                               |                |                  [3]{}: instr 0x1eb-0x1eb.7 (1)
0x1e0|                                 0b            |           .    |                    end: 0xb (valid) 0x1eb-0x1eb.7 (1)
     |                                               |                |          [9]{}: code 0x1ec-0x1f7.7 (12)
0x1e0|                                    0b         |            .   |            size: 11 0x1ec-0x1ec.7 (1)
     |                                               |                |            code{}: 0x1ed-0x1f7.7 (11)
     |                                               |                |              locals{}: 0x1ed-0x1ed.7 (1)
0x1e0|                                       00      |             .  |                n: 0 0x1ed-0x1ed.7 (1)
     |                                               |                |                items[0:0]: 0x1ee-NA (0)
     |                                               |                |              expr{}: 0x1ee-0x1f7.7 (10)
     |                                               |                |                instructions[0:4]: 0x1ee-0x1f7.7 (10)
     |                                               |                |                  [0]{}: instr 0x1ee-0x1ef.7 (2)
0x1e0|                                          20   |                |                    local.get: 0x20 (valid) 0x1ee-0x1ee.7 (1)
0x1e0|                                             00|               .|                    x: 0 0x1ef-0x1ef.7 (1)
     |                                               |                |                  [1]{}: instr 0x1f0-0x1f1.7 (2)
0x1f0|20                                             |                |                    local.get: 0x20 (valid) 0x1f0-0x1f0.7 (1)
0x1f0|   01                                          | .              |                    x: 1 0x1f1-0x1f1.7 (1)
     |                                               |                |                  [2]{}: instr 0x1f2-0x1f6.7 (5)
0x1f0|      fd                                       |  .             |                    prefix: 0xfd (valid) 0x1f2-0x1f2.7 (1)
0x1f0|         57                                    |   W            |                    v128.load64_lane: 87 (valid) 0x1f3-0x1f3.7 (1)
     |                                               |                |                    m{}: 0x1f4-0x1f5.7 (2)
0x1f0|            01                                 |    .           |                      align: 1 0x1f4-0x1f4.7 (1)
0x1f0|               00                              |     .          |                      offset: 0 0x1f5-0x1f5.7 (1)
0x1f0|                  01                           |      .         |                    laneidx: 1 0x1f6-0x1f6.7 (1)
     |                                               |                |                  [3]{}: instr 0x1f7-0x1f7.7 (1)
0x1f0|                     0b                        |       .        |                    end: 0xb (valid) 0x1f7-0x1f7.7 (1)
     |                                               |                |          [10]{}: code 0x1f8-0x203.7 (12)
0x1f0|                        0b                     |        .       |            size: 11 0x1f8-0x1f8.7 (1)
     |                                               |                |            code{}: 0x1f9-0x203.7 (11)
     |                                               |                |              locals{}: 0x1f9-0x1f9.7 (1)
0x1f0|                           00                  |         .      |                n: 0 0x1f9-0x1f9.7 (1)
     |                                               |                |                items[0:0]: 0x1fa-NA (0)
     |                                               |                |              expr{}: 0x1fa-0x203.7 (10)
     |                                               |                |                instructions[0:4]: 0x1fa-0x203.7 (10)
     |                                               |                |                  [0]{}: instr 0x1fa-0x1fb.7 (2)
0x1f0|                              20               |                |                    local.get: 0x20 (valid) 0x1fa-0x1fa.7 (1)
0x1f0|                                 00            |           .    |                    x: 0 0x1fb-0x1fb.7 (1)
     |                                               |                |                  [1]{}: instr 0x1fc-0x1fd.7 (2)
0x1f0|                                    20         |                |                    local.get: 0x20 (valid) 0x1fc-0x1fc.7 (1)
0x1f0|                                       01      |             .  |                    x: 1 0x1fd-0x1fd.7 (1)
     |                                               |                |                  [2]{}: instr 0x1fe-0x202.7 (5)
0x1f0|                                          fd   |              . |                    prefix: 0xfd (valid) 0x1fe-0x1fe.7 (1)
0x1f0|                                             57|               W|                    v128.load64_lane: 87 (valid) 0x1ff-0x1ff.7 (1)
     |                                               |                |                    m{}: 0x200-0x201.7 (2)
0x200|02                                             |.               |                      align: 2 0x200-0x200.7 (1)
0x200|   00                                          | .              |                      offset: 0 0x201-0x201.7 (1)
0x200|      01                                       |  .             |                    laneidx: 1 0x202-0x202.7 (1)
     |                                               |                |                  [3]{}: instr 0x203-0x203.7 (1)
0x200|         0b                                    |   .            |                    end: 0xb (valid) 0x203-0x203.7 (1)
     |                                               |                |          [11]{}: code 0x204-0x20f.7 (12)
0x200|            0b                                 |    .           |            size: 11 0x204-0x204.7 (1)
     |                                               |                |            code{}: 0x205-0x20f.7 (11)
     |                                               |                |              locals{}: 0x205-0x205.7 (1)
0x200|               00                              |     .          |                n: 0 0x205-0x205.7 (1)
     |                                               |                |                items[0:0]: 0x206-NA (0)
     |                                               |                |              expr{}: 0x206-0x20f.7 (10)
     |                                               |                |                instructions[0:4]: 0x206-0x20f.7 (10)
     |                                               |                |                  [0]{}: instr 0x206-0x207.7 (2)
0x200|                  20                           |                |                    local.get: 0x20 (valid) 0x206-0x206.7 (1)
0x200|                     00                        |       .        |                    x: 0 0x207-0x207.7 (1)
     |                                               |                |                  [1]{}: instr 0x208-0x209.7 (2)
0x200|                        20                     |                |                    local.get: 0x20 (valid) 0x208-0x208.7 (1)
0x200|                           01                  |         .      |                    x: 1 0x209-0x209.7 (1)
     |                                               |                |                  [2]{}: instr 0x20a-0x20e.7 (5)
0x200|                              fd               |          .     |                    prefix: 0xfd (valid) 0x20a-0x20a.7 (1)
0x200|                                 57            |           W    |                    v128.load64_lane: 87 (valid) 0x20b-0x20b.7 (1)
     |                                               |                |                    m{}: 0x20c-0x20d.7 (2)
0x200|                                    03         |            .   |                      align: 3 0x20c-0x20c.7 (1)
0x200|                                       00      |             .  |                      offset: 0 0x20d-0x20d.7 (1)
0x200|                                          01   |              . |                    laneidx: 1 0x20e-0x20e.7 (1)
     |                                               |                |                  [3]{}: instr 0x20f-0x20f.7 (1)
0x200|                                             0b|               .|                    end: 0xb (valid) 0x20f-0x20f.7 (1)
     |                                               |                |    [5]{}: section 0x210-0x227.7 (24)
0x210|0b                                             |.               |      id: "data section" (11) 0x210-0x210.7 (1)
0x210|   16                                          | .              |      size: 22 0x211-0x211.7 (1)
     |                                               |                |      content{}: 0x212-0x227.7 (22)
0x210|      01                                       |  .             |        n: 1 0x212-0x212.7 (1)
     |                                               |                |        items[0:1]: 0x213-0x227.7 (21)
     |                                               |                |          [0]{}: data 0x213-0x227.7 (21)
0x210|         00                                    |   .            |            tag: 0 0x213-0x213.7 (1)
     |                                               |                |            instructions[0:2]: 0x214-0x216.7 (3)
     |                                               |                |              [0]{}: instr 0x214-0x215.7 (2)
0x210|            41                                 |    A           |                i32.const: 0x41 (valid) 0x214-0x214.7 (1)
0x210|               00                              |     .          |                n: 0 0x215-0x215.7 (1)
     |                                               |                |              [1]{}: instr 0x216-0x216.7 (1)
0x210|                  0b                           |      .         |                end: 0xb (valid) 0x216-0x216.7 (1)
0x210|                     10                        |       .        |            n: 16 0x217-0x217.7 (1)
0x210|                        00 01 02 03 04 05 06 07|        ........|            bytes: raw bits 0x218-0x227.7 (16)
0x220|08 09 0a 0b 0c 0d 0e 0f|                       |........|       |
