$ fq -d wasm dv simd_load-3.wasm
    |00 01 02 03 04 05 06 07 08 09 0a 0b 0c 0d 0e 0f|0123456789abcdef|.{}: simd_load-3.wasm (wasm) 0x0-0x86.7 (135)
0x00|00 61 73 6d                                    |.asm            |  magic: raw bits (valid) 0x0-0x3.7 (4)
0x00|            01 00 00 00                        |    ....        |  version: 1 0x4-0x7.7 (4)
    |                                               |                |  sections[0:6]: 0x8-0x86.7 (127)
    |                                               |                |    [0]{}: section 0x8-0x12.7 (11)
0x00|                        01                     |        .       |      id: "type section" (1) 0x8-0x8.7 (1)
0x00|                           09                  |         .      |      size: 9 0x9-0x9.7 (1)
    |                                               |                |      content{}: 0xa-0x12.7 (9)
0x00|                              02               |          .     |        n: 2 0xa-0xa.7 (1)
    |                                               |                |        items[0:2]: 0xb-0x12.7 (8)
    |                                               |                |          [0]{}: functype 0xb-0xe.7 (4)
0x00|                                 60            |           `    |            tag: 0x60 (valid) 0xb-0xb.7 (1)
    |                                               |                |            rt1{}: 0xc-0xc.7 (1)
0x00|                                    00         |            .   |              n: 0 0xc-0xc.7 (1)
    |                                               |                |              items[0:0]: 0xd-NA (0)
    |                                               |                |            rt2{}: 0xd-0xe.7 (2)
0x00|                                       01      |             .  |              n: 1 0xd-0xd.7 (1)
    |                                               |                |              items[0:1]: 0xe-0xe.7 (1)
0x00|                                          7b   |              { |                [0]: "v128" (123) valtype 0xe-0xe.7 (1)
    |                                               |                |          [1]{}: functype 0xf-0x12.7 (4)
0x00|                                             60|               `|            tag: 0x60 (valid) 0xf-0xf.7 (1)
    |                                               |                |            rt1{}: 0x10-0x10.7 (1)
0x10|00                                             |.               |              n: 0 0x10-0x10.7 (1)
    |                                               |                |              items[0:0]: 0x11-NA (0)
    |                                               |                |            rt2{}: 0x11-0x12.7 (2)
0x10|   01                                          | .              |              n: 1 0x11-0x11.7 (1)
    |                                               |                |              items[0:1]: 0x12-0x12.7 (1)
0x10|      7f                                       |  .             |                [0]: "i32" (127) valtype 0x12-0x12.7 (1)
    |                                               |                |    [1]{}: section 0x13-0x17.7 (5)
0x10|         03                                    |   .            |      id: "function section" (3) 0x13-0x13.7 (1)
0x10|            03                                 |    .           |      size: 3 0x14-0x14.7 (1)
    |                                               |                |      content{}: 0x15-0x17.7 (3)
0x10|               02                              |     .          |        n: 2 0x15-0x15.7 (1)
    |                                               |                |        items[0:2]: 0x16-0x17.7 (2)
0x10|                  00                           |      .         |          [0]: 0 x 0x16-0x16.7 (1)
0x10|                     01                        |       .        |          [1]: 1 x 0x17-0x17.7 (1)
    |                                               |                |    [2]{}: section 0x18-0x1c.7 (5)
0x10|                        05                     |        .       |      id: "memory section" (5) 0x18-0x18.7 (1)
0x10|                           03                  |         .      |      size: 3 0x19-0x19.7 (1)
    |                                               |                |      content{}: 0x1a-0x1c.7 (3)
0x10|                              01               |          .     |        n: 1 0x1a-0x1a.7 (1)
    |                                               |                |        items[0:1]: 0x1b-0x1c.7 (2)
    |                                               |                |          [0]{}: mem 0x1b-0x1c.7 (2)
    |                                               |                |            limits{}: 0x1b-0x1c.7 (2)
0x10|                                 00            |           .    |              tag: 0x0 0x1b-0x1b.7 (1)
0x10|                                    01         |            .   |              min: 1 0x1c-0x1c.7 (1)
    |                                               |                |    [3]{}: section 0x1d-0x51.7 (53)
0x10|                                       07      |             .  |      id: "export section" (7) 0x1d-0x1d.7 (1)
0x10|                                          33   |              3 |      size: 51 0x1e-0x1e.7 (1)
    |                                               |                |      content{}: 0x1f-0x51.7 (51)
0x10|                                             02|               .|        n: 2 0x1f-0x1f.7 (1)
    |                                               |                |        items[0:2]: 0x20-0x51.7 (50)
    |                                               |                |          [0]{}: export 0x20-0x35.7 (22)
    |                                               |                |            name{}: 0x20-0x33.7 (20)
0x20|13                                             |.               |              len: 19 0x20-0x20.7 (1)
0x20|   61 73 2d 76 31 32 38 2e 6e 6f 74 2d 6f 70 65| as-v128.not-ope|              utf8bytes: "as-v128.not-operand" 0x21-0x33.7 (19)
0x30|72 61 6e 64                                    |rand            |
    |                                               |                |            expr{}: 0x34-0x35.7 (2)
0x30|            00                                 |    .           |              tag: "funcidx" (0x0) 0x34-0x34.7 (1)
0x30|               00                              |     .          |              x: 0 0x35-0x35.7 (1)
    |                                               |                |          [1]{}: export 0x36-0x51.7 (28)
    |                                               |                |            name{}: 0x36-0x4f.7 (26)
0x30|                  19                           |      .         |              len: 25 0x36-0x36.7 (1)
0x30|                     61 73 2d 69 38 78 31 36 2e|       as-i8x16.|              utf8bytes: "as-i8x16.all_true-operand" 0x37-0x4f.7 (25)
0x40|61 6c 6c 5f 74 72 75 65 2d 6f 70 65 72 61 6e 64|all_true-operand|
    |                                               |                |            expr{}: 0x50-0x51.7 (2)
0x50|00                                             |.               |              tag: "funcidx" (0x0) 0x50-0x50.7 (1)
0x50|   01                                          | .              |              x: 1 0x51-0x51.7 (1)
    |                                               |                |    [4]{}: section 0x52-0x6a.7 (25)
0x50|      0a                                       |  .             |      id: "code section" (10) 0x52-0x52.7 (1)
0x50|         17                                    |   .            |      size: 23 0x53-0x53.7 (1)
    |                                               |                |      content{}: 0x54-0x6a.7 (23)
0x50|            02                                 |    .           |        n: 2 0x54-0x54.7 (1)
    |                                               |                |        items[0:2]: 0x55-0x6a.7 (22)
    |                                               |                |          [0]{}: code 0x55-0x5f.7 (11)
0x50|               0a                              |     .          |            size: 10 0x55-0x55.7 (1)
    |                                               |                |            code{}: 0x56-0x5f.7 (10)
    |                                               |                |              locals{}: 0x56-0x56.7 (1)
0x50|                  00                           |      .         |                n: 0 0x56-0x56.7 (1)
    |                                               |                |                items[0:0]: 0x57-NA (0)
    |                                               |                |              expr{}: 0x57-0x5f.7 (9)
    |                                               |                |                instructions[0:4]: 0x57-0x5f.7 (9)
    |                                               |                |                  [0]{}: instr 0x57-0x58.7 (2)
0x50|                     41                        |       A        |                    i32.const: 0x41 (valid) 0x57-0x57.7 (1)
0x50|                        00                     |        .       |                    n: 0 0x58-0x58.7 (1)
    |                                               |                |                  [1]{}: instr 0x59-0x5c.7 (4)
0x50|                           fd                  |         .      |                    prefix: 0xfd (valid) 0x59-0x59.7 (1)
0x50|                              00               |          .     |                    v128.load: 0 (valid) 0x5a-0x5a.7 (1)
    |                                               |                |                    m{}: 0x5b-0x5c.7 (2)
0x50|                                 04            |           .    |                      align: 4 0x5b-0x5b.7 (1)
0x50|                                    00         |            .   |                      offset: 0 0x5c-0x5c.7 (1)
    |                                               |                |                  [2]{}: instr 0x5d-0x5e.7 (2)
0x50|                                       fd      |             .  |                    prefix: 0xfd (valid) 0x5d-0x5d.7 (1)
0x50|                                          4d   |              M |                    v128.not: 77 (valid) 0x5e-0x5e.7 (1)
    |                                               |                |                  [3]{}: instr 0x5f-0x5f.7 (1)
0x50|                                             0b|               .|                    end: 0xb (valid) 0x5f-0x5f.7 (1)
    |                                               |                |          [1]{}: code 0x60-0x6a.7 (11)
0x60|0a                                             |.               |            size: 10 0x60-0x60.7 (1)
    |                                               |                |            code{}: 0x61-0x6a.7 (10)
    |                                               |                |              locals{}: 0x61-0x61.7 (1)
0x60|   00                                          | .              |                n: 0 0x61-0x61.7 (1)
    |                                               |                |                items[0:0]: 0x62-NA (0)
    |                                               |                |              expr{}: 0x62-0x6a.7 (9)
    |                                               |                |                instructions[0:4]: 0x62-0x6a.7 (9)
    |                                               |                |                  [0]{}: instr 0x62-0x63.7 (2)
0x60|      41                                       |  A             |                    i32.const: 0x41 (valid) 0x62-0x62.7 (1)
0x60|         00                                    |   .            |                    n: 0 0x63-0x63.7 (1)
    |                                               |                |                  [1]{}: instr 0x64-0x67.7 (4)
0x60|            fd                                 |    .           |                    prefix: 0xfd (valid) 0x64-0x64.7 (1)
0x60|               00                              |     .          |                    v128.load: 0 (valid) 0x65-0x65.7 (1)
    |                                               |                |                    m{}: 0x66-0x67.7 (2)
0x60|                  04                           |      .         |                      align: 4 0x66-0x66.7 (1)
0x60|                     00                        |       .        |                      offset: 0 0x67-0x67.7 (1)
    |                                               |                |                  [2]{}: instr 0x68-0x69.7 (2)
0x60|                        fd                     |        .       |                    prefix: 0xfd (valid) 0x68-0x68.7 (1)
0x60|                           63                  |         c      |                    i8x16.all_true: 99 (valid) 0x69-0x69.7 (1)
    |                                               |                |                  [3]{}: instr 0x6a-0x6a.7 (1)
0x60|                              0b               |          .     |                    end: 0xb (valid) 0x6a-0x6a.7 (1)
    |                                               |                |    [5]{}: section 0x6b-0x86.7 (28)
0x60|                                 0b            |           .    |      id: "data section" (11) 0x6b-0x6b.7 (1)
0x60|                                    1a         |            .   |      size: 26 0x6c-0x6c.7 (1)
    |                                               |                |      content{}: 0x6d-0x86.7 (26)
0x60|                                       01      |             .  |        n: 1 0x6d-0x6d.7 (1)
    |                                               |                |        items[0:1]: 0x6e-0x86.7 (25)
    |                                               |                |          [0]{}: data 0x6e-0x86.7 (25)
0x60|                                          00   |              . |            tag: 0 0x6e-0x6e.7 (1)
    |                                               |                |            instructions[0:2]: 0x6f-0x71.7 (3)
    |                                               |                |              [0]{}: instr 0x6f-0x70.7 (2)
0x60|                                             41|               A|                i32.const: 0x41 (valid) 0x6f-0x6f.7 (1)
0x70|00                                             |.               |                n: 0 0x70-0x70.7 (1)
    |                                               |                |              [1]{}: instr 0x71-0x71.7 (1)
0x70|   0b                                          | .              |                end: 0xb (valid) 0x71-0x71.7 (1)
0x70|      14                                       |  .             |            n: 20 0x72-0x72.7 (1)
0x70|         00 01 02 03 04 05 06 07 08 09 0a 0b 0c|   .............|            bytes: raw bits 0x73-0x86.7 (20)
0x80|0d 0e 0f 00 01 02 03|                          |.......|        |
