$ fq -d wasm dv simd_store-1.wasm
     |00 01 02 03 04 05 06 07 08 09 0a 0b 0c 0d 0e 0f|0123456789abcdef|.{}: simd_store-1.wasm (wasm) 0x0-0x1dc.7 (477)
0x000|00 61 73 6d                                    |.asm            |  magic: raw bits (valid) 0x0-0x3.7 (4)
0x000|            01 00 00 00                        |    ....        |  version: 1 0x4-0x7.7 (4)
     |                                               |                |  sections[0:5]: 0x8-0x1dc.7 (469)
     |                                               |                |    [0]{}: section 0x8-0xd.7 (6)
0x000|                        01                     |        .       |      id: "type section" (1) 0x8-0x8.7 (1)
0x000|                           04                  |         .      |      size: 4 0x9-0x9.7 (1)
     |                                               |                |      content{}: 0xa-0xd.7 (4)
0x000|                              01               |          .     |        n: 1 0xa-0xa.7 (1)
     |                                               |                |        items[0:1]: 0xb-0xd.7 (3)
     |                                               |                |          [0]{}: functype 0xb-0xd.7 (3)
0x000|                                 60            |           `    |            tag: 0x60 (valid) 0xb-0xb.7 (1)
     |                                               |                |            rt1{}: 0xc-0xc.7 (1)
0x000|                                    00         |            .   |              n: 0 0xc-0xc.7 (1)
     |                                               |                |              items[0:0]: 0xd-NA (0)
     |                                               |                |            rt2{}: 0xd-0xd.7 (1)
0x000|                                       00      |             .  |              n: 0 0xd-0xd.7 (1)
     |                                               |                |              items[0:0]: 0xe-NA (0)
     |                                               |                |    [1]{}: section 0xe-0x19.7 (12)
0x000|                                          03   |              . |      id: "function section" (3) 0xe-0xe.7 (1)
0x000|                                             0a|               .|      size: 10 0xf-0xf.7 (1)
     |                                               |                |      content{}: 0x10-0x19.7 (10)
0x010|09                                             |.               |        n: 9 0x10-0x10.7 (1)
     |                                               |                |        items[0:9]: 0x11-0x19.7 (9)
0x010|   00                                          | .              |          [0]: 0 x 0x11-0x11.7 (1)
0x010|      00                                       |  .             |          [1]: 0 x 0x12-0x12.7 (1)
0x010|         00                                    |   .            |          [2]: 0 x 0x13-0x13.7 (1)
0x010|            00                                 |    .           |          [3]: 0 x 0x14-0x14.7 (1)
0x010|               00                              |     .          |          [4]: 0 x 0x15-0x15.7 (1)
0x010|                  00                           |      .         |          [5]: 0 x 0x16-0x16.7 (1)
0x010|                     00                        |       .        |          [6]: 0 x 0x17-0x17.7 (1)
0x010|                        00                     |        .       |          [7]: 0 x 0x18-0x18.7 (1)
0x010|                           00                  |         .      |          [8]: 0 x 0x19-0x19.7 (1)
     |                                               |                |    [2]{}: section 0x1a-0x1e.7 (5)
0x010|                              05               |          .     |      id: "memory section" (5) 0x1a-0x1a.7 (1)
0x010|                                 03            |           .    |      size: 3 0x1b-0x1b.7 (1)
     |                                               |                |      content{}: 0x1c-0x1e.7 (3)
0x010|                                    01         |            .   |        n: 1 0x1c-0x1c.7 (1)
     |                                               |                |        items[0:1]: 0x1d-0x1e.7 (2)
     |                                               |                |          [0]{}: mem 0x1d-0x1e.7 (2)
     |                                               |                |            limits{}: 0x1d-0x1e.7 (2)
0x010|                                       00      |             .  |              tag: 0x0 0x1d-0x1d.7 (1)
0x010|                                          01   |              . |              min: 1 0x1e-0x1e.7 (1)
     |                                               |                |    [3]{}: section 0x1f-0xb8.7 (154)
0x010|                                             07|               .|      id: "export section" (7) 0x1f-0x1f.7 (1)
0x020|97 01                                          |..              |      size: 151 0x20-0x21.7 (2)
     |                                               |                |      content{}: 0x22-0xb8.7 (151)
0x020|      09                                       |  .             |        n: 9 0x22-0x22.7 (1)
     |                                               |                |        items[0:9]: 0x23-0xb8.7 (150)
     |                                               |                |          [0]{}: export 0x23-0x33.7 (17)
     |                                               |                |            name{}: 0x23-0x31.7 (15)
0x020|         0e                                    |   .            |              len: 14 0x23-0x23.7 (1)
0x020|            61 73 2d 62 6c 6f 63 6b 2d 76 61 6c|    as-block-val|              utf8bytes: "as-block-value" 0x24-0x31.7 (14)
0x030|75 65                                          |ue              |
     |                                               |                |            expr{}: 0x32-0x33.7 (2)
0x030|      00                                       |  .             |              tag: "funcidx" (0x0) 0x32-0x32.7 (1)
0x030|         00                                    |   .            |              x: 0 0x33-0x33.7 (1)
     |                                               |                |          [1]{}: export 0x34-0x43.7 (16)
     |                                               |                |            name{}: 0x34-0x41.7 (14)
0x030|            0d                                 |    .           |              len: 13 0x34-0x34.7 (1)
0x030|               61 73 2d 6c 6f 6f 70 2d 76 61 6c|     as-loop-val|              utf8bytes: "as-loop-value" 0x35-0x41.7 (13)
0x040|75 65                                          |ue              |
     |                                               |                |            expr{}: 0x42-0x43.7 (2)
0x040|      00                                       |  .             |              tag: "funcidx" (0x0) 0x42-0x42.7 (1)
0x040|         01                                    |   .            |              x: 1 0x43-0x43.7 (1)
     |                                               |                |          [2]{}: export 0x44-0x51.7 (14)
     |                                               |                |            name{}: 0x44-0x4f.7 (12)
0x040|            0b                                 |    .           |              len: 11 0x44-0x44.7 (1)
0x040|               61 73 2d 62 72 2d 76 61 6c 75 65|     as-br-value|              utf8bytes: "as-br-value" 0x45-0x4f.7 (11)
     |                                               |                |            expr{}: 0x50-0x51.7 (2)
0x050|00                                             |.               |              tag: "funcidx" (0x0) 0x50-0x50.7 (1)
0x050|   02                                          | .              |              x: 2 0x51-0x51.7 (1)
     |                                               |                |          [3]{}: export 0x52-0x62.7 (17)
     |                                               |                |            name{}: 0x52-0x60.7 (15)
0x050|      0e                                       |  .             |              len: 14 0x52-0x52.7 (1)
0x050|         61 73 2d 62 72 5f 69 66 2d 76 61 6c 75|   as-br_if-valu|              utf8bytes: "as-br_if-value" 0x53-0x60.7 (14)
0x060|65                                             |e               |
     |                                               |                |            expr{}: 0x61-0x62.7 (2)
0x060|   00                                          | .              |              tag: "funcidx" (0x0) 0x61-0x61.7 (1)
0x060|      03                                       |  .             |              x: 3 0x62-0x62.7 (1)
     |                                               |                |          [4]{}: export 0x63-0x78.7 (22)
     |                                               |                |            name{}: 0x63-0x76.7 (20)
0x060|         13                                    |   .            |              len: 19 0x63-0x63.7 (1)
0x060|            61 73 2d 62 72 5f 69 66 2d 76 61 6c|    as-br_if-val|              utf8bytes: "as-br_if-value-cond" 0x64-0x76.7 (19)
0x070|75 65 2d 63 6f 6e 64                           |ue-cond         |
     |                                               |                |            expr{}: 0x77-0x78.7 (2)
0x070|                     00                        |       .        |              tag: "funcidx" (0x0) 0x77-0x77.7 (1)
0x070|                        04                     |        .       |              x: 4 0x78-0x78.7 (1)
     |                                               |                |          [5]{}: export 0x79-0x8c.7 (20)
     |                                               |                |            name{}: 0x79-0x8a.7 (18)
0x070|                           11                  |         .      |              len: 17 0x79-0x79.7 (1)
0x070|                              61 73 2d 62 72 5f|          as-br_|              utf8bytes: "as-br_table-value" 0x7a-0x8a.7 (17)
0x080|74 61 62 6c 65 2d 76 61 6c 75 65               |table-value     |
     |                                               |                |            expr{}: 0x8b-0x8c.7 (2)
0x080|                                 00            |           .    |              tag: "funcidx" (0x0) 0x8b-0x8b.7 (1)
0x080|                                    05         |            .   |              x: 5 0x8c-0x8c.7 (1)
     |                                               |                |          [6]{}: export 0x8d-0x9e.7 (18)
     |                                               |                |            name{}: 0x8d-0x9c.7 (16)
0x080|                                       0f      |             .  |              len: 15 0x8d-0x8d.7 (1)
0x080|                                          61 73|              as|              utf8bytes: "as-return-value" 0x8e-0x9c.7 (15)
0x090|2d 72 65 74 75 72 6e 2d 76 61 6c 75 65         |-return-value   |
     |                                               |                |            expr{}: 0x9d-0x9e.7 (2)
0x090|                                       00      |             .  |              tag: "funcidx" (0x0) 0x9d-0x9d.7 (1)
0x090|                                          06   |              . |              x: 6 0x9e-0x9e.7 (1)
     |                                               |                |          [7]{}: export 0x9f-0xab.7 (13)
     |                                               |                |            name{}: 0x9f-0xa9.7 (11)
0x090|                                             0a|               .|              len: 10 0x9f-0x9f.7 (1)
0x0a0|61 73 2d 69 66 2d 74 68 65 6e                  |as-if-then      |              utf8bytes: "as-if-then" 0xa0-0xa9.7 (10)
     |                                               |                |            expr{}: 0xaa-0xab.7 (2)
0x0a0|                              00               |          .     |              tag: "funcidx" (0x0) 0xaa-0xaa.7 (1)
0x0a0|                                 07            |           .    |              x: 7 0xab-0xab.7 (1)
     |                                               |                |          [8]{}: export 0xac-0xb8.7 (13)
     |                                               |                |            name{}: 0xac-0xb6.7 (11)
0x0a0|                                    0a         |            .   |              len: 10 0xac-0xac.7 (1)
0x0a0|                                       61 73 2d|             as-|              utf8bytes: "as-if-else" 0xad-0xb6.7 (10)
0x0b0|69 66 2d 65 6c 73 65                           |if-else         |
     |                                               |                |            expr{}: 0xb7-0xb8.7 (2)
0x0b0|                     00                        |       .        |              tag: "funcidx" (0x0) 0xb7-0xb7.7 (1)
0x0b0|                        08                     |        .       |              x: 8 0xb8-0xb8.7 (1)
     |                                               |                |    [4]{}: section 0xb9-0x1dc.7 (292)
0x0b0|                           0a                  |         .      |      id: "code section" (10) 0xb9-0xb9.7 (1)
0x0b0|                              a1 02            |          ..    |      size: 289 0xba-0xbb.7 (2)
     |                                               |                |      content{}: 0xbc-0x1dc.7 (289)
0x0b0|                                    09         |            .   |        n: 9 0xbc-0xbc.7 (1)
     |                                               |                |        items[0:9]: 0xbd-0x1dc.7 (288)
     |                                               |                |          [0]{}: code 0xbd-0xda.7 (30)
0x0b0|                                       1d      |             .  |            size: 29 0xbd-0xbd.7 (1)
     |                                               |                |            code{}: 0xbe-0xda.7 (29)
     |                                               |                |              locals{}: 0xbe-0xbe.7 (1)
0x0b0|                                          00   |              . |                n: 0 0xbe-0xbe.7 (1)
     |                                               |                |                items[0:0]: 0xbf-NA (0)
     |                                               |                |              expr{}: 0xbf-0xda.7 (28)
     |                                               |                |                instructions[0:2]: 0xbf-0xda.7 (28)
     |                                               |                |                  [0]{}: instr 0xbf-0xd9.7 (27)
0x0b0|                                             02|               .|                    block: 0x2 (valid) 0xbf-0xbf.7 (1)
0x0c0|40                                             |@               |                    empty: 64 0xc0-0xc0.7 (1)
     |                                               |                |                    instructions[0:3]: 0xc1-0xd8.7 (24)
     |                                               |                |                      [0]{}: instr 0xc1-0xc2.7 (2)
0x0c0|   41                                          | A              |                        i32.const: 0x41 (valid) 0xc1-0xc1.7 (1)
0x0c0|      00                                       |  .             |                        n: 0 0xc2-0xc2.7 (1)
     |                                               |                |                      [1]{}: instr 0xc3-0xd4.7 (18)
0x0c0|         fd                                    |   .            |                        prefix: 0xfd (valid) 0xc3-0xc3.7 (1)
0x0c0|            0c                                 |    .           |                        v128.const: 12 (valid) 0xc4-0xc4.7 (1)
0x0c0|               00 00 00 00 00 00 00 00 00 00 00|     ...........|                        bytes: raw bits 0xc5-0xd4.7 (16)
0x0d0|00 00 00 00 00                                 |.....           |
     |                                               |                |                      [2]{}: instr 0xd5-0xd8.7 (4)
0x0d0|               fd                              |     .          |                        prefix: 0xfd (valid) 0xd5-0xd5.7 (1)
0x0d0|                  0b                           |      .         |                        v128.store: 11 (valid) 0xd6-0xd6.7 (1)
     |                                               |                |                        m{}: 0xd7-0xd8.7 (2)
0x0d0|                     04                        |       .        |                          align: 4 0xd7-0xd7.7 (1)
0x0d0|                        00                     |        .       |                          offset: 0 0xd8-0xd8.7 (1)
0x0d0|                           0b                  |         .      |                    end: 11 (valid) 0xd9-0xd9.7 (1)
     |                                               |                |                  [1]{}: instr 0xda-0xda.7 (1)
0x0d0|                              0b               |          .     |                    end: 0xb (valid) 0xda-0xda.7 (1)
     |                                               |                |          [1]{}: code 0xdb-0xf8.7 (30)
0x0d0|                                 1d            |           .    |            size: 29 0xdb-0xdb.7 (1)
     |                                               |                |            code{}: 0xdc-0xf8.7 (29)
     |                                               |                |              locals{}: 0xdc-0xdc.7 (1)
0x0d0|                                    00         |            .   |                n: 0 0xdc-0xdc.7 (1)
     |                                               |                |                items[0:0]: 0xdd-NA (0)
     |                                               |                |              expr{}: 0xdd-0xf8.7 (28)
     |                                               |                |                instructions[0:2]: 0xdd-0xf8.7 (28)
     |                                               |                |                  [0]{}: instr 0xdd-0xf7.7 (27)
0x0d0|                                       03      |             .  |                    loop: 0x3 (valid) 0xdd-0xdd.7 (1)
0x0d0|                                          40   |              @ |                    empty: 64 0xde-0xde.7 (1)
     |                                               |                |                    instructions[0:3]: 0xdf-0xf6.7 (24)
     |                                               |                |                      [0]{}: instr 0xdf-0xe0.7 (2)
0x0d0|                                             41|               A|                        i32.const: 0x41 (valid) 0xdf-0xdf.7 (1)
0x0e0|00                                             |.               |                        n: 0 0xe0-0xe0.7 (1)
     |                                               |                |                      [1]{}: instr 0xe1-0xf2.7 (18)
0x0e0|   fd                                          | .              |                        prefix: 0xfd (valid) 0xe1-0xe1.7 (1)
0x0e0|      0c                                       |  .             |                        v128.const: 12 (valid) 0xe2-0xe2.7 (1)
0x0e0|         00 00 00 00 00 00 00 00 00 00 00 00 00|   .............|                        bytes: raw bits 0xe3-0xf2.7 (16)
0x0f0|00 00 00                                       |...             |
     |                                               |                |                      [2]{}: instr 0xf3-0xf6.7 (4)
0x0f0|         fd                                    |   .            |                        prefix: 0xfd (valid) 0xf3-0xf3.7 (1)
0x0f0|            0b                                 |    .           |                        v128.store: 11 (valid) 0xf4-0xf4.7 (1)
     |                                               |                |                        m{}: 0xf5-0xf6.7 (2)
0x0f0|               04                              |     .          |                          align: 4 0xf5-0xf5.7 (1)
0x0f0|                  00                           |      .         |                          offset: 0 0xf6-0xf6.7 (1)
0x0f0|                     0b                        |       .        |                    end: 11 (valid) 0xf7-0xf7.7 (1)
     |                                               |                |                  [1]{}: instr 0xf8-0xf8.7 (1)
0x0f0|                        0b                     |        .       |                    end: 0xb (valid) 0xf8-0xf8.7 (1)
     |                                               |                |          [2]{}: code 0xf9-0x118.7 (32)
0x0f0|                           1f                  |         .      |            size: 31 0xf9-0xf9.7 (1)
     |                                               |                |            code{}: 0xfa-0x118.7 (31)
     |                                               |                |              locals{}: 0xfa-0xfa.7 (1)
0x0f0|                              00               |          .     |                n: 0 0xfa-0xfa.7 (1)
     |                                               |                |                items[0:0]: 0xfb-NA (0)
     |                                               |                |              expr{}: 0xfb-0x118.7 (30)
     |                                               |                |                instructions[0:2]: 0xfb-0x118.7 (30)
     |                                               |                |                  [0]{}: instr 0xfb-0x117.7 (29)
0x0f0|                                 02            |           .    |                    block: 0x2 (valid) 0xfb-0xfb.7 (1)
0x0f0|                                    40         |            @   |                    empty: 64 0xfc-0xfc.7 (1)
     |                                               |                |                    instructions[0:4]: 0xfd-0x116.7 (26)
     |                                               |                |                      [0]{}: instr 0xfd-0xfe.7 (2)
0x0f0|                                       41      |             A  |                        i32.const: 0x41 (valid) 0xfd-0xfd.7 (1)
0x0f0|                                          00   |              . |                        n: 0 0xfe-0xfe.7 (1)
     |                                               |                |                      [1]{}: instr 0xff-0x110.7 (18)
0x0f0|                                             fd|               .|                        prefix: 0xfd (valid) 0xff-0xff.7 (1)
0x100|0c                                             |.               |                        v128.const: 12 (valid) 0x100-0x100.7 (1)
0x100|   00 00 00 00 00 00 00 00 00 00 00 00 00 00 00| ...............|                        bytes: raw bits 0x101-0x110.7 (16)
0x110|00                                             |.               |
     |                                               |                |                      [2]{}: instr 0x111-0x114.7 (4)
0x110|   fd                                          | .              |                        prefix: 0xfd (valid) 0x111-0x111.7 (1)
0x110|      0b                                       |  .             |                        v128.store: 11 (valid) 0x112-0x112.7 (1)
     |                                               |                |                        m{}: 0x113-0x114.7 (2)
0x110|         04                                    |   .            |                          align: 4 0x113-0x113.7 (1)
0x110|            00                                 |    .           |                          offset: 0 0x114-0x114.7 (1)
     |                                               |                |                      [3]{}: instr 0x115-0x116.7 (2)
0x110|               0c                              |     .          |                        br: 0xc (valid) 0x115-0x115.7 (1)
0x110|                  00                           |      .         |                        l: 0 0x116-0x116.7 (1)
0x110|                     0b                        |       .        |                    end: 11 (valid) 0x117-0x117.7 (1)
     |                                               |                |                  [1]{}: instr 0x118-0x118.7 (1)
0x110|                        0b                     |        .       |                    end: 0xb (valid) 0x118-0x118.7 (1)
     |                                               |                |          [3]{}: code 0x119-0x13a.7 (34)
0x110|                           21                  |         !      |            size: 33 0x119-0x119.7 (1)
     |                                               |                |            code{}: 0x11a-0x13a.7 (33)
     |                                               |                |              locals{}: 0x11a-0x11a.7 (1)
0x110|                              00               |          .     |                n: 0 0x11a-0x11a.7 (1)
     |                                               |                |                items[0:0]: 0x11b-NA (0)
     |                                               |                |              expr{}: 0x11b-0x13a.7 (32)
     |                                               |                |                instructions[0:2]: 0x11b-0x13a.7 (32)
     |                                               |                |                  [0]{}: instr 0x11b-0x139.7 (31)
0x110|                                 02            |           .    |                    block: 0x2 (valid) 0x11b-0x11b.7 (1)
0x110|                                    40         |            @   |                    empty: 64 0x11c-0x11c.7 (1)
     |                                               |                |                    instructions[0:5]: 0x11d-0x138.7 (28)
     |                                               |                |                      [0]{}: instr 0x11d-0x11e.7 (2)
0x110|                                       41      |             A  |                        i32.const: 0x41 (valid) 0x11d-0x11d.7 (1)
0x110|                                          00   |              . |                        n: 0 0x11e-0x11e.7 (1)
     |                                               |                |                      [1]{}: instr 0x11f-0x130.7 (18)
0x110|                                             fd|               .|                        prefix: 0xfd (valid) 0x11f-0x11f.7 (1)
0x120|0c                                             |.               |                        v128.const: 12 (valid) 0x120-0x120.7 (1)
0x120|   00 00 00 00 00 00 00 00 00 00 00 00 00 00 00| ...............|                        bytes: raw bits 0x121-0x130.7 (16)
0x130|00                                             |.               |
     |                                               |                |                      [2]{}: instr 0x131-0x134.7 (4)
0x130|   fd                                          | .              |                        prefix: 0xfd (valid) 0x131-0x131.7 (1)
0x130|      0b                                       |  .             |                        v128.store: 11 (valid) 0x132-0x132.7 (1)
     |                                               |                |                        m{}: 0x133-0x134.7 (2)
0x130|         04                                    |   .            |                          align: 4 0x133-0x133.7 (1)
0x130|            00                                 |    .           |                          offset: 0 0x134-0x134.7 (1)
     |                                               |                |                      [3]{}: instr 0x135-0x136.7 (2)
0x130|               41                              |     A          |                        i32.const: 0x41 (valid) 0x135-0x135.7 (1)
0x130|                  01                           |      .         |                        n: 1 0x136-0x136.7 (1)
     |                                               |                |                      [4]{}: instr 0x137-0x138.7 (2)
0x130|                     0d                        |       .        |                        br_if: 0xd (valid) 0x137-0x137.7 (1)
0x130|                        00                     |        .       |                        l: 0 0x138-0x138.7 (1)
0x130|                           0b                  |         .      |                    end: 11 (valid) 0x139-0x139.7 (1)
     |                                               |                |                  [1]{}: instr 0x13a-0x13a.7 (1)
0x130|                              0b               |          .     |                    end: 0xb (valid) 0x13a-0x13a.7 (1)
     |                                               |                |          [4]{}: code 0x13b-0x15c.7 (34)
0x130|                                 21            |           !    |            size: 33 0x13b-0x13b.7 (1)
     |                                               |                |            code{}: 0x13c-0x15c.7 (33)
     |                                               |                |              locals{}: 0x13c-0x13c.7 (1)
0x130|                                    00         |            .   |                n: 0 0x13c-0x13c.7 (1)
     |                                               |                |                items[0:0]: 0x13d-NA (0)
     |                                               |                |              expr{}: 0x13d-0x15c.7 (32)
     |                                               |                |                instructions[0:2]: 0x13d-0x15c.7 (32)
     |                                               |                |                  [0]{}: instr 0x13d-0x15b.7 (31)
0x130|                                       02      |             .  |                    block: 0x2 (valid) 0x13d-0x13d.7 (1)
0x130|                                          40   |              @ |                    empty: 64 0x13e-0x13e.7 (1)
     |                                               |                |                    instructions[0:5]: 0x13f-0x15a.7 (28)
     |                                               |                |                      [0]{}: instr 0x13f-0x140.7 (2)
0x130|                                             41|               A|                        i32.const: 0x41 (valid) 0x13f-0x13f.7 (1)
0x140|06                                             |.               |                        n: 6 0x140-0x140.7 (1)
     |                                               |                |                      [1]{}: instr 0x141-0x142.7 (2)
0x140|   41                                          | A              |                        i32.const: 0x41 (valid) 0x141-0x141.7 (1)
0x140|      00                                       |  .             |                        n: 0 0x142-0x142.7 (1)
     |                                               |                |                      [2]{}: instr 0x143-0x154.7 (18)
0x140|         fd                                    |   .            |                        prefix: 0xfd (valid) 0x143-0x143.7 (1)
0x140|            0c                                 |    .           |                        v128.const: 12 (valid) 0x144-0x144.7 (1)
0x140|               00 00 00 00 00 00 00 00 00 00 00|     ...........|                        bytes: raw bits 0x145-0x154.7 (16)
0x150|00 00 00 00 00                                 |.....           |
     |                                               |                |                      [3]{}: instr 0x155-0x158.7 (4)
0x150|               fd                              |     .          |                        prefix: 0xfd (valid) 0x155-0x155.7 (1)
0x150|                  0b                           |      .         |                        v128.store: 11 (valid) 0x156-0x156.7 (1)
     |                                               |                |                        m{}: 0x157-0x158.7 (2)
0x150|                     04                        |       .        |                          align: 4 0x157-0x157.7 (1)
0x150|                        00                     |        .       |                          offset: 0 0x158-0x158.7 (1)
     |                                               |                |                      [4]{}: instr 0x159-0x15a.7 (2)
0x150|                           0d                  |         .      |                        br_if: 0xd (valid) 0x159-0x159.7 (1)
0x150|                              00               |          .     |                        l: 0 0x15a-0x15a.7 (1)
0x150|                                 0b            |           .    |                    end: 11 (valid) 0x15b-0x15b.7 (1)
     |                                               |                |                  [1]{}: instr 0x15c-0x15c.7 (1)
0x150|                                    0b         |            .   |                    end: 0xb (valid) 0x15c-0x15c.7 (1)
     |                                               |                |          [5]{}: code 0x15d-0x17f.7 (35)
0x150|                                       22      |             "  |            size: 34 0x15d-0x15d.7 (1)
     |                                               |                |            code{}: 0x15e-0x17f.7 (34)
     |                                               |                |              locals{}: 0x15e-0x15e.7 (1)
0x150|                                          00   |              . |                n: 0 0x15e-0x15e.7 (1)
     |                                               |                |                items[0:0]: 0x15f-NA (0)
     |                                               |                |              expr{}: 0x15f-0x17f.7 (33)
     |                                               |                |                instructions[0:2]: 0x15f-0x17f.7 (33)
     |                                               |                |                  [0]{}: instr 0x15f-0x17e.7 (32)
0x150|                                             02|               .|                    block: 0x2 (valid) 0x15f-0x15f.7 (1)
0x160|40                                             |@               |                    empty: 64 0x160-0x160.7 (1)
     |                                               |                |                    instructions[0:5]: 0x161-0x17d.7 (29)
     |                                               |                |                      [0]{}: instr 0x161-0x162.7 (2)
0x160|   41                                          | A              |                        i32.const: 0x41 (valid) 0x161-0x161.7 (1)
0x160|      00                                       |  .             |                        n: 0 0x162-0x162.7 (1)
     |                                               |                |                      [1]{}: instr 0x163-0x174.7 (18)
0x160|         fd                                    |   .            |                        prefix: 0xfd (valid) 0x163-0x163.7 (1)
0x160|            0c                                 |    .           |                        v128.const: 12 (valid) 0x164-0x164.7 (1)
0x160|               00 00 00 00 00 00 00 00 00 00 00|     ...........|                        bytes: raw bits 0x165-0x174.7 (16)
0x170|00 00 00 00 00                                 |.....           |
     |                                               |                |                      [2]{}: instr 0x175-0x178.7 (4)
0x170|               fd                              |     .          |                        prefix: 0xfd (valid) 0x175-0x175.7 (1)
0x170|                  0b                           |      .         |                        v128.store: 11 (valid) 0x176-0x176.7 (1)
     |                                               |                |                        m{}: 0x177-0x178.7 (2)
0x170|                     04                        |       .        |                          align: 4 0x177-0x177.7 (1)
0x170|                        00                     |        .       |                          offset: 0 0x178-0x178.7 (1)
     |                                               |                |                      [3]{}: instr 0x179-0x17a.7 (2)
0x170|                           41                  |         A      |                        i32.const: 0x41 (valid) 0x179-0x179.7 (1)
0x170|                              01               |          .     |                        n: 1 0x17a-0x17a.7 (1)
     |                                               |                |                      [4]{}: instr 0x17b-0x17d.7 (3)
0x170|                                 0e            |           .    |                        br_table: 0xe (valid) 0x17b-0x17b.7 (1)
     |                                               |                |                        table{}: 0x17c-0x17c.7 (1)
0x170|                                    00         |            .   |                          n: 0 0x17c-0x17c.7 (1)
     |                                               |                |                          items[0:0]: 0x17d-NA (0)
0x170|                                       00      |             .  |                        l: 0 0x17d-0x17d.7 (1)
0x170|                                          0b   |              . |                    end: 11 (valid) 0x17e-0x17e.7 (1)
     |                                               |                |                  [1]{}: instr 0x17f-0x17f.7 (1)
0x170|                                             0b|               .|                    end: 0xb (valid) 0x17f-0x17f.7 (1)
     |                                               |                |          [6]{}: code 0x180-0x19b.7 (28)
0x180|1b                                             |.               |            size: 27 0x180-0x180.7 (1)
     |                                               |                |            code{}: 0x181-0x19b.7 (27)
     |                                               |                |              locals{}: 0x181-0x181.7 (1)
0x180|   00                                          | .              |                n: 0 0x181-0x181.7 (1)
     |                                               |                |                items[0:0]: 0x182-NA (0)
     |                                               |                |              expr{}: 0x182-0x19b.7 (26)
     |                                               |                |                instructions[0:5]: 0x182-0x19b.7 (26)
     |                                               |                |                  [0]{}: instr 0x182-0x183.7 (2)
0x180|      41                                       |  A             |                    i32.const: 0x41 (valid) 0x182-0x182.7 (1)
0x180|         00                                    |   .            |                    n: 0 0x183-0x183.7 (1)
     |                                               |                |                  [1]{}: instr 0x184-0x195.7 (18)
0x180|            fd                                 |    .           |                    prefix: 0xfd (valid) 0x184-0x184.7 (1)
0x180|               0c                              |     .          |                    v128.const: 12 (valid) 0x185-0x185.7 (1)
0x180|                  00 00 00 00 00 00 00 00 00 00|      ..........|                    bytes: raw bits 0x186-0x195.7 (16)
0x190|00 00 00 00 00 00                              |......          |
     |                                               |                |                  [2]{}: instr 0x196-0x199.7 (4)
0x190|                  fd                           |      .         |                    prefix: 0xfd (valid) 0x196-0x196.7 (1)
0x190|                     0b                        |       .        |                    v128.store: 11 (valid) 0x197-0x197.7 (1)
     |                                               |                |                    m{}: 0x198-0x199.7 (2)
0x190|                        04                     |        .       |                      align: 4 0x198-0x198.7 (1)
0x190|                           00                  |         .      |                      offset: 0 0x199-0x199.7 (1)
     |                                               |                |                  [3]{}: instr 0x19a-0x19a.7 (1)
0x190|                              0f               |          .     |                    return: 0xf (valid) 0x19a-0x19a.7 (1)
     |                                               |                |                  [4]{}: instr 0x19b-0x19b.7 (1)
0x190|                                 0b            |           .    |                    end: 0xb (valid) 0x19b-0x19b.7 (1)
     |                                               |                |          [7]{}: code 0x19c-0x1bb.7 (32)
0x190|                                    1f         |            .   |            size: 31 0x19c-0x19c.7 (1)
     |                                               |                |            code{}: 0x19d-0x1bb.7 (31)
     |                                               |                |              locals{}: 0x19d-0x19d.7 (1)
0x190|                                       00      |             .  |                n: 0 0x19d-0x19d.7 (1)
     |                                               |                |                items[0:0]: 0x19e-NA (0)
     |                                               |                |              expr{}: 0x19e-0x1bb.7 (30)
     |                                               |                |                instructions[0:3]: 0x19e-0x1bb.7 (30)
     |                                               |                |                  [0]{}: instr 0x19e-0x19f.7 (2)
0x190|                                          41   |              A |                    i32.const: 0x41 (valid) 0x19e-0x19e.7 (1)
0x190|                                             01|               .|                    n: 1 0x19f-0x19f.7 (1)
     |                                               |                |                  [1]{}: instr 0x1a0-0x1ba.7 (27)
0x1a0|04                                             |.               |                    if: 0x4 (valid) 0x1a0-0x1a0.7 (1)
0x1a0|   40                                          | @              |                    empty: 64 0x1a1-0x1a1.7 (1)
     |                                               |                |                    in1[0:3]: 0x1a2-0x1b9.7 (24)
     |                                               |                |                      [0]{}: instr 0x1a2-0x1a3.7 (2)
0x1a0|      41                                       |  A             |                        i32.const: 0x41 (valid) 0x1a2-0x1a2.7 (1)
0x1a0|         00                                    |   .            |                        n: 0 0x1a3-0x1a3.7 (1)
     |                                               |                |                      [1]{}: instr 0x1a4-0x1b5.7 (18)
0x1a0|            fd                                 |    .           |                        prefix: 0xfd (valid) 0x1a4-0x1a4.7 (1)
0x1a0|               0c                              |     .          |                        v128.const: 12 (valid) 0x1a5-0x1a5.7 (1)
0x1a0|                  00 00 00 00 00 00 00 00 00 00|      ..........|                        bytes: raw bits 0x1a6-0x1b5.7 (16)
0x1b0|00 00 00 00 00 00                              |......          |
     |                                               |                |                      [2]{}: instr 0x1b6-0x1b9.7 (4)
0x1b0|                  fd                           |      .         |                        prefix: 0xfd (valid) 0x1b6-0x1b6.7 (1)
0x1b0|                     0b                        |       .        |                        v128.store: 11 (valid) 0x1b7-0x1b7.7 (1)
     |                                               |                |                        m{}: 0x1b8-0x1b9.7 (2)
0x1b0|                        04                     |        .       |                          align: 4 0x1b8-0x1b8.7 (1)
0x1b0|                           00                  |         .      |                          offset: 0 0x1b9-0x1b9.7 (1)
0x1b0|                              0b               |          .     |                    end: 11 (valid) 0x1ba-0x1ba.7 (1)
     |                                               |                |                  [2]{}: instr 0x1bb-0x1bb.7 (1)
0x1b0|                                 0b            |           .    |                    end: 0xb (valid) 0x1bb-0x1bb.7 (1)
     |                                               |                |          [8]{}: code 0x1bc-0x1dc.7 (33)
0x1b0|                                    20         |                |            size: 32 0x1bc-0x1bc.7 (1)
     |                                               |                |            code{}: 0x1bd-0x1dc.7 (32)
     |                                               |                |              locals{}: 0x1bd-0x1bd.7 (1)
0x1b0|                                       00      |             .  |                n: 0 0x1bd-0x1bd.7 (1)
     |                                               |                |                items[0:0]: 0x1be-NA (0)
     |                                               |                |              expr{}: 0x1be-0x1dc.7 (31)
     |                                               |                |                instructions[0:3]: 0x1be-0x1dc.7 (31)
     |                                               |                |                  [0]{}: instr 0x1be-0x1bf.7 (2)
0x1b0|                                          41   |              A |                    i32.const: 0x41 (valid) 0x1be-0x1be.7 (1)
0x1b0|                                             00|               .|                    n: 0 0x1bf-0x1bf.7 (1)
     |                                               |                |                  [1]{}: instr 0x1c0-0x1db.7 (28)
0x1c0|04                                             |.               |                    if: 0x4 (valid) 0x1c0-0x1c0.7 (1)
0x1c0|   40                                          | @              |                    empty: 64 0x1c1-0x1c1.7 (1)
     |                                               |                |                    in1[0:0]: 0x1c2-NA (0)
0x1c0|      05                                       |  .             |                    else: 0x5 (valid) 0x1c2-0x1c2.7 (1)
     |                                               |                |                    in2[0:3]: 0x1c3-0x1da.7 (24)
     |                                               |                |                      [0]{}: instr 0x1c3-0x1c4.7 (2)
0x1c0|         41                                    |   A            |                        i32.const: 0x41 (valid) 0x1c3-0x1c3.7 (1)
0x1c0|            00                                 |    .           |                        n: 0 0x1c4-0x1c4.7 (1)
     |                                               |                |                      [1]{}: instr 0x1c5-0x1d6.7 (18)
0x1c0|               fd                              |     .          |                        prefix: 0xfd (valid) 0x1c5-0x1c5.7 (1)
0x1c0|                  0c                           |      .         |                        v128.const: 12 (valid) 0x1c6-0x1c6.7 (1)
0x1c0|                     00 00 00 00 00 00 00 00 00|       .........|                        bytes: raw bits 0x1c7-0x1d6.7 (16)
0x1d0|00 00 00 00 00 00 00                           |.......         |
     |                                               |                |                      [2]{}: instr 0x1d7-0x1da.7 (4)
0x1d0|                     fd                        |       .        |                        prefix: 0xfd (valid) 0x1d7-0x1d7.7 (1)
0x1d0|                        0b                     |        .       |                        v128.store: 11 (valid) 0x1d8-0x1d8.7 (1)
     |                                               |                |                        m{}: 0x1d9-0x1da.7 (2)
0x1d0|                           04                  |         .      |                          align: 4 0x1d9-0x1d9.7 (1)
0x1d0|                              00               |          .     |                          offset: 0 0x1da-0x1da.7 (1)
0x1d0|                                 0b            |           .    |                    end: 11 (valid) 0x1db-0x1db.7 (1)
     |                                               |                |                  [2]{}: instr 0x1dc-0x1dc.7 (1)
0x1d0|                                    0b|        |            .|  |                    end: 0xb (valid) 0x1dc-0x1dc.7 (1)
