$ fq -d wasm dv simd_f64x2_pmin_pmax-0.wasm
    |00 01 02 03 04 05 06 07 08 09 0a 0b 0c 0d 0e 0f|0123456789abcdef|.{}: simd_f64x2_pmin_pmax-0.wasm (wasm) 0x0-0x49.7 (74)
0x00|00 61 73 6d                                    |.asm            |  magic: raw bits (valid) 0x0-0x3.7 (4)
0x00|            01 00 00 00                        |    ....        |  version: 1 0x4-0x7.7 (4)
    |                                               |                |  sections[0:4]: 0x8-0x49.7 (66)
    |                                               |                |    [0]{}: section 0x8-0x10.7 (9)
0x00|                        01                     |        .       |      id: "type section" (1) 0x8-0x8.7 (1)
0x00|                           07                  |         .      |      size: 7 0x9-0x9.7 (1)
    |                                               |                |      content{}: 0xa-0x10.7 (7)
0x00|                              01               |          .     |        n: 1 0xa-0xa.7 (1)
    |                                               |                |        items[0:1]: 0xb-0x10.7 (6)
    |                                               |                |          [0]{}: functype 0xb-0x10.7 (6)
0x00|                                 60            |           `    |            tag: 0x60 (valid) 0xb-0xb.7 (1)
    |                                               |                |            rt1{}: 0xc-0xe.7 (3)
0x00|                                    02         |            .   |              n: 2 0xc-0xc.7 (1)
    |                                               |                |              items[0:2]: 0xd-0xe.7 (2)
0x00|                                       7b      |             {  |                [0]: "v128" (123) valtype 0xd-0xd.7 (1)
0x00|                                          7b   |              { |                [1]: "v128" (123) valtype 0xe-0xe.7 (1)
    |                                               |                |            rt2{}: 0xf-0x10.7 (2)
0x00|                                             01|               .|              n: 1 0xf-0xf.7 (1)
    |                                               |                |              items[0:1]: 0x10-0x10.7 (1)
0x10|7b                                             |{               |                [0]: "v128" (123) valtype 0x10-0x10.7 (1)
    |                                               |                |    [1]{}: section 0x11-0x15.7 (5)
0x10|   03                                          | .              |      id: "function section" (3) 0x11-0x11.7 (1)
0x10|      03                                       |  .             |      size: 3 0x12-0x12.7 (1)
    |                                               |                |      content{}: 0x13-0x15.7 (3)
0x10|         02                                    |   .            |        n: 2 0x13-0x13.7 (1)
    |                                               |                |        items[0:2]: 0x14-0x15.7 (2)
0x10|            00                                 |    .           |          [0]: 0 x 0x14-0x14.7 (1)
0x10|               00                              |     .          |          [1]: 0 x 0x15-0x15.7 (1)
    |                                               |                |    [2]{}: section 0x16-0x32.7 (29)
0x10|                  07                           |      .         |      id: "export section" (7) 0x16-0x16.7 (1)
0x10|                     1b                        |       .        |      size: 27 0x17-0x17.7 (1)
    |                                               |                |      content{}: 0x18-0x32.7 (27)
0x10|                        02                     |        .       |        n: 2 0x18-0x18.7 (1)
    |                                               |                |        items[0:2]: 0x19-0x32.7 (26)
    |                                               |                |          [0]{}: export 0x19-0x25.7 (13)
    |                                               |                |            name{}: 0x19-0x23.7 (11)
0x10|                           0a                  |         .      |              len: 10 0x19-0x19.7 (1)
0x10|                              66 36 34 78 32 2e|          f64x2.|              utf8bytes: "f64x2.pmin" 0x1a-0x23.7 (10)
0x20|70 6d 69 6e                                    |pmin            |
    |                                               |                |            expr{}: 0x24-0x25.7 (2)
0x20|            00                                 |    .           |              tag: "funcidx" (0x0) 0x24-0x24.7 (1)
0x20|               00                              |     .          |              x: 0 0x25-0x25.7 (1)
    |                                               |                |          [1]{}: export 0x26-0x32.7 (13)
    |                                               |                |            name{}: 0x26-0x30.7 (11)
0x20|                  0a                           |      .         |              len: 10 0x26-0x26.7 (1)
0x20|                     66 36 34 78 32 2e 70 6d 61|       f64x2.pma|              utf8bytes: "f64x2.pmax" 0x27-0x30.7 (10)
0x30|78                                             |x               |
    |                                               |                |            expr{}: 0x31-0x32.7 (2)
0x30|   00                                          | .              |              tag: "funcidx" (0x0) 0x31-0x31.7 (1)
0x30|      01                                       |  .             |              x: 1 0x32-0x32.7 (1)
    |                                               |                |    [3]{}: section 0x33-0x49.7 (23)
0x30|         0a                                    |   .            |      id: "code section" (10) 0x33-0x33.7 (1)
0x30|            15                                 |    .           |      size: 21 0x34-0x34.7 (1)
    |                                               |                |      content{}: 0x35-0x49.7 (21)
0x30|               02                              |     .          |        n: 2 0x35-0x35.7 (1)
    |                                               |                |        items[0:2]: 0x36-0x49.7 (20)
    |                                               |                |          [0]{}: code 0x36-0x3f.7 (10)
0x30|                  09                           |      .         |            size: 9 0x36-0x36.7 (1)
    |                                               |                |            code{}: 0x37-0x3f.7 (9)
    |                                               |                |              locals{}: 0x37-0x37.7 (1)
0x30|                     00                        |       .        |                n: 0 0x37-0x37.7 (1)
    |                                               |                |                items[0:0]: 0x38-NA (0)
    |                                               |                |              expr{}: 0x38-0x3f.7 (8)
    |                                               |                |                instructions[0:4]: 0x38-0x3f.7 (8)
    |                                               |                |                  [0]{}: instr 0x38-0x39.7 (2)
0x30|                        20                     |                |                    local.get: 0x20 (valid) 0x38-0x38.7 (1)
0x30|                           00                  |         .      |                    x: 0 0x39-0x39.7 (1)
    |                                               |                |                  [1]{}: instr 0x3a-0x3b.7 (2)
0x30|                              20               |                |                    local.get: 0x20 (valid) 0x3a-0x3a.7 (1)
0x30|                                 01            |           .    |                    x: 1 0x3b-0x3b.7 (1)
    |                                               |                |                  [2]{}: instr 0x3c-0x3e.7 (3)
0x30|                                    fd         |            .   |                    prefix: 0xfd (valid) 0x3c-0x3c.7 (1)
0x30|                                       f6 01   |             .. |                    f64x2.pmin: 246 (valid) 0x3d-0x3e.7 (2)
    |                                               |                |                  [3]{}: instr 0x3f-0x3f.7 (1)
0x30|                                             0b|               .|                    end: 0xb (valid) 0x3f-0x3f.7 (1)
    |                                               |                |          [1]{}: code 0x40-0x49.7 (10)
0x40|09                                             |.               |            size: 9 0x40-0x40.7 (1)
    |                                               |                |            code{}: 0x41-0x49.7 (9)
    |                                               |                |              locals{}: 0x41-0x41.7 (1)
0x40|   00                                          | .              |                n: 0 0x41-0x41.7 (1)
    |                                               |                |                items[0:0]: 0x42-NA (0)
    |                                               |                |              expr{}: 0x42-0x49.7 (8)
    |                                               |                |                instructions[0:4]: 0x42-0x49.7 (8)
    |                                               |                |                  [0]{}: instr 0x42-0x43.7 (2)
0x40|      20                                       |                |                    local.get: 0x20 (valid) 0x42-0x42.7 (1)
0x40|         00                                    |   .            |                    x: 0 0x43-0x43.7 (1)
    |                                               |                |                  [1]{}: instr 0x44-0x45.7 (2)
0x40|            20                                 |                |                    local.get: 0x20 (valid) 0x44-0x44.7 (1)
0x40|               01                              |     .          |                    x: 1 0x45-0x45.7 (1)
    |                                               |                |                  [2]{}: instr 0x46-0x48.7 (3)
0x40|                  fd                           |      .         |                    prefix: 0xfd (valid) 0x46-0x46.7 (1)
0x40|                     f7 01                     |       ..       |                    f64x2.pmax: 247 (valid) 0x47-0x48.7 (2)
    |                                               |                |                  [3]{}: instr 0x49-0x49.7 (1)
0x40|                           0b|                 |         .|     |                    end: 0xb (valid) 0x49-0x49.7 (1)
