$ fq -d wasm dv simd_address-2.wasm
    |00 01 02 03 04 05 06 07 08 09 0a 0b 0c 0d 0e 0f|0123456789abcdef|.{}: simd_address-2.wasm (wasm) 0x0-0x53.7 (84)
0x00|00 61 73 6d                                    |.asm            |  magic: raw bits (valid) 0x0-0x3.7 (4)
0x00|            01 00 00 00                        |    ....        |  version: 1 0x4-0x7.7 (4)
    |                                               |                |  sections[0:5]: 0x8-0x53.7 (76)
    |                                               |                |    [0]{}: section 0x8-0xd.7 (6)
0x00|                        01                     |        .       |      id: "type section" (1) 0x8-0x8.7 (1)
0x00|                           04                  |         .      |      size: 4 0x9-0x9.7 (1)
    |                                               |                |      content{}: 0xa-0xd.7 (4)
0x00|                              01               |          .     |        n: 1 0xa-0xa.7 (1)
    |                                               |                |        items[0:1]: 0xb-0xd.7 (3)
    |                                               |                |          [0]{}: functype 0xb-0xd.7 (3)
0x00|                                 60            |           `    |            tag: 0x60 (valid) 0xb-0xb.7 (1)
    |                                               |                |            rt1{}: 0xc-0xc.7 (1)
0x00|                                    00         |            .   |              n: 0 0xc-0xc.7 (1)
    |                                               |                |              items[0:0]: 0xd-NA (0)
    |                                               |                |            rt2{}: 0xd-0xd.7 (1)
0x00|                                       00      |             .  |              n: 0 0xd-0xd.7 (1)
    |                                               |                |              items[0:0]: 0xe-NA (0)
    |                                               |                |    [1]{}: section 0xe-0x11.7 (4)
0x00|                                          03   |              . |      id: "function section" (3) 0xe-0xe.7 (1)
0x00|                                             02|               .|      size: 2 0xf-0xf.7 (1)
    |                                               |                |      content{}: 0x10-0x11.7 (2)
0x10|01                                             |.               |        n: 1 0x10-0x10.7 (1)
    |                                               |                |        items[0:1]: 0x11-0x11.7 (1)
0x10|   00                                          | .              |          [0]: 0 x 0x11-0x11.7 (1)
    |                                               |                |    [2]{}: section 0x12-0x16.7 (5)
0x10|      05                                       |  .             |      id: "memory section" (5) 0x12-0x12.7 (1)
0x10|         03                                    |   .            |      size: 3 0x13-0x13.7 (1)
    |                                               |                |      content{}: 0x14-0x16.7 (3)
0x10|            01                                 |    .           |        n: 1 0x14-0x14.7 (1)
    |                                               |                |        items[0:1]: 0x15-0x16.7 (2)
    |                                               |                |          [0]{}: mem 0x15-0x16.7 (2)
    |                                               |                |            limits{}: 0x15-0x16.7 (2)
0x10|               00                              |     .          |              tag: 0x0 0x15-0x15.7 (1)
0x10|                  01                           |      .         |              min: 1 0x16-0x16.7 (1)
    |                                               |                |    [3]{}: section 0x17-0x33.7 (29)
0x10|                     07                        |       .        |      id: "export section" (7) 0x17-0x17.7 (1)
0x10|                        1b                     |        .       |      size: 27 0x18-0x18.7 (1)
    |                                               |                |      content{}: 0x19-0x33.7 (27)
0x10|                           01                  |         .      |        n: 1 0x19-0x19.7 (1)
    |                                               |                |        items[0:1]: 0x1a-0x33.7 (26)
    |                                               |                |          [0]{}: export 0x1a-0x33.7 (26)
    |                                               |                |            name{}: 0x1a-0x31.7 (24)
0x10|                              17               |          .     |              len: 23 0x1a-0x1a.7 (1)
0x10|                                 76 31 32 38 2e|           v128.|              utf8bytes: "v128.store_offset_65521" 0x1b-0x31.7 (23)
0x20|73 74 6f 72 65 5f 6f 66 66 73 65 74 5f 36 35 35|store_offset_655|
0x30|32 31                                          |21              |
    |                                               |                |            expr{}: 0x32-0x33.7 (2)
0x30|      00                                       |  .             |              tag: "funcidx" (0x0) 0x32-0x32.7 (1)
0x30|         00                                    |   .            |              x: 0 0x33-0x33.7 (1)
    |                                               |                |    [4]{}: section 0x34-0x53.7 (32)
0x30|            0a                                 |    .           |      id: "code section" (10) 0x34-0x34.7 (1)
0x30|               1e                              |     .          |      size: 30 0x35-0x35.7 (1)
    |                                               |                |      content{}: 0x36-0x53.7 (30)
0x30|                  01                           |      .         |        n: 1 0x36-0x36.7 (1)
    |                                               |                |        items[0:1]: 0x37-0x53.7 (29)
    |                                               |                |          [0]{}: code 0x37-0x53.7 (29)
0x30|                     1c                        |       .        |            size: 28 0x37-0x37.7 (1)
    |                                               |                |            code{}: 0x38-0x53.7 (28)
    |                                               |                |              locals{}: 0x38-0x38.7 (1)
0x30|                        00                     |        .       |                n: 0 0x38-0x38.7 (1)
    |                                               |                |                items[0:0]: 0x39-NA (0)
    |                                               |                |              expr{}: 0x39-0x53.7 (27)
    |                                               |                |                instructions[0:4]: 0x39-0x53.7 (27)
    |                                               |                |                  [0]{}: instr 0x39-0x3a.7 (2)
0x30|                           41                  |         A      |                    i32.const: 0x41 (valid) 0x39-0x39.7 (1)
0x30|                              00               |          .     |                    n: 0 0x3a-0x3a.7 (1)
    |                                               |                |                  [1]{}: instr 0x3b-0x4c.7 (18)
0x30|                                 fd            |           .    |                    prefix: 0xfd (valid) 0x3b-0x3b.7 (1)
0x30|                                    0c         |            .   |                    v128.const: 12 (valid) 0x3c-0x3c.7 (1)
0x30|                                       00 00 00|             ...|                    bytes: raw bits 0x3d-0x4c.7 (16)
0x40|00 00 00 00 00 00 00 00 00 00 00 00 00         |.............   |
    |                                               |                |                  [2]{}: instr 0x4d-0x52.7 (6)
0x40|                                       fd      |             .  |                    prefix: 0xfd (valid) 0x4d-0x4d.7 (1)
0x40|                                          0b   |              . |                    v128.store: 11 (valid) 0x4e-0x4e.7 (1)
    |                                               |                |                    m{}: 0x4f-0x52.7 (4)
0x40|                                             04|               .|                      align: 4 0x4f-0x4f.7 (1)
0x50|f1 ff 03                                       |...             |                      offset: 65521 0x50-0x52.7 (3)
    |                                               |                |                  [3]{}: instr 0x53-0x53.7 (1)
0x50|         0b|                                   |   .|           |                    end: 0xb (valid) 0x53-0x53.7 (1)
