$ fq -d wasm dv simd_align-44.wasm
    |00 01 02 03 04 05 06 07 08 09 0a 0b 0c 0d 0e 0f|0123456789abcdef|.{}: simd_align-44.wasm (wasm) 0x0-0x64.7 (101)
0x00|00 61 73 6d                                    |.asm            |  magic: raw bits (valid) 0x0-0x3.7 (4)
0x00|            01 00 00 00                        |    ....        |  version: 1 0x4-0x7.7 (4)
    |                                               |                |  sections[0:5]: 0x8-0x64.7 (93)
    |                                               |                |    [0]{}: section 0x8-0x14.7 (13)
0x00|                        01                     |        .       |      id: "type section" (1) 0x8-0x8.7 (1)
0x00|                           0b                  |         .      |      size: 11 0x9-0x9.7 (1)
    |                                               |                |      content{}: 0xa-0x14.7 (11)
0x00|                              02               |          .     |        n: 2 0xa-0xa.7 (1)
    |                                               |                |        items[0:2]: 0xb-0x14.7 (10)
    |                                               |                |          [0]{}: functype 0xb-0xf.7 (5)
0x00|                                 60            |           `    |            tag: 0x60 (valid) 0xb-0xb.7 (1)
    |                                               |                |            rt1{}: 0xc-0xd.7 (2)
0x00|                                    01         |            .   |              n: 1 0xc-0xc.7 (1)
    |                                               |                |              items[0:1]: 0xd-0xd.7 (1)
0x00|                                       7f      |             .  |                [0]: "i32" (127) valtype 0xd-0xd.7 (1)
    |                                               |                |            rt2{}: 0xe-0xf.7 (2)
0x00|                                          01   |              . |              n: 1 0xe-0xe.7 (1)
    |                                               |                |              items[0:1]: 0xf-0xf.7 (1)
0x00|                                             7b|               {|                [0]: "v128" (123) valtype 0xf-0xf.7 (1)
    |                                               |                |          [1]{}: functype 0x10-0x14.7 (5)
0x10|60                                             |`               |            tag: 0x60 (valid) 0x10-0x10.7 (1)
    |                                               |                |            rt1{}: 0x11-0x13.7 (3)
0x10|   02                                          | .              |              n: 2 0x11-0x11.7 (1)
    |                                               |                |              items[0:2]: 0x12-0x13.7 (2)
0x10|      7f                                       |  .             |                [0]: "i32" (127) valtype 0x12-0x12.7 (1)
0x10|         7b                                    |   {            |                [1]: "v128" (123) valtype 0x13-0x13.7 (1)
    |                                               |                |            rt2{}: 0x14-0x14.7 (1)
0x10|            00                                 |    .           |              n: 0 0x14-0x14.7 (1)
    |                                               |                |              items[0:0]: 0x15-NA (0)
    |                                               |                |    [1]{}: section 0x15-0x19.7 (5)
0x10|               03                              |     .          |      id: "function section" (3) 0x15-0x15.7 (1)
0x10|                  03                           |      .         |      size: 3 0x16-0x16.7 (1)
    |                                               |                |      content{}: 0x17-0x19.7 (3)
0x10|                     02                        |       .        |        n: 2 0x17-0x17.7 (1)
    |                                               |                |        items[0:2]: 0x18-0x19.7 (2)
0x10|                        00                     |        .       |          [0]: 0 x 0x18-0x18.7 (1)
0x10|                           01                  |         .      |          [1]: 1 x 0x19-0x19.7 (1)
    |                                               |                |    [2]{}: section 0x1a-0x1f.7 (6)
0x10|                              05               |          .     |      id: "memory section" (5) 0x1a-0x1a.7 (1)
0x10|                                 04            |           .    |      size: 4 0x1b-0x1b.7 (1)
    |                                               |                |      content{}: 0x1c-0x1f.7 (4)
0x10|                                    01         |            .   |        n: 1 0x1c-0x1c.7 (1)
    |                                               |                |        items[0:1]: 0x1d-0x1f.7 (3)
    |                                               |                |          [0]{}: mem 0x1d-0x1f.7 (3)
    |                                               |                |            limits{}: 0x1d-0x1f.7 (3)
0x10|                                       01      |             .  |              tag: 0x1 0x1d-0x1d.7 (1)
0x10|                                          01   |              . |              min: 1 0x1e-0x1e.7 (1)
0x10|                                             01|               .|              max: 1 0x1f-0x1f.7 (1)
    |                                               |                |    [3]{}: section 0x20-0x4d.7 (46)
0x20|07                                             |.               |      id: "export section" (7) 0x20-0x20.7 (1)
0x20|   2c                                          | ,              |      size: 44 0x21-0x21.7 (1)
    |                                               |                |      content{}: 0x22-0x4d.7 (44)
0x20|      02                                       |  .             |        n: 2 0x22-0x22.7 (1)
    |                                               |                |        items[0:2]: 0x23-0x4d.7 (43)
    |                                               |                |          [0]{}: export 0x23-0x37.7 (21)
    |                                               |                |            name{}: 0x23-0x35.7 (19)
0x20|         12                                    |   .            |              len: 18 0x23-0x23.7 (1)
0x20|            76 31 32 38 2e 6c 6f 61 64 20 61 6c|    v128.load al|              utf8bytes: "v128.load align=16" 0x24-0x35.7 (18)
0x30|69 67 6e 3d 31 36                              |ign=16          |
    |                                               |                |            expr{}: 0x36-0x37.7 (2)
0x30|                  00                           |      .         |              tag: "funcidx" (0x0) 0x36-0x36.7 (1)
0x30|                     00                        |       .        |              x: 0 0x37-0x37.7 (1)
    |                                               |                |          [1]{}: export 0x38-0x4d.7 (22)
    |                                               |                |            name{}: 0x38-0x4b.7 (20)
0x30|                        13                     |        .       |              len: 19 0x38-0x38.7 (1)
0x30|                           76 31 32 38 2e 73 74|         v128.st|              utf8bytes: "v128.store align=16" 0x39-0x4b.7 (19)
0x40|6f 72 65 20 61 6c 69 67 6e 3d 31 36            |ore align=16    |
    |                                               |                |            expr{}: 0x4c-0x4d.7 (2)
0x40|                                    00         |            .   |              tag: "funcidx" (0x0) 0x4c-0x4c.7 (1)
0x40|                                       01      |             .  |              x: 1 0x4d-0x4d.7 (1)
    |                                               |                |    [4]{}: section 0x4e-0x64.7 (23)
0x40|                                          0a   |              . |      id: "code section" (10) 0x4e-0x4e.7 (1)
0x40|                                             15|               .|      size: 21 0x4f-0x4f.7 (1)
    |                                               |                |      content{}: 0x50-0x64.7 (21)
0x50|02                                             |.               |        n: 2 0x50-0x50.7 (1)
    |                                               |                |        items[0:2]: 0x51-0x64.7 (20)
    |                                               |                |          [0]{}: code 0x51-0x59.7 (9)
0x50|   08                                          | .              |            size: 8 0x51-0x51.7 (1)
    |                                               |                |            code{}: 0x52-0x59.7 (8)
    |                                               |                |              locals{}: 0x52-0x52.7 (1)
0x50|      00                                       |  .             |                n: 0 0x52-0x52.7 (1)
    |                                               |                |                items[0:0]: 0x53-NA (0)
    |                                               |                |              expr{}: 0x53-0x59.7 (7)
    |                                               |                |                instructions[0:3]: 0x53-0x59.7 (7)
    |                                               |                |                  [0]{}: instr 0x53-0x54.7 (2)
0x50|         20                                    |                |                    local.get: 0x20 (valid) 0x53-0x53.7 (1)
0x50|            00                                 |    .           |                    x: 0 0x54-0x54.7 (1)
    |                                               |                |                  [1]{}: instr 0x55-0x58.7 (4)
0x50|               fd                              |     .          |                    prefix: 0xfd (valid) 0x55-0x55.7 (1)
0x50|                  00                           |      .         |                    v128.load: 0 (valid) 0x56-0x56.7 (1)
    |                                               |                |                    m{}: 0x57-0x58.7 (2)
0x50|                     04                        |       .        |                      align: 4 0x57-0x57.7 (1)
0x50|                        00                     |        .       |                      offset: 0 0x58-0x58.7 (1)
    |                                               |                |                  [2]{}: instr 0x59-0x59.7 (1)
0x50|                           0b                  |         .      |                    end: 0xb (valid) 0x59-0x59.7 (1)
    |                                               |                |          [1]{}: code 0x5a-0x64.7 (11)
0x50|                              0a               |          .     |            size: 10 0x5a-0x5a.7 (1)
    |                                               |                |            code{}: 0x5b-0x64.7 (10)
    |                                               |                |              locals{}: 0x5b-0x5b.7 (1)
0x50|                                 00            |           .    |                n: 0 0x5b-0x5b.7 (1)
    |                                               |                |                items[0:0]: 0x5c-NA (0)
    |                                               |                |              expr{}: 0x5c-0x64.7 (9)
    |                                               |                |                instructions[0:4]: 0x5c-0x64.7 (9)
    |                                               |                |                  [0]{}: instr 0x5c-0x5d.7 (2)
0x50|                                    20         |                |                    local.get: 0x20 (valid) 0x5c-0x5c.7 (1)
0x50|                                       00      |             .  |                    x: 0 0x5d-0x5d.7 (1)
    |                                               |                |                  [1]{}: instr 0x5e-0x5f.7 (2)
0x50|                                          20   |                |                    local.get: 0x20 (valid) 0x5e-0x5e.7 (1)
0x50|                                             01|               .|                    x: 1 0x5f-0x5f.7 (1)
    |                                               |                |                  [2]{}: instr 0x60-0x63.7 (4)
0x60|fd                                             |.               |                    prefix: 0xfd (valid) 0x60-0x60.7 (1)
0x60|   0b                                          | .              |                    v128.store: 11 (valid) 0x61-0x61.7 (1)
    |                                               |                |                    m{}: 0x62-0x63.7 (2)
0x60|      04                                       |  .             |                      align: 4 0x62-0x62.7 (1)
0x60|         00                                    |   .            |                      offset: 0 0x63-0x63.7 (1)
    |                                               |                |                  [3]{}: instr 0x64-0x64.7 (1)
0x60|            0b|                                |    .|          |                    end: 0xb (valid) 0x64-0x64.7 (1)
