$ fq -d wasm dv simd_load8_lane-0.wasm
     |00 01 02 03 04 05 06 07 08 09 0a 0b 0c 0d 0e 0f|0123456789abcdef|.{}: simd_load8_lane-0.wasm (wasm) 0x0-0x795.7 (1942)
0x000|00 61 73 6d                                    |.asm            |  magic: raw bits (valid) 0x0-0x3.7 (4)
0x000|            01 00 00 00                        |    ....        |  version: 1 0x4-0x7.7 (4)
     |                                               |                |  sections[0:6]: 0x8-0x795.7 (1934)
     |                                               |                |    [0]{}: section 0x8-0x15.7 (14)
0x000|                        01                     |        .       |      id: "type section" (1) 0x8-0x8.7 (1)
0x000|                           0c                  |         .      |      size: 12 0x9-0x9.7 (1)
     |                                               |                |      content{}: 0xa-0x15.7 (12)
0x000|                              02               |          .     |        n: 2 0xa-0xa.7 (1)
     |                                               |                |        items[0:2]: 0xb-0x15.7 (11)
     |                                               |                |          [0]{}: functype 0xb-0x10.7 (6)
0x000|                                 60            |           `    |            tag: 0x60 (valid) 0xb-0xb.7 (1)
     |                                               |                |            rt1{}: 0xc-0xe.7 (3)
0x000|                                    02         |            .   |              n: 2 0xc-0xc.7 (1)
     |                                               |                |              items[0:2]: 0xd-0xe.7 (2)
0x000|                                       7f      |             .  |                [0]: "i32" (127) valtype 0xd-0xd.7 (1)
0x000|                                          7b   |              { |                [1]: "v128" (123) valtype 0xe-0xe.7 (1)
     |                                               |                |            rt2{}: 0xf-0x10.7 (2)
0x000|                                             01|               .|              n: 1 0xf-0xf.7 (1)
     |                                               |                |              items[0:1]: 0x10-0x10.7 (1)
0x010|7b                                             |{               |                [0]: "v128" (123) valtype 0x10-0x10.7 (1)
     |                                               |                |          [1]{}: functype 0x11-0x15.7 (5)
0x010|   60                                          | `              |            tag: 0x60 (valid) 0x11-0x11.7 (1)
     |                                               |                |            rt1{}: 0x12-0x13.7 (2)
0x010|      01                                       |  .             |              n: 1 0x12-0x12.7 (1)
     |                                               |                |              items[0:1]: 0x13-0x13.7 (1)
0x010|         7b                                    |   {            |                [0]: "v128" (123) valtype 0x13-0x13.7 (1)
     |                                               |                |            rt2{}: 0x14-0x15.7 (2)
0x010|            01                                 |    .           |              n: 1 0x14-0x14.7 (1)
     |                                               |                |              items[0:1]: 0x15-0x15.7 (1)
0x010|               7b                              |     {          |                [0]: "v128" (123) valtype 0x15-0x15.7 (1)
     |                                               |                |    [1]{}: section 0x16-0x48.7 (51)
0x010|                  03                           |      .         |      id: "function section" (3) 0x16-0x16.7 (1)
0x010|                     31                        |       1        |      size: 49 0x17-0x17.7 (1)
     |                                               |                |      content{}: 0x18-0x48.7 (49)
0x010|                        30                     |        0       |        n: 48 0x18-0x18.7 (1)
     |                                               |                |        items[0:48]: 0x19-0x48.7 (48)
0x010|                           00                  |         .      |          [0]: 0 x 0x19-0x19.7 (1)
0x010|                              00               |          .     |          [1]: 0 x 0x1a-0x1a.7 (1)
0x010|                                 00            |           .    |          [2]: 0 x 0x1b-0x1b.7 (1)
0x010|                                    00         |            .   |          [3]: 0 x 0x1c-0x1c.7 (1)
0x010|                                       00      |             .  |          [4]: 0 x 0x1d-0x1d.7 (1)
0x010|                                          00   |              . |          [5]: 0 x 0x1e-0x1e.7 (1)
0x010|                                             00|               .|          [6]: 0 x 0x1f-0x1f.7 (1)
0x020|00                                             |.               |          [7]: 0 x 0x20-0x20.7 (1)
0x020|   00                                          | .              |          [8]: 0 x 0x21-0x21.7 (1)
0x020|      00                                       |  .             |          [9]: 0 x 0x22-0x22.7 (1)
0x020|         00                                    |   .            |          [10]: 0 x 0x23-0x23.7 (1)
0x020|            00                                 |    .           |          [11]: 0 x 0x24-0x24.7 (1)
0x020|               00                              |     .          |          [12]: 0 x 0x25-0x25.7 (1)
0x020|                  00                           |      .         |          [13]: 0 x 0x26-0x26.7 (1)
0x020|                     00                        |       .        |          [14]: 0 x 0x27-0x27.7 (1)
0x020|                        00                     |        .       |          [15]: 0 x 0x28-0x28.7 (1)
0x020|                           01                  |         .      |          [16]: 1 x 0x29-0x29.7 (1)
0x020|                              01               |          .     |          [17]: 1 x 0x2a-0x2a.7 (1)
0x020|                                 01            |           .    |          [18]: 1 x 0x2b-0x2b.7 (1)
0x020|                                    01         |            .   |          [19]: 1 x 0x2c-0x2c.7 (1)
0x020|                                       01      |             .  |          [20]: 1 x 0x2d-0x2d.7 (1)
0x020|                                          01   |              . |          [21]: 1 x 0x2e-0x2e.7 (1)
0x020|                                             01|               .|          [22]: 1 x 0x2f-0x2f.7 (1)
0x030|01                                             |.               |          [23]: 1 x 0x30-0x30.7 (1)
0x030|   01                                          | .              |          [24]: 1 x 0x31-0x31.7 (1)
0x030|      01                                       |  .             |          [25]: 1 x 0x32-0x32.7 (1)
0x030|         01                                    |   .            |          [26]: 1 x 0x33-0x33.7 (1)
0x030|            01                                 |    .           |          [27]: 1 x 0x34-0x34.7 (1)
0x030|               01                              |     .          |          [28]: 1 x 0x35-0x35.7 (1)
0x030|                  01                           |      .         |          [29]: 1 x 0x36-0x36.7 (1)
0x030|                     01                        |       .        |          [30]: 1 x 0x37-0x37.7 (1)
0x030|                        01                     |        .       |          [31]: 1 x 0x38-0x38.7 (1)
0x030|                           00                  |         .      |          [32]: 0 x 0x39-0x39.7 (1)
0x030|                              00               |          .     |          [33]: 0 x 0x3a-0x3a.7 (1)
0x030|                                 00            |           .    |          [34]: 0 x 0x3b-0x3b.7 (1)
0x030|                                    00         |            .   |          [35]: 0 x 0x3c-0x3c.7 (1)
0x030|                                       00      |             .  |          [36]: 0 x 0x3d-0x3d.7 (1)
0x030|                                          00   |              . |          [37]: 0 x 0x3e-0x3e.7 (1)
0x030|                                             00|               .|          [38]: 0 x 0x3f-0x3f.7 (1)
0x040|00                                             |.               |          [39]: 0 x 0x40-0x40.7 (1)
0x040|   00                                          | .              |          [40]: 0 x 0x41-0x41.7 (1)
0x040|      00                                       |  .             |          [41]: 0 x 0x42-0x42.7 (1)
0x040|         00                                    |   .            |          [42]: 0 x 0x43-0x43.7 (1)
0x040|            00                                 |    .           |          [43]: 0 x 0x44-0x44.7 (1)
0x040|               00                              |     .          |          [44]: 0 x 0x45-0x45.7 (1)
0x040|                  00                           |      .         |          [45]: 0 x 0x46-0x46.7 (1)
0x040|                     00                        |       .        |          [46]: 0 x 0x47-0x47.7 (1)
0x040|                        00                     |        .       |          [47]: 0 x 0x48-0x48.7 (1)
     |                                               |                |    [2]{}: section 0x49-0x4d.7 (5)
0x040|                           05                  |         .      |      id: "memory section" (5) 0x49-0x49.7 (1)
0x040|                              03               |          .     |      size: 3 0x4a-0x4a.7 (1)
     |                                               |                |      content{}: 0x4b-0x4d.7 (3)
0x040|                                 01            |           .    |        n: 1 0x4b-0x4b.7 (1)
     |                                               |                |        items[0:1]: 0x4c-0x4d.7 (2)
     |                                               |                |          [0]{}: mem 0x4c-0x4d.7 (2)
     |                                               |                |            limits{}: 0x4c-0x4d.7 (2)
0x040|                                    00         |            .   |              tag: 0x0 0x4c-0x4c.7 (1)
0x040|                                       01      |             .  |              min: 1 0x4d-0x4d.7 (1)
     |                                               |                |    [3]{}: section 0x4e-0x539.7 (1260)
0x040|                                          07   |              . |      id: "export section" (7) 0x4e-0x4e.7 (1)
0x040|                                             e9|               .|      size: 1257 0x4f-0x50.7 (2)
0x050|09                                             |.               |
     |                                               |                |      content{}: 0x51-0x539.7 (1257)
0x050|   30                                          | 0              |        n: 48 0x51-0x51.7 (1)
     |                                               |                |        items[0:48]: 0x52-0x539.7 (1256)
     |                                               |                |          [0]{}: export 0x52-0x65.7 (20)
     |                                               |                |            name{}: 0x52-0x63.7 (18)
0x050|      11                                       |  .             |              len: 17 0x52-0x52.7 (1)
0x050|         76 31 32 38 2e 6c 6f 61 64 38 5f 6c 61|   v128.load8_la|              utf8bytes: "v128.load8_lane_0" 0x53-0x63.7 (17)
0x060|6e 65 5f 30                                    |ne_0            |
     |                                               |                |            expr{}: 0x64-0x65.7 (2)
0x060|            00                                 |    .           |              tag: "funcidx" (0x0) 0x64-0x64.7 (1)
0x060|               00                              |     .          |              x: 0 0x65-0x65.7 (1)
     |                                               |                |          [1]{}: export 0x66-0x79.7 (20)
     |                                               |                |            name{}: 0x66-0x77.7 (18)
0x060|                  11                           |      .         |              len: 17 0x66-0x66.7 (1)
0x060|                     76 31 32 38 2e 6c 6f 61 64|       v128.load|              utf8bytes: "v128.load8_lane_1" 0x67-0x77.7 (17)
0x070|38 5f 6c 61 6e 65 5f 31                        |8_lane_1        |
     |                                               |                |            expr{}: 0x78-0x79.7 (2)
0x070|                        00                     |        .       |              tag: "funcidx" (0x0) 0x78-0x78.7 (1)
0x070|                           01                  |         .      |              x: 1 0x79-0x79.7 (1)
     |                                               |                |          [2]{}: export 0x7a-0x8d.7 (20)
     |                                               |                |            name{}: 0x7a-0x8b.7 (18)
0x070|                              11               |          .     |              len: 17 0x7a-0x7a.7 (1)
0x070|                                 76 31 32 38 2e|           v128.|              utf8bytes: "v128.load8_lane_2" 0x7b-0x8b.7 (17)
0x080|6c 6f 61 64 38 5f 6c 61 6e 65 5f 32            |load8_lane_2    |
     |                                               |                |            expr{}: 0x8c-0x8d.7 (2)
0x080|                                    00         |            .   |              tag: "funcidx" (0x0) 0x8c-0x8c.7 (1)
0x080|                                       02      |             .  |              x: 2 0x8d-0x8d.7 (1)
     |                                               |                |          [3]{}: export 0x8e-0xa1.7 (20)
     |                                               |                |            name{}: 0x8e-0x9f.7 (18)
0x080|                                          11   |              . |              len: 17 0x8e-0x8e.7 (1)
0x080|                                             76|               v|              utf8bytes: "v128.load8_lane_3" 0x8f-0x9f.7 (17)
0x090|31 32 38 2e 6c 6f 61 64 38 5f 6c 61 6e 65 5f 33|128.load8_lane_3|
     |                                               |                |            expr{}: 0xa0-0xa1.7 (2)
0x0a0|00                                             |.               |              tag: "funcidx" (0x0) 0xa0-0xa0.7 (1)
0x0a0|   03                                          | .              |              x: 3 0xa1-0xa1.7 (1)
     |                                               |                |          [4]{}: export 0xa2-0xb5.7 (20)
     |                                               |                |            name{}: 0xa2-0xb3.7 (18)
0x0a0|      11                                       |  .             |              len: 17 0xa2-0xa2.7 (1)
0x0a0|         76 31 32 38 2e 6c 6f 61 64 38 5f 6c 61|   v128.load8_la|              utf8bytes: "v128.load8_lane_4" 0xa3-0xb3.7 (17)
0x0b0|6e 65 5f 34                                    |ne_4            |
     |                                               |                |            expr{}: 0xb4-0xb5.7 (2)
0x0b0|            00                                 |    .           |              tag: "funcidx" (0x0) 0xb4-0xb4.7 (1)
0x0b0|               04                              |     .          |              x: 4 0xb5-0xb5.7 (1)
     |                                               |                |          [5]{}: export 0xb6-0xc9.7 (20)
     |                                               |                |            name{}: 0xb6-0xc7.7 (18)
0x0b0|                  11                           |      .         |              len: 17 0xb6-0xb6.7 (1)
0x0b0|                     76 31 32 38 2e 6c 6f 61 64|       v128.load|              utf8bytes: "v128.load8_lane_5" 0xb7-0xc7.7 (17)
0x0c0|38 5f 6c 61 6e 65 5f 35                        |8_lane_5        |
     |                                               |                |            expr{}: 0xc8-0xc9.7 (2)
0x0c0|                        00                     |        .       |              tag: "funcidx" (0x0) 0xc8-0xc8.7 (1)
0x0c0|                           05                  |         .      |              x: 5 0xc9-0xc9.7 (1)
     |                                               |                |          [6]{}: export 0xca-0xdd.7 (20)
     |                                               |                |            name{}: 0xca-0xdb.7 (18)
0x0c0|                              11               |          .     |              len: 17 0xca-0xca.7 (1)
0x0c0|                                 76 31 32 38 2e|           v128.|              utf8bytes: "v128.load8_lane_6" 0xcb-0xdb.7 (17)
0x0d0|6c 6f 61 64 38 5f 6c 61 6e 65 5f 36            |load8_lane_6    |
     |                                               |                |            expr{}: 0xdc-0xdd.7 (2)
0x0d0|                                    00         |            .   |              tag: "funcidx" (0x0) 0xdc-0xdc.7 (1)
0x0d0|                                       06      |             .  |              x: 6 0xdd-0xdd.7 (1)
     |                                               |                |          [7]{}: export 0xde-0xf1.7 (20)
     |                                               |                |            name{}: 0xde-0xef.7 (18)
0x0d0|                                          11   |              . |              len: 17 0xde-0xde.7 (1)
0x0d0|                                             76|               v|              utf8bytes: "v128.load8_lane_7" 0xdf-0xef.7 (17)
0x0e0|31 32 38 2e 6c 6f 61 64 38 5f 6c 61 6e 65 5f 37|128.load8_lane_7|
     |                                               |                |            expr{}: 0xf0-0xf1.7 (2)
0x0f0|00                                             |.               |              tag: "funcidx" (0x0) 0xf0-0xf0.7 (1)
0x0f0|   07                                          | .              |              x: 7 0xf1-0xf1.7 (1)
     |                                               |                |          [8]{}: export 0xf2-0x105.7 (20)
     |                                               |                |            name{}: 0xf2-0x103.7 (18)
0x0f0|      11                                       |  .             |              len: 17 0xf2-0xf2.7 (1)
0x0f0|         76 31 32 38 2e 6c 6f 61 64 38 5f 6c 61|   v128.load8_la|              utf8bytes: "v128.load8_lane_8" 0xf3-0x103.7 (17)
0x100|6e 65 5f 38                                    |ne_8            |
     |                                               |                |            expr{}: 0x104-0x105.7 (2)
0x100|            00                                 |    .           |              tag: "funcidx" (0x0) 0x104-0x104.7 (1)
0x100|               08                              |     .          |              x: 8 0x105-0x105.7 (1)
     |                                               |                |          [9]{}: export 0x106-0x119.7 (20)
     |                                               |                |            name{}: 0x106-0x117.7 (18)
0x100|                  11                           |      .         |              len: 17 0x106-0x106.7 (1)
0x100|                     76 31 32 38 2e 6c 6f 61 64|       v128.load|              utf8bytes: "v128.load8_lane_9" 0x107-0x117.7 (17)
0x110|38 5f 6c 61 6e 65 5f 39                        |8_lane_9        |
     |                                               |                |            expr{}: 0x118-0x119.7 (2)
0x110|                        00                     |        .       |              tag: "funcidx" (0x0) 0x118-0x118.7 (1)
0x110|                           09                  |         .      |              x: 9 0x119-0x119.7 (1)
     |                                               |                |          [10]{}: export 0x11a-0x12e.7 (21)
     |                                               |                |            name{}: 0x11a-0x12c.7 (19)
0x110|                              12               |          .     |              len: 18 0x11a-0x11a.7 (1)
0x110|                                 76 31 32 38 2e|           v128.|              utf8bytes: "v128.load8_lane_10" 0x11b-0x12c.7 (18)
0x120|6c 6f 61 64 38 5f 6c 61 6e 65 5f 31 30         |load8_lane_10   |
     |                                               |                |            expr{}: 0x12d-0x12e.7 (2)
0x120|                                       00      |             .  |              tag: "funcidx" (0x0) 0x12d-0x12d.7 (1)
0x120|                                          0a   |              . |              x: 10 0x12e-0x12e.7 (1)
     |                                               |                |          [11]{}: export 0x12f-0x143.7 (21)
     |                                               |                |            name{}: 0x12f-0x141.7 (19)
0x120|                                             12|               .|              len: 18 0x12f-0x12f.7 (1)
0x130|76 31 32 38 2e 6c 6f 61 64 38 5f 6c 61 6e 65 5f|v128.load8_lane_|              utf8bytes: "v128.load8_lane_11" 0x130-0x141.7 (18)
0x140|31 31                                          |11              |
     |                                               |                |            expr{}: 0x142-0x143.7 (2)
0x140|      00                                       |  .             |              tag: "funcidx" (0x0) 0x142-0x142.7 (1)
0x140|         0b                                    |   .            |              x: 11 0x143-0x143.7 (1)
     |                                               |                |          [12]{}: export 0x144-0x158.7 (21)
     |                                               |                |            name{}: 0x144-0x156.7 (19)
0x140|            12                                 |    .           |              len: 18 0x144-0x144.7 (1)
0x140|               76 31 32 38 2e 6c 6f 61 64 38 5f|     v128.load8_|              utf8bytes: "v128.load8_lane_12" 0x145-0x156.7 (18)
0x150|6c 61 6e 65 5f 31 32                           |lane_12         |
     |                                               |                |            expr{}: 0x157-0x158.7 (2)
0x150|                     00                        |       .        |              tag: "funcidx" (0x0) 0x157-0x157.7 (1)
0x150|                        0c                     |        .       |              x: 12 0x158-0x158.7 (1)
     |                                               |                |          [13]{}: export 0x159-0x16d.7 (21)
     |                                               |                |            name{}: 0x159-0x16b.7 (19)
0x150|                           12                  |         .      |              len: 18 0x159-0x159.7 (1)
0x150|                              76 31 32 38 2e 6c|          v128.l|              utf8bytes: "v128.load8_lane_13" 0x15a-0x16b.7 (18)
0x160|6f 61 64 38 5f 6c 61 6e 65 5f 31 33            |oad8_lane_13    |
     |                                               |                |            expr{}: 0x16c-0x16d.7 (2)
0x160|                                    00         |            .   |              tag: "funcidx" (0x0) 0x16c-0x16c.7 (1)
0x160|                                       0d      |             .  |              x: 13 0x16d-0x16d.7 (1)
     |                                               |                |          [14]{}: export 0x16e-0x182.7 (21)
     |                                               |                |            name{}: 0x16e-0x180.7 (19)
0x160|                                          12   |              . |              len: 18 0x16e-0x16e.7 (1)
0x160|                                             76|               v|              utf8bytes: "v128.load8_lane_14" 0x16f-0x180.7 (18)
0x170|31 32 38 2e 6c 6f 61 64 38 5f 6c 61 6e 65 5f 31|128.load8_lane_1|
0x180|34                                             |4               |
     |                                               |                |            expr{}: 0x181-0x182.7 (2)
0x180|   00                                          | .              |              tag: "funcidx" (0x0) 0x181-0x181.7 (1)
0x180|      0e                                       |  .             |              x: 14 0x182-0x182.7 (1)
     |                                               |                |          [15]{}: export 0x183-0x197.7 (21)
     |                                               |                |            name{}: 0x183-0x195.7 (19)
0x180|         12                                    |   .            |              len: 18 0x183-0x183.7 (1)
0x180|            76 31 32 38 2e 6c 6f 61 64 38 5f 6c|    v128.load8_l|              utf8bytes: "v128.load8_lane_15" 0x184-0x195.7 (18)
0x190|61 6e 65 5f 31 35                              |ane_15          |
     |                                               |                |            expr{}: 0x196-0x197.7 (2)
0x190|                  00                           |      .         |              tag: "funcidx" (0x0) 0x196-0x196.7 (1)
0x190|                     0f                        |       .        |              x: 15 0x197-0x197.7 (1)
     |                                               |                |          [16]{}: export 0x198-0x1b4.7 (29)
     |                                               |                |            name{}: 0x198-0x1b2.7 (27)
0x190|                        1a                     |        .       |              len: 26 0x198-0x198.7 (1)
0x190|                           76 31 32 38 2e 6c 6f|         v128.lo|              utf8bytes: "v128.load8_lane_0_offset_0" 0x199-0x1b2.7 (26)
0x1a0|61 64 38 5f 6c 61 6e 65 5f 30 5f 6f 66 66 73 65|ad8_lane_0_offse|
0x1b0|74 5f 30                                       |t_0             |
     |                                               |                |            expr{}: 0x1b3-0x1b4.7 (2)
0x1b0|         00                                    |   .            |              tag: "funcidx" (0x0) 0x1b3-0x1b3.7 (1)
0x1b0|            10                                 |    .           |              x: 16 0x1b4-0x1b4.7 (1)
     |                                               |                |          [17]{}: export 0x1b5-0x1d1.7 (29)
     |                                               |                |            name{}: 0x1b5-0x1cf.7 (27)
0x1b0|               1a                              |     .          |              len: 26 0x1b5-0x1b5.7 (1)
0x1b0|                  76 31 32 38 2e 6c 6f 61 64 38|      v128.load8|              utf8bytes: "v128.load8_lane_1_offset_1" 0x1b6-0x1cf.7 (26)
0x1c0|5f 6c 61 6e 65 5f 31 5f 6f 66 66 73 65 74 5f 31|_lane_1_offset_1|
     |                                               |                |            expr{}: 0x1d0-0x1d1.7 (2)
0x1d0|00                                             |.               |              tag: "funcidx" (0x0) 0x1d0-0x1d0.7 (1)
0x1d0|   11                                          | .              |              x: 17 0x1d1-0x1d1.7 (1)
     |                                               |                |          [18]{}: export 0x1d2-0x1ee.7 (29)
     |                                               |                |            name{}: 0x1d2-0x1ec.7 (27)
0x1d0|      1a                                       |  .             |              len: 26 0x1d2-0x1d2.7 (1)
0x1d0|         76 31 32 38 2e 6c 6f 61 64 38 5f 6c 61|   v128.load8_la|              utf8bytes: "v128.load8_lane_2_offset_2" 0x1d3-0x1ec.7 (26)
0x1e0|6e 65 5f 32 5f 6f 66 66 73 65 74 5f 32         |ne_2_offset_2   |
     |                                               |                |            expr{}: 0x1ed-0x1ee.7 (2)
0x1e0|                                       00      |             .  |              tag: "funcidx" (0x0) 0x1ed-0x1ed.7 (1)
0x1e0|                                          12   |              . |              x: 18 0x1ee-0x1ee.7 (1)
     |                                               |                |          [19]{}: export 0x1ef-0x20b.7 (29)
     |                                               |                |            name{}: 0x1ef-0x209.7 (27)
0x1e0|                                             1a|               .|              len: 26 0x1ef-0x1ef.7 (1)
0x1f0|76 31 32 38 2e 6c 6f 61 64 38 5f 6c 61 6e 65 5f|v128.load8_lane_|              utf8bytes: "v128.load8_lane_3_offset_3" 0x1f0-0x209.7 (26)
0x200|33 5f 6f 66 66 73 65 74 5f 33                  |3_offset_3      |
     |                                               |                |            expr{}: 0x20a-0x20b.7 (2)
0x200|                              00               |          .     |              tag: "funcidx" (0x0) 0x20a-0x20a.7 (1)
0x200|                                 13            |           .    |              x: 19 0x20b-0x20b.7 (1)
     |                                               |                |          [20]{}: export 0x20c-0x228.7 (29)
     |                                               |                |            name{}: 0x20c-0x226.7 (27)
0x200|                                    1a         |            .   |              len: 26 0x20c-0x20c.7 (1)
0x200|                                       76 31 32|             v12|              utf8bytes: "v128.load8_lane_4_offset_4" 0x20d-0x226.7 (26)
0x210|38 2e 6c 6f 61 64 38 5f 6c 61 6e 65 5f 34 5f 6f|8.load8_lane_4_o|
0x220|66 66 73 65 74 5f 34                           |ffset_4         |
     |                                               |                |            expr{}: 0x227-0x228.7 (2)
0x220|                     00                        |       .        |              tag: "funcidx" (0x0) 0x227-0x227.7 (1)
0x220|                        14                     |        .       |              x: 20 0x228-0x228.7 (1)
     |                                               |                |          [21]{}: export 0x229-0x245.7 (29)
     |                                               |                |            name{}: 0x229-0x243.7 (27)
0x220|                           1a                  |         .      |              len: 26 0x229-0x229.7 (1)
0x220|                              76 31 32 38 2e 6c|          v128.l|              utf8bytes: "v128.load8_lane_5_offset_5" 0x22a-0x243.7 (26)
0x230|6f 61 64 38 5f 6c 61 6e 65 5f 35 5f 6f 66 66 73|oad8_lane_5_offs|
0x240|65 74 5f 35                                    |et_5            |
     |                                               |                |            expr{}: 0x244-0x245.7 (2)
0x240|            00                                 |    .           |              tag: "funcidx" (0x0) 0x244-0x244.7 (1)
0x240|               15                              |     .          |              x: 21 0x245-0x245.7 (1)
     |                                               |                |          [22]{}: export 0x246-0x262.7 (29)
     |                                               |                |            name{}: 0x246-0x260.7 (27)
0x240|                  1a                           |      .         |              len: 26 0x246-0x246.7 (1)
0x240|                     76 31 32 38 2e 6c 6f 61 64|       v128.load|              utf8bytes: "v128.load8_lane_6_offset_6" 0x247-0x260.7 (26)
0x250|38 5f 6c 61 6e 65 5f 36 5f 6f 66 66 73 65 74 5f|8_lane_6_offset_|
0x260|36                                             |6               |
     |                                               |                |            expr{}: 0x261-0x262.7 (2)
0x260|   00                                          | .              |              tag: "funcidx" (0x0) 0x261-0x261.7 (1)
0x260|      16                                       |  .             |              x: 22 0x262-0x262.7 (1)
     |                                               |                |          [23]{}: export 0x263-0x27f.7 (29)
     |                                               |                |            name{}: 0x263-0x27d.7 (27)
0x260|         1a                                    |   .            |              len: 26 0x263-0x263.7 (1)
0x260|            76 31 32 38 2e 6c 6f 61 64 38 5f 6c|    v128.load8_l|              utf8bytes: "v128.load8_lane_7_offset_7" 0x264-0x27d.7 (26)
0x270|61 6e 65 5f 37 5f 6f 66 66 73 65 74 5f 37      |ane_7_offset_7  |
     |                                               |                |            expr{}: 0x27e-0x27f.7 (2)
0x270|                                          00   |              . |              tag: "funcidx" (0x0) 0x27e-0x27e.7 (1)
0x270|                                             17|               .|              x: 23 0x27f-0x27f.7 (1)
     |                                               |                |          [24]{}: export 0x280-0x29c.7 (29)
     |                                               |                |            name{}: 0x280-0x29a.7 (27)
0x280|1a                                             |.               |              len: 26 0x280-0x280.7 (1)
0x280|   76 31 32 38 2e 6c 6f 61 64 38 5f 6c 61 6e 65| v128.load8_lane|              utf8bytes: "v128.load8_lane_8_offset_8" 0x281-0x29a.7 (26)
0x290|5f 38 5f 6f 66 66 73 65 74 5f 38               |_8_offset_8     |
     |                                               |                |            expr{}: 0x29b-0x29c.7 (2)
0x290|                                 00            |           .    |              tag: "funcidx" (0x0) 0x29b-0x29b.7 (1)
0x290|                                    18         |            .   |              x: 24 0x29c-0x29c.7 (1)
     |                                               |                |          [25]{}: export 0x29d-0x2b9.7 (29)
     |                                               |                |            name{}: 0x29d-0x2b7.7 (27)
0x290|                                       1a      |             .  |              len: 26 0x29d-0x29d.7 (1)
0x290|                                          76 31|              v1|              utf8bytes: "v128.load8_lane_9_offset_9" 0x29e-0x2b7.7 (26)
0x2a0|32 38 2e 6c 6f 61 64 38 5f 6c 61 6e 65 5f 39 5f|28.load8_lane_9_|
0x2b0|6f 66 66 73 65 74 5f 39                        |offset_9        |
     |                                               |                |            expr{}: 0x2b8-0x2b9.7 (2)
0x2b0|                        00                     |        .       |              tag: "funcidx" (0x0) 0x2b8-0x2b8.7 (1)
0x2b0|                           19                  |         .      |              x: 25 0x2b9-0x2b9.7 (1)
     |                                               |                |          [26]{}: export 0x2ba-0x2d8.7 (31)
     |                                               |                |            name{}: 0x2ba-0x2d6.7 (29)
0x2b0|                              1c               |          .     |              len: 28 0x2ba-0x2ba.7 (1)
0x2b0|                                 76 31 32 38 2e|           v128.|              utf8bytes: "v128.load8_lane_10_offset_10" 0x2bb-0x2d6.7 (28)
0x2c0|6c 6f 61 64 38 5f 6c 61 6e 65 5f 31 30 5f 6f 66|load8_lane_10_of|
0x2d0|66 73 65 74 5f 31 30                           |fset_10         |
     |                                               |                |            expr{}: 0x2d7-0x2d8.7 (2)
0x2d0|                     00                        |       .        |              tag: "funcidx" (0x0) 0x2d7-0x2d7.7 (1)
0x2d0|                        1a                     |        .       |              x: 26 0x2d8-0x2d8.7 (1)
     |                                               |                |          [27]{}: export 0x2d9-0x2f7.7 (31)
     |                                               |                |            name{}: 0x2d9-0x2f5.7 (29)
0x2d0|                           1c                  |         .      |              len: 28 0x2d9-0x2d9.7 (1)
0x2d0|                              76 31 32 38 2e 6c|          v128.l|              utf8bytes: "v128.load8_lane_11_offset_11" 0x2da-0x2f5.7 (28)
0x2e0|6f 61 64 38 5f 6c 61 6e 65 5f 31 31 5f 6f 66 66|oad8_lane_11_off|
0x2f0|73 65 74 5f 31 31                              |set_11          |
     |                                               |                |            expr{}: 0x2f6-0x2f7.7 (2)
0x2f0|                  00                           |      .         |              tag: "funcidx" (0x0) 0x2f6-0x2f6.7 (1)
0x2f0|                     1b                        |       .        |              x: 27 0x2f7-0x2f7.7 (1)
     |                                               |                |          [28]{}: export 0x2f8-0x316.7 (31)
     |                                               |                |            name{}: 0x2f8-0x314.7 (29)
0x2f0|                        1c                     |        .       |              len: 28 0x2f8-0x2f8.7 (1)
0x2f0|                           76 31 32 38 2e 6c 6f|         v128.lo|              utf8bytes: "v128.load8_lane_12_offset_12" 0x2f9-0x314.7 (28)
0x300|61 64 38 5f 6c 61 6e 65 5f 31 32 5f 6f 66 66 73|ad8_lane_12_offs|
0x310|65 74 5f 31 32                                 |et_12           |
     |                                               |                |            expr{}: 0x315-0x316.7 (2)
0x310|               00                              |     .          |              tag: "funcidx" (0x0) 0x315-0x315.7 (1)
0x310|                  1c                           |      .         |              x: 28 0x316-0x316.7 (1)
     |                                               |                |          [29]{}: export 0x317-0x335.7 (31)
     |                                               |                |            name{}: 0x317-0x333.7 (29)
0x310|                     1c                        |       .        |              len: 28 0x317-0x317.7 (1)
0x310|                        76 31 32 38 2e 6c 6f 61|        v128.loa|              utf8bytes: "v128.load8_lane_13_offset_13" 0x318-0x333.7 (28)
0x320|64 38 5f 6c 61 6e 65 5f 31 33 5f 6f 66 66 73 65|d8_lane_13_offse|
0x330|74 5f 31 33                                    |t_13            |
     |                                               |                |            expr{}: 0x334-0x335.7 (2)
0x330|            00                                 |    .           |              tag: "funcidx" (0x0) 0x334-0x334.7 (1)
0x330|               1d                              |     .          |              x: 29 0x335-0x335.7 (1)
     |                                               |                |          [30]{}: export 0x336-0x354.7 (31)
     |                                               |                |            name{}: 0x336-0x352.7 (29)
0x330|                  1c                           |      .         |              len: 28 0x336-0x336.7 (1)
0x330|                     76 31 32 38 2e 6c 6f 61 64|       v128.load|              utf8bytes: "v128.load8_lane_14_offset_14" 0x337-0x352.7 (28)
0x340|38 5f 6c 61 6e 65 5f 31 34 5f 6f 66 66 73 65 74|8_lane_14_offset|
0x350|5f 31 34                                       |_14             |
     |                                               |                |            expr{}: 0x353-0x354.7 (2)
0x350|         00                                    |   .            |              tag: "funcidx" (0x0) 0x353-0x353.7 (1)
0x350|            1e                                 |    .           |              x: 30 0x354-0x354.7 (1)
     |                                               |                |          [31]{}: export 0x355-0x373.7 (31)
     |                                               |                |            name{}: 0x355-0x371.7 (29)
0x350|               1c                              |     .          |              len: 28 0x355-0x355.7 (1)
0x350|                  76 31 32 38 2e 6c 6f 61 64 38|      v128.load8|              utf8bytes: "v128.load8_lane_15_offset_15" 0x356-0x371.7 (28)
0x360|5f 6c 61 6e 65 5f 31 35 5f 6f 66 66 73 65 74 5f|_lane_15_offset_|
0x370|31 35                                          |15              |
     |                                               |                |            expr{}: 0x372-0x373.7 (2)
0x370|      00                                       |  .             |              tag: "funcidx" (0x0) 0x372-0x372.7 (1)
0x370|         1f                                    |   .            |              x: 31 0x373-0x373.7 (1)
     |                                               |                |          [32]{}: export 0x374-0x38f.7 (28)
     |                                               |                |            name{}: 0x374-0x38d.7 (26)
0x370|            19                                 |    .           |              len: 25 0x374-0x374.7 (1)
0x370|               76 31 32 38 2e 6c 6f 61 64 38 5f|     v128.load8_|              utf8bytes: "v128.load8_lane_0_align_1" 0x375-0x38d.7 (25)
0x380|6c 61 6e 65 5f 30 5f 61 6c 69 67 6e 5f 31      |lane_0_align_1  |
     |                                               |                |            expr{}: 0x38e-0x38f.7 (2)
0x380|                                          00   |              . |              tag: "funcidx" (0x0) 0x38e-0x38e.7 (1)
0x380|                                             20|                |              x: 32 0x38f-0x38f.7 (1)
     |                                               |                |          [33]{}: export 0x390-0x3ab.7 (28)
     |                                               |                |            name{}: 0x390-0x3a9.7 (26)
0x390|19                                             |.               |              len: 25 0x390-0x390.7 (1)
0x390|   76 31 32 38 2e 6c 6f 61 64 38 5f 6c 61 6e 65| v128.load8_lane|              utf8bytes: "v128.load8_lane_1_align_1" 0x391-0x3a9.7 (25)
0x3a0|5f 31 5f 61 6c 69 67 6e 5f 31                  |_1_align_1      |
     |                                               |                |            expr{}: 0x3aa-0x3ab.7 (2)
0x3a0|                              00               |          .     |              tag: "funcidx" (0x0) 0x3aa-0x3aa.7 (1)
0x3a0|                                 21            |           !    |              x: 33 0x3ab-0x3ab.7 (1)
     |                                               |                |          [34]{}: export 0x3ac-0x3c7.7 (28)
     |                                               |                |            name{}: 0x3ac-0x3c5.7 (26)
0x3a0|                                    19         |            .   |              len: 25 0x3ac-0x3ac.7 (1)
0x3a0|                                       76 31 32|             v12|              utf8bytes: "v128.load8_lane_2_align_1" 0x3ad-0x3c5.7 (25)
0x3b0|38 2e 6c 6f 61 64 38 5f 6c 61 6e 65 5f 32 5f 61|8.load8_lane_2_a|
0x3c0|6c 69 67 6e 5f 31                              |lign_1          |
     |                                               |                |            expr{}: 0x3c6-0x3c7.7 (2)
0x3c0|                  00                           |      .         |              tag: "funcidx" (0x0) 0x3c6-0x3c6.7 (1)
0x3c0|                     22                        |       "        |              x: 34 0x3c7-0x3c7.7 (1)
     |                                               |                |          [35]{}: export 0x3c8-0x3e3.7 (28)
     |                                               |                |            name{}: 0x3c8-0x3e1.7 (26)
0x3c0|                        19                     |        .       |              len: 25 0x3c8-0x3c8.7 (1)
0x3c0|                           76 31 32 38 2e 6c 6f|         v128.lo|              utf8bytes: "v128.load8_lane_3_align_1" 0x3c9-0x3e1.7 (25)
0x3d0|61 64 38 5f 6c 61 6e 65 5f 33 5f 61 6c 69 67 6e|ad8_lane_3_align|
0x3e0|5f 31                                          |_1              |
     |                                               |                |            expr{}: 0x3e2-0x3e3.7 (2)
0x3e0|      00                                       |  .             |              tag: "funcidx" (0x0) 0x3e2-0x3e2.7 (1)
0x3e0|         23                                    |   #            |              x: 35 0x3e3-0x3e3.7 (1)
     |                                               |                |          [36]{}: export 0x3e4-0x3ff.7 (28)
     |                                               |                |            name{}: 0x3e4-0x3fd.7 (26)
0x3e0|            19                                 |    .           |              len: 25 0x3e4-0x3e4.7 (1)
0x3e0|               76 31 32 38 2e 6c 6f 61 64 38 5f|     v128.load8_|              utf8bytes: "v128.load8_lane_4_align_1" 0x3e5-0x3fd.7 (25)
0x3f0|6c 61 6e 65 5f 34 5f 61 6c 69 67 6e 5f 31      |lane_4_align_1  |
     |                                               |                |            expr{}: 0x3fe-0x3ff.7 (2)
0x3f0|                                          00   |              . |              tag: "funcidx" (0x0) 0x3fe-0x3fe.7 (1)
0x3f0|                                             24|               $|              x: 36 0x3ff-0x3ff.7 (1)
     |                                               |                |          [37]{}: export 0x400-0x41b.7 (28)
     |                                               |                |            name{}: 0x400-0x419.7 (26)
0x400|19                                             |.               |              len: 25 0x400-0x400.7 (1)
0x400|   76 31 32 38 2e 6c 6f 61 64 38 5f 6c 61 6e 65| v128.load8_lane|              utf8bytes: "v128.load8_lane_5_align_1" 0x401-0x419.7 (25)
0x410|5f 35 5f 61 6c 69 67 6e 5f 31                  |_5_align_1      |
     |                                               |                |            expr{}: 0x41a-0x41b.7 (2)
0x410|                              00               |          .     |              tag: "funcidx" (0x0) 0x41a-0x41a.7 (1)
0x410|                                 25            |           %    |              x: 37 0x41b-0x41b.7 (1)
     |                                               |                |          [38]{}: export 0x41c-0x437.7 (28)
     |                                               |                |            name{}: 0x41c-0x435.7 (26)
0x410|                                    19         |            .   |              len: 25 0x41c-0x41c.7 (1)
0x410|                                       76 31 32|             v12|              utf8bytes: "v128.load8_lane_6_align_1" 0x41d-0x435.7 (25)
0x420|38 2e 6c 6f 61 64 38 5f 6c 61 6e 65 5f 36 5f 61|8.load8_lane_6_a|
0x430|6c 69 67 6e 5f 31                              |lign_1          |
     |                                               |                |            expr{}: 0x436-0x437.7 (2)
0x430|                  00                           |      .         |              tag: "funcidx" (0x0) 0x436-0x436.7 (1)
0x430|                     26                        |       &        |              x: 38 0x437-0x437.7 (1)
     |                                               |                |          [39]{}: export 0x438-0x453.7 (28)
     |                                               |                |            name{}: 0x438-0x451.7 (26)
0x430|                        19                     |        .       |              len: 25 0x438-0x438.7 (1)
0x430|                           76 31 32 38 2e 6c 6f|         v128.lo|              utf8bytes: "v128.load8_lane_7_align_1" 0x439-0x451.7 (25)
0x440|61 64 38 5f 6c 61 6e 65 5f 37 5f 61 6c 69 67 6e|ad8_lane_7_align|
0x450|5f 31                                          |_1              |
     |                                               |                |            expr{}: 0x452-0x453.7 (2)
0x450|      00                                       |  .             |              tag: "funcidx" (0x0) 0x452-0x452.7 (1)
0x450|         27                                    |   '            |              x: 39 0x453-0x453.7 (1)
     |                                               |                |          [40]{}: export 0x454-0x46f.7 (28)
     |                                               |                |            name{}: 0x454-0x46d.7 (26)
0x450|            19                                 |    .           |              len: 25 0x454-0x454.7 (1)
0x450|               76 31 32 38 2e 6c 6f 61 64 38 5f|     v128.load8_|              utf8bytes: "v128.load8_lane_8_align_1" 0x455-0x46d.7 (25)
0x460|6c 61 6e 65 5f 38 5f 61 6c 69 67 6e 5f 31      |lane_8_align_1  |
     |                                               |                |            expr{}: 0x46e-0x46f.7 (2)
0x460|                                          00   |              . |              tag: "funcidx" (0x0) 0x46e-0x46e.7 (1)
0x460|                                             28|               (|              x: 40 0x46f-0x46f.7 (1)
     |                                               |                |          [41]{}: export 0x470-0x48b.7 (28)
     |                                               |                |            name{}: 0x470-0x489.7 (26)
0x470|19                                             |.               |              len: 25 0x470-0x470.7 (1)
0x470|   76 31 32 38 2e 6c 6f 61 64 38 5f 6c 61 6e 65| v128.load8_lane|              utf8bytes: "v128.load8_lane_9_align_1" 0x471-0x489.7 (25)
0x480|5f 39 5f 61 6c 69 67 6e 5f 31                  |_9_align_1      |
     |                                               |                |            expr{}: 0x48a-0x48b.7 (2)
0x480|                              00               |          .     |              tag: "funcidx" (0x0) 0x48a-0x48a.7 (1)
0x480|                                 29            |           )    |              x: 41 0x48b-0x48b.7 (1)
     |                                               |                |          [42]{}: export 0x48c-0x4a8.7 (29)
     |                                               |                |            name{}: 0x48c-0x4a6.7 (27)
0x480|                                    1a         |            .   |              len: 26 0x48c-0x48c.7 (1)
0x480|                                       76 31 32|             v12|              utf8bytes: "v128.load8_lane_10_align_1" 0x48d-0x4a6.7 (26)
0x490|38 2e 6c 6f 61 64 38 5f 6c 61 6e 65 5f 31 30 5f|8.load8_lane_10_|
0x4a0|61 6c 69 67 6e 5f 31                           |align_1         |
     |                                               |                |            expr{}: 0x4a7-0x4a8.7 (2)
0x4a0|                     00                        |       .        |              tag: "funcidx" (0x0) 0x4a7-0x4a7.7 (1)
0x4a0|                        2a                     |        *       |              x: 42 0x4a8-0x4a8.7 (1)
     |                                               |                |          [43]{}: export 0x4a9-0x4c5.7 (29)
     |                                               |                |            name{}: 0x4a9-0x4c3.7 (27)
0x4a0|                           1a                  |         .      |              len: 26 0x4a9-0x4a9.7 (1)
0x4a0|                              76 31 32 38 2e 6c|          v128.l|              utf8bytes: "v128.load8_lane_11_align_1" 0x4aa-0x4c3.7 (26)
0x4b0|6f 61 64 38 5f 6c 61 6e 65 5f 31 31 5f 61 6c 69|oad8_lane_11_ali|
0x4c0|67 6e 5f 31                                    |gn_1            |
     |                                               |                |            expr{}: 0x4c4-0x4c5.7 (2)
0x4c0|            00                                 |    .           |              tag: "funcidx" (0x0) 0x4c4-0x4c4.7 (1)
0x4c0|               2b                              |     +          |              x: 43 0x4c5-0x4c5.7 (1)
     |                                               |                |          [44]{}: export 0x4c6-0x4e2.7 (29)
     |                                               |                |            name{}: 0x4c6-0x4e0.7 (27)
0x4c0|                  1a                           |      .         |              len: 26 0x4c6-0x4c6.7 (1)
0x4c0|                     76 31 32 38 2e 6c 6f 61 64|       v128.load|              utf8bytes: "v128.load8_lane_12_align_1" 0x4c7-0x4e0.7 (26)
0x4d0|38 5f 6c 61 6e 65 5f 31 32 5f 61 6c 69 67 6e 5f|8_lane_12_align_|
0x4e0|31                                             |1               |
     |                                               |                |            expr{}: 0x4e1-0x4e2.7 (2)
0x4e0|   00                                          | .              |              tag: "funcidx" (0x0) 0x4e1-0x4e1.7 (1)
0x4e0|      2c                                       |  ,             |              x: 44 0x4e2-0x4e2.7 (1)
     |                                               |                |          [45]{}: export 0x4e3-0x4ff.7 (29)
     |                                               |                |            name{}: 0x4e3-0x4fd.7 (27)
0x4e0|         1a                                    |   .            |              len: 26 0x4e3-0x4e3.7 (1)
0x4e0|            76 31 32 38 2e 6c 6f 61 64 38 5f 6c|    v128.load8_l|              utf8bytes: "v128.load8_lane_13_align_1" 0x4e4-0x4fd.7 (26)
0x4f0|61 6e 65 5f 31 33 5f 61 6c 69 67 6e 5f 31      |ane_13_align_1  |
     |                                               |                |            expr{}: 0x4fe-0x4ff.7 (2)
0x4f0|                                          00   |              . |              tag: "funcidx" (0x0) 0x4fe-0x4fe.7 (1)
0x4f0|                                             2d|               -|              x: 45 0x4ff-0x4ff.7 (1)
     |                                               |                |          [46]{}: export 0x500-0x51c.7 (29)
     |                                               |                |            name{}: 0x500-0x51a.7 (27)
0x500|1a                                             |.               |              len: 26 0x500-0x500.7 (1)
0x500|   76 31 32 38 2e 6c 6f 61 64 38 5f 6c 61 6e 65| v128.load8_lane|              utf8bytes: "v128.load8_lane_14_align_1" 0x501-0x51a.7 (26)
0x510|5f 31 34 5f 61 6c 69 67 6e 5f 31               |_14_align_1     |
     |                                               |                |            expr{}: 0x51b-0x51c.7 (2)
0x510|                                 00            |           .    |              tag: "funcidx" (0x0) 0x51b-0x51b.7 (1)
0x510|                                    2e         |            .   |              x: 46 0x51c-0x51c.7 (1)
     |                                               |                |          [47]{}: export 0x51d-0x539.7 (29)
     |                                               |                |            name{}: 0x51d-0x537.7 (27)
0x510|                                       1a      |             .  |              len: 26 0x51d-0x51d.7 (1)
0x510|                                          76 31|              v1|              utf8bytes: "v128.load8_lane_15_align_1" 0x51e-0x537.7 (26)
0x520|32 38 2e 6c 6f 61 64 38 5f 6c 61 6e 65 5f 31 35|28.load8_lane_15|
0x530|5f 61 6c 69 67 6e 5f 31                        |_align_1        |
     |                                               |                |            expr{}: 0x538-0x539.7 (2)
0x530|                        00                     |        .       |              tag: "funcidx" (0x0) 0x538-0x538.7 (1)
0x530|                           2f                  |         /      |              x: 47 0x539-0x539.7 (1)
     |                                               |                |    [4]{}: section 0x53a-0x77d.7 (580)
0x530|                              0a               |          .     |      id: "code section" (10) 0x53a-0x53a.7 (1)
0x530|                                 c1 04         |           ..   |      size: 577 0x53b-0x53c.7 (2)
     |                                               |                |      content{}: 0x53d-0x77d.7 (577)
0x530|                                       30      |             0  |        n: 48 0x53d-0x53d.7 (1)
     |                                               |                |        items[0:48]: 0x53e-0x77d.7 (576)
     |                                               |                |          [0]{}: code 0x53e-0x549.7 (12)
0x530|                                          0b   |              . |            size: 11 0x53e-0x53e.7 (1)
     |                                               |                |            code{}: 0x53f-0x549.7 (11)
     |                                               |                |              locals{}: 0x53f-0x53f.7 (1)
0x530|                                             00|               .|                n: 0 0x53f-0x53f.7 (1)
     |                                               |                |                items[0:0]: 0x540-NA (0)
     |                                               |                |              expr{}: 0x540-0x549.7 (10)
     |                                               |                |                instructions[0:4]: 0x540-0x549.7 (10)
     |                                               |                |                  [0]{}: instr 0x540-0x541.7 (2)
0x540|20                                             |                |                    local.get: 0x20 (valid) 0x540-0x540.7 (1)
0x540|   00                                          | .              |                    x: 0 0x541-0x541.7 (1)
     |                                               |                |                  [1]{}: instr 0x542-0x543.7 (2)
0x540|      20                                       |                |                    local.get: 0x20 (valid) 0x542-0x542.7 (1)
0x540|         01                                    |   .            |                    x: 1 0x543-0x543.7 (1)
     |                                               |                |                  [2]{}: instr 0x544-0x548.7 (5)
0x540|            fd                                 |    .           |                    prefix: 0xfd (valid) 0x544-0x544.7 (1)
0x540|               54                              |     T          |                    v128.load8_lane: 84 (valid) 0x545-0x545.7 (1)
     |                                               |                |                    m{}: 0x546-0x547.7 (2)
0x540|                  00                           |      .         |                      align: 0 0x546-0x546.7 (1)
0x540|                     00                        |       .        |                      offset: 0 0x547-0x547.7 (1)
0x540|                        00                     |        .       |                    laneidx: 0 0x548-0x548.7 (1)
     |                                               |                |                  [3]{}: instr 0x549-0x549.7 (1)
0x540|                           0b                  |         .      |                    end: 0xb (valid) 0x549-0x549.7 (1)
     |                                               |                |          [1]{}: code 0x54a-0x555.7 (12)
0x540|                              0b               |          .     |            size: 11 0x54a-0x54a.7 (1)
     |                                               |                |            code{}: 0x54b-0x555.7 (11)
     |                                               |                |              locals{}: 0x54b-0x54b.7 (1)
0x540|                                 00            |           .    |                n: 0 0x54b-0x54b.7 (1)
     |                                               |                |                items[0:0]: 0x54c-NA (0)
     |                                               |                |              expr{}: 0x54c-0x555.7 (10)
     |                                               |                |                instructions[0:4]: 0x54c-0x555.7 (10)
     |                                               |                |                  [0]{}: instr 0x54c-0x54d.7 (2)
0x540|                                    20         |                |                    local.get: 0x20 (valid) 0x54c-0x54c.7 (1)
0x540|                                       00      |             .  |                    x: 0 0x54d-0x54d.7 (1)
     |                                               |                |                  [1]{}: instr 0x54e-0x54f.7 (2)
0x540|                                          20   |                |                    local.get: 0x20 (valid) 0x54e-0x54e.7 (1)
0x540|                                             01|               .|                    x: 1 0x54f-0x54f.7 (1)
     |                                               |                |                  [2]{}: instr 0x550-0x554.7 (5)
0x550|fd                                             |.               |                    prefix: 0xfd (valid) 0x550-0x550.7 (1)
0x550|   54                                          | T              |                    v128.load8_lane: 84 (valid) 0x551-0x551.7 (1)
     |                                               |                |                    m{}: 0x552-0x553.7 (2)
0x550|      00                                       |  .             |                      align: 0 0x552-0x552.7 (1)
0x550|         00                                    |   .            |                      offset: 0 0x553-0x553.7 (1)
0x550|            01                                 |    .           |                    laneidx: 1 0x554-0x554.7 (1)
     |                                               |                |                  [3]{}: instr 0x555-0x555.7 (1)
0x550|               0b                              |     .          |                    end: 0xb (valid) 0x555-0x555.7 (1)
     |                                               |                |          [2]{}: code 0x556-0x561.7 (12)
0x550|                  0b                           |      .         |            size: 11 0x556-0x556.7 (1)
     |                                               |                |            code{}: 0x557-0x561.7 (11)
     |                                               |                |              locals{}: 0x557-0x557.7 (1)
0x550|                     00                        |       .        |                n: 0 0x557-0x557.7 (1)
     |                                               |                |                items[0:0]: 0x558-NA (0)
     |                                               |                |              expr{}: 0x558-0x561.7 (10)
     |                                               |                |                instructions[0:4]: 0x558-0x561.7 (10)
     |                                               |                |                  [0]{}: instr 0x558-0x559.7 (2)
0x550|                        20                     |                |                    local.get: 0x20 (valid) 0x558-0x558.7 (1)
0x550|                           00                  |         .      |                    x: 0 0x559-0x559.7 (1)
     |                                               |                |                  [1]{}: instr 0x55a-0x55b.7 (2)
0x550|                              20               |                |                    local.get: 0x20 (valid) 0x55a-0x55a.7 (1)
0x550|                                 01            |           .    |                    x: 1 0x55b-0x55b.7 (1)
     |                                               |                |                  [2]{}: instr 0x55c-0x560.7 (5)
0x550|                                    fd         |            .   |                    prefix: 0xfd (valid) 0x55c-0x55c.7 (1)
0x550|                                       54      |             T  |                    v128.load8_lane: 84 (valid) 0x55d-0x55d.7 (1)
     |                                               |                |                    m{}: 0x55e-0x55f.7 (2)
0x550|                                          00   |              . |                      align: 0 0x55e-0x55e.7 (1)
0x550|                                             00|               .|                      offset: 0 0x55f-0x55f.7 (1)
0x560|02                                             |.               |                    laneidx: 2 0x560-0x560.7 (1)
     |                                               |                |                  [3]{}: instr 0x561-0x561.7 (1)
0x560|   0b                                          | .              |                    end: 0xb (valid) 0x561-0x561.7 (1)
     |                                               |                |          [3]{}: code 0x562-0x56d.7 (12)
0x560|      0b                                       |  .             |            size: 11 0x562-0x562.7 (1)
     |                                               |                |            code{}: 0x563-0x56d.7 (11)
     |                                               |                |              locals{}: 0x563-0x563.7 (1)
0x560|         00                                    |   .            |                n: 0 0x563-0x563.7 (1)
     |                                               |                |                items[0:0]: 0x564-NA (0)
     |                                               |                |              expr{}: 0x564-0x56d.7 (10)
     |                                               |                |                instructions[0:4]: 0x564-0x56d.7 (10)
     |                                               |                |                  [0]{}: instr 0x564-0x565.7 (2)
0x560|            20                                 |                |                    local.get: 0x20 (valid) 0x564-0x564.7 (1)
0x560|               00                              |     .          |                    x: 0 0x565-0x565.7 (1)
     |                                               |                |                  [1]{}: instr 0x566-0x567.7 (2)
0x560|                  20                           |                |                    local.get: 0x20 (valid) 0x566-0x566.7 (1)
0x560|                     01                        |       .        |                    x: 1 0x567-0x567.7 (1)
     |                                               |                |                  [2]{}: instr 0x568-0x56c.7 (5)
0x560|                        fd                     |        .       |                    prefix: 0xfd (valid) 0x568-0x568.7 (1)
0x560|                           54                  |         T      |                    v128.load8_lane: 84 (valid) 0x569-0x569.7 (1)
     |                                               |                |                    m{}: 0x56a-0x56b.7 (2)
0x560|                              00               |          .     |                      align: 0 0x56a-0x56a.7 (1)
0x560|                                 00            |           .    |                      offset: 0 0x56b-0x56b.7 (1)
0x560|                                    03         |            .   |                    laneidx: 3 0x56c-0x56c.7 (1)
     |                                               |                |                  [3]{}: instr 0x56d-0x56d.7 (1)
0x560|                                       0b      |             .  |                    end: 0xb (valid) 0x56d-0x56d.7 (1)
     |                                               |                |          [4]{}: code 0x56e-0x579.7 (12)
0x560|                                          0b   |              . |            size: 11 0x56e-0x56e.7 (1)
     |                                               |                |            code{}: 0x56f-0x579.7 (11)
     |                                               |                |              locals{}: 0x56f-0x56f.7 (1)
0x560|                                             00|               .|                n: 0 0x56f-0x56f.7 (1)
     |                                               |                |                items[0:0]: 0x570-NA (0)
     |                                               |                |              expr{}: 0x570-0x579.7 (10)
     |                                               |                |                instructions[0:4]: 0x570-0x579.7 (10)
     |                                               |                |                  [0]{}: instr 0x570-0x571.7 (2)
0x570|20                                             |                |                    local.get: 0x20 (valid) 0x570-0x570.7 (1)
0x570|   00                                          | .              |                    x: 0 0x571-0x571.7 (1)
     |                                               |                |                  [1]{}: instr 0x572-0x573.7 (2)
0x570|      20                                       |                |                    local.get: 0x20 (valid) 0x572-0x572.7 (1)
0x570|         01                                    |   .            |                    x: 1 0x573-0x573.7 (1)
     |                                               |                |                  [2]{}: instr 0x574-0x578.7 (5)
0x570|            fd                                 |    .           |                    prefix: 0xfd (valid) 0x574-0x574.7 (1)
0x570|               54                              |     T          |                    v128.load8_lane: 84 (valid) 0x575-0x575.7 (1)
     |                                               |                |                    m{}: 0x576-0x577.7 (2)
0x570|                  00                           |      .         |                      align: 0 0x576-0x576.7 (1)
0x570|                     00                        |       .        |                      offset: 0 0x577-0x577.7 (1)
0x570|                        04                     |        .       |                    laneidx: 4 0x578-0x578.7 (1)
     |                                               |                |                  [3]{}: instr 0x579-0x579.7 (1)
0x570|                           0b                  |         .      |                    end: 0xb (valid) 0x579-0x579.7 (1)
     |                                               |                |          [5]{}: code 0x57a-0x585.7 (12)
0x570|                              0b               |          .     |            size: 11 0x57a-0x57a.7 (1)
     |                                               |                |            code{}: 0x57b-0x585.7 (11)
     |                                               |                |              locals{}: 0x57b-0x57b.7 (1)
0x570|                                 00            |           .    |                n: 0 0x57b-0x57b.7 (1)
     |                                               |                |                items[0:0]: 0x57c-NA (0)
     |                                               |                |              expr{}: 0x57c-0x585.7 (10)
     |                                               |                |                instructions[0:4]: 0x57c-0x585.7 (10)
     |                                               |                |                  [0]{}: instr 0x57c-0x57d.7 (2)
0x570|                                    20         |                |                    local.get: 0x20 (valid) 0x57c-0x57c.7 (1)
0x570|                                       00      |             .  |                    x: 0 0x57d-0x57d.7 (1)
     |                                               |                |                  [1]{}: instr 0x57e-0x57f.7 (2)
0x570|                                          20   |                |                    local.get: 0x20 (valid) 0x57e-0x57e.7 (1)
0x570|                                             01|               .|                    x: 1 0x57f-0x57f.7 (1)
     |                                               |                |                  [2]{}: instr 0x580-0x584.7 (5)
0x580|fd                                             |.               |                    prefix: 0xfd (valid) 0x580-0x580.7 (1)
0x580|   54                                          | T              |                    v128.load8_lane: 84 (valid) 0x581-0x581.7 (1)
     |                                               |                |                    m{}: 0x582-0x583.7 (2)
0x580|      00                                       |  .             |                      align: 0 0x582-0x582.7 (1)
0x580|         00                                    |   .            |                      offset: 0 0x583-0x583.7 (1)
0x580|            05                                 |    .           |                    laneidx: 5 0x584-0x584.7 (1)
     |                                               |                |                  [3]{}: instr 0x585-0x585.7 (1)
0x580|               0b                              |     .          |                    end: 0xb (valid) 0x585-0x585.7 (1)
     |                                               |                |          [6]{}: code 0x586-0x591.7 (12)
0x580|                  0b                           |      .         |            size: 11 0x586-0x586.7 (1)
     |                                               |                |            code{}: 0x587-0x591.7 (11)
     |                                               |                |              locals{}: 0x587-0x587.7 (1)
0x580|                     00                        |       .        |                n: 0 0x587-0x587.7 (1)
     |                                               |                |                items[0:0]: 0x588-NA (0)
     |                                               |                |              expr{}: 0x588-0x591.7 (10)
     |                                               |                |                instructions[0:4]: 0x588-0x591.7 (10)
     |                                               |                |                  [0]{}: instr 0x588-0x589.7 (2)
0x580|                        20                     |                |                    local.get: 0x20 (valid) 0x588-0x588.7 (1)
0x580|                           00                  |         .      |                    x: 0 0x589-0x589.7 (1)
     |                                               |                |                  [1]{}: instr 0x58a-0x58b.7 (2)
0x580|                              20               |                |                    local.get: 0x20 (valid) 0x58a-0x58a.7 (1)
0x580|                                 01            |           .    |                    x: 1 0x58b-0x58b.7 (1)
     |                                               |                |                  [2]{}: instr 0x58c-0x590.7 (5)
0x580|                                    fd         |            .   |                    prefix: 0xfd (valid) 0x58c-0x58c.7 (1)
0x580|                                       54      |             T  |                    v128.load8_lane: 84 (valid) 0x58d-0x58d.7 (1)
     |                                               |                |                    m{}: 0x58e-0x58f.7 (2)
0x580|                                          00   |              . |                      align: 0 0x58e-0x58e.7 (1)
0x580|                                             00|               .|                      offset: 0 0x58f-0x58f.7 (1)
0x590|06                                             |.               |                    laneidx: 6 0x590-0x590.7 (1)
     |                                               |                |                  [3]{}: instr 0x591-0x591.7 (1)
0x590|   0b                                          | .              |                    end: 0xb (valid) 0x591-0x591.7 (1)
     |                                               |                |          [7]{}: code 0x592-0x59d.7 (12)
0x590|      0b                                       |  .             |            size: 11 0x592-0x592.7 (1)
     |                                               |                |            code{}: 0x593-0x59d.7 (11)
     |                                               |                |              locals{}: 0x593-0x593.7 (1)
0x590|         00                                    |   .            |                n: 0 0x593-0x593.7 (1)
     |                                               |                |                items[0:0]: 0x594-NA (0)
     |                                               |                |              expr{}: 0x594-0x59d.7 (10)
     |                                               |                |                instructions[0:4]: 0x594-0x59d.7 (10)
     |                                               |                |                  [0]{}: instr 0x594-0x595.7 (2)
0x590|            20                                 |                |                    local.get: 0x20 (valid) 0x594-0x594.7 (1)
0x590|               00                              |     .          |                    x: 0 0x595-0x595.7 (1)
     |                                               |                |                  [1]{}: instr 0x596-0x597.7 (2)
0x590|                  20                           |                |                    local.get: 0x20 (valid) 0x596-0x596.7 (1)
0x590|                     01                        |       .        |                    x: 1 0x597-0x597.7 (1)
     |                                               |                |                  [2]{}: instr 0x598-0x59c.7 (5)
0x590|                        fd                     |        .       |                    prefix: 0xfd (valid) 0x598-0x598.7 (1)
0x590|                           54                  |         T      |                    v128.load8_lane: 84 (valid) 0x599-0x599.7 (1)
     |                                               |                |                    m{}: 0x59a-0x59b.7 (2)
0x590|                              00               |          .     |                      align: 0 0x59a-0x59a.7 (1)
0x590|                                 00            |           .    |                      offset: 0 0x59b-0x59b.7 (1)
0x590|                                    07         |            .   |                    laneidx: 7 0x59c-0x59c.7 (1)
     |                                               |                |                  [3]{}: instr 0x59d-0x59d.7 (1)
0x590|                                       0b      |             .  |                    end: 0xb (valid) 0x59d-0x59d.7 (1)
     |                                               |                |          [8]{}: code 0x59e-0x5a9.7 (12)
0x590|                                          0b   |              . |            size: 11 0x59e-0x59e.7 (1)
     |                                               |                |            code{}: 0x59f-0x5a9.7 (11)
     |                                               |                |              locals{}: 0x59f-0x59f.7 (1)
0x590|                                             00|               .|                n: 0 0x59f-0x59f.7 (1)
     |                                               |                |                items[0:0]: 0x5a0-NA (0)
     |                                               |                |              expr{}: 0x5a0-0x5a9.7 (10)
     |                                               |                |                instructions[0:4]: 0x5a0-0x5a9.7 (10)
     |                                               |                |                  [0]{}: instr 0x5a0-0x5a1.7 (2)
0x5a0|20                                             |                |                    local.get: 0x20 (valid) 0x5a0-0x5a0.7 (1)
0x5a0|   00                                          | .              |                    x: 0 0x5a1-0x5a1.7 (1)
     |                                               |                |                  [1]{}: instr 0x5a2-0x5a3.7 (2)
0x5a0|      20                                       |                |                    local.get: 0x20 (valid) 0x5a2-0x5a2.7 (1)
0x5a0|         01                                    |   .            |                    x: 1 0x5a3-0x5a3.7 (1)
     |                                               |                |                  [2]{}: instr 0x5a4-0x5a8.7 (5)
0x5a0|            fd                                 |    .           |                    prefix: 0xfd (valid) 0x5a4-0x5a4.7 (1)
0x5a0|               54                              |     T          |                    v128.load8_lane: 84 (valid) 0x5a5-0x5a5.7 (1)
     |                                               |                |                    m{}: 0x5a6-0x5a7.7 (2)
0x5a0|                  00                           |      .         |                      align: 0 0x5a6-0x5a6.7 (1)
0x5a0|                     00                        |       .        |                      offset: 0 0x5a7-0x5a7.7 (1)
0x5a0|                        08                     |        .       |                    laneidx: 8 0x5a8-0x5a8.7 (1)
     |                                               |                |                  [3]{}: instr 0x5a9-0x5a9.7 (1)
0x5a0|                           0b                  |         .      |                    end: 0xb (valid) 0x5a9-0x5a9.7 (1)
     |                                               |                |          [9]{}: code 0x5aa-0x5b5.7 (12)
0x5a0|                              0b               |          .     |            size: 11 0x5aa-0x5aa.7 (1)
     |                                               |                |            code{}: 0x5ab-0x5b5.7 (11)
     |                                               |                |              locals{}: 0x5ab-0x5ab.7 (1)
0x5a0|                                 00            |           .    |                n: 0 0x5ab-0x5ab.7 (1)
     |                                               |                |                items[0:0]: 0x5ac-NA (0)
     |                                               |                |              expr{}: 0x5ac-0x5b5.7 (10)
     |                                               |                |                instructions[0:4]: 0x5ac-0x5b5.7 (10)
     |                                               |                |                  [0]{}: instr 0x5ac-0x5ad.7 (2)
0x5a0|                                    20         |                |                    local.get: 0x20 (valid) 0x5ac-0x5ac.7 (1)
0x5a0|                                       00      |             .  |                    x: 0 0x5ad-0x5ad.7 (1)
     |                                               |                |                  [1]{}: instr 0x5ae-0x5af.7 (2)
0x5a0|                                          20   |                |                    local.get: 0x20 (valid) 0x5ae-0x5ae.7 (1)
0x5a0|                                             01|               .|                    x: 1 0x5af-0x5af.7 (1)
     |                                               |                |                  [2]{}: instr 0x5b0-0x5b4.7 (5)
0x5b0|fd                                             |.               |                    prefix: 0xfd (valid) 0x5b0-0x5b0.7 (1)
0x5b0|   54                                          | T              |                    v128.load8_lane: 84 (valid) 0x5b1-0x5b1.7 (1)
     |                                               |                |                    m{}: 0x5b2-0x5b3.7 (2)
0x5b0|      00                                       |  .             |                      align: 0 0x5b2-0x5b2.7 (1)
0x5b0|         00                                    |   .            |                      offset: 0 0x5b3-0x5b3.7 (1)
0x5b0|            09                                 |    .           |                    laneidx: 9 0x5b4-0x5b4.7 (1)
     |                                               |                |                  [3]{}: instr 0x5b5-0x5b5.7 (1)
0x5b0|               0b                              |     .          |                    end: 0xb (valid) 0x5b5-0x5b5.7 (1)
     |                                               |                |          [10]{}: code 0x5b6-0x5c1.7 (12)
0x5b0|                  0b                           |      .         |            size: 11 0x5b6-0x5b6.7 (1)
     |                                               |                |            code{}: 0x5b7-0x5c1.7 (11)
     |                                               |                |              locals{}: 0x5b7-0x5b7.7 (1)
0x5b0|                     00                        |       .        |                n: 0 0x5b7-0x5b7.7 (1)
     |                                               |                |                items[0:0]: 0x5b8-NA (0)
     |                                               |                |              expr{}: 0x5b8-0x5c1.7 (10)
     |                                               |                |                instructions[0:4]: 0x5b8-0x5c1.7 (10)
     |                                               |                |                  [0]{}: instr 0x5b8-0x5b9.7 (2)
0x5b0|                        20                     |                |                    local.get: 0x20 (valid) 0x5b8-0x5b8.7 (1)
0x5b0|                           00                  |         .      |                    x: 0 0x5b9-0x5b9.7 (1)
     |                                               |                |                  [1]{}: instr 0x5ba-0x5bb.7 (2)
0x5b0|                              20               |                |                    local.get: 0x20 (valid) 0x5ba-0x5ba.7 (1)
0x5b0|                                 01            |           .    |                    x: 1 0x5bb-0x5bb.7 (1)
     |                                               |                |                  [2]{}: instr 0x5bc-0x5c0.7 (5)
0x5b0|                                    fd         |            .   |                    prefix: 0xfd (valid) 0x5bc-0x5bc.7 (1)
0x5b0|                                       54      |             T  |                    v128.load8_lane: 84 (valid) 0x5bd-0x5bd.7 (1)
     |                                               |                |                    m{}: 0x5be-0x5bf.7 (2)
0x5b0|                                          00   |              . |                      align: 0 0x5be-0x5be.7 (1)
0x5b0|                                             00|               .|                      offset: 0 0x5bf-0x5bf.7 (1)
0x5c0|0a                                             |.               |                    laneidx: 10 0x5c0-0x5c0.7 (1)
     |                                               |                |                  [3]{}: instr 0x5c1-0x5c1.7 (1)
0x5c0|   0b                                          | .              |                    end: 0xb (valid) 0x5c1-0x5c1.7 (1)
     |                                               |                |          [11]{}: code 0x5c2-0x5cd.7 (12)
0x5c0|      0b                                       |  .             |            size: 11 0x5c2-0x5c2.7 (1)
     |                                               |                |            code{}: 0x5c3-0x5cd.7 (11)
     |                                               |                |              locals{}: 0x5c3-0x5c3.7 (1)
0x5c0|         00                                    |   .            |                n: 0 0x5c3-0x5c3.7 (1)
     |                                               |                |                items[0:0]: 0x5c4-NA (0)
     |                                               |                |              expr{}: 0x5c4-0x5cd.7 (10)
     |                                               |                |                instructions[0:4]: 0x5c4-0x5cd.7 (10)
     |                                               |                |                  [0]{}: instr 0x5c4-0x5c5.7 (2)
0x5c0|            20                                 |                |                    local.get: 0x20 (valid) 0x5c4-0x5c4.7 (1)
0x5c0|               00                              |     .          |                    x: 0 0x5c5-0x5c5.7 (1)
     |                                               |                |                  [1]{}: instr 0x5c6-0x5c7.7 (2)
0x5c0|                  20                           |                |                    local.get: 0x20 (valid) 0x5c6-0x5c6.7 (1)
0x5c0|                     01                        |       .        |                    x: 1 0x5c7-0x5c7.7 (1)
     |                                               |                |                  [2]{}: instr 0x5c8-0x5cc.7 (5)
0x5c0|                        fd                     |        .       |                    prefix: 0xfd (valid) 0x5c8-0x5c8.7 (1)
0x5c0|                           54                  |         T      |                    v128.load8_lane: 84 (valid) 0x5c9-0x5c9.7 (1)
     |                                               |                |                    m{}: 0x5ca-0x5cb.7 (2)
0x5c0|                              00               |          .     |                      align: 0 0x5ca-0x5ca.7 (1)
0x5c0|                                 00            |           .    |                      offset: 0 0x5cb-0x5cb.7 (1)
0x5c0|                                    0b         |            .   |                    laneidx: 11 0x5cc-0x5cc.7 (1)
     |                                               |                |                  [3]{}: instr 0x5cd-0x5cd.7 (1)
0x5c0|                                       0b      |             .  |                    end: 0xb (valid) 0x5cd-0x5cd.7 (1)
     |                                               |                |          [12]{}: code 0x5ce-0x5d9.7 (12)
0x5c0|                                          0b   |              . |            size: 11 0x5ce-0x5ce.7 (1)
     |                                               |                |            code{}: 0x5cf-0x5d9.7 (11)
     |                                               |                |              locals{}: 0x5cf-0x5cf.7 (1)
0x5c0|                                             00|               .|                n: 0 0x5cf-0x5cf.7 (1)
     |                                               |                |                items[0:0]: 0x5d0-NA (0)
     |                                               |                |              expr{}: 0x5d0-0x5d9.7 (10)
     |                                               |                |                instructions[0:4]: 0x5d0-0x5d9.7 (10)
     |                                               |                |                  [0]{}: instr 0x5d0-0x5d1.7 (2)
0x5d0|20                                             |                |                    local.get: 0x20 (valid) 0x5d0-0x5d0.7 (1)
0x5d0|   00                                          | .              |                    x: 0 0x5d1-0x5d1.7 (1)
     |                                               |                |                  [1]{}: instr 0x5d2-0x5d3.7 (2)
0x5d0|      20                                       |                |                    local.get: 0x20 (valid) 0x5d2-0x5d2.7 (1)
0x5d0|         01                                    |   .            |                    x: 1 0x5d3-0x5d3.7 (1)
     |                                               |                |                  [2]{}: instr 0x5d4-0x5d8.7 (5)
0x5d0|            fd                                 |    .           |                    prefix: 0xfd (valid) 0x5d4-0x5d4.7 (1)
0x5d0|               54                              |     T          |                    v128.load8_lane: 84 (valid) 0x5d5-0x5d5.7 (1)
     |                                               |                |                    m{}: 0x5d6-0x5d7.7 (2)
0x5d0|                  00                           |      .         |                      align: 0 0x5d6-0x5d6.7 (1)
0x5d0|                     00                        |       .        |                      offset: 0 0x5d7-0x5d7.7 (1)
0x5d0|                        0c                     |        .       |                    laneidx: 12 0x5d8-0x5d8.7 (1)
     |                                               |                |                  [3]{}: instr 0x5d9-0x5d9.7 (1)
0x5d0|                           0b                  |         .      |                    end: 0xb (valid) 0x5d9-0x5d9.7 (1)
     |                                               |                |          [13]{}: code 0x5da-0x5e5.7 (12)
0x5d0|                              0b               |          .     |            size: 11 0x5da-0x5da.7 (1)
     |                                               |                |            code{}: 0x5db-0x5e5.7 (11)
     |                                               |                |              locals{}: 0x5db-0x5db.7 (1)
0x5d0|                                 00            |           .    |                n: 0 0x5db-0x5db.7 (1)
     |                                               |                |                items[0:0]: 0x5dc-NA (0)
     |                                               |                |              expr{}: 0x5dc-0x5e5.7 (10)
     |                                               |                |                instructions[0:4]: 0x5dc-0x5e5.7 (10)
     |                                               |                |                  [0]{}: instr 0x5dc-0x5dd.7 (2)
0x5d0|                                    20         |                |                    local.get: 0x20 (valid) 0x5dc-0x5dc.7 (1)
0x5d0|                                       00      |             .  |                    x: 0 0x5dd-0x5dd.7 (1)
     |                                               |                |                  [1]{}: instr 0x5de-0x5df.7 (2)
0x5d0|                                          20   |                |                    local.get: 0x20 (valid) 0x5de-0x5de.7 (1)
0x5d0|                                             01|               .|                    x: 1 0x5df-0x5df.7 (1)
     |                                               |                |                  [2]{}: instr 0x5e0-0x5e4.7 (5)
0x5e0|fd                                             |.               |                    prefix: 0xfd (valid) 0x5e0-0x5e0.7 (1)
0x5e0|   54                                          | T              |                    v128.load8_lane: 84 (valid) 0x5e1-0x5e1.7 (1)
     |                                               |                |                    m{}: 0x5e2-0x5e3.7 (2)
0x5e0|      00                                       |  .             |                      align: 0 0x5e2-0x5e2.7 (1)
0x5e0|         00                                    |   .            |                      offset: 0 0x5e3-0x5e3.7 (1)
0x5e0|            0d                                 |    .           |                    laneidx: 13 0x5e4-0x5e4.7 (1)
     |                                               |                |                  [3]{}: instr 0x5e5-0x5e5.7 (1)
0x5e0|               0b                              |     .          |                    end: 0xb (valid) 0x5e5-0x5e5.7 (1)
     |                                               |                |          [14]{}: code 0x5e6-0x5f1.7 (12)
0x5e0|                  0b                           |      .         |            size: 11 0x5e6-0x5e6.7 (1)
     |                                               |                |            code{}: 0x5e7-0x5f1.7 (11)
     |                                               |                |              locals{}: 0x5e7-0x5e7.7 (1)
0x5e0|                     00                        |       .        |                n: 0 0x5e7-0x5e7.7 (1)
     |                                               |                |                items[0:0]: 0x5e8-NA (0)
     |                                               |                |              expr{}: 0x5e8-0x5f1.7 (10)
     |                                               |                |                instructions[0:4]: 0x5e8-0x5f1.7 (10)
     |                                               |                |                  [0]{}: instr 0x5e8-0x5e9.7 (2)
0x5e0|                        20                     |                |                    local.get: 0x20 (valid) 0x5e8-0x5e8.7 (1)
0x5e0|                           00                  |         .      |                    x: 0 0x5e9-0x5e9.7 (1)
     |                                               |                |                  [1]{}: instr 0x5ea-0x5eb.7 (2)
0x5e0|                              20               |                |                    local.get: 0x20 (valid) 0x5ea-0x5ea.7 (1)
0x5e0|                                 01            |           .    |                    x: 1 0x5eb-0x5eb.7 (1)
     |                                               |                |                  [2]{}: instr 0x5ec-0x5f0.7 (5)
0x5e0|                                    fd         |            .   |                    prefix: 0xfd (valid) 0x5ec-0x5ec.7 (1)
0x5e0|                                       54      |             T  |                    v128.load8_lane: 84 (valid) 0x5ed-0x5ed.7 (1)
     |                                               |                |                    m{}: 0x5ee-0x5ef.7 (2)
0x5e0|                                          00   |              . |                      align: 0 0x5ee-0x5ee.7 (1)
0x5e0|                                             00|               .|                      offset: 0 0x5ef-0x5ef.7 (1)
0x5f0|0e                                             |.               |                    laneidx: 14 0x5f0-0x5f0.7 (1)
     |                                               |                |                  [3]{}: instr 0x5f1-0x5f1.7 (1)
0x5f0|   0b                                          | .              |                    end: 0xb (valid) 0x5f1-0x5f1.7 (1)
     |                                               |                |          [15]{}: code 0x5f2-0x5fd.7 (12)
0x5f0|      0b                                       |  .             |            size: 11 0x5f2-0x5f2.7 (1)
     |                                               |                |            code{}: 0x5f3-0x5fd.7 (11)
     |                                               |                |              locals{}: 0x5f3-0x5f3.7 (1)
0x5f0|         00                                    |   .            |                n: 0 0x5f3-0x5f3.7 (1)
     |                                               |                |                items[0:0]: 0x5f4-NA (0)
     |                                               |                |              expr{}: 0x5f4-0x5fd.7 (10)
     |                                               |                |                instructions[0:4]: 0x5f4-0x5fd.7 (10)
     |                                               |                |                  [0]{}: instr 0x5f4-0x5f5.7 (2)
0x5f0|            20                                 |                |                    local.get: 0x20 (valid) 0x5f4-0x5f4.7 (1)
0x5f0|               00                              |     .          |                    x: 0 0x5f5-0x5f5.7 (1)
     |                                               |                |                  [1]{}: instr 0x5f6-0x5f7.7 (2)
0x5f0|                  20                           |                |                    local.get: 0x20 (valid) 0x5f6-0x5f6.7 (1)
0x5f0|                     01                        |       .        |                    x: 1 0x5f7-0x5f7.7 (1)
     |                                               |                |                  [2]{}: instr 0x5f8-0x5fc.7 (5)
0x5f0|                        fd                     |        .       |                    prefix: 0xfd (valid) 0x5f8-0x5f8.7 (1)
0x5f0|                           54                  |         T      |                    v128.load8_lane: 84 (valid) 0x5f9-0x5f9.7 (1)
     |                                               |                |                    m{}: 0x5fa-0x5fb.7 (2)
0x5f0|                              00               |          .     |                      align: 0 0x5fa-0x5fa.7 (1)
0x5f0|                                 00            |           .    |                      offset: 0 0x5fb-0x5fb.7 (1)
0x5f0|                                    0f         |            .   |                    laneidx: 15 0x5fc-0x5fc.7 (1)
     |                                               |                |                  [3]{}: instr 0x5fd-0x5fd.7 (1)
0x5f0|                                       0b      |             .  |                    end: 0xb (valid) 0x5fd-0x5fd.7 (1)
     |                                               |                |          [16]{}: code 0x5fe-0x609.7 (12)
0x5f0|                                          0b   |              . |            size: 11 0x5fe-0x5fe.7 (1)
     |                                               |                |            code{}: 0x5ff-0x609.7 (11)
     |                                               |                |              locals{}: 0x5ff-0x5ff.7 (1)
0x5f0|                                             00|               .|                n: 0 0x5ff-0x5ff.7 (1)
     |                                               |                |                items[0:0]: 0x600-NA (0)
     |                                               |                |              expr{}: 0x600-0x609.7 (10)
     |                                               |                |                instructions[0:4]: 0x600-0x609.7 (10)
     |                                               |                |                  [0]{}: instr 0x600-0x601.7 (2)
0x600|41                                             |A               |                    i32.const: 0x41 (valid) 0x600-0x600.7 (1)
0x600|   00                                          | .              |                    n: 0 0x601-0x601.7 (1)
     |                                               |                |                  [1]{}: instr 0x602-0x603.7 (2)
0x600|      20                                       |                |                    local.get: 0x20 (valid) 0x602-0x602.7 (1)
0x600|         00                                    |   .            |                    x: 0 0x603-0x603.7 (1)
     |                                               |                |                  [2]{}: instr 0x604-0x608.7 (5)
0x600|            fd                                 |    .           |                    prefix: 0xfd (valid) 0x604-0x604.7 (1)
0x600|               54                              |     T          |                    v128.load8_lane: 84 (valid) 0x605-0x605.7 (1)
     |                                               |                |                    m{}: 0x606-0x607.7 (2)
0x600|                  00                           |      .         |                      align: 0 0x606-0x606.7 (1)
0x600|                     00                        |       .        |                      offset: 0 0x607-0x607.7 (1)
0x600|                        00                     |        .       |                    laneidx: 0 0x608-0x608.7 (1)
     |                                               |                |                  [3]{}: instr 0x609-0x609.7 (1)
0x600|                           0b                  |         .      |                    end: 0xb (valid) 0x609-0x609.7 (1)
     |                                               |                |          [17]{}: code 0x60a-0x615.7 (12)
0x600|                              0b               |          .     |            size: 11 0x60a-0x60a.7 (1)
     |                                               |                |            code{}: 0x60b-0x615.7 (11)
     |                                               |                |              locals{}: 0x60b-0x60b.7 (1)
0x600|                                 00            |           .    |                n: 0 0x60b-0x60b.7 (1)
     |                                               |                |                items[0:0]: 0x60c-NA (0)
     |                                               |                |              expr{}: 0x60c-0x615.7 (10)
     |                                               |                |                instructions[0:4]: 0x60c-0x615.7 (10)
     |                                               |                |                  [0]{}: instr 0x60c-0x60d.7 (2)
0x600|                                    41         |            A   |                    i32.const: 0x41 (valid) 0x60c-0x60c.7 (1)
0x600|                                       00      |             .  |                    n: 0 0x60d-0x60d.7 (1)
     |                                               |                |                  [1]{}: instr 0x60e-0x60f.7 (2)
0x600|                                          20   |                |                    local.get: 0x20 (valid) 0x60e-0x60e.7 (1)
0x600|                                             00|               .|                    x: 0 0x60f-0x60f.7 (1)
     |                                               |                |                  [2]{}: instr 0x610-0x614.7 (5)
0x610|fd                                             |.               |                    prefix: 0xfd (valid) 0x610-0x610.7 (1)
0x610|   54                                          | T              |                    v128.load8_lane: 84 (valid) 0x611-0x611.7 (1)
     |                                               |                |                    m{}: 0x612-0x613.7 (2)
0x610|      00                                       |  .             |                      align: 0 0x612-0x612.7 (1)
0x610|         01                                    |   .            |                      offset: 1 0x613-0x613.7 (1)
0x610|            01                                 |    .           |                    laneidx: 1 0x614-0x614.7 (1)
     |                                               |                |                  [3]{}: instr 0x615-0x615.7 (1)
0x610|               0b                              |     .          |                    end: 0xb (valid) 0x615-0x615.7 (1)
     |                                               |                |          [18]{}: code 0x616-0x621.7 (12)
0x610|                  0b                           |      .         |            size: 11 0x616-0x616.7 (1)
     |                                               |                |            code{}: 0x617-0x621.7 (11)
     |                                               |                |              locals{}: 0x617-0x617.7 (1)
0x610|                     00                        |       .        |                n: 0 0x617-0x617.7 (1)
     |                                               |                |                items[0:0]: 0x618-NA (0)
     |                                               |                |              expr{}: 0x618-0x621.7 (10)
     |                                               |                |                instructions[0:4]: 0x618-0x621.7 (10)
     |                                               |                |                  [0]{}: instr 0x618-0x619.7 (2)
0x610|                        41                     |        A       |                    i32.const: 0x41 (valid) 0x618-0x618.7 (1)
0x610|                           00                  |         .      |                    n: 0 0x619-0x619.7 (1)
     |                                               |                |                  [1]{}: instr 0x61a-0x61b.7 (2)
0x610|                              20               |                |                    local.get: 0x20 (valid) 0x61a-0x61a.7 (1)
0x610|                                 00            |           .    |                    x: 0 0x61b-0x61b.7 (1)
     |                                               |                |                  [2]{}: instr 0x61c-0x620.7 (5)
0x610|                                    fd         |            .   |                    prefix: 0xfd (valid) 0x61c-0x61c.7 (1)
0x610|                                       54      |             T  |                    v128.load8_lane: 84 (valid) 0x61d-0x61d.7 (1)
     |                                               |                |                    m{}: 0x61e-0x61f.7 (2)
0x610|                                          00   |              . |                      align: 0 0x61e-0x61e.7 (1)
0x610|                                             02|               .|                      offset: 2 0x61f-0x61f.7 (1)
0x620|02                                             |.               |                    laneidx: 2 0x620-0x620.7 (1)
     |                                               |                |                  [3]{}: instr 0x621-0x621.7 (1)
0x620|   0b                                          | .              |                    end: 0xb (valid) 0x621-0x621.7 (1)
     |                                               |                |          [19]{}: code 0x622-0x62d.7 (12)
0x620|      0b                                       |  .             |            size: 11 0x622-0x622.7 (1)
     |                                               |                |            code{}: 0x623-0x62d.7 (11)
     |                                               |                |              locals{}: 0x623-0x623.7 (1)
0x620|         00                                    |   .            |                n: 0 0x623-0x623.7 (1)
     |                                               |                |                items[0:0]: 0x624-NA (0)
     |                                               |                |              expr{}: 0x624-0x62d.7 (10)
     |                                               |                |                instructions[0:4]: 0x624-0x62d.7 (10)
     |                                               |                |                  [0]{}: instr 0x624-0x625.7 (2)
0x620|            41                                 |    A           |                    i32.const: 0x41 (valid) 0x624-0x624.7 (1)
0x620|               00                              |     .          |                    n: 0 0x625-0x625.7 (1)
     |                                               |                |                  [1]{}: instr 0x626-0x627.7 (2)
0x620|                  20                           |                |                    local.get: 0x20 (valid) 0x626-0x626.7 (1)
0x620|                     00                        |       .        |                    x: 0 0x627-0x627.7 (1)
     |                                               |                |                  [2]{}: instr 0x628-0x62c.7 (5)
0x620|                        fd                     |        .       |                    prefix: 0xfd (valid) 0x628-0x628.7 (1)
0x620|                           54                  |         T      |                    v128.load8_lane: 84 (valid) 0x629-0x629.7 (1)
     |                                               |                |                    m{}: 0x62a-0x62b.7 (2)
0x620|                              00               |          .     |                      align: 0 0x62a-0x62a.7 (1)
0x620|                                 03            |           .    |                      offset: 3 0x62b-0x62b.7 (1)
0x620|                                    03         |            .   |                    laneidx: 3 0x62c-0x62c.7 (1)
     |                                               |                |                  [3]{}: instr 0x62d-0x62d.7 (1)
0x620|                                       0b      |             .  |                    end: 0xb (valid) 0x62d-0x62d.7 (1)
     |                                               |                |          [20]{}: code 0x62e-0x639.7 (12)
0x620|                                          0b   |              . |            size: 11 0x62e-0x62e.7 (1)
     |                                               |                |            code{}: 0x62f-0x639.7 (11)
     |                                               |                |              locals{}: 0x62f-0x62f.7 (1)
0x620|                                             00|               .|                n: 0 0x62f-0x62f.7 (1)
     |                                               |                |                items[0:0]: 0x630-NA (0)
     |                                               |                |              expr{}: 0x630-0x639.7 (10)
     |                                               |                |                instructions[0:4]: 0x630-0x639.7 (10)
     |                                               |                |                  [0]{}: instr 0x630-0x631.7 (2)
0x630|41                                             |A               |                    i32.const: 0x41 (valid) 0x630-0x630.7 (1)
0x630|   00                                          | .              |                    n: 0 0x631-0x631.7 (1)
     |                                               |                |                  [1]{}: instr 0x632-0x633.7 (2)
0x630|      20                                       |                |                    local.get: 0x20 (valid) 0x632-0x632.7 (1)
0x630|         00                                    |   .            |                    x: 0 0x633-0x633.7 (1)
     |                                               |                |                  [2]{}: instr 0x634-0x638.7 (5)
0x630|            fd                                 |    .           |                    prefix: 0xfd (valid) 0x634-0x634.7 (1)
0x630|               54                              |     T          |                    v128.load8_lane: 84 (valid) 0x635-0x635.7 (1)
     |                                               |                |                    m{}: 0x636-0x637.7 (2)
0x630|                  00                           |      .         |                      align: 0 0x636-0x636.7 (1)
0x630|                     04                        |       .        |                      offset: 4 0x637-0x637.7 (1)
0x630|                        04                     |        .       |                    laneidx: 4 0x638-0x638.7 (1)
     |                                               |                |                  [3]{}: instr 0x639-0x639.7 (1)
0x630|                           0b                  |         .      |                    end: 0xb (valid) 0x639-0x639.7 (1)
     |                                               |                |          [21]{}: code 0x63a-0x645.7 (12)
0x630|                              0b               |          .     |            size: 11 0x63a-0x63a.7 (1)
     |                                               |                |            code{}: 0x63b-0x645.7 (11)
     |                                               |                |              locals{}: 0x63b-0x63b.7 (1)
0x630|                                 00            |           .    |                n: 0 0x63b-0x63b.7 (1)
     |                                               |                |                items[0:0]: 0x63c-NA (0)
     |                                               |                |              expr{}: 0x63c-0x645.7 (10)
     |                                               |                |                instructions[0:4]: 0x63c-0x645.7 (10)
     |                                               |                |                  [0]{}: instr 0x63c-0x63d.7 (2)
0x630|                                    41         |            A   |                    i32.const: 0x41 (valid) 0x63c-0x63c.7 (1)
0x630|                                       00      |             .  |                    n: 0 0x63d-0x63d.7 (1)
     |                                               |                |                  [1]{}: instr 0x63e-0x63f.7 (2)
0x630|                                          20   |                |                    local.get: 0x20 (valid) 0x63e-0x63e.7 (1)
0x630|                                             00|               .|                    x: 0 0x63f-0x63f.7 (1)
     |                                               |                |                  [2]{}: instr 0x640-0x644.7 (5)
0x640|fd                                             |.               |                    prefix: 0xfd (valid) 0x640-0x640.7 (1)
0x640|   54                                          | T              |                    v128.load8_lane: 84 (valid) 0x641-0x641.7 (1)
     |                                               |                |                    m{}: 0x642-0x643.7 (2)
0x640|      00                                       |  .             |                      align: 0 0x642-0x642.7 (1)
0x640|         05                                    |   .            |                      offset: 5 0x643-0x643.7 (1)
0x640|            05                                 |    .           |                    laneidx: 5 0x644-0x644.7 (1)
     |                                               |                |                  [3]{}: instr 0x645-0x645.7 (1)
0x640|               0b                              |     .          |                    end: 0xb (valid) 0x645-0x645.7 (1)
     |                                               |                |          [22]{}: code 0x646-0x651.7 (12)
0x640|                  0b                           |      .         |            size: 11 0x646-0x646.7 (1)
     |                                               |                |            code{}: 0x647-0x651.7 (11)
     |                                               |                |              locals{}: 0x647-0x647.7 (1)
0x640|                     00                        |       .        |                n: 0 0x647-0x647.7 (1)
     |                                               |                |                items[0:0]: 0x648-NA (0)
     |                                               |                |              expr{}: 0x648-0x651.7 (10)
     |                                               |                |                instructions[0:4]: 0x648-0x651.7 (10)
     |                                               |                |                  [0]{}: instr 0x648-0x649.7 (2)
0x640|                        41                     |        A       |                    i32.const: 0x41 (valid) 0x648-0x648.7 (1)
0x640|                           00                  |         .      |                    n: 0 0x649-0x649.7 (1)
     |                                               |                |                  [1]{}: instr 0x64a-0x64b.7 (2)
0x640|                              20               |                |                    local.get: 0x20 (valid) 0x64a-0x64a.7 (1)
0x640|                                 00            |           .    |                    x: 0 0x64b-0x64b.7 (1)
     |                                               |                |                  [2]{}: instr 0x64c-0x650.7 (5)
0x640|                                    fd         |            .   |                    prefix: 0xfd (valid) 0x64c-0x64c.7 (1)
0x640|                                       54      |             T  |                    v128.load8_lane: 84 (valid) 0x64d-0x64d.7 (1)
     |                                               |                |                    m{}: 0x64e-0x64f.7 (2)
0x640|                                          00   |              . |                      align: 0 0x64e-0x64e.7 (1)
0x640|                                             06|               .|                      offset: 6 0x64f-0x64f.7 (1)
0x650|06                                             |.               |                    laneidx: 6 0x650-0x650.7 (1)
     |                                               |                |                  [3]{}: instr 0x651-0x651.7 (1)
0x650|   0b                                          | .              |                    end: 0xb (valid) 0x651-0x651.7 (1)
     |                                               |                |          [23]{}: code 0x652-0x65d.7 (12)
0x650|      0b                                       |  .             |            size: 11 0x652-0x652.7 (1)
     |                                               |                |            code{}: 0x653-0x65d.7 (11)
     |                                               |                |              locals{}: 0x653-0x653.7 (1)
0x650|         00                                    |   .            |                n: 0 0x653-0x653.7 (1)
     |                                               |                |                items[0:0]: 0x654-NA (0)
     |                                               |                |              expr{}: 0x654-0x65d.7 (10)
     |                                               |                |                instructions[0:4]: 0x654-0x65d.7 (10)
     |                                               |                |                  [0]{}: instr 0x654-0x655.7 (2)
0x650|            41                                 |    A           |                    i32.const: 0x41 (valid) 0x654-0x654.7 (1)
0x650|               00                              |     .          |                    n: 0 0x655-0x655.7 (1)
     |                                               |                |                  [1]{}: instr 0x656-0x657.7 (2)
0x650|                  20                           |                |                    local.get: 0x20 (valid) 0x656-0x656.7 (1)
0x650|                     00                        |       .        |                    x: 0 0x657-0x657.7 (1)
     |                                               |                |                  [2]{}: instr 0x658-0x65c.7 (5)
0x650|                        fd                     |        .       |                    prefix: 0xfd (valid) 0x658-0x658.7 (1)
0x650|                           54                  |         T      |                    v128.load8_lane: 84 (valid) 0x659-0x659.7 (1)
     |                                               |                |                    m{}: 0x65a-0x65b.7 (2)
0x650|                              00               |          .     |                      align: 0 0x65a-0x65a.7 (1)
0x650|                                 07            |           .    |                      offset: 7 0x65b-0x65b.7 (1)
0x650|                                    07         |            .   |                    laneidx: 7 0x65c-0x65c.7 (1)
     |                                               |                |                  [3]{}: instr 0x65d-0x65d.7 (1)
0x650|                                       0b      |             .  |                    end: 0xb (valid) 0x65d-0x65d.7 (1)
     |                                               |                |          [24]{}: code 0x65e-0x669.7 (12)
0x650|                                          0b   |              . |            size: 11 0x65e-0x65e.7 (1)
     |                                               |                |            code{}: 0x65f-0x669.7 (11)
     |                                               |                |              locals{}: 0x65f-0x65f.7 (1)
0x650|                                             00|               .|                n: 0 0x65f-0x65f.7 (1)
     |                                               |                |                items[0:0]: 0x660-NA (0)
     |                                               |                |              expr{}: 0x660-0x669.7 (10)
     |                                               |                |                instructions[0:4]: 0x660-0x669.7 (10)
     |                                               |                |                  [0]{}: instr 0x660-0x661.7 (2)
0x660|41                                             |A               |                    i32.const: 0x41 (valid) 0x660-0x660.7 (1)
0x660|   00                                          | .              |                    n: 0 0x661-0x661.7 (1)
     |                                               |                |                  [1]{}: instr 0x662-0x663.7 (2)
0x660|      20                                       |                |                    local.get: 0x20 (valid) 0x662-0x662.7 (1)
0x660|         00                                    |   .            |                    x: 0 0x663-0x663.7 (1)
     |                                               |                |                  [2]{}: instr 0x664-0x668.7 (5)
0x660|            fd                                 |    .           |                    prefix: 0xfd (valid) 0x664-0x664.7 (1)
0x660|               54                              |     T          |                    v128.load8_lane: 84 (valid) 0x665-0x665.7 (1)
     |                                               |                |                    m{}: 0x666-0x667.7 (2)
0x660|                  00                           |      .         |                      align: 0 0x666-0x666.7 (1)
0x660|                     08                        |       .        |                      offset: 8 0x667-0x667.7 (1)
0x660|                        08                     |        .       |                    laneidx: 8 0x668-0x668.7 (1)
     |                                               |                |                  [3]{}: instr 0x669-0x669.7 (1)
0x660|                           0b                  |         .      |                    end: 0xb (valid) 0x669-0x669.7 (1)
     |                                               |                |          [25]{}: code 0x66a-0x675.7 (12)
0x660|                              0b               |          .     |            size: 11 0x66a-0x66a.7 (1)
     |                                               |                |            code{}: 0x66b-0x675.7 (11)
     |                                               |                |              locals{}: 0x66b-0x66b.7 (1)
0x660|                                 00            |           .    |                n: 0 0x66b-0x66b.7 (1)
     |                                               |                |                items[0:0]: 0x66c-NA (0)
     |                                               |                |              expr{}: 0x66c-0x675.7 (10)
     |                                               |                |                instructions[0:4]: 0x66c-0x675.7 (10)
     |                                               |                |                  [0]{}: instr 0x66c-0x66d.7 (2)
0x660|                                    41         |            A   |                    i32.const: 0x41 (valid) 0x66c-0x66c.7 (1)
0x660|                                       00      |             .  |                    n: 0 0x66d-0x66d.7 (1)
     |                                               |                |                  [1]{}: instr 0x66e-0x66f.7 (2)
0x660|                                          20   |                |                    local.get: 0x20 (valid) 0x66e-0x66e.7 (1)
0x660|                                             00|               .|                    x: 0 0x66f-0x66f.7 (1)
     |                                               |                |                  [2]{}: instr 0x670-0x674.7 (5)
0x670|fd                                             |.               |                    prefix: 0xfd (valid) 0x670-0x670.7 (1)
0x670|   54                                          | T              |                    v128.load8_lane: 84 (valid) 0x671-0x671.7 (1)
     |                                               |                |                    m{}: 0x672-0x673.7 (2)
0x670|      00                                       |  .             |                      align: 0 0x672-0x672.7 (1)
0x670|         09                                    |   .            |                      offset: 9 0x673-0x673.7 (1)
0x670|            09                                 |    .           |                    laneidx: 9 0x674-0x674.7 (1)
     |                                               |                |                  [3]{}: instr 0x675-0x675.7 (1)
0x670|               0b                              |     .          |                    end: 0xb (valid) 0x675-0x675.7 (1)
     |                                               |                |          [26]{}: code 0x676-0x681.7 (12)
0x670|                  0b                           |      .         |            size: 11 0x676-0x676.7 (1)
     |                                               |                |            code{}: 0x677-0x681.7 (11)
     |                                               |                |              locals{}: 0x677-0x677.7 (1)
0x670|                     00                        |       .        |                n: 0 0x677-0x677.7 (1)
     |                                               |                |                items[0:0]: 0x678-NA (0)
     |                                               |                |              expr{}: 0x678-0x681.7 (10)
     |                                               |                |                instructions[0:4]: 0x678-0x681.7 (10)
     |                                               |                |                  [0]{}: instr 0x678-0x679.7 (2)
0x670|                        41                     |        A       |                    i32.const: 0x41 (valid) 0x678-0x678.7 (1)
0x670|                           00                  |         .      |                    n: 0 0x679-0x679.7 (1)
     |                                               |                |                  [1]{}: instr 0x67a-0x67b.7 (2)
0x670|                              20               |                |                    local.get: 0x20 (valid) 0x67a-0x67a.7 (1)
0x670|                                 00            |           .    |                    x: 0 0x67b-0x67b.7 (1)
     |                                               |                |                  [2]{}: instr 0x67c-0x680.7 (5)
0x670|                                    fd         |            .   |                    prefix: 0xfd (valid) 0x67c-0x67c.7 (1)
0x670|                                       54      |             T  |                    v128.load8_lane: 84 (valid) 0x67d-0x67d.7 (1)
     |                                               |                |                    m{}: 0x67e-0x67f.7 (2)
0x670|                                          00   |              . |                      align: 0 0x67e-0x67e.7 (1)
0x670|                                             0a|               .|                      offset: 10 0x67f-0x67f.7 (1)
0x680|0a                                             |.               |                    laneidx: 10 0x680-0x680.7 (1)
     |                                               |                |                  [3]{}: instr 0x681-0x681.7 (1)
0x680|   0b                                          | .              |                    end: 0xb (valid) 0x681-0x681.7 (1)
     |                                               |                |          [27]{}: code 0x682-0x68d.7 (12)
0x680|      0b                                       |  .             |            size: 11 0x682-0x682.7 (1)
     |                                               |                |            code{}: 0x683-0x68d.7 (11)
     |                                               |                |              locals{}: 0x683-0x683.7 (1)
0x680|         00                                    |   .            |                n: 0 0x683-0x683.7 (1)
     |                                               |                |                items[0:0]: 0x684-NA (0)
     |                                               |                |              expr{}: 0x684-0x68d.7 (10)
     |                                               |                |                instructions[0:4]: 0x684-0x68d.7 (10)
     |                                               |                |                  [0]{}: instr 0x684-0x685.7 (2)
0x680|            41                                 |    A           |                    i32.const: 0x41 (valid) 0x684-0x684.7 (1)
0x680|               00                              |     .          |                    n: 0 0x685-0x685.7 (1)
     |                                               |                |                  [1]{}: instr 0x686-0x687.7 (2)
0x680|                  20                           |                |                    local.get: 0x20 (valid) 0x686-0x686.7 (1)
0x680|                     00                        |       .        |                    x: 0 0x687-0x687.7 (1)
     |                                               |                |                  [2]{}: instr 0x688-0x68c.7 (5)
0x680|                        fd                     |        .       |                    prefix: 0xfd (valid) 0x688-0x688.7 (1)
0x680|                           54                  |         T      |                    v128.load8_lane: 84 (valid) 0x689-0x689.7 (1)
     |                                               |                |                    m{}: 0x68a-0x68b.7 (2)
0x680|                              00               |          .     |                      align: 0 0x68a-0x68a.7 (1)
0x680|                                 0b            |           .    |                      offset: 11 0x68b-0x68b.7 (1)
0x680|                                    0b         |            .   |                    laneidx: 11 0x68c-0x68c.7 (1)
     |                                               |                |                  [3]{}: instr 0x68d-0x68d.7 (1)
0x680|                                       0b      |             .  |                    end: 0xb (valid) 0x68d-0x68d.7 (1)
     |                                               |                |          [28]{}: code 0x68e-0x699.7 (12)
0x680|                                          0b   |              . |            size: 11 0x68e-0x68e.7 (1)
     |                                               |                |            code{}: 0x68f-0x699.7 (11)
     |                                               |                |              locals{}: 0x68f-0x68f.7 (1)
0x680|                                             00|               .|                n: 0 0x68f-0x68f.7 (1)
     |                                               |                |                items[0:0]: 0x690-NA (0)
     |                                               |                |              expr{}: 0x690-0x699.7 (10)
     |                                               |                |                instructions[0:4]: 0x690-0x699.7 (10)
     |                                               |                |                  [0]{}: instr 0x690-0x691.7 (2)
0x690|41                                             |A               |                    i32.const: 0x41 (valid) 0x690-0x690.7 (1)
0x690|   00                                          | .              |                    n: 0 0x691-0x691.7 (1)
     |                                               |                |                  [1]{}: instr 0x692-0x693.7 (2)
0x690|      20                                       |                |                    local.get: 0x20 (valid) 0x692-0x692.7 (1)
0x690|         00                                    |   .            |                    x: 0 0x693-0x693.7 (1)
     |                                               |                |                  [2]{}: instr 0x694-0x698.7 (5)
0x690|            fd                                 |    .           |                    prefix: 0xfd (valid) 0x694-0x694.7 (1)
0x690|               54                              |     T          |                    v128.load8_lane: 84 (valid) 0x695-0x695.7 (1)
     |                                               |                |                    m{}: 0x696-0x697.7 (2)
0x690|                  00                           |      .         |                      align: 0 0x696-0x696.7 (1)
0x690|                     0c                        |       .        |                      offset: 12 0x697-0x697.7 (1)
0x690|                        0c                     |        .       |                    laneidx: 12 0x698-0x698.7 (1)
     |                                               |                |                  [3]{}: instr 0x699-0x699.7 (1)
0x690|                           0b                  |         .      |                    end: 0xb (valid) 0x699-0x699.7 (1)
     |                                               |                |          [29]{}: code 0x69a-0x6a5.7 (12)
0x690|                              0b               |          .     |            size: 11 0x69a-0x69a.7 (1)
     |                                               |                |            code{}: 0x69b-0x6a5.7 (11)
     |                                               |                |              locals{}: 0x69b-0x69b.7 (1)
0x690|                                 00            |           .    |                n: 0 0x69b-0x69b.7 (1)
     |                                               |                |                items[0:0]: 0x69c-NA (0)
     |                                               |                |              expr{}: 0x69c-0x6a5.7 (10)
     |                                               |                |                instructions[0:4]: 0x69c-0x6a5.7 (10)
     |                                               |                |                  [0]{}: instr 0x69c-0x69d.7 (2)
0x690|                                    41         |            A   |                    i32.const: 0x41 (valid) 0x69c-0x69c.7 (1)
0x690|                                       00      |             .  |                    n: 0 0x69d-0x69d.7 (1)
     |                                               |                |                  [1]{}: instr 0x69e-0x69f.7 (2)
0x690|                                          20   |                |                    local.get: 0x20 (valid) 0x69e-0x69e.7 (1)
0x690|                                             00|               .|                    x: 0 0x69f-0x69f.7 (1)
     |                                               |                |                  [2]{}: instr 0x6a0-0x6a4.7 (5)
0x6a0|fd                                             |.               |                    prefix: 0xfd (valid) 0x6a0-0x6a0.7 (1)
0x6a0|   54                                          | T              |                    v128.load8_lane: 84 (valid) 0x6a1-0x6a1.7 (1)
     |                                               |                |                    m{}: 0x6a2-0x6a3.7 (2)
0x6a0|      00                                       |  .             |                      align: 0 0x6a2-0x6a2.7 (1)
0x6a0|         0d                                    |   .            |                      offset: 13 0x6a3-0x6a3.7 (1)
0x6a0|            0d                                 |    .           |                    laneidx: 13 0x6a4-0x6a4.7 (1)
     |                                               |                |                  [3]{}: instr 0x6a5-0x6a5.7 (1)
0x6a0|               0b                              |     .          |                    end: 0xb (valid) 0x6a5-0x6a5.7 (1)
     |                                               |                |          [30]{}: code 0x6a6-0x6b1.7 (12)
0x6a0|                  0b                           |      .         |            size: 11 0x6a6-0x6a6.7 (1)
     |                                               |                |            code{}: 0x6a7-0x6b1.7 (11)
     |                                               |                |              locals{}: 0x6a7-0x6a7.7 (1)
0x6a0|                     00                        |       .        |                n: 0 0x6a7-0x6a7.7 (1)
     |                                               |                |                items[0:0]: 0x6a8-NA (0)
     |                                               |                |              expr{}: 0x6a8-0x6b1.7 (10)
     |                                               |                |                instructions[0:4]: 0x6a8-0x6b1.7 (10)
     |                                               |                |                  [0]{}: instr 0x6a8-0x6a9.7 (2)
0x6a0|                        41                     |        A       |                    i32.const: 0x41 (valid) 0x6a8-0x6a8.7 (1)
0x6a0|                           00                  |         .      |                    n: 0 0x6a9-0x6a9.7 (1)
     |                                               |                |                  [1]{}: instr 0x6aa-0x6ab.7 (2)
0x6a0|                              20               |                |                    local.get: 0x20 (valid) 0x6aa-0x6aa.7 (1)
0x6a0|                                 00            |           .    |                    x: 0 0x6ab-0x6ab.7 (1)
     |                                               |                |                  [2]{}: instr 0x6ac-0x6b0.7 (5)
0x6a0|                                    fd         |            .   |                    prefix: 0xfd (valid) 0x6ac-0x6ac.7 (1)
0x6a0|                                       54      |             T  |                    v128.load8_lane: 84 (valid) 0x6ad-0x6ad.7 (1)
     |                                               |                |                    m{}: 0x6ae-0x6af.7 (2)
0x6a0|                                          00   |              . |                      align: 0 0x6ae-0x6ae.7 (1)
0x6a0|                                             0e|               .|                      offset: 14 0x6af-0x6af.7 (1)
0x6b0|0e                                             |.               |                    laneidx: 14 0x6b0-0x6b0.7 (1)
     |                                               |                |                  [3]{}: instr 0x6b1-0x6b1.7 (1)
0x6b0|   0b                                          | .              |                    end: 0xb (valid) 0x6b1-0x6b1.7 (1)
     |                                               |                |          [31]{}: code 0x6b2-0x6bd.7 (12)
0x6b0|      0b                                       |  .             |            size: 11 0x6b2-0x6b2.7 (1)
     |                                               |                |            code{}: 0x6b3-0x6bd.7 (11)
     |                                               |                |              locals{}: 0x6b3-0x6b3.7 (1)
0x6b0|         00                                    |   .            |                n: 0 0x6b3-0x6b3.7 (1)
     |                                               |                |                items[0:0]: 0x6b4-NA (0)
     |                                               |                |              expr{}: 0x6b4-0x6bd.7 (10)
     |                                               |                |                instructions[0:4]: 0x6b4-0x6bd.7 (10)
     |                                               |                |                  [0]{}: instr 0x6b4-0x6b5.7 (2)
0x6b0|            41                                 |    A           |                    i32.const: 0x41 (valid) 0x6b4-0x6b4.7 (1)
0x6b0|               00                              |     .          |                    n: 0 0x6b5-0x6b5.7 (1)
     |                                               |                |                  [1]{}: instr 0x6b6-0x6b7.7 (2)
0x6b0|                  20                           |                |                    local.get: 0x20 (valid) 0x6b6-0x6b6.7 (1)
0x6b0|                     00                        |       .        |                    x: 0 0x6b7-0x6b7.7 (1)
     |                                               |                |                  [2]{}: instr 0x6b8-0x6bc.7 (5)
0x6b0|                        fd                     |        .       |                    prefix: 0xfd (valid) 0x6b8-0x6b8.7 (1)
0x6b0|                           54                  |         T      |                    v128.load8_lane: 84 (valid) 0x6b9-0x6b9.7 (1)
     |                                               |                |                    m{}: 0x6ba-0x6bb.7 (2)
0x6b0|                              00               |          .     |                      align: 0 0x6ba-0x6ba.7 (1)
0x6b0|                                 0f            |           .    |                      offset: 15 0x6bb-0x6bb.7 (1)
0x6b0|                                    0f         |            .   |                    laneidx: 15 0x6bc-0x6bc.7 (1)
     |                                               |                |                  [3]{}: instr 0x6bd-0x6bd.7 (1)
0x6b0|                                       0b      |             .  |                    end: 0xb (valid) 0x6bd-0x6bd.7 (1)
     |                                               |                |          [32]{}: code 0x6be-0x6c9.7 (12)
0x6b0|                                          0b   |              . |            size: 11 0x6be-0x6be.7 (1)
     |                                               |                |            code{}: 0x6bf-0x6c9.7 (11)
     |                                               |                |              locals{}: 0x6bf-0x6bf.7 (1)
0x6b0|                                             00|               .|                n: 0 0x6bf-0x6bf.7 (1)
     |                                               |                |                items[0:0]: 0x6c0-NA (0)
     |                                               |                |              expr{}: 0x6c0-0x6c9.7 (10)
     |                                               |                |                instructions[0:4]: 0x6c0-0x6c9.7 (10)
     |                                               |                |                  [0]{}: instr 0x6c0-0x6c1.7 (2)
0x6c0|20                                             |                |                    local.get: 0x20 (valid) 0x6c0-0x6c0.7 (1)
0x6c0|   00                                          | .              |                    x: 0 0x6c1-0x6c1.7 (1)
     |                                               |                |                  [1]{}: instr 0x6c2-0x6c3.7 (2)
0x6c0|      20                                       |                |                    local.get: 0x20 (valid) 0x6c2-0x6c2.7 (1)
0x6c0|         01                                    |   .            |                    x: 1 0x6c3-0x6c3.7 (1)
     |                                               |                |                  [2]{}: instr 0x6c4-0x6c8.7 (5)
0x6c0|            fd                                 |    .           |                    prefix: 0xfd (valid) 0x6c4-0x6c4.7 (1)
0x6c0|               54                              |     T          |                    v128.load8_lane: 84 (valid) 0x6c5-0x6c5.7 (1)
     |                                               |                |                    m{}: 0x6c6-0x6c7.7 (2)
0x6c0|                  00                           |      .         |                      align: 0 0x6c6-0x6c6.7 (1)
0x6c0|                     00                        |       .        |                      offset: 0 0x6c7-0x6c7.7 (1)
0x6c0|                        00                     |        .       |                    laneidx: 0 0x6c8-0x6c8.7 (1)
     |                                               |                |                  [3]{}: instr 0x6c9-0x6c9.7 (1)
0x6c0|                           0b                  |         .      |                    end: 0xb (valid) 0x6c9-0x6c9.7 (1)
     |                                               |                |          [33]{}: code 0x6ca-0x6d5.7 (12)
0x6c0|                              0b               |          .     |            size: 11 0x6ca-0x6ca.7 (1)
     |                                               |                |            code{}: 0x6cb-0x6d5.7 (11)
     |                                               |                |              locals{}: 0x6cb-0x6cb.7 (1)
0x6c0|                                 00            |           .    |                n: 0 0x6cb-0x6cb.7 (1)
     |                                               |                |                items[0:0]: 0x6cc-NA (0)
     |                                               |                |              expr{}: 0x6cc-0x6d5.7 (10)
     |                                               |                |                instructions[0:4]: 0x6cc-0x6d5.7 (10)
     |                                               |                |                  [0]{}: instr 0x6cc-0x6cd.7 (2)
0x6c0|                                    20         |                |                    local.get: 0x20 (valid) 0x6cc-0x6cc.7 (1)
0x6c0|                                       00      |             .  |                    x: 0 0x6cd-0x6cd.7 (1)
     |                                               |                |                  [1]{}: instr 0x6ce-0x6cf.7 (2)
0x6c0|                                          20   |                |                    local.get: 0x20 (valid) 0x6ce-0x6ce.7 (1)
0x6c0|                                             01|               .|                    x: 1 0x6cf-0x6cf.7 (1)
     |                                               |                |                  [2]{}: instr 0x6d0-0x6d4.7 (5)
0x6d0|fd                                             |.               |                    prefix: 0xfd (valid) 0x6d0-0x6d0.7 (1)
0x6d0|   54                                          | T              |                    v128.load8_lane: 84 (valid) 0x6d1-0x6d1.7 (1)
     |                                               |                |                    m{}: 0x6d2-0x6d3.7 (2)
0x6d0|      00                                       |  .             |                      align: 0 0x6d2-0x6d2.7 (1)
0x6d0|         00                                    |   .            |                      offset: 0 0x6d3-0x6d3.7 (1)
0x6d0|            01                                 |    .           |                    laneidx: 1 0x6d4-0x6d4.7 (1)
     |                                               |                |                  [3]{}: instr 0x6d5-0x6d5.7 (1)
0x6d0|               0b                              |     .          |                    end: 0xb (valid) 0x6d5-0x6d5.7 (1)
     |                                               |                |          [34]{}: code 0x6d6-0x6e1.7 (12)
0x6d0|                  0b                           |      .         |            size: 11 0x6d6-0x6d6.7 (1)
     |                                               |                |            code{}: 0x6d7-0x6e1.7 (11)
     |                                               |                |              locals{}: 0x6d7-0x6d7.7 (1)
0x6d0|                     00                        |       .        |                n: 0 0x6d7-0x6d7.7 (1)
     |                                               |                |                items[0:0]: 0x6d8-NA (0)
     |                                               |                |              expr{}: 0x6d8-0x6e1.7 (10)
     |                                               |                |                instructions[0:4]: 0x6d8-0x6e1.7 (10)
     |                                               |                |                  [0]{}: instr 0x6d8-0x6d9.7 (2)
0x6d0|                        20                     |                |                    local.get: 0x20 (valid) 0x6d8-0x6d8.7 (1)
0x6d0|                           00                  |         .      |                    x: 0 0x6d9-0x6d9.7 (1)
     |                                               |                |                  [1]{}: instr 0x6da-0x6db.7 (2)
0x6d0|                              20               |                |                    local.get: 0x20 (valid) 0x6da-0x6da.7 (1)
0x6d0|                                 01            |           .    |                    x: 1 0x6db-0x6db.7 (1)
     |                                               |                |                  [2]{}: instr 0x6dc-0x6e0.7 (5)
0x6d0|                                    fd         |            .   |                    prefix: 0xfd (valid) 0x6dc-0x6dc.7 (1)
0x6d0|                                       54      |             T  |                    v128.load8_lane: 84 (valid) 0x6dd-0x6dd.7 (1)
     |                                               |                |                    m{}: 0x6de-0x6df.7 (2)
0x6d0|                                          00   |              . |                      align: 0 0x6de-0x6de.7 (1)
0x6d0|                                             00|               .|                      offset: 0 0x6df-0x6df.7 (1)
0x6e0|02                                             |.               |                    laneidx: 2 0x6e0-0x6e0.7 (1)
     |                                               |                |                  [3]{}: instr 0x6e1-0x6e1.7 (1)
0x6e0|   0b                                          | .              |                    end: 0xb (valid) 0x6e1-0x6e1.7 (1)
     |                                               |                |          [35]{}: code 0x6e2-0x6ed.7 (12)
0x6e0|      0b                                       |  .             |            size: 11 0x6e2-0x6e2.7 (1)
     |                                               |                |            code{}: 0x6e3-0x6ed.7 (11)
     |                                               |                |              locals{}: 0x6e3-0x6e3.7 (1)
0x6e0|         00                                    |   .            |                n: 0 0x6e3-0x6e3.7 (1)
     |                                               |                |                items[0:0]: 0x6e4-NA (0)
     |                                               |                |              expr{}: 0x6e4-0x6ed.7 (10)
     |                                               |                |                instructions[0:4]: 0x6e4-0x6ed.7 (10)
     |                                               |                |                  [0]{}: instr 0x6e4-0x6e5.7 (2)
0x6e0|            20                                 |                |                    local.get: 0x20 (valid) 0x6e4-0x6e4.7 (1)
0x6e0|               00                              |     .          |                    x: 0 0x6e5-0x6e5.7 (1)
     |                                               |                |                  [1]{}: instr 0x6e6-0x6e7.7 (2)
0x6e0|                  20                           |                |                    local.get: 0x20 (valid) 0x6e6-0x6e6.7 (1)
0x6e0|                     01                        |       .        |                    x: 1 0x6e7-0x6e7.7 (1)
     |                                               |                |                  [2]{}: instr 0x6e8-0x6ec.7 (5)
0x6e0|                        fd                     |        .       |                    prefix: 0xfd (valid) 0x6e8-0x6e8.7 (1)
0x6e0|                           54                  |         T      |                    v128.load8_lane: 84 (valid) 0x6e9-0x6e9.7 (1)
     |                                               |                |                    m{}: 0x6ea-0x6eb.7 (2)
0x6e0|                              00               |          .     |                      align: 0 0x6ea-0x6ea.7 (1)
0x6e0|                                 00            |           .    |                      offset: 0 0x6eb-0x6eb.7 (1)
0x6e0|                                    03         |            .   |                    laneidx: 3 0x6ec-0x6ec.7 (1)
     |                                               |                |                  [3]{}: instr 0x6ed-0x6ed.7 (1)
0x6e0|                                       0b      |             .  |                    end: 0xb (valid) 0x6ed-0x6ed.7 (1)
     |                                               |                |          [36]{}: code 0x6ee-0x6f9.7 (12)
0x6e0|                                          0b   |              . |            size: 11 0x6ee-0x6ee.7 (1)
     |                                               |                |            code{}: 0x6ef-0x6f9.7 (11)
     |                                               |                |              locals{}: 0x6ef-0x6ef.7 (1)
0x6e0|                                             00|               .|                n: 0 0x6ef-0x6ef.7 (1)
     |                                               |                |                items[0:0]: 0x6f0-NA (0)
     |                                               |                |              expr{}: 0x6f0-0x6f9.7 (10)
     |                                               |                |                instructions[0:4]: 0x6f0-0x6f9.7 (10)
     |                                               |                |                  [0]{}: instr 0x6f0-0x6f1.7 (2)
0x6f0|20                                             |                |                    local.get: 0x20 (valid) 0x6f0-0x6f0.7 (1)
0x6f0|   00                                          | .              |                    x: 0 0x6f1-0x6f1.7 (1)
     |                                               |                |                  [1]{}: instr 0x6f2-0x6f3.7 (2)
0x6f0|      20                                       |                |                    local.get: 0x20 (valid) 0x6f2-0x6f2.7 (1)
0x6f0|         01                                    |   .            |                    x: 1 0x6f3-0x6f3.7 (1)
     |                                               |                |                  [2]{}: instr 0x6f4-0x6f8.7 (5)
0x6f0|            fd                                 |    .           |                    prefix: 0xfd (valid) 0x6f4-0x6f4.7 (1)
0x6f0|               54                              |     T          |                    v128.load8_lane: 84 (valid) 0x6f5-0x6f5.7 (1)
     |                                               |                |                    m{}: 0x6f6-0x6f7.7 (2)
0x6f0|                  00                           |      .         |                      align: 0 0x6f6-0x6f6.7 (1)
0x6f0|                     00                        |       .        |                      offset: 0 0x6f7-0x6f7.7 (1)
0x6f0|                        04                     |        .       |                    laneidx: 4 0x6f8-0x6f8.7 (1)
     |                                               |                |                  [3]{}: instr 0x6f9-0x6f9.7 (1)
0x6f0|                           0b                  |         .      |                    end: 0xb (valid) 0x6f9-0x6f9.7 (1)
     |                                               |                |          [37]{}: code 0x6fa-0x705.7 (12)
0x6f0|                              0b               |          .     |            size: 11 0x6fa-0x6fa.7 (1)
     |                                               |                |            code{}: 0x6fb-0x705.7 (11)
     |                                               |                |              locals{}: 0x6fb-0x6fb.7 (1)
0x6f0|                                 00            |           .    |                n: 0 0x6fb-0x6fb.7 (1)
     |                                               |                |                items[0:0]: 0x6fc-NA (0)
     |                                               |                |              expr{}: 0x6fc-0x705.7 (10)
     |                                               |                |                instructions[0:4]: 0x6fc-0x705.7 (10)
     |                                               |                |                  [0]{}: instr 0x6fc-0x6fd.7 (2)
0x6f0|                                    20         |                |                    local.get: 0x20 (valid) 0x6fc-0x6fc.7 (1)
0x6f0|                                       00      |             .  |                    x: 0 0x6fd-0x6fd.7 (1)
     |                                               |                |                  [1]{}: instr 0x6fe-0x6ff.7 (2)
0x6f0|                                          20   |                |                    local.get: 0x20 (valid) 0x6fe-0x6fe.7 (1)
0x6f0|                                             01|               .|                    x: 1 0x6ff-0x6ff.7 (1)
     |                                               |                |                  [2]{}: instr 0x700-0x704.7 (5)
0x700|fd                                             |.               |                    prefix: 0xfd (valid) 0x700-0x700.7 (1)
0x700|   54                                          | T              |                    v128.load8_lane: 84 (valid) 0x701-0x701.7 (1)
     |                                               |                |                    m{}: 0x702-0x703.7 (2)
0x700|      00                                       |  .             |                      align: 0 0x702-0x702.7 (1)
0x700|         00                                    |   .            |                      offset: 0 0x703-0x703.7 (1)
0x700|            05                                 |    .           |                    laneidx: 5 0x704-0x704.7 (1)
     |                                               |                |                  [3]{}: instr 0x705-0x705.7 (1)
0x700|               0b                              |     .          |                    end: 0xb (valid) 0x705-0x705.7 (1)
     |                                               |                |          [38]{}: code 0x706-0x711.7 (12)
0x700|                  0b                           |      .         |            size: 11 0x706-0x706.7 (1)
     |                                               |                |            code{}: 0x707-0x711.7 (11)
     |                                               |                |              locals{}: 0x707-0x707.7 (1)
0x700|                     00                        |       .        |                n: 0 0x707-0x707.7 (1)
     |                                               |                |                items[0:0]: 0x708-NA (0)
     |                                               |                |              expr{}: 0x708-0x711.7 (10)
     |                                               |                |                instructions[0:4]: 0x708-0x711.7 (10)
     |                                               |                |                  [0]{}: instr 0x708-0x709.7 (2)
0x700|                        20                     |                |                    local.get: 0x20 (valid) 0x708-0x708.7 (1)
0x700|                           00                  |         .      |                    x: 0 0x709-0x709.7 (1)
     |                                               |                |                  [1]{}: instr 0x70a-0x70b.7 (2)
0x700|                              20               |                |                    local.get: 0x20 (valid) 0x70a-0x70a.7 (1)
0x700|                                 01            |           .    |                    x: 1 0x70b-0x70b.7 (1)
     |                                               |                |                  [2]{}: instr 0x70c-0x710.7 (5)
0x700|                                    fd         |            .   |                    prefix: 0xfd (valid) 0x70c-0x70c.7 (1)
0x700|                                       54      |             T  |                    v128.load8_lane: 84 (valid) 0x70d-0x70d.7 (1)
     |                                               |                |                    m{}: 0x70e-0x70f.7 (2)
0x700|                                          00   |              . |                      align: 0 0x70e-0x70e.7 (1)
0x700|                                             00|               .|                      offset: 0 0x70f-0x70f.7 (1)
0x710|06                                             |.               |                    laneidx: 6 0x710-0x710.7 (1)
     |                                               |                |                  [3]{}: instr 0x711-0x711.7 (1)
0x710|   0b                                          | .              |                    end: 0xb (valid) 0x711-0x711.7 (1)
     |                                               |                |          [39]{}: code 0x712-0x71d.7 (12)
0x710|      0b                                       |  .             |            size: 11 0x712-0x712.7 (1)
     |                                               |                |            code{}: 0x713-0x71d.7 (11)
     |                                               |                |              locals{}: 0x713-0x713.7 (1)
0x710|         00                                    |   .            |                n: 0 0x713-0x713.7 (1)
     |                                               |                |                items[0:0]: 0x714-NA (0)
     |                                               |                |              expr{}: 0x714-0x71d.7 (10)
     |                                               |                |                instructions[0:4]: 0x714-0x71d.7 (10)
     |                                               |                |                  [0]{}: instr 0x714-0x715.7 (2)
0x710|            20                                 |                |                    local.get: 0x20 (valid) 0x714-0x714.7 (1)
0x710|               00                              |     .          |                    x: 0 0x715-0x715.7 (1)
     |                                               |                |                  [1]{}: instr 0x716-0x717.7 (2)
0x710|                  20                           |                |                    local.get: 0x20 (valid) 0x716-0x716.7 (1)
0x710|                     01                        |       .        |                    x: 1 0x717-0x717.7 (1)
     |                                               |                |                  [2]{}: instr 0x718-0x71c.7 (5)
0x710|                        fd                     |        .       |                    prefix: 0xfd (valid) 0x718-0x718.7 (1)
0x710|                           54                  |         T      |                    v128.load8_lane: 84 (valid) 0x719-0x719.7 (1)
     |                                               |                |                    m{}: 0x71a-0x71b.7 (2)
0x710|                              00               |          .     |                      align: 0 0x71a-0x71a.7 (1)
0x710|                                 00            |           .    |                      offset: 0 0x71b-0x71b.7 (1)
0x710|                                    07         |            .   |                    laneidx: 7 0x71c-0x71c.7 (1)
     |                                               |                |                  [3]{}: instr 0x71d-0x71d.7 (1)
0x710|                                       0b      |             .  |                    end: 0xb (valid) 0x71d-0x71d.7 (1)
     |                                               |                |          [40]{}: code 0x71e-0x729.7 (12)
0x710|                                          0b   |              . |            size: 11 0x71e-0x71e.7 (1)
     |                                               |                |            code{}: 0x71f-0x729.7 (11)
     |                                               |                |              locals{}: 0x71f-0x71f.7 (1)
0x710|                                             00|               .|                n: 0 0x71f-0x71f.7 (1)
     |                                               |                |                items[0:0]: 0x720-NA (0)
     |                                               |                |              expr{}: 0x720-0x729.7 (10)
     |                                               |                |                instructions[0:4]: 0x720-0x729.7 (10)
     |                                               |                |                  [0]{}: instr 0x720-0x721.7 (2)
0x720|20                                             |                |                    local.get: 0x20 (valid) 0x720-0x720.7 (1)
0x720|   00                                          | .              |                    x: 0 0x721-0x721.7 (1)
     |                                               |                |                  [1]{}: instr 0x722-0x723.7 (2)
0x720|      20                                       |                |                    local.get: 0x20 (valid) 0x722-0x722.7 (1)
0x720|         01                                    |   .            |                    x: 1 0x723-0x723.7 (1)
     |                                               |                |                  [2]{}: instr 0x724-0x728.7 (5)
0x720|            fd                                 |    .           |                    prefix: 0xfd (valid) 0x724-0x724.7 (1)
0x720|               54                              |     T          |                    v128.load8_lane: 84 (valid) 0x725-0x725.7 (1)
     |                                               |                |                    m{}: 0x726-0x727.7 (2)
0x720|                  00                           |      .         |                      align: 0 0x726-0x726.7 (1)
0x720|                     00                        |       .        |                      offset: 0 0x727-0x727.7 (1)
0x720|                        08                     |        .       |                    laneidx: 8 0x728-0x728.7 (1)
     |                                               |                |                  [3]{}: instr 0x729-0x729.7 (1)
0x720|                           0b                  |         .      |                    end: 0xb (valid) 0x729-0x729.7 (1)
     |                                               |                |          [41]{}: code 0x72a-0x735.7 (12)
0x720|                              0b               |          .     |            size: 11 0x72a-0x72a.7 (1)
     |                                               |                |            code{}: 0x72b-0x735.7 (11)
     |                                               |                |              locals{}: 0x72b-0x72b.7 (1)
0x720|                                 00            |           .    |                n: 0 0x72b-0x72b.7 (1)
     |                                               |                |                items[0:0]: 0x72c-NA (0)
     |                                               |                |              expr{}: 0x72c-0x735.7 (10)
     |                                               |                |                instructions[0:4]: 0x72c-0x735.7 (10)
     |                                               |                |                  [0]{}: instr 0x72c-0x72d.7 (2)
0x720|                                    20         |                |                    local.get: 0x20 (valid) 0x72c-0x72c.7 (1)
0x720|                                       00      |             .  |                    x: 0 0x72d-0x72d.7 (1)
     |                                               |                |                  [1]{}: instr 0x72e-0x72f.7 (2)
0x720|                                          20   |                |                    local.get: 0x20 (valid) 0x72e-0x72e.7 (1)
0x720|                                             01|               .|                    x: 1 0x72f-0x72f.7 (1)
     |                                               |                |                  [2]{}: instr 0x730-0x734.7 (5)
0x730|fd                                             |.               |                    prefix: 0xfd (valid) 0x730-0x730.7 (1)
0x730|   54                                          | T              |                    v128.load8_lane: 84 (valid) 0x731-0x731.7 (1)
     |                                               |                |                    m{}: 0x732-0x733.7 (2)
0x730|      00                                       |  .             |                      align: 0 0x732-0x732.7 (1)
0x730|         00                                    |   .            |                      offset: 0 0x733-0x733.7 (1)
0x730|            09                                 |    .           |                    laneidx: 9 0x734-0x734.7 (1)
     |                                               |                |                  [3]{}: instr 0x735-0x735.7 (1)
0x730|               0b                              |     .          |                    end: 0xb (valid) 0x735-0x735.7 (1)
     |                                               |                |          [42]{}: code 0x736-0x741.7 (12)
0x730|                  0b                           |      .         |            size: 11 0x736-0x736.7 (1)
     |                                               |                |            code{}: 0x737-0x741.7 (11)
     |                                               |                |              locals{}: 0x737-0x737.7 (1)
0x730|                     00                        |       .        |                n: 0 0x737-0x737.7 (1)
     |                                               |                |                items[0:0]: 0x738-NA (0)
     |                                               |                |              expr{}: 0x738-0x741.7 (10)
     |                                               |                |                instructions[0:4]: 0x738-0x741.7 (10)
     |                                               |                |                  [0]{}: instr 0x738-0x739.7 (2)
0x730|                        20                     |                |                    local.get: 0x20 (valid) 0x738-0x738.7 (1)
0x730|                           00                  |         .      |                    x: 0 0x739-0x739.7 (1)
     |                                               |                |                  [1]{}: instr 0x73a-0x73b.7 (2)
0x730|                              20               |                |                    local.get: 0x20 (valid) 0x73a-0x73a.7 (1)
0x730|                                 01            |           .    |                    x: 1 0x73b-0x73b.7 (1)
     |                                               |                |                  [2]{}: instr 0x73c-0x740.7 (5)
0x730|                                    fd         |            .   |                    prefix: 0xfd (valid) 0x73c-0x73c.7 (1)
0x730|                                       54      |             T  |                    v128.load8_lane: 84 (valid) 0x73d-0x73d.7 (1)
     |                                               |                |                    m{}: 0x73e-0x73f.7 (2)
0x730|                                          00   |              . |                      align: 0 0x73e-0x73e.7 (1)
0x730|                                             00|               .|                      offset: 0 0x73f-0x73f.7 (1)
0x740|0a                                             |.               |                    laneidx: 10 0x740-0x740.7 (1)
     |                                               |                |                  [3]{}: instr 0x741-0x741.7 (1)
0x740|   0b                                          | .              |                    end: 0xb (valid) 0x741-0x741.7 (1)
     |                                               |                |          [43]{}: code 0x742-0x74d.7 (12)
0x740|      0b                                       |  .             |            size: 11 0x742-0x742.7 (1)
     |                                               |                |            code{}: 0x743-0x74d.7 (11)
     |                                               |                |              locals{}: 0x743-0x743.7 (1)
0x740|         00                                    |   .            |                n: 0 0x743-0x743.7 (1)
     |                                               |                |                items[0:0]: 0x744-NA (0)
     |                                               |                |              expr{}: 0x744-0x74d.7 (10)
     |                                               |                |                instructions[0:4]: 0x744-0x74d.7 (10)
     |                                               |                |                  [0]{}: instr 0x744-0x745.7 (2)
0x740|            20                                 |                |                    local.get: 0x20 (valid) 0x744-0x744.7 (1)
0x740|               00                              |     .          |                    x: 0 0x745-0x745.7 (1)
     |                                               |                |                  [1]{}: instr 0x746-0x747.7 (2)
0x740|                  20                           |                |                    local.get: 0x20 (valid) 0x746-0x746.7 (1)
0x740|                     01                        |       .        |                    x: 1 0x747-0x747.7 (1)
     |                                               |                |                  [2]{}: instr 0x748-0x74c.7 (5)
0x740|                        fd                     |        .       |                    prefix: 0xfd (valid) 0x748-0x748.7 (1)
0x740|                           54                  |         T      |                    v128.load8_lane: 84 (valid) 0x749-0x749.7 (1)
     |                                               |                |                    m{}: 0x74a-0x74b.7 (2)
0x740|                              00               |          .     |                      align: 0 0x74a-0x74a.7 (1)
0x740|                                 00            |           .    |                      offset: 0 0x74b-0x74b.7 (1)
0x740|                                    0b         |            .   |                    laneidx: 11 0x74c-0x74c.7 (1)
     |                                               |                |                  [3]{}: instr 0x74d-0x74d.7 (1)
0x740|                                       0b      |             .  |                    end: 0xb (valid) 0x74d-0x74d.7 (1)
     |                                               |                |          [44]{}: code 0x74e-0x759.7 (12)
0x740|                                          0b   |              . |            size: 11 0x74e-0x74e.7 (1)
     |                                               |                |            code{}: 0x74f-0x759.7 (11)
     |                                               |                |              locals{}: 0x74f-0x74f.7 (1)
0x740|                                             00|               .|                n: 0 0x74f-0x74f.7 (1)
     |                                               |                |                items[0:0]: 0x750-NA (0)
     |                                               |                |              expr{}: 0x750-0x759.7 (10)
     |                                               |                |                instructions[0:4]: 0x750-0x759.7 (10)
     |                                               |                |                  [0]{}: instr 0x750-0x751.7 (2)
0x750|20                                             |                |                    local.get: 0x20 (valid) 0x750-0x750.7 (1)
0x750|   00                                          | .              |                    x: 0 0x751-0x751.7 (1)
     |                                               |                |                  [1]{}: instr 0x752-0x753.7 (2)
0x750|      20                                       |                |                    local.get: 0x20 (valid) 0x752-0x752.7 (1)
0x750|         01                                    |   .            |                    x: 1 0x753-0x753.7 (1)
     |                                               |                |                  [2]{}: instr 0x754-0x758.7 (5)
0x750|            fd                                 |    .           |                    prefix: 0xfd (valid) 0x754-0x754.7 (1)
0x750|               54                              |     T          |                    v128.load8_lane: 84 (valid) 0x755-0x755.7 (1)
     |                                               |                |                    m{}: 0x756-0x757.7 (2)
0x750|                  00                           |      .         |                      align: 0 0x756-0x756.7 (1)
0x750|                     00                        |       .        |                      offset: 0 0x757-0x757.7 (1)
0x750|                        0c                     |        .       |                    laneidx: 12 0x758-0x758.7 (1)
     |                                               |                |                  [3]{}: instr 0x759-0x759.7 (1)
0x750|                           0b                  |         .      |                    end: 0xb (valid) 0x759-0x759.7 (1)
     |                                               |                |          [45]{}: code 0x75a-0x765.7 (12)
0x750|                              0b               |          .     |            size: 11 0x75a-0x75a.7 (1)
     |                                               |                |            code{}: 0x75b-0x765.7 (11)
     |                                               |                |              locals{}: 0x75b-0x75b.7 (1)
0x750|                                 00            |           .    |                n: 0 0x75b-0x75b.7 (1)
     |                                               |                |                items[0:0]: 0x75c-NA (0)
     |                                               |                |              expr{}: 0x75c-0x765.7 (10)
     |                                               |                |                instructions[0:4]: 0x75c-0x765.7 (10)
     |                                               |                |                  [0]{}: instr 0x75c-0x75d.7 (2)
0x750|                                    20         |                |                    local.get: 0x20 (valid) 0x75c-0x75c.7 (1)
0x750|                                       00      |             .  |                    x: 0 0x75d-0x75d.7 (1)
     |                                               |                |                  [1]{}: instr 0x75e-0x75f.7 (2)
0x750|                                          20   |                |                    local.get: 0x20 (valid) 0x75e-0x75e.7 (1)
0x750|                                             01|               .|                    x: 1 0x75f-0x75f.7 (1)
     |                                               |                |                  [2]{}: instr 0x760-0x764.7 (5)
0x760|fd                                             |.               |                    prefix: 0xfd (valid) 0x760-0x760.7 (1)
0x760|   54                                          | T              |                    v128.load8_lane: 84 (valid) 0x761-0x761.7 (1)
     |                                               |                |                    m{}: 0x762-0x763.7 (2)
0x760|      00                                       |  .             |                      align: 0 0x762-0x762.7 (1)
0x760|         00                                    |   .            |                      offset: 0 0x763-0x763.7 (1)
0x760|            0d                                 |    .           |                    laneidx: 13 0x764-0x764.7 (1)
     |                                               |                |                  [3]{}: instr 0x765-0x765.7 (1)
0x760|               0b                              |     .          |                    end: 0xb (valid) 0x765-0x765.7 (1)
     |                                               |                |          [46]{}: code 0x766-0x771.7 (12)
0x760|                  0b                           |      .         |            size: 11 0x766-0x766.7 (1)
     |                                               |                |            code{}: 0x767-0x771.7 (11)
     |                                               |                |              locals{}: 0x767-0x767.7 (1)
0x760|                     00                        |       .        |                n: 0 0x767-0x767.7 (1)
     |                                               |                |                items[0:0]: 0x768-NA (0)
     |                                               |                |              expr{}: 0x768-0x771.7 (10)
     |                                               |                |                instructions[0:4]: 0x768-0x771.7 (10)
     |                                               |                |                  [0]{}: instr 0x768-0x769.7 (2)
0x760|                        20                     |                |                    local.get: 0x20 (valid) 0x768-0x768.7 (1)
0x760|                           00                  |         .      |                    x: 0 0x769-0x769.7 (1)
     |                                               |                |                  [1]{}: instr 0x76a-0x76b.7 (2)
0x760|                              20               |                |                    local.get: 0x20 (valid) 0x76a-0x76a.7 (1)
0x760|                                 01            |           .    |                    x: 1 0x76b-0x76b.7 (1)
     |                                               |                |                  [2]{}: instr 0x76c-0x770.7 (5)
0x760|                                    fd         |            .   |                    prefix: 0xfd (valid) 0x76c-0x76c.7 (1)
0x760|                                       54      |             T  |                    v128.load8_lane: 84 (valid) 0x76d-0x76d.7 (1)
     |                                               |                |                    m{}: 0x76e-0x76f.7 (2)
0x760|                                          00   |              . |                      align: 0 0x76e-0x76e.7 (1)
0x760|                                             00|               .|                      offset: 0 0x76f-0x76f.7 (1)
0x770|0e                                             |.               |                    laneidx: 14 0x770-0x770.7 (1)
     |                                               |                |                  [3]{}: instr 0x771-0x771.7 (1)
0x770|   0b                                          | .              |                    end: 0xb (valid) 0x771-0x771.7 (1)
     |                                               |                |          [47]{}: code 0x772-0x77d.7 (12)
0x770|      0b                                       |  .             |            size: 11 0x772-0x772.7 (1)
     |                                               |                |            code{}: 0x773-0x77d.7 (11)
     |                                               |                |              locals{}: 0x773-0x773.7 (1)
0x770|         00                                    |   .            |                n: 0 0x773-0x773.7 (1)
     |                                               |                |                items[0:0]: 0x774-NA (0)
     |                                               |                |              expr{}: 0x774-0x77d.7 (10)
     |                                               |                |                instructions[0:4]: 0x774-0x77d.7 (10)
     |                                               |                |                  [0]{}: instr 0x774-0x775.7 (2)
0x770|            20                                 |                |                    local.get: 0x20 (valid) 0x774-0x774.7 (1)
0x770|               00                              |     .          |                    x: 0 0x775-0x775.7 (1)
     |                                               |                |                  [1]{}: instr 0x776-0x777.7 (2)
0x770|                  20                           |                |                    local.get: 0x20 (valid) 0x776-0x776.7 (1)
0x770|                     01                        |       .        |                    x: 1 0x777-0x777.7 (1)
     |                                               |                |                  [2]{}: instr 0x778-0x77c.7 (5)
0x770|                        fd                     |        .       |                    prefix: 0xfd (valid) 0x778-0x778.7 (1)
0x770|                           54                  |         T      |                    v128.load8_lane: 84 (valid) 0x779-0x779.7 (1)
     |                                               |                |                    m{}: 0x77a-0x77b.7 (2)
0x770|                              00               |          .     |                      align: 0 0x77a-0x77a.7 (1)
0x770|                                 00            |           .    |                      offset: 0 0x77b-0x77b.7 (1)
0x770|                                    0f         |            .   |                    laneidx: 15 0x77c-0x77c.7 (1)
     |                                               |                |                  [3]{}: instr 0x77d-0x77d.7 (1)
0x770|                                       0b      |             .  |                    end: 0xb (valid) 0x77d-0x77d.7 (1)
     |                                               |                |    [5]{}: section 0x77e-0x795.7 (24)
0x770|                                          0b   |              . |      id: "data section" (11) 0x77e-0x77e.7 (1)
0x770|                                             16|               .|      size: 22 0x77f-0x77f.7 (1)
     |                                               |                |      content{}: 0x780-0x795.7 (22)
0x780|01                                             |.               |        n: 1 0x780-0x780.7 (1)
     |                                               |                |        items[0:1]: 0x781-0x795.7 (21)
     |                                               |                |          [0]{}: data 0x781-0x795.7 (21)
0x780|   00                                          | .              |            tag: 0 0x781-0x781.7 (1)
     |                                               |                |            instructions[0:2]: 0x782-0x784.7 (3)
     |                                               |                |              [0]{}: instr 0x782-0x783.7 (2)
0x780|      41                                       |  A             |                i32.const: 0x41 (valid) 0x782-0x782.7 (1)
0x780|         00                                    |   .            |                n: 0 0x783-0x783.7 (1)
     |                                               |                |              [1]{}: instr 0x784-0x784.7 (1)
0x780|            0b                                 |    .           |                end: 0xb (valid) 0x784-0x784.7 (1)
0x780|               10                              |     .          |            n: 16 0x785-0x785.7 (1)
0x780|                  00 01 02 03 04 05 06 07 08 09|      ..........|            bytes: raw bits 0x786-0x795.7 (16)
0x790|0a 0b 0c 0d 0e 0f|                             |......|         |
