$ fq -d wasm dv simd_i32x4_dot_i16x8-0.wasm
    |00 01 02 03 04 05 06 07 08 09 0a 0b 0c 0d 0e 0f|0123456789abcdef|.{}: simd_i32x4_dot_i16x8-0.wasm (wasm) 0x0-0x38.7 (57)
0x00|00 61 73 6d                                    |.asm            |  magic: raw bits (valid) 0x0-0x3.7 (4)
0x00|            01 00 00 00                        |    ....        |  version: 1 0x4-0x7.7 (4)
    |                                               |                |  sections[0:4]: 0x8-0x38.7 (49)
    |                                               |                |    [0]{}: section 0x8-0x10.7 (9)
0x00|                        01                     |        .       |      id: "type section" (1) 0x8-0x8.7 (1)
0x00|                           07                  |         .      |      size: 7 0x9-0x9.7 (1)
    |                                               |                |      content{}: 0xa-0x10.7 (7)
0x00|                              01               |          .     |        n: 1 0xa-0xa.7 (1)
    |                                               |                |        items[0:1]: 0xb-0x10.7 (6)
    |                                               |                |          [0]{}: functype 0xb-0x10.7 (6)
0x00|                                 60            |           `    |            tag: 0x60 (valid) 0xb-0xb.7 (1)
    |                                               |                |            rt1{}: 0xc-0xe.7 (3)
0x00|                                    02         |            .   |              n: 2 0xc-0xc.7 (1)
    |                                               |                |              items[0:2]: 0xd-0xe.7 (2)
0x00|                                       7b      |             {  |                [0]: "v128" (123) valtype 0xd-0xd.7 (1)
0x00|                                          7b   |              { |                [1]: "v128" (123) valtype 0xe-0xe.7 (1)
    |                                               |                |            rt2{}: 0xf-0x10.7 (2)
0x00|                                             01|               .|              n: 1 0xf-0xf.7 (1)
    |                                               |                |              items[0:1]: 0x10-0x10.7 (1)
0x10|7b                                             |{               |                [0]: "v128" (123) valtype 0x10-0x10.7 (1)
    |                                               |                |    [1]{}: section 0x11-0x14.7 (4)
0x10|   03                                          | .              |      id: "function section" (3) 0x11-0x11.7 (1)
0x10|      02                                       |  .             |      size: 2 0x12-0x12.7 (1)
    |                                               |                |      content{}: 0x13-0x14.7 (2)
0x10|         01                                    |   .            |        n: 1 0x13-0x13.7 (1)
    |                                               |                |        items[0:1]: 0x14-0x14.7 (1)
0x10|            00                                 |    .           |          [0]: 0 x 0x14-0x14.7 (1)
    |                                               |                |    [2]{}: section 0x15-0x2b.7 (23)
0x10|               07                              |     .          |      id: "export section" (7) 0x15-0x15.7 (1)
0x10|                  15                           |      .         |      size: 21 0x16-0x16.7 (1)
    |                                               |                |      content{}: 0x17-0x2b.7 (21)
0x10|                     01                        |       .        |        n: 1 0x17-0x17.7 (1)
    |                                               |                |        items[0:1]: 0x18-0x2b.7 (20)
    |                                               |                |          [0]{}: export 0x18-0x2b.7 (20)
    |                                               |                |            name{}: 0x18-0x29.7 (18)
0x10|                        11                     |        .       |              len: 17 0x18-0x18.7 (1)
0x10|                           69 33 32 78 34 2e 64|         i32x4.d|              utf8bytes: "i32x4.dot_i16x8_s" 0x19-0x29.7 (17)
0x20|6f 74 5f 69 31 36 78 38 5f 73                  |ot_i16x8_s      |
    |                                               |                |            expr{}: 0x2a-0x2b.7 (2)
0x20|                              00               |          .     |              tag: "funcidx" (0x0) 0x2a-0x2a.7 (1)
0x20|                                 00            |           .    |              x: 0 0x2b-0x2b.7 (1)
    |                                               |                |    [3]{}: section 0x2c-0x38.7 (13)
0x20|                                    0a         |            .   |      id: "code section" (10) 0x2c-0x2c.7 (1)
0x20|                                       0b      |             .  |      size: 11 0x2d-0x2d.7 (1)
    |                                               |                |      content{}: 0x2e-0x38.7 (11)
0x20|                                          01   |              . |        n: 1 0x2e-0x2e.7 (1)
    |                                               |                |        items[0:1]: 0x2f-0x38.7 (10)
    |                                               |                |          [0]{}: code 0x2f-0x38.7 (10)
0x20|                                             09|               .|            size: 9 0x2f-0x2f.7 (1)
    |                                               |                |            code{}: 0x30-0x38.7 (9)
    |                                               |                |              locals{}: 0x30-0x30.7 (1)
0x30|00                                             |.               |                n: 0 0x30-0x30.7 (1)
    |                                               |                |                items[0:0]: 0x31-NA (0)
    |                                               |                |              expr{}: 0x31-0x38.7 (8)
    |                                               |                |                instructions[0:4]: 0x31-0x38.7 (8)
    |                                               |                |                  [0]{}: instr 0x31-0x32.7 (2)
0x30|   20                                          |                |                    local.get: 0x20 (valid) 0x31-0x31.7 (1)
0x30|      00                                       |  .             |                    x: 0 0x32-0x32.7 (1)
    |                                               |                |                  [1]{}: instr 0x33-0x34.7 (2)
0x30|         20                                    |                |                    local.get: 0x20 (valid) 0x33-0x33.7 (1)
0x30|            01                                 |    .           |                    x: 1 0x34-0x34.7 (1)
    |                                               |                |                  [2]{}: instr 0x35-0x37.7 (3)
0x30|               fd                              |     .          |                    prefix: 0xfd (valid) 0x35-0x35.7 (1)
0x30|                  ba 01                        |      ..        |                    i32x4.dot_i16x8_s: 186 (valid) 0x36-0x37.7 (2)
    |                                               |                |                  [3]{}: instr 0x38-0x38.7 (1)
0x30|                        0b|                    |        .|      |                    end: 0xb (valid) 0x38-0x38.7 (1)
