$ fq -d wasm dv store-0.wasm
     |00 01 02 03 04 05 06 07 08 09 0a 0b 0c 0d 0e 0f|0123456789abcdef|.{}: store-0.wasm (wasm) 0x0-0x143.7 (324)
0x000|00 61 73 6d                                    |.asm            |  magic: raw bits (valid) 0x0-0x3.7 (4)
0x000|            01 00 00 00                        |    ....        |  version: 1 0x4-0x7.7 (4)
     |                                               |                |  sections[0:5]: 0x8-0x143.7 (316)
     |                                               |                |    [0]{}: section 0x8-0xd.7 (6)
0x000|                        01                     |        .       |      id: "type section" (1) 0x8-0x8.7 (1)
0x000|                           04                  |         .      |      size: 4 0x9-0x9.7 (1)
     |                                               |                |      content{}: 0xa-0xd.7 (4)
0x000|                              01               |          .     |        n: 1 0xa-0xa.7 (1)
     |                                               |                |        items[0:1]: 0xb-0xd.7 (3)
     |                                               |                |          [0]{}: functype 0xb-0xd.7 (3)
0x000|                                 60            |           `    |            tag: 0x60 (valid) 0xb-0xb.7 (1)
     |                                               |                |            rt1{}: 0xc-0xc.7 (1)
0x000|                                    00         |            .   |              n: 0 0xc-0xc.7 (1)
     |                                               |                |              items[0:0]: 0xd-NA (0)
     |                                               |                |            rt2{}: 0xd-0xd.7 (1)
0x000|                                       00      |             .  |              n: 0 0xd-0xd.7 (1)
     |                                               |                |              items[0:0]: 0xe-NA (0)
     |                                               |                |    [1]{}: section 0xe-0x19.7 (12)
0x000|                                          03   |              . |      id: "function section" (3) 0xe-0xe.7 (1)
0x000|                                             0a|               .|      size: 10 0xf-0xf.7 (1)
     |                                               |                |      content{}: 0x10-0x19.7 (10)
0x010|09                                             |.               |        n: 9 0x10-0x10.7 (1)
     |                                               |                |        items[0:9]: 0x11-0x19.7 (9)
0x010|   00                                          | .              |          [0]: 0 x 0x11-0x11.7 (1)
0x010|      00                                       |  .             |          [1]: 0 x 0x12-0x12.7 (1)
0x010|         00                                    |   .            |          [2]: 0 x 0x13-0x13.7 (1)
0x010|            00                                 |    .           |          [3]: 0 x 0x14-0x14.7 (1)
0x010|               00                              |     .          |          [4]: 0 x 0x15-0x15.7 (1)
0x010|                  00                           |      .         |          [5]: 0 x 0x16-0x16.7 (1)
0x010|                     00                        |       .        |          [6]: 0 x 0x17-0x17.7 (1)
0x010|                        00                     |        .       |          [7]: 0 x 0x18-0x18.7 (1)
0x010|                           00                  |         .      |          [8]: 0 x 0x19-0x19.7 (1)
     |                                               |                |    [2]{}: section 0x1a-0x1e.7 (5)
0x010|                              05               |          .     |      id: "memory section" (5) 0x1a-0x1a.7 (1)
0x010|                                 03            |           .    |      size: 3 0x1b-0x1b.7 (1)
     |                                               |                |      content{}: 0x1c-0x1e.7 (3)
0x010|                                    01         |            .   |        n: 1 0x1c-0x1c.7 (1)
     |                                               |                |        items[0:1]: 0x1d-0x1e.7 (2)
     |                                               |                |          [0]{}: mem 0x1d-0x1e.7 (2)
     |                                               |                |            limits{}: 0x1d-0x1e.7 (2)
0x010|                                       00      |             .  |              tag: 0x0 0x1d-0x1d.7 (1)
0x010|                                          01   |              . |              min: 1 0x1e-0x1e.7 (1)
     |                                               |                |    [3]{}: section 0x1f-0xb8.7 (154)
0x010|                                             07|               .|      id: "export section" (7) 0x1f-0x1f.7 (1)
0x020|97 01                                          |..              |      size: 151 0x20-0x21.7 (2)
     |                                               |                |      content{}: 0x22-0xb8.7 (151)
0x020|      09                                       |  .             |        n: 9 0x22-0x22.7 (1)
     |                                               |                |        items[0:9]: 0x23-0xb8.7 (150)
     |                                               |                |          [0]{}: export 0x23-0x33.7 (17)
     |                                               |                |            name{}: 0x23-0x31.7 (15)
0x020|         0e                                    |   .            |              len: 14 0x23-0x23.7 (1)
0x020|            61 73 2d 62 6c 6f 63 6b 2d 76 61 6c|    as-block-val|              utf8bytes: "as-block-value" 0x24-0x31.7 (14)
0x030|75 65                                          |ue              |
     |                                               |                |            expr{}: 0x32-0x33.7 (2)
0x030|      00                                       |  .             |              tag: "funcidx" (0x0) 0x32-0x32.7 (1)
0x030|         00                                    |   .            |              x: 0 0x33-0x33.7 (1)
     |                                               |                |          [1]{}: export 0x34-0x43.7 (16)
     |                                               |                |            name{}: 0x34-0x41.7 (14)
0x030|            0d                                 |    .           |              len: 13 0x34-0x34.7 (1)
0x030|               61 73 2d 6c 6f 6f 70 2d 76 61 6c|     as-loop-val|              utf8bytes: "as-loop-value" 0x35-0x41.7 (13)
0x040|75 65                                          |ue              |
     |                                               |                |            expr{}: 0x42-0x43.7 (2)
0x040|      00                                       |  .             |              tag: "funcidx" (0x0) 0x42-0x42.7 (1)
0x040|         01                                    |   .            |              x: 1 0x43-0x43.7 (1)
     |                                               |                |          [2]{}: export 0x44-0x51.7 (14)
     |                                               |                |            name{}: 0x44-0x4f.7 (12)
0x040|            0b                                 |    .           |              len: 11 0x44-0x44.7 (1)
0x040|               61 73 2d 62 72 2d 76 61 6c 75 65|     as-br-value|              utf8bytes: "as-br-value" 0x45-0x4f.7 (11)
     |                                               |                |            expr{}: 0x50-0x51.7 (2)
0x050|00                                             |.               |              tag: "funcidx" (0x0) 0x50-0x50.7 (1)
0x050|   02                                          | .              |              x: 2 0x51-0x51.7 (1)
     |                                               |                |          [3]{}: export 0x52-0x62.7 (17)
     |                                               |                |            name{}: 0x52-0x60.7 (15)
0x050|      0e                                       |  .             |              len: 14 0x52-0x52.7 (1)
0x050|         61 73 2d 62 72 5f 69 66 2d 76 61 6c 75|   as-br_if-valu|              utf8bytes: "as-br_if-value" 0x53-0x60.7 (14)
0x060|65                                             |e               |
     |                                               |                |            expr{}: 0x61-0x62.7 (2)
0x060|   00                                          | .              |              tag: "funcidx" (0x0) 0x61-0x61.7 (1)
0x060|      03                                       |  .             |              x: 3 0x62-0x62.7 (1)
     |                                               |                |          [4]{}: export 0x63-0x78.7 (22)
     |                                               |                |            name{}: 0x63-0x76.7 (20)
0x060|         13                                    |   .            |              len: 19 0x63-0x63.7 (1)
0x060|            61 73 2d 62 72 5f 69 66 2d 76 61 6c|    as-br_if-val|              utf8bytes: "as-br_if-value-cond" 0x64-0x76.7 (19)
0x070|75 65 2d 63 6f 6e 64                           |ue-cond         |
     |                                               |                |            expr{}: 0x77-0x78.7 (2)
0x070|                     00                        |       .        |              tag: "funcidx" (0x0) 0x77-0x77.7 (1)
0x070|                        04                     |        .       |              x: 4 0x78-0x78.7 (1)
     |                                               |                |          [5]{}: export 0x79-0x8c.7 (20)
     |                                               |                |            name{}: 0x79-0x8a.7 (18)
0x070|                           11                  |         .      |              len: 17 0x79-0x79.7 (1)
0x070|                              61 73 2d 62 72 5f|          as-br_|              utf8bytes: "as-br_table-value" 0x7a-0x8a.7 (17)
0x080|74 61 62 6c 65 2d 76 61 6c 75 65               |table-value     |
     |                                               |                |            expr{}: 0x8b-0x8c.7 (2)
0x080|                                 00            |           .    |              tag: "funcidx" (0x0) 0x8b-0x8b.7 (1)
0x080|                                    05         |            .   |              x: 5 0x8c-0x8c.7 (1)
     |                                               |                |          [6]{}: export 0x8d-0x9e.7 (18)
     |                                               |                |            name{}: 0x8d-0x9c.7 (16)
0x080|                                       0f      |             .  |              len: 15 0x8d-0x8d.7 (1)
0x080|                                          61 73|              as|              utf8bytes: "as-return-value" 0x8e-0x9c.7 (15)
0x090|2d 72 65 74 75 72 6e 2d 76 61 6c 75 65         |-return-value   |
     |                                               |                |            expr{}: 0x9d-0x9e.7 (2)
0x090|                                       00      |             .  |              tag: "funcidx" (0x0) 0x9d-0x9d.7 (1)
0x090|                                          06   |              . |              x: 6 0x9e-0x9e.7 (1)
     |                                               |                |          [7]{}: export 0x9f-0xab.7 (13)
     |                                               |                |            name{}: 0x9f-0xa9.7 (11)
0x090|                                             0a|               .|              len: 10 0x9f-0x9f.7 (1)
0x0a0|61 73 2d 69 66 2d 74 68 65 6e                  |as-if-then      |              utf8bytes: "as-if-then" 0xa0-0xa9.7 (10)
     |                                               |                |            expr{}: 0xaa-0xab.7 (2)
0x0a0|                              00               |          .     |              tag: "funcidx" (0x0) 0xaa-0xaa.7 (1)
0x0a0|                                 07            |           .    |              x: 7 0xab-0xab.7 (1)
     |                                               |                |          [8]{}: export 0xac-0xb8.7 (13)
     |                                               |                |            name{}: 0xac-0xb6.7 (11)
0x0a0|                                    0a         |            .   |              len: 10 0xac-0xac.7 (1)
0x0a0|                                       61 73 2d|             as-|              utf8bytes: "as-if-else" 0xad-0xb6.7 (10)
0x0b0|69 66 2d 65 6c 73 65                           |if-else         |
     |                                               |                |            expr{}: 0xb7-0xb8.7 (2)
0x0b0|                     00                        |       .        |              tag: "funcidx" (0x0) 0xb7-0xb7.7 (1)
0x0b0|                        08                     |        .       |              x: 8 0xb8-0xb8.7 (1)
     |                                               |                |    [4]{}: section 0xb9-0x143.7 (139)
0x0b0|                           0a                  |         .      |      id: "code section" (10) 0xb9-0xb9.7 (1)
0x0b0|                              88 01            |          ..    |      size: 136 0xba-0xbb.7 (2)
     |                                               |                |      content{}: 0xbc-0x143.7 (136)
0x0b0|                                    09         |            .   |        n: 9 0xbc-0xbc.7 (1)
     |                                               |                |        items[0:9]: 0xbd-0x143.7 (135)
     |                                               |                |          [0]{}: code 0xbd-0xc9.7 (13)
0x0b0|                                       0c      |             .  |            size: 12 0xbd-0xbd.7 (1)
     |                                               |                |            code{}: 0xbe-0xc9.7 (12)
     |                                               |                |              locals{}: 0xbe-0xbe.7 (1)
0x0b0|                                          00   |              . |                n: 0 0xbe-0xbe.7 (1)
     |                                               |                |                items[0:0]: 0xbf-NA (0)
     |                                               |                |              expr{}: 0xbf-0xc9.7 (11)
     |                                               |                |                instructions[0:2]: 0xbf-0xc9.7 (11)
     |                                               |                |                  [0]{}: instr 0xbf-0xc8.7 (10)
0x0b0|                                             02|               .|                    block: 0x2 (valid) 0xbf-0xbf.7 (1)
0x0c0|40                                             |@               |                    empty: 64 0xc0-0xc0.7 (1)
     |                                               |                |                    instructions[0:3]: 0xc1-0xc7.7 (7)
     |                                               |                |                      [0]{}: instr 0xc1-0xc2.7 (2)
0x0c0|   41                                          | A              |                        i32.const: 0x41 (valid) 0xc1-0xc1.7 (1)
0x0c0|      00                                       |  .             |                        n: 0 0xc2-0xc2.7 (1)
     |                                               |                |                      [1]{}: instr 0xc3-0xc4.7 (2)
0x0c0|         41                                    |   A            |                        i32.const: 0x41 (valid) 0xc3-0xc3.7 (1)
0x0c0|            01                                 |    .           |                        n: 1 0xc4-0xc4.7 (1)
     |                                               |                |                      [2]{}: instr 0xc5-0xc7.7 (3)
0x0c0|               36                              |     6          |                        i32.store: 0x36 (valid) 0xc5-0xc5.7 (1)
0x0c0|                  02                           |      .         |                        align: 2 0xc6-0xc6.7 (1)
0x0c0|                     00                        |       .        |                        offset: 0 0xc7-0xc7.7 (1)
0x0c0|                        0b                     |        .       |                    end: 11 (valid) 0xc8-0xc8.7 (1)
     |                                               |                |                  [1]{}: instr 0xc9-0xc9.7 (1)
0x0c0|                           0b                  |         .      |                    end: 0xb (valid) 0xc9-0xc9.7 (1)
     |                                               |                |          [1]{}: code 0xca-0xd6.7 (13)
0x0c0|                              0c               |          .     |            size: 12 0xca-0xca.7 (1)
     |                                               |                |            code{}: 0xcb-0xd6.7 (12)
     |                                               |                |              locals{}: 0xcb-0xcb.7 (1)
0x0c0|                                 00            |           .    |                n: 0 0xcb-0xcb.7 (1)
     |                                               |                |                items[0:0]: 0xcc-NA (0)
     |                                               |                |              expr{}: 0xcc-0xd6.7 (11)
     |                                               |                |                instructions[0:2]: 0xcc-0xd6.7 (11)
     |                                               |                |                  [0]{}: instr 0xcc-0xd5.7 (10)
0x0c0|                                    03         |            .   |                    loop: 0x3 (valid) 0xcc-0xcc.7 (1)
0x0c0|                                       40      |             @  |                    empty: 64 0xcd-0xcd.7 (1)
     |                                               |                |                    instructions[0:3]: 0xce-0xd4.7 (7)
     |                                               |                |                      [0]{}: instr 0xce-0xcf.7 (2)
0x0c0|                                          41   |              A |                        i32.const: 0x41 (valid) 0xce-0xce.7 (1)
0x0c0|                                             00|               .|                        n: 0 0xcf-0xcf.7 (1)
     |                                               |                |                      [1]{}: instr 0xd0-0xd1.7 (2)
0x0d0|41                                             |A               |                        i32.const: 0x41 (valid) 0xd0-0xd0.7 (1)
0x0d0|   01                                          | .              |                        n: 1 0xd1-0xd1.7 (1)
     |                                               |                |                      [2]{}: instr 0xd2-0xd4.7 (3)
0x0d0|      36                                       |  6             |                        i32.store: 0x36 (valid) 0xd2-0xd2.7 (1)
0x0d0|         02                                    |   .            |                        align: 2 0xd3-0xd3.7 (1)
0x0d0|            00                                 |    .           |                        offset: 0 0xd4-0xd4.7 (1)
0x0d0|               0b                              |     .          |                    end: 11 (valid) 0xd5-0xd5.7 (1)
     |                                               |                |                  [1]{}: instr 0xd6-0xd6.7 (1)
0x0d0|                  0b                           |      .         |                    end: 0xb (valid) 0xd6-0xd6.7 (1)
     |                                               |                |          [2]{}: code 0xd7-0xe5.7 (15)
0x0d0|                     0e                        |       .        |            size: 14 0xd7-0xd7.7 (1)
     |                                               |                |            code{}: 0xd8-0xe5.7 (14)
     |                                               |                |              locals{}: 0xd8-0xd8.7 (1)
0x0d0|                        00                     |        .       |                n: 0 0xd8-0xd8.7 (1)
     |                                               |                |                items[0:0]: 0xd9-NA (0)
     |                                               |                |              expr{}: 0xd9-0xe5.7 (13)
     |                                               |                |                instructions[0:2]: 0xd9-0xe5.7 (13)
     |                                               |                |                  [0]{}: instr 0xd9-0xe4.7 (12)
0x0d0|                           02                  |         .      |                    block: 0x2 (valid) 0xd9-0xd9.7 (1)
0x0d0|                              40               |          @     |                    empty: 64 0xda-0xda.7 (1)
     |                                               |                |                    instructions[0:4]: 0xdb-0xe3.7 (9)
     |                                               |                |                      [0]{}: instr 0xdb-0xdc.7 (2)
0x0d0|                                 41            |           A    |                        i32.const: 0x41 (valid) 0xdb-0xdb.7 (1)
0x0d0|                                    00         |            .   |                        n: 0 0xdc-0xdc.7 (1)
     |                                               |                |                      [1]{}: instr 0xdd-0xde.7 (2)
0x0d0|                                       41      |             A  |                        i32.const: 0x41 (valid) 0xdd-0xdd.7 (1)
0x0d0|                                          01   |              . |                        n: 1 0xde-0xde.7 (1)
     |                                               |                |                      [2]{}: instr 0xdf-0xe1.7 (3)
0x0d0|                                             36|               6|                        i32.store: 0x36 (valid) 0xdf-0xdf.7 (1)
0x0e0|02                                             |.               |                        align: 2 0xe0-0xe0.7 (1)
0x0e0|   00                                          | .              |                        offset: 0 0xe1-0xe1.7 (1)
     |                                               |                |                      [3]{}: instr 0xe2-0xe3.7 (2)
0x0e0|      0c                                       |  .             |                        br: 0xc (valid) 0xe2-0xe2.7 (1)
0x0e0|         00                                    |   .            |                        l: 0 0xe3-0xe3.7 (1)
0x0e0|            0b                                 |    .           |                    end: 11 (valid) 0xe4-0xe4.7 (1)
     |                                               |                |                  [1]{}: instr 0xe5-0xe5.7 (1)
0x0e0|               0b                              |     .          |                    end: 0xb (valid) 0xe5-0xe5.7 (1)
     |                                               |                |          [3]{}: code 0xe6-0xf6.7 (17)
0x0e0|                  10                           |      .         |            size: 16 0xe6-0xe6.7 (1)
     |                                               |                |            code{}: 0xe7-0xf6.7 (16)
     |                                               |                |              locals{}: 0xe7-0xe7.7 (1)
0x0e0|                     00                        |       .        |                n: 0 0xe7-0xe7.7 (1)
     |                                               |                |                items[0:0]: 0xe8-NA (0)
     |                                               |                |              expr{}: 0xe8-0xf6.7 (15)
     |                                               |                |                instructions[0:2]: 0xe8-0xf6.7 (15)
     |                                               |                |                  [0]{}: instr 0xe8-0xf5.7 (14)
0x0e0|                        02                     |        .       |                    block: 0x2 (valid) 0xe8-0xe8.7 (1)
0x0e0|                           40                  |         @      |                    empty: 64 0xe9-0xe9.7 (1)
     |                                               |                |                    instructions[0:5]: 0xea-0xf4.7 (11)
     |                                               |                |                      [0]{}: instr 0xea-0xeb.7 (2)
0x0e0|                              41               |          A     |                        i32.const: 0x41 (valid) 0xea-0xea.7 (1)
0x0e0|                                 00            |           .    |                        n: 0 0xeb-0xeb.7 (1)
     |                                               |                |                      [1]{}: instr 0xec-0xed.7 (2)
0x0e0|                                    41         |            A   |                        i32.const: 0x41 (valid) 0xec-0xec.7 (1)
0x0e0|                                       01      |             .  |                        n: 1 0xed-0xed.7 (1)
     |                                               |                |                      [2]{}: instr 0xee-0xf0.7 (3)
0x0e0|                                          36   |              6 |                        i32.store: 0x36 (valid) 0xee-0xee.7 (1)
0x0e0|                                             02|               .|                        align: 2 0xef-0xef.7 (1)
0x0f0|00                                             |.               |                        offset: 0 0xf0-0xf0.7 (1)
     |                                               |                |                      [3]{}: instr 0xf1-0xf2.7 (2)
0x0f0|   41                                          | A              |                        i32.const: 0x41 (valid) 0xf1-0xf1.7 (1)
0x0f0|      01                                       |  .             |                        n: 1 0xf2-0xf2.7 (1)
     |                                               |                |                      [4]{}: instr 0xf3-0xf4.7 (2)
0x0f0|         0d                                    |   .            |                        br_if: 0xd (valid) 0xf3-0xf3.7 (1)
0x0f0|            00                                 |    .           |                        l: 0 0xf4-0xf4.7 (1)
0x0f0|               0b                              |     .          |                    end: 11 (valid) 0xf5-0xf5.7 (1)
     |                                               |                |                  [1]{}: instr 0xf6-0xf6.7 (1)
0x0f0|                  0b                           |      .         |                    end: 0xb (valid) 0xf6-0xf6.7 (1)
     |                                               |                |          [4]{}: code 0xf7-0x107.7 (17)
0x0f0|                     10                        |       .        |            size: 16 0xf7-0xf7.7 (1)
     |                                               |                |            code{}: 0xf8-0x107.7 (16)
     |                                               |                |              locals{}: 0xf8-0xf8.7 (1)
0x0f0|                        00                     |        .       |                n: 0 0xf8-0xf8.7 (1)
     |                                               |                |                items[0:0]: 0xf9-NA (0)
     |                                               |                |              expr{}: 0xf9-0x107.7 (15)
     |                                               |                |                instructions[0:2]: 0xf9-0x107.7 (15)
     |                                               |                |                  [0]{}: instr 0xf9-0x106.7 (14)
0x0f0|                           02                  |         .      |                    block: 0x2 (valid) 0xf9-0xf9.7 (1)
0x0f0|                              40               |          @     |                    empty: 64 0xfa-0xfa.7 (1)
     |                                               |                |                    instructions[0:5]: 0xfb-0x105.7 (11)
     |                                               |                |                      [0]{}: instr 0xfb-0xfc.7 (2)
0x0f0|                                 41            |           A    |                        i32.const: 0x41 (valid) 0xfb-0xfb.7 (1)
0x0f0|                                    06         |            .   |                        n: 6 0xfc-0xfc.7 (1)
     |                                               |                |                      [1]{}: instr 0xfd-0xfe.7 (2)
0x0f0|                                       41      |             A  |                        i32.const: 0x41 (valid) 0xfd-0xfd.7 (1)
0x0f0|                                          00   |              . |                        n: 0 0xfe-0xfe.7 (1)
     |                                               |                |                      [2]{}: instr 0xff-0x100.7 (2)
0x0f0|                                             41|               A|                        i32.const: 0x41 (valid) 0xff-0xff.7 (1)
0x100|01                                             |.               |                        n: 1 0x100-0x100.7 (1)
     |                                               |                |                      [3]{}: instr 0x101-0x103.7 (3)
0x100|   36                                          | 6              |                        i32.store: 0x36 (valid) 0x101-0x101.7 (1)
0x100|      02                                       |  .             |                        align: 2 0x102-0x102.7 (1)
0x100|         00                                    |   .            |                        offset: 0 0x103-0x103.7 (1)
     |                                               |                |                      [4]{}: instr 0x104-0x105.7 (2)
0x100|            0d                                 |    .           |                        br_if: 0xd (valid) 0x104-0x104.7 (1)
0x100|               00                              |     .          |                        l: 0 0x105-0x105.7 (1)
0x100|                  0b                           |      .         |                    end: 11 (valid) 0x106-0x106.7 (1)
     |                                               |                |                  [1]{}: instr 0x107-0x107.7 (1)
0x100|                     0b                        |       .        |                    end: 0xb (valid) 0x107-0x107.7 (1)
     |                                               |                |          [5]{}: code 0x108-0x119.7 (18)
0x100|                        11                     |        .       |            size: 17 0x108-0x108.7 (1)
     |                                               |                |            code{}: 0x109-0x119.7 (17)
     |                                               |                |              locals{}: 0x109-0x109.7 (1)
0x100|                           00                  |         .      |                n: 0 0x109-0x109.7 (1)
     |                                               |                |                items[0:0]: 0x10a-NA (0)
     |                                               |                |              expr{}: 0x10a-0x119.7 (16)
     |                                               |                |                instructions[0:2]: 0x10a-0x119.7 (16)
     |                                               |                |                  [0]{}: instr 0x10a-0x118.7 (15)
0x100|                              02               |          .     |                    block: 0x2 (valid) 0x10a-0x10a.7 (1)
0x100|                                 40            |           @    |                    empty: 64 0x10b-0x10b.7 (1)
     |                                               |                |                    instructions[0:5]: 0x10c-0x117.7 (12)
     |                                               |                |                      [0]{}: instr 0x10c-0x10d.7 (2)
0x100|                                    41         |            A   |                        i32.const: 0x41 (valid) 0x10c-0x10c.7 (1)
0x100|                                       00      |             .  |                        n: 0 0x10d-0x10d.7 (1)
     |                                               |                |                      [1]{}: instr 0x10e-0x10f.7 (2)
0x100|                                          41   |              A |                        i32.const: 0x41 (valid) 0x10e-0x10e.7 (1)
0x100|                                             01|               .|                        n: 1 0x10f-0x10f.7 (1)
     |                                               |                |                      [2]{}: instr 0x110-0x112.7 (3)
0x110|36                                             |6               |                        i32.store: 0x36 (valid) 0x110-0x110.7 (1)
0x110|   02                                          | .              |                        align: 2 0x111-0x111.7 (1)
0x110|      00                                       |  .             |                        offset: 0 0x112-0x112.7 (1)
     |                                               |                |                      [3]{}: instr 0x113-0x114.7 (2)
0x110|         41                                    |   A            |                        i32.const: 0x41 (valid) 0x113-0x113.7 (1)
0x110|            01                                 |    .           |                        n: 1 0x114-0x114.7 (1)
     |                                               |                |                      [4]{}: instr 0x115-0x117.7 (3)
0x110|               0e                              |     .          |                        br_table: 0xe (valid) 0x115-0x115.7 (1)
     |                                               |                |                        table{}: 0x116-0x116.7 (1)
0x110|                  00                           |      .         |                          n: 0 0x116-0x116.7 (1)
     |                                               |                |                          items[0:0]: 0x117-NA (0)
0x110|                     00                        |       .        |                        l: 0 0x117-0x117.7 (1)
0x110|                        0b                     |        .       |                    end: 11 (valid) 0x118-0x118.7 (1)
     |                                               |                |                  [1]{}: instr 0x119-0x119.7 (1)
0x110|                           0b                  |         .      |                    end: 0xb (valid) 0x119-0x119.7 (1)
     |                                               |                |          [6]{}: code 0x11a-0x124.7 (11)
0x110|                              0a               |          .     |            size: 10 0x11a-0x11a.7 (1)
     |                                               |                |            code{}: 0x11b-0x124.7 (10)
     |                                               |                |              locals{}: 0x11b-0x11b.7 (1)
0x110|                                 00            |           .    |                n: 0 0x11b-0x11b.7 (1)
     |                                               |                |                items[0:0]: 0x11c-NA (0)
     |                                               |                |              expr{}: 0x11c-0x124.7 (9)
     |                                               |                |                instructions[0:5]: 0x11c-0x124.7 (9)
     |                                               |                |                  [0]{}: instr 0x11c-0x11d.7 (2)
0x110|                                    41         |            A   |                    i32.const: 0x41 (valid) 0x11c-0x11c.7 (1)
0x110|                                       00      |             .  |                    n: 0 0x11d-0x11d.7 (1)
     |                                               |                |                  [1]{}: instr 0x11e-0x11f.7 (2)
0x110|                                          41   |              A |                    i32.const: 0x41 (valid) 0x11e-0x11e.7 (1)
0x110|                                             01|               .|                    n: 1 0x11f-0x11f.7 (1)
     |                                               |                |                  [2]{}: instr 0x120-0x122.7 (3)
0x120|36                                             |6               |                    i32.store: 0x36 (valid) 0x120-0x120.7 (1)
0x120|   02                                          | .              |                    align: 2 0x121-0x121.7 (1)
0x120|      00                                       |  .             |                    offset: 0 0x122-0x122.7 (1)
     |                                               |                |                  [3]{}: instr 0x123-0x123.7 (1)
0x120|         0f                                    |   .            |                    return: 0xf (valid) 0x123-0x123.7 (1)
     |                                               |                |                  [4]{}: instr 0x124-0x124.7 (1)
0x120|            0b                                 |    .           |                    end: 0xb (valid) 0x124-0x124.7 (1)
     |                                               |                |          [7]{}: code 0x125-0x133.7 (15)
0x120|               0e                              |     .          |            size: 14 0x125-0x125.7 (1)
     |                                               |                |            code{}: 0x126-0x133.7 (14)
     |                                               |                |              locals{}: 0x126-0x126.7 (1)
0x120|                  00                           |      .         |                n: 0 0x126-0x126.7 (1)
     |                                               |                |                items[0:0]: 0x127-NA (0)
     |                                               |                |              expr{}: 0x127-0x133.7 (13)
     |                                               |                |                instructions[0:3]: 0x127-0x133.7 (13)
     |                                               |                |                  [0]{}: instr 0x127-0x128.7 (2)
0x120|                     41                        |       A        |                    i32.const: 0x41 (valid) 0x127-0x127.7 (1)
0x120|                        01                     |        .       |                    n: 1 0x128-0x128.7 (1)
     |                                               |                |                  [1]{}: instr 0x129-0x132.7 (10)
0x120|                           04                  |         .      |                    if: 0x4 (valid) 0x129-0x129.7 (1)
0x120|                              40               |          @     |                    empty: 64 0x12a-0x12a.7 (1)
     |                                               |                |                    in1[0:3]: 0x12b-0x131.7 (7)
     |                                               |                |                      [0]{}: instr 0x12b-0x12c.7 (2)
0x120|                                 41            |           A    |                        i32.const: 0x41 (valid) 0x12b-0x12b.7 (1)
0x120|                                    00         |            .   |                        n: 0 0x12c-0x12c.7 (1)
     |                                               |                |                      [1]{}: instr 0x12d-0x12e.7 (2)
0x120|                                       41      |             A  |                        i32.const: 0x41 (valid) 0x12d-0x12d.7 (1)
0x120|                                          01   |              . |                        n: 1 0x12e-0x12e.7 (1)
     |                                               |                |                      [2]{}: instr 0x12f-0x131.7 (3)
0x120|                                             36|               6|                        i32.store: 0x36 (valid) 0x12f-0x12f.7 (1)
0x130|02                                             |.               |                        align: 2 0x130-0x130.7 (1)
0x130|   00                                          | .              |                        offset: 0 0x131-0x131.7 (1)
0x130|      0b                                       |  .             |                    end: 11 (valid) 0x132-0x132.7 (1)
     |                                               |                |                  [2]{}: instr 0x133-0x133.7 (1)
0x130|         0b                                    |   .            |                    end: 0xb (valid) 0x133-0x133.7 (1)
     |                                               |                |          [8]{}: code 0x134-0x143.7 (16)
0x130|            0f                                 |    .           |            size: 15 0x134-0x134.7 (1)
     |                                               |                |            code{}: 0x135-0x143.7 (15)
     |                                               |                |              locals{}: 0x135-0x135.7 (1)
0x130|               00                              |     .          |                n: 0 0x135-0x135.7 (1)
     |                                               |                |                items[0:0]: 0x136-NA (0)
     |                                               |                |              expr{}: 0x136-0x143.7 (14)
     |                                               |                |                instructions[0:3]: 0x136-0x143.7 (14)
     |                                               |                |                  [0]{}: instr 0x136-0x137.7 (2)
0x130|                  41                           |      A         |                    i32.const: 0x41 (valid) 0x136-0x136.7 (1)
0x130|                     00                        |       .        |                    n: 0 0x137-0x137.7 (1)
     |                                               |                |                  [1]{}: instr 0x138-0x142.7 (11)
0x130|                        04                     |        .       |                    if: 0x4 (valid) 0x138-0x138.7 (1)
0x130|                           40                  |         @      |                    empty: 64 0x139-0x139.7 (1)
     |                                               |                |                    in1[0:0]: 0x13a-NA (0)
0x130|                              05               |          .     |                    else: 0x5 (valid) 0x13a-0x13a.7 (1)
     |                                               |                |                    in2[0:3]: 0x13b-0x141.7 (7)
     |                                               |                |                      [0]{}: instr 0x13b-0x13c.7 (2)
0x130|                                 41            |           A    |                        i32.const: 0x41 (valid) 0x13b-0x13b.7 (1)
0x130|                                    00         |            .   |                        n: 0 0x13c-0x13c.7 (1)
     |                                               |                |                      [1]{}: instr 0x13d-0x13e.7 (2)
0x130|                                       41      |             A  |                        i32.const: 0x41 (valid) 0x13d-0x13d.7 (1)
0x130|                                          01   |              . |                        n: 1 0x13e-0x13e.7 (1)
     |                                               |                |                      [2]{}: instr 0x13f-0x141.7 (3)
0x130|                                             36|               6|                        i32.store: 0x36 (valid) 0x13f-0x13f.7 (1)
0x140|02                                             |.               |                        align: 2 0x140-0x140.7 (1)
0x140|   00                                          | .              |                        offset: 0 0x141-0x141.7 (1)
0x140|      0b                                       |  .             |                    end: 11 (valid) 0x142-0x142.7 (1)
     |                                               |                |                  [2]{}: instr 0x143-0x143.7 (1)
0x140|         0b|                                   |   .|           |                    end: 0xb (valid) 0x143-0x143.7 (1)
