$ fq -d wasm dv table_init-31.wasm
     |00 01 02 03 04 05 06 07 08 09 0a 0b 0c 0d 0e 0f|0123456789abcdef|.{}: table_init-31.wasm (wasm) 0x0-0x11a.7 (283)
0x000|00 61 73 6d                                    |.asm            |  magic: raw bits (valid) 0x0-0x3.7 (4)
0x000|            01 00 00 00                        |    ....        |  version: 1 0x4-0x7.7 (4)
     |                                               |                |  sections[0:6]: 0x8-0x11a.7 (275)
     |                                               |                |    [0]{}: section 0x8-0x18.7 (17)
0x000|                        01                     |        .       |      id: "type section" (1) 0x8-0x8.7 (1)
0x000|                           0f                  |         .      |      size: 15 0x9-0x9.7 (1)
     |                                               |                |      content{}: 0xa-0x18.7 (15)
0x000|                              03               |          .     |        n: 3 0xa-0xa.7 (1)
     |                                               |                |        items[0:3]: 0xb-0x18.7 (14)
     |                                               |                |          [0]{}: functype 0xb-0xe.7 (4)
0x000|                                 60            |           `    |            tag: 0x60 (valid) 0xb-0xb.7 (1)
     |                                               |                |            rt1{}: 0xc-0xc.7 (1)
0x000|                                    00         |            .   |              n: 0 0xc-0xc.7 (1)
     |                                               |                |              items[0:0]: 0xd-NA (0)
     |                                               |                |            rt2{}: 0xd-0xe.7 (2)
0x000|                                       01      |             .  |              n: 1 0xd-0xd.7 (1)
     |                                               |                |              items[0:1]: 0xe-0xe.7 (1)
0x000|                                          7f   |              . |                [0]: "i32" (127) valtype 0xe-0xe.7 (1)
     |                                               |                |          [1]{}: functype 0xf-0x13.7 (5)
0x000|                                             60|               `|            tag: 0x60 (valid) 0xf-0xf.7 (1)
     |                                               |                |            rt1{}: 0x10-0x11.7 (2)
0x010|01                                             |.               |              n: 1 0x10-0x10.7 (1)
     |                                               |                |              items[0:1]: 0x11-0x11.7 (1)
0x010|   7f                                          | .              |                [0]: "i32" (127) valtype 0x11-0x11.7 (1)
     |                                               |                |            rt2{}: 0x12-0x13.7 (2)
0x010|      01                                       |  .             |              n: 1 0x12-0x12.7 (1)
     |                                               |                |              items[0:1]: 0x13-0x13.7 (1)
0x010|         7f                                    |   .            |                [0]: "i32" (127) valtype 0x13-0x13.7 (1)
     |                                               |                |          [2]{}: functype 0x14-0x18.7 (5)
0x010|            60                                 |    `           |            tag: 0x60 (valid) 0x14-0x14.7 (1)
     |                                               |                |            rt1{}: 0x15-0x17.7 (3)
0x010|               02                              |     .          |              n: 2 0x15-0x15.7 (1)
     |                                               |                |              items[0:2]: 0x16-0x17.7 (2)
0x010|                  7f                           |      .         |                [0]: "i32" (127) valtype 0x16-0x16.7 (1)
0x010|                     7f                        |       .        |                [1]: "i32" (127) valtype 0x17-0x17.7 (1)
     |                                               |                |            rt2{}: 0x18-0x18.7 (1)
0x010|                        00                     |        .       |              n: 0 0x18-0x18.7 (1)
     |                                               |                |              items[0:0]: 0x19-NA (0)
     |                                               |                |    [1]{}: section 0x19-0x2d.7 (21)
0x010|                           03                  |         .      |      id: "function section" (3) 0x19-0x19.7 (1)
0x010|                              13               |          .     |      size: 19 0x1a-0x1a.7 (1)
     |                                               |                |      content{}: 0x1b-0x2d.7 (19)
0x010|                                 12            |           .    |        n: 18 0x1b-0x1b.7 (1)
     |                                               |                |        items[0:18]: 0x1c-0x2d.7 (18)
0x010|                                    00         |            .   |          [0]: 0 x 0x1c-0x1c.7 (1)
0x010|                                       00      |             .  |          [1]: 0 x 0x1d-0x1d.7 (1)
0x010|                                          00   |              . |          [2]: 0 x 0x1e-0x1e.7 (1)
0x010|                                             00|               .|          [3]: 0 x 0x1f-0x1f.7 (1)
0x020|00                                             |.               |          [4]: 0 x 0x20-0x20.7 (1)
0x020|   00                                          | .              |          [5]: 0 x 0x21-0x21.7 (1)
0x020|      00                                       |  .             |          [6]: 0 x 0x22-0x22.7 (1)
0x020|         00                                    |   .            |          [7]: 0 x 0x23-0x23.7 (1)
0x020|            00                                 |    .           |          [8]: 0 x 0x24-0x24.7 (1)
0x020|               00                              |     .          |          [9]: 0 x 0x25-0x25.7 (1)
0x020|                  00                           |      .         |          [10]: 0 x 0x26-0x26.7 (1)
0x020|                     00                        |       .        |          [11]: 0 x 0x27-0x27.7 (1)
0x020|                        00                     |        .       |          [12]: 0 x 0x28-0x28.7 (1)
0x020|                           00                  |         .      |          [13]: 0 x 0x29-0x29.7 (1)
0x020|                              00               |          .     |          [14]: 0 x 0x2a-0x2a.7 (1)
0x020|                                 00            |           .    |          [15]: 0 x 0x2b-0x2b.7 (1)
0x020|                                    01         |            .   |          [16]: 1 x 0x2c-0x2c.7 (1)
0x020|                                       02      |             .  |          [17]: 2 x 0x2d-0x2d.7 (1)
     |                                               |                |    [2]{}: section 0x2e-0x36.7 (9)
0x020|                                          04   |              . |      id: "table section" (4) 0x2e-0x2e.7 (1)
0x020|                                             07|               .|      size: 7 0x2f-0x2f.7 (1)
     |                                               |                |      content{}: 0x30-0x36.7 (7)
0x030|01                                             |.               |        n: 1 0x30-0x30.7 (1)
     |                                               |                |        items[0:1]: 0x31-0x36.7 (6)
     |                                               |                |          [0]{}: table 0x31-0x36.7 (6)
0x030|   70                                          | p              |            reftype: "funcref" (112) 0x31-0x31.7 (1)
     |                                               |                |            limits{}: 0x32-0x36.7 (5)
0x030|      01                                       |  .             |              tag: 0x1 0x32-0x32.7 (1)
0x030|         a0 01                                 |   ..           |              min: 160 0x33-0x34.7 (2)
0x030|               c0 02                           |     ..         |              max: 320 0x35-0x36.7 (2)
     |                                               |                |    [3]{}: section 0x37-0x9c.7 (102)
0x030|                     07                        |       .        |      id: "export section" (7) 0x37-0x37.7 (1)
0x030|                        64                     |        d       |      size: 100 0x38-0x38.7 (1)
     |                                               |                |      content{}: 0x39-0x9c.7 (100)
0x030|                           12                  |         .      |        n: 18 0x39-0x39.7 (1)
     |                                               |                |        items[0:18]: 0x3a-0x9c.7 (99)
     |                                               |                |          [0]{}: export 0x3a-0x3e.7 (5)
     |                                               |                |            name{}: 0x3a-0x3c.7 (3)
0x030|                              02               |          .     |              len: 2 0x3a-0x3a.7 (1)
0x030|                                 66 30         |           f0   |              utf8bytes: "f0" 0x3b-0x3c.7 (2)
     |                                               |                |            expr{}: 0x3d-0x3e.7 (2)
0x030|                                       00      |             .  |              tag: "funcidx" (0x0) 0x3d-0x3d.7 (1)
0x030|                                          00   |              . |              x: 0 0x3e-0x3e.7 (1)
     |                                               |                |          [1]{}: export 0x3f-0x43.7 (5)
     |                                               |                |            name{}: 0x3f-0x41.7 (3)
0x030|                                             02|               .|              len: 2 0x3f-0x3f.7 (1)
0x040|66 31                                          |f1              |              utf8bytes: "f1" 0x40-0x41.7 (2)
     |                                               |                |            expr{}: 0x42-0x43.7 (2)
0x040|      00                                       |  .             |              tag: "funcidx" (0x0) 0x42-0x42.7 (1)
0x040|         01                                    |   .            |              x: 1 0x43-0x43.7 (1)
     |                                               |                |          [2]{}: export 0x44-0x48.7 (5)
     |                                               |                |            name{}: 0x44-0x46.7 (3)
0x040|            02                                 |    .           |              len: 2 0x44-0x44.7 (1)
0x040|               66 32                           |     f2         |              utf8bytes: "f2" 0x45-0x46.7 (2)
     |                                               |                |            expr{}: 0x47-0x48.7 (2)
0x040|                     00                        |       .        |              tag: "funcidx" (0x0) 0x47-0x47.7 (1)
0x040|                        02                     |        .       |              x: 2 0x48-0x48.7 (1)
     |                                               |                |          [3]{}: export 0x49-0x4d.7 (5)
     |                                               |                |            name{}: 0x49-0x4b.7 (3)
0x040|                           02                  |         .      |              len: 2 0x49-0x49.7 (1)
0x040|                              66 33            |          f3    |              utf8bytes: "f3" 0x4a-0x4b.7 (2)
     |                                               |                |            expr{}: 0x4c-0x4d.7 (2)
0x040|                                    00         |            .   |              tag: "funcidx" (0x0) 0x4c-0x4c.7 (1)
0x040|                                       03      |             .  |              x: 3 0x4d-0x4d.7 (1)
     |                                               |                |          [4]{}: export 0x4e-0x52.7 (5)
     |                                               |                |            name{}: 0x4e-0x50.7 (3)
0x040|                                          02   |              . |              len: 2 0x4e-0x4e.7 (1)
0x040|                                             66|               f|              utf8bytes: "f4" 0x4f-0x50.7 (2)
0x050|34                                             |4               |
     |                                               |                |            expr{}: 0x51-0x52.7 (2)
0x050|   00                                          | .              |              tag: "funcidx" (0x0) 0x51-0x51.7 (1)
0x050|      04                                       |  .             |              x: 4 0x52-0x52.7 (1)
     |                                               |                |          [5]{}: export 0x53-0x57.7 (5)
     |                                               |                |            name{}: 0x53-0x55.7 (3)
0x050|         02                                    |   .            |              len: 2 0x53-0x53.7 (1)
0x050|            66 35                              |    f5          |              utf8bytes: "f5" 0x54-0x55.7 (2)
     |                                               |                |            expr{}: 0x56-0x57.7 (2)
0x050|                  00                           |      .         |              tag: "funcidx" (0x0) 0x56-0x56.7 (1)
0x050|                     05                        |       .        |              x: 5 0x57-0x57.7 (1)
     |                                               |                |          [6]{}: export 0x58-0x5c.7 (5)
     |                                               |                |            name{}: 0x58-0x5a.7 (3)
0x050|                        02                     |        .       |              len: 2 0x58-0x58.7 (1)
0x050|                           66 36               |         f6     |              utf8bytes: "f6" 0x59-0x5a.7 (2)
     |                                               |                |            expr{}: 0x5b-0x5c.7 (2)
0x050|                                 00            |           .    |              tag: "funcidx" (0x0) 0x5b-0x5b.7 (1)
0x050|                                    06         |            .   |              x: 6 0x5c-0x5c.7 (1)
     |                                               |                |          [7]{}: export 0x5d-0x61.7 (5)
     |                                               |                |            name{}: 0x5d-0x5f.7 (3)
0x050|                                       02      |             .  |              len: 2 0x5d-0x5d.7 (1)
0x050|                                          66 37|              f7|              utf8bytes: "f7" 0x5e-0x5f.7 (2)
     |                                               |                |            expr{}: 0x60-0x61.7 (2)
0x060|00                                             |.               |              tag: "funcidx" (0x0) 0x60-0x60.7 (1)
0x060|   07                                          | .              |              x: 7 0x61-0x61.7 (1)
     |                                               |                |          [8]{}: export 0x62-0x66.7 (5)
     |                                               |                |            name{}: 0x62-0x64.7 (3)
0x060|      02                                       |  .             |              len: 2 0x62-0x62.7 (1)
0x060|         66 38                                 |   f8           |              utf8bytes: "f8" 0x63-0x64.7 (2)
     |                                               |                |            expr{}: 0x65-0x66.7 (2)
0x060|               00                              |     .          |              tag: "funcidx" (0x0) 0x65-0x65.7 (1)
0x060|                  08                           |      .         |              x: 8 0x66-0x66.7 (1)
     |                                               |                |          [9]{}: export 0x67-0x6b.7 (5)
     |                                               |                |            name{}: 0x67-0x69.7 (3)
0x060|                     02                        |       .        |              len: 2 0x67-0x67.7 (1)
0x060|                        66 39                  |        f9      |              utf8bytes: "f9" 0x68-0x69.7 (2)
     |                                               |                |            expr{}: 0x6a-0x6b.7 (2)
0x060|                              00               |          .     |              tag: "funcidx" (0x0) 0x6a-0x6a.7 (1)
0x060|                                 09            |           .    |              x: 9 0x6b-0x6b.7 (1)
     |                                               |                |          [10]{}: export 0x6c-0x71.7 (6)
     |                                               |                |            name{}: 0x6c-0x6f.7 (4)
0x060|                                    03         |            .   |              len: 3 0x6c-0x6c.7 (1)
0x060|                                       66 31 30|             f10|              utf8bytes: "f10" 0x6d-0x6f.7 (3)
     |                                               |                |            expr{}: 0x70-0x71.7 (2)
0x070|00                                             |.               |              tag: "funcidx" (0x0) 0x70-0x70.7 (1)
0x070|   0a                                          | .              |              x: 10 0x71-0x71.7 (1)
     |                                               |                |          [11]{}: export 0x72-0x77.7 (6)
     |                                               |                |            name{}: 0x72-0x75.7 (4)
0x070|      03                                       |  .             |              len: 3 0x72-0x72.7 (1)
0x070|         66 31 31                              |   f11          |              utf8bytes: "f11" 0x73-0x75.7 (3)
     |                                               |                |            expr{}: 0x76-0x77.7 (2)
0x070|                  00                           |      .         |              tag: "funcidx" (0x0) 0x76-0x76.7 (1)
0x070|                     0b                        |       .        |              x: 11 0x77-0x77.7 (1)
     |                                               |                |          [12]{}: export 0x78-0x7d.7 (6)
     |                                               |                |            name{}: 0x78-0x7b.7 (4)
0x070|                        03                     |        .       |              len: 3 0x78-0x78.7 (1)
0x070|                           66 31 32            |         f12    |              utf8bytes: "f12" 0x79-0x7b.7 (3)
     |                                               |                |            expr{}: 0x7c-0x7d.7 (2)
0x070|                                    00         |            .   |              tag: "funcidx" (0x0) 0x7c-0x7c.7 (1)
0x070|                                       0c      |             .  |              x: 12 0x7d-0x7d.7 (1)
     |                                               |                |          [13]{}: export 0x7e-0x83.7 (6)
     |                                               |                |            name{}: 0x7e-0x81.7 (4)
0x070|                                          03   |              . |              len: 3 0x7e-0x7e.7 (1)
0x070|                                             66|               f|              utf8bytes: "f13" 0x7f-0x81.7 (3)
0x080|31 33                                          |13              |
     |                                               |                |            expr{}: 0x82-0x83.7 (2)
0x080|      00                                       |  .             |              tag: "funcidx" (0x0) 0x82-0x82.7 (1)
0x080|         0d                                    |   .            |              x: 13 0x83-0x83.7 (1)
     |                                               |                |          [14]{}: export 0x84-0x89.7 (6)
     |                                               |                |            name{}: 0x84-0x87.7 (4)
0x080|            03                                 |    .           |              len: 3 0x84-0x84.7 (1)
0x080|               66 31 34                        |     f14        |              utf8bytes: "f14" 0x85-0x87.7 (3)
     |                                               |                |            expr{}: 0x88-0x89.7 (2)
0x080|                        00                     |        .       |              tag: "funcidx" (0x0) 0x88-0x88.7 (1)
0x080|                           0e                  |         .      |              x: 14 0x89-0x89.7 (1)
     |                                               |                |          [15]{}: export 0x8a-0x8f.7 (6)
     |                                               |                |            name{}: 0x8a-0x8d.7 (4)
0x080|                              03               |          .     |              len: 3 0x8a-0x8a.7 (1)
0x080|                                 66 31 35      |           f15  |              utf8bytes: "f15" 0x8b-0x8d.7 (3)
     |                                               |                |            expr{}: 0x8e-0x8f.7 (2)
0x080|                                          00   |              . |              tag: "funcidx" (0x0) 0x8e-0x8e.7 (1)
0x080|                                             0f|               .|              x: 15 0x8f-0x8f.7 (1)
     |                                               |                |          [16]{}: export 0x90-0x96.7 (7)
     |                                               |                |            name{}: 0x90-0x94.7 (5)
0x090|04                                             |.               |              len: 4 0x90-0x90.7 (1)
0x090|   74 65 73 74                                 | test           |              utf8bytes: "test" 0x91-0x94.7 (4)
     |                                               |                |            expr{}: 0x95-0x96.7 (2)
0x090|               00                              |     .          |              tag: "funcidx" (0x0) 0x95-0x95.7 (1)
0x090|                  10                           |      .         |              x: 16 0x96-0x96.7 (1)
     |                                               |                |          [17]{}: export 0x97-0x9c.7 (6)
     |                                               |                |            name{}: 0x97-0x9a.7 (4)
0x090|                     03                        |       .        |              len: 3 0x97-0x97.7 (1)
0x090|                        72 75 6e               |        run     |              utf8bytes: "run" 0x98-0x9a.7 (3)
     |                                               |                |            expr{}: 0x9b-0x9c.7 (2)
0x090|                                 00            |           .    |              tag: "funcidx" (0x0) 0x9b-0x9b.7 (1)
0x090|                                    11         |            .   |              x: 17 0x9c-0x9c.7 (1)
     |                                               |                |    [4]{}: section 0x9d-0xb2.7 (22)
0x090|                                       09      |             .  |      id: "element section" (9) 0x9d-0x9d.7 (1)
0x090|                                          14   |              . |      size: 20 0x9e-0x9e.7 (1)
     |                                               |                |      element{}: 0x9f-0xb2.7 (20)
0x090|                                             01|               .|        n: 1 0x9f-0x9f.7 (1)
     |                                               |                |        items[0:1]: 0xa0-0xb2.7 (19)
     |                                               |                |          [0]{}: elem 0xa0-0xb2.7 (19)
0x0a0|01                                             |.               |            tag: 1 0xa0-0xa0.7 (1)
0x0a0|   00                                          | .              |            elemkind: "funcref" (0) (valid) 0xa1-0xa1.7 (1)
0x0a0|      10                                       |  .             |            n: 16 0xa2-0xa2.7 (1)
     |                                               |                |            items[0:16]: 0xa3-0xb2.7 (16)
0x0a0|         00                                    |   .            |              [0]: 0 y 0xa3-0xa3.7 (1)
0x0a0|            01                                 |    .           |              [1]: 1 y 0xa4-0xa4.7 (1)
0x0a0|               02                              |     .          |              [2]: 2 y 0xa5-0xa5.7 (1)
0x0a0|                  03                           |      .         |              [3]: 3 y 0xa6-0xa6.7 (1)
0x0a0|                     04                        |       .        |              [4]: 4 y 0xa7-0xa7.7 (1)
0x0a0|                        05                     |        .       |              [5]: 5 y 0xa8-0xa8.7 (1)
0x0a0|                           06                  |         .      |              [6]: 6 y 0xa9-0xa9.7 (1)
0x0a0|                              07               |          .     |              [7]: 7 y 0xaa-0xaa.7 (1)
0x0a0|                                 08            |           .    |              [8]: 8 y 0xab-0xab.7 (1)
0x0a0|                                    09         |            .   |              [9]: 9 y 0xac-0xac.7 (1)
0x0a0|                                       0a      |             .  |              [10]: 10 y 0xad-0xad.7 (1)
0x0a0|                                          0b   |              . |              [11]: 11 y 0xae-0xae.7 (1)
0x0a0|                                             0c|               .|              [12]: 12 y 0xaf-0xaf.7 (1)
0x0b0|0d                                             |.               |              [13]: 13 y 0xb0-0xb0.7 (1)
0x0b0|   0e                                          | .              |              [14]: 14 y 0xb1-0xb1.7 (1)
0x0b0|      0f                                       |  .             |              [15]: 15 y 0xb2-0xb2.7 (1)
     |                                               |                |    [5]{}: section 0xb3-0x11a.7 (104)
0x0b0|         0a                                    |   .            |      id: "code section" (10) 0xb3-0xb3.7 (1)
0x0b0|            66                                 |    f           |      size: 102 0xb4-0xb4.7 (1)
     |                                               |                |      content{}: 0xb5-0x11a.7 (102)
0x0b0|               12                              |     .          |        n: 18 0xb5-0xb5.7 (1)
     |                                               |                |        items[0:18]: 0xb6-0x11a.7 (101)
     |                                               |                |          [0]{}: code 0xb6-0xba.7 (5)
0x0b0|                  04                           |      .         |            size: 4 0xb6-0xb6.7 (1)
     |                                               |                |            code{}: 0xb7-0xba.7 (4)
     |                                               |                |              locals{}: 0xb7-0xb7.7 (1)
0x0b0|                     00                        |       .        |                n: 0 0xb7-0xb7.7 (1)
     |                                               |                |                items[0:0]: 0xb8-NA (0)
     |                                               |                |              expr{}: 0xb8-0xba.7 (3)
     |                                               |                |                instructions[0:2]: 0xb8-0xba.7 (3)
     |                                               |                |                  [0]{}: instr 0xb8-0xb9.7 (2)
0x0b0|                        41                     |        A       |                    i32.const: 0x41 (valid) 0xb8-0xb8.7 (1)
0x0b0|                           00                  |         .      |                    n: 0 0xb9-0xb9.7 (1)
     |                                               |                |                  [1]{}: instr 0xba-0xba.7 (1)
0x0b0|                              0b               |          .     |                    end: 0xb (valid) 0xba-0xba.7 (1)
     |                                               |                |          [1]{}: code 0xbb-0xbf.7 (5)
0x0b0|                                 04            |           .    |            size: 4 0xbb-0xbb.7 (1)
     |                                               |                |            code{}: 0xbc-0xbf.7 (4)
     |                                               |                |              locals{}: 0xbc-0xbc.7 (1)
0x0b0|                                    00         |            .   |                n: 0 0xbc-0xbc.7 (1)
     |                                               |                |                items[0:0]: 0xbd-NA (0)
     |                                               |                |              expr{}: 0xbd-0xbf.7 (3)
     |                                               |                |                instructions[0:2]: 0xbd-0xbf.7 (3)
     |                                               |                |                  [0]{}: instr 0xbd-0xbe.7 (2)
0x0b0|                                       41      |             A  |                    i32.const: 0x41 (valid) 0xbd-0xbd.7 (1)
0x0b0|                                          01   |              . |                    n: 1 0xbe-0xbe.7 (1)
     |                                               |                |                  [1]{}: instr 0xbf-0xbf.7 (1)
0x0b0|                                             0b|               .|                    end: 0xb (valid) 0xbf-0xbf.7 (1)
     |                                               |                |          [2]{}: code 0xc0-0xc4.7 (5)
0x0c0|04                                             |.               |            size: 4 0xc0-0xc0.7 (1)
     |                                               |                |            code{}: 0xc1-0xc4.7 (4)
     |                                               |                |              locals{}: 0xc1-0xc1.7 (1)
0x0c0|   00                                          | .              |                n: 0 0xc1-0xc1.7 (1)
     |                                               |                |                items[0:0]: 0xc2-NA (0)
     |                                               |                |              expr{}: 0xc2-0xc4.7 (3)
     |                                               |                |                instructions[0:2]: 0xc2-0xc4.7 (3)
     |                                               |                |                  [0]{}: instr 0xc2-0xc3.7 (2)
0x0c0|      41                                       |  A             |                    i32.const: 0x41 (valid) 0xc2-0xc2.7 (1)
0x0c0|         02                                    |   .            |                    n: 2 0xc3-0xc3.7 (1)
     |                                               |                |                  [1]{}: instr 0xc4-0xc4.7 (1)
0x0c0|            0b                                 |    .           |                    end: 0xb (valid) 0xc4-0xc4.7 (1)
     |                                               |                |          [3]{}: code 0xc5-0xc9.7 (5)
0x0c0|               04                              |     .          |            size: 4 0xc5-0xc5.7 (1)
     |                                               |                |            code{}: 0xc6-0xc9.7 (4)
     |                                               |                |              locals{}: 0xc6-0xc6.7 (1)
0x0c0|                  00                           |      .         |                n: 0 0xc6-0xc6.7 (1)
     |                                               |                |                items[0:0]: 0xc7-NA (0)
     |                                               |                |              expr{}: 0xc7-0xc9.7 (3)
     |                                               |                |                instructions[0:2]: 0xc7-0xc9.7 (3)
     |                                               |                |                  [0]{}: instr 0xc7-0xc8.7 (2)
0x0c0|                     41                        |       A        |                    i32.const: 0x41 (valid) 0xc7-0xc7.7 (1)
0x0c0|                        03                     |        .       |                    n: 3 0xc8-0xc8.7 (1)
     |                                               |                |                  [1]{}: instr 0xc9-0xc9.7 (1)
0x0c0|                           0b                  |         .      |                    end: 0xb (valid) 0xc9-0xc9.7 (1)
     |                                               |                |          [4]{}: code 0xca-0xce.7 (5)
0x0c0|                              04               |          .     |            size: 4 0xca-0xca.7 (1)
     |                                               |                |            code{}: 0xcb-0xce.7 (4)
     |                                               |                |              locals{}: 0xcb-0xcb.7 (1)
0x0c0|                                 00            |           .    |                n: 0 0xcb-0xcb.7 (1)
     |                                               |                |                items[0:0]: 0xcc-NA (0)
     |                                               |                |              expr{}: 0xcc-0xce.7 (3)
     |                                               |                |                instructions[0:2]: 0xcc-0xce.7 (3)
     |                                               |                |                  [0]{}: instr 0xcc-0xcd.7 (2)
0x0c0|                                    41         |            A   |                    i32.const: 0x41 (valid) 0xcc-0xcc.7 (1)
0x0c0|                                       04      |             .  |                    n: 4 0xcd-0xcd.7 (1)
     |                                               |                |                  [1]{}: instr 0xce-0xce.7 (1)
0x0c0|                                          0b   |              . |                    end: 0xb (valid) 0xce-0xce.7 (1)
     |                                               |                |          [5]{}: code 0xcf-0xd3.7 (5)
0x0c0|                                             04|               .|            size: 4 0xcf-0xcf.7 (1)
     |                                               |                |            code{}: 0xd0-0xd3.7 (4)
     |                                               |                |              locals{}: 0xd0-0xd0.7 (1)
0x0d0|00                                             |.               |                n: 0 0xd0-0xd0.7 (1)
     |                                               |                |                items[0:0]: 0xd1-NA (0)
     |                                               |                |              expr{}: 0xd1-0xd3.7 (3)
     |                                               |                |                instructions[0:2]: 0xd1-0xd3.7 (3)
     |                                               |                |                  [0]{}: instr 0xd1-0xd2.7 (2)
0x0d0|   41                                          | A              |                    i32.const: 0x41 (valid) 0xd1-0xd1.7 (1)
0x0d0|      05                                       |  .             |                    n: 5 0xd2-0xd2.7 (1)
     |                                               |                |                  [1]{}: instr 0xd3-0xd3.7 (1)
0x0d0|         0b                                    |   .            |                    end: 0xb (valid) 0xd3-0xd3.7 (1)
     |                                               |                |          [6]{}: code 0xd4-0xd8.7 (5)
0x0d0|            04                                 |    .           |            size: 4 0xd4-0xd4.7 (1)
     |                                               |                |            code{}: 0xd5-0xd8.7 (4)
     |                                               |                |              locals{}: 0xd5-0xd5.7 (1)
0x0d0|               00                              |     .          |                n: 0 0xd5-0xd5.7 (1)
     |                                               |                |                items[0:0]: 0xd6-NA (0)
     |                                               |                |              expr{}: 0xd6-0xd8.7 (3)
     |                                               |                |                instructions[0:2]: 0xd6-0xd8.7 (3)
     |                                               |                |                  [0]{}: instr 0xd6-0xd7.7 (2)
0x0d0|                  41                           |      A         |                    i32.const: 0x41 (valid) 0xd6-0xd6.7 (1)
0x0d0|                     06                        |       .        |                    n: 6 0xd7-0xd7.7 (1)
     |                                               |                |                  [1]{}: instr 0xd8-0xd8.7 (1)
0x0d0|                        0b                     |        .       |                    end: 0xb (valid) 0xd8-0xd8.7 (1)
     |                                               |                |          [7]{}: code 0xd9-0xdd.7 (5)
0x0d0|                           04                  |         .      |            size: 4 0xd9-0xd9.7 (1)
     |                                               |                |            code{}: 0xda-0xdd.7 (4)
     |                                               |                |              locals{}: 0xda-0xda.7 (1)
0x0d0|                              00               |          .     |                n: 0 0xda-0xda.7 (1)
     |                                               |                |                items[0:0]: 0xdb-NA (0)
     |                                               |                |              expr{}: 0xdb-0xdd.7 (3)
     |                                               |                |                instructions[0:2]: 0xdb-0xdd.7 (3)
     |                                               |                |                  [0]{}: instr 0xdb-0xdc.7 (2)
0x0d0|                                 41            |           A    |                    i32.const: 0x41 (valid) 0xdb-0xdb.7 (1)
0x0d0|                                    07         |            .   |                    n: 7 0xdc-0xdc.7 (1)
     |                                               |                |                  [1]{}: instr 0xdd-0xdd.7 (1)
0x0d0|                                       0b      |             .  |                    end: 0xb (valid) 0xdd-0xdd.7 (1)
     |                                               |                |          [8]{}: code 0xde-0xe2.7 (5)
0x0d0|                                          04   |              . |            size: 4 0xde-0xde.7 (1)
     |                                               |                |            code{}: 0xdf-0xe2.7 (4)
     |                                               |                |              locals{}: 0xdf-0xdf.7 (1)
0x0d0|                                             00|               .|                n: 0 0xdf-0xdf.7 (1)
     |                                               |                |                items[0:0]: 0xe0-NA (0)
     |                                               |                |              expr{}: 0xe0-0xe2.7 (3)
     |                                               |                |                instructions[0:2]: 0xe0-0xe2.7 (3)
     |                                               |                |                  [0]{}: instr 0xe0-0xe1.7 (2)
0x0e0|41                                             |A               |                    i32.const: 0x41 (valid) 0xe0-0xe0.7 (1)
0x0e0|   08                                          | .              |                    n: 8 0xe1-0xe1.7 (1)
     |                                               |                |                  [1]{}: instr 0xe2-0xe2.7 (1)
0x0e0|      0b                                       |  .             |                    end: 0xb (valid) 0xe2-0xe2.7 (1)
     |                                               |                |          [9]{}: code 0xe3-0xe7.7 (5)
0x0e0|         04                                    |   .            |            size: 4 0xe3-0xe3.7 (1)
     |                                               |                |            code{}: 0xe4-0xe7.7 (4)
     |                                               |                |              locals{}: 0xe4-0xe4.7 (1)
0x0e0|            00                                 |    .           |                n: 0 0xe4-0xe4.7 (1)
     |                                               |                |                items[0:0]: 0xe5-NA (0)
     |                                               |                |              expr{}: 0xe5-0xe7.7 (3)
     |                                               |                |                instructions[0:2]: 0xe5-0xe7.7 (3)
     |                                               |                |                  [0]{}: instr 0xe5-0xe6.7 (2)
0x0e0|               41                              |     A          |                    i32.const: 0x41 (valid) 0xe5-0xe5.7 (1)
0x0e0|                  09                           |      .         |                    n: 9 0xe6-0xe6.7 (1)
     |                                               |                |                  [1]{}: instr 0xe7-0xe7.7 (1)
0x0e0|                     0b                        |       .        |                    end: 0xb (valid) 0xe7-0xe7.7 (1)
     |                                               |                |          [10]{}: code 0xe8-0xec.7 (5)
0x0e0|                        04                     |        .       |            size: 4 0xe8-0xe8.7 (1)
     |                                               |                |            code{}: 0xe9-0xec.7 (4)
     |                                               |                |              locals{}: 0xe9-0xe9.7 (1)
0x0e0|                           00                  |         .      |                n: 0 0xe9-0xe9.7 (1)
     |                                               |                |                items[0:0]: 0xea-NA (0)
     |                                               |                |              expr{}: 0xea-0xec.7 (3)
     |                                               |                |                instructions[0:2]: 0xea-0xec.7 (3)
     |                                               |                |                  [0]{}: instr 0xea-0xeb.7 (2)
0x0e0|                              41               |          A     |                    i32.const: 0x41 (valid) 0xea-0xea.7 (1)
0x0e0|                                 0a            |           .    |                    n: 10 0xeb-0xeb.7 (1)
     |                                               |                |                  [1]{}: instr 0xec-0xec.7 (1)
0x0e0|                                    0b         |            .   |                    end: 0xb (valid) 0xec-0xec.7 (1)
     |                                               |                |          [11]{}: code 0xed-0xf1.7 (5)
0x0e0|                                       04      |             .  |            size: 4 0xed-0xed.7 (1)
     |                                               |                |            code{}: 0xee-0xf1.7 (4)
     |                                               |                |              locals{}: 0xee-0xee.7 (1)
0x0e0|                                          00   |              . |                n: 0 0xee-0xee.7 (1)
     |                                               |                |                items[0:0]: 0xef-NA (0)
     |                                               |                |              expr{}: 0xef-0xf1.7 (3)
     |                                               |                |                instructions[0:2]: 0xef-0xf1.7 (3)
     |                                               |                |                  [0]{}: instr 0xef-0xf0.7 (2)
0x0e0|                                             41|               A|                    i32.const: 0x41 (valid) 0xef-0xef.7 (1)
0x0f0|0b                                             |.               |                    n: 11 0xf0-0xf0.7 (1)
     |                                               |                |                  [1]{}: instr 0xf1-0xf1.7 (1)
0x0f0|   0b                                          | .              |                    end: 0xb (valid) 0xf1-0xf1.7 (1)
     |                                               |                |          [12]{}: code 0xf2-0xf6.7 (5)
0x0f0|      04                                       |  .             |            size: 4 0xf2-0xf2.7 (1)
     |                                               |                |            code{}: 0xf3-0xf6.7 (4)
     |                                               |                |              locals{}: 0xf3-0xf3.7 (1)
0x0f0|         00                                    |   .            |                n: 0 0xf3-0xf3.7 (1)
     |                                               |                |                items[0:0]: 0xf4-NA (0)
     |                                               |                |              expr{}: 0xf4-0xf6.7 (3)
     |                                               |                |                instructions[0:2]: 0xf4-0xf6.7 (3)
     |                                               |                |                  [0]{}: instr 0xf4-0xf5.7 (2)
0x0f0|            41                                 |    A           |                    i32.const: 0x41 (valid) 0xf4-0xf4.7 (1)
0x0f0|               0c                              |     .          |                    n: 12 0xf5-0xf5.7 (1)
     |                                               |                |                  [1]{}: instr 0xf6-0xf6.7 (1)
0x0f0|                  0b                           |      .         |                    end: 0xb (valid) 0xf6-0xf6.7 (1)
     |                                               |                |          [13]{}: code 0xf7-0xfb.7 (5)
0x0f0|                     04                        |       .        |            size: 4 0xf7-0xf7.7 (1)
     |                                               |                |            code{}: 0xf8-0xfb.7 (4)
     |                                               |                |              locals{}: 0xf8-0xf8.7 (1)
0x0f0|                        00                     |        .       |                n: 0 0xf8-0xf8.7 (1)
     |                                               |                |                items[0:0]: 0xf9-NA (0)
     |                                               |                |              expr{}: 0xf9-0xfb.7 (3)
     |                                               |                |                instructions[0:2]: 0xf9-0xfb.7 (3)
     |                                               |                |                  [0]{}: instr 0xf9-0xfa.7 (2)
0x0f0|                           41                  |         A      |                    i32.const: 0x41 (valid) 0xf9-0xf9.7 (1)
0x0f0|                              0d               |          .     |                    n: 13 0xfa-0xfa.7 (1)
     |                                               |                |                  [1]{}: instr 0xfb-0xfb.7 (1)
0x0f0|                                 0b            |           .    |                    end: 0xb (valid) 0xfb-0xfb.7 (1)
     |                                               |                |          [14]{}: code 0xfc-0x100.7 (5)
0x0f0|                                    04         |            .   |            size: 4 0xfc-0xfc.7 (1)
     |                                               |                |            code{}: 0xfd-0x100.7 (4)
     |                                               |                |              locals{}: 0xfd-0xfd.7 (1)
0x0f0|                                       00      |             .  |                n: 0 0xfd-0xfd.7 (1)
     |                                               |                |                items[0:0]: 0xfe-NA (0)
     |                                               |                |              expr{}: 0xfe-0x100.7 (3)
     |                                               |                |                instructions[0:2]: 0xfe-0x100.7 (3)
     |                                               |                |                  [0]{}: instr 0xfe-0xff.7 (2)
0x0f0|                                          41   |              A |                    i32.const: 0x41 (valid) 0xfe-0xfe.7 (1)
0x0f0|                                             0e|               .|                    n: 14 0xff-0xff.7 (1)
     |                                               |                |                  [1]{}: instr 0x100-0x100.7 (1)
0x100|0b                                             |.               |                    end: 0xb (valid) 0x100-0x100.7 (1)
     |                                               |                |          [15]{}: code 0x101-0x105.7 (5)
0x100|   04                                          | .              |            size: 4 0x101-0x101.7 (1)
     |                                               |                |            code{}: 0x102-0x105.7 (4)
     |                                               |                |              locals{}: 0x102-0x102.7 (1)
0x100|      00                                       |  .             |                n: 0 0x102-0x102.7 (1)
     |                                               |                |                items[0:0]: 0x103-NA (0)
     |                                               |                |              expr{}: 0x103-0x105.7 (3)
     |                                               |                |                instructions[0:2]: 0x103-0x105.7 (3)
     |                                               |                |                  [0]{}: instr 0x103-0x104.7 (2)
0x100|         41                                    |   A            |                    i32.const: 0x41 (valid) 0x103-0x103.7 (1)
0x100|            0f                                 |    .           |                    n: 15 0x104-0x104.7 (1)
     |                                               |                |                  [1]{}: instr 0x105-0x105.7 (1)
0x100|               0b                              |     .          |                    end: 0xb (valid) 0x105-0x105.7 (1)
     |                                               |                |          [16]{}: code 0x106-0x10d.7 (8)
0x100|                  07                           |      .         |            size: 7 0x106-0x106.7 (1)
     |                                               |                |            code{}: 0x107-0x10d.7 (7)
     |                                               |                |              locals{}: 0x107-0x107.7 (1)
0x100|                     00                        |       .        |                n: 0 0x107-0x107.7 (1)
     |                                               |                |                items[0:0]: 0x108-NA (0)
     |                                               |                |              expr{}: 0x108-0x10d.7 (6)
     |                                               |                |                instructions[0:3]: 0x108-0x10d.7 (6)
     |                                               |                |                  [0]{}: instr 0x108-0x109.7 (2)
0x100|                        20                     |                |                    local.get: 0x20 (valid) 0x108-0x108.7 (1)
0x100|                           00                  |         .      |                    x: 0 0x109-0x109.7 (1)
     |                                               |                |                  [1]{}: instr 0x10a-0x10c.7 (3)
0x100|                              11               |          .     |                    call: 0x11 (valid) 0x10a-0x10a.7 (1)
0x100|                                 00            |           .    |                    y: 0 0x10b-0x10b.7 (1)
0x100|                                    00         |            .   |                    x: 0 0x10c-0x10c.7 (1)
     |                                               |                |                  [2]{}: instr 0x10d-0x10d.7 (1)
0x100|                                       0b      |             .  |                    end: 0xb (valid) 0x10d-0x10d.7 (1)
     |                                               |                |          [17]{}: code 0x10e-0x11a.7 (13)
0x100|                                          0c   |              . |            size: 12 0x10e-0x10e.7 (1)
     |                                               |                |            code{}: 0x10f-0x11a.7 (12)
     |                                               |                |              locals{}: 0x10f-0x10f.7 (1)
0x100|                                             00|               .|                n: 0 0x10f-0x10f.7 (1)
     |                                               |                |                items[0:0]: 0x110-NA (0)
     |                                               |                |              expr{}: 0x110-0x11a.7 (11)
     |                                               |                |                instructions[0:5]: 0x110-0x11a.7 (11)
     |                                               |                |                  [0]{}: instr 0x110-0x111.7 (2)
0x110|20                                             |                |                    local.get: 0x20 (valid) 0x110-0x110.7 (1)
0x110|   00                                          | .              |                    x: 0 0x111-0x111.7 (1)
     |                                               |                |                  [1]{}: instr 0x112-0x113.7 (2)
0x110|      41                                       |  A             |                    i32.const: 0x41 (valid) 0x112-0x112.7 (1)
0x110|         00                                    |   .            |                    n: 0 0x113-0x113.7 (1)
     |                                               |                |                  [2]{}: instr 0x114-0x115.7 (2)
0x110|            20                                 |                |                    local.get: 0x20 (valid) 0x114-0x114.7 (1)
0x110|               01                              |     .          |                    x: 1 0x115-0x115.7 (1)
     |                                               |                |                  [3]{}: instr 0x116-0x119.7 (4)
0x110|                  fc                           |      .         |                    prefix: 0xfc (valid) 0x116-0x116.7 (1)
0x110|                     0c                        |       .        |                    table.init: 12 (valid) 0x117-0x117.7 (1)
0x110|                        00                     |        .       |                    y: 0 0x118-0x118.7 (1)
0x110|                           00                  |         .      |                    x: 0 0x119-0x119.7 (1)
     |                                               |                |                  [4]{}: instr 0x11a-0x11a.7 (1)
0x110|                              0b|              |          .|    |                    end: 0xb (valid) 0x11a-0x11a.7 (1)
