$ fq -d wasm dv table_copy-0.wasm
    |00 01 02 03 04 05 06 07 08 09 0a 0b 0c 0d 0e 0f|0123456789abcdef|.{}: table_copy-0.wasm (wasm) 0x0-0x53.7 (84)
0x00|00 61 73 6d                                    |.asm            |  magic: raw bits (valid) 0x0-0x3.7 (4)
0x00|            01 00 00 00                        |    ....        |  version: 1 0x4-0x7.7 (4)
    |                                               |                |  sections[0:4]: 0x8-0x53.7 (76)
    |                                               |                |    [0]{}: section 0x8-0xe.7 (7)
0x00|                        01                     |        .       |      id: "type section" (1) 0x8-0x8.7 (1)
0x00|                           05                  |         .      |      size: 5 0x9-0x9.7 (1)
    |                                               |                |      content{}: 0xa-0xe.7 (5)
0x00|                              01               |          .     |        n: 1 0xa-0xa.7 (1)
    |                                               |                |        items[0:1]: 0xb-0xe.7 (4)
    |                                               |                |          [0]{}: functype 0xb-0xe.7 (4)
0x00|                                 60            |           `    |            tag: 0x60 (valid) 0xb-0xb.7 (1)
    |                                               |                |            rt1{}: 0xc-0xc.7 (1)
0x00|                                    00         |            .   |              n: 0 0xc-0xc.7 (1)
    |                                               |                |              items[0:0]: 0xd-NA (0)
    |                                               |                |            rt2{}: 0xd-0xe.7 (2)
0x00|                                       01      |             .  |              n: 1 0xd-0xd.7 (1)
    |                                               |                |              items[0:1]: 0xe-0xe.7 (1)
0x00|                                          7f   |              . |                [0]: "i32" (127) valtype 0xe-0xe.7 (1)
    |                                               |                |    [1]{}: section 0xf-0x16.7 (8)
0x00|                                             03|               .|      id: "function section" (3) 0xf-0xf.7 (1)
0x10|06                                             |.               |      size: 6 0x10-0x10.7 (1)
    |                                               |                |      content{}: 0x11-0x16.7 (6)
0x10|   05                                          | .              |        n: 5 0x11-0x11.7 (1)
    |                                               |                |        items[0:5]: 0x12-0x16.7 (5)
0x10|      00                                       |  .             |          [0]: 0 x 0x12-0x12.7 (1)
0x10|         00                                    |   .            |          [1]: 0 x 0x13-0x13.7 (1)
0x10|            00                                 |    .           |          [2]: 0 x 0x14-0x14.7 (1)
0x10|               00                              |     .          |          [3]: 0 x 0x15-0x15.7 (1)
0x10|                  00                           |      .         |          [4]: 0 x 0x16-0x16.7 (1)
    |                                               |                |    [2]{}: section 0x17-0x37.7 (33)
0x10|                     07                        |       .        |      id: "export section" (7) 0x17-0x17.7 (1)
0x10|                        1f                     |        .       |      size: 31 0x18-0x18.7 (1)
    |                                               |                |      content{}: 0x19-0x37.7 (31)
0x10|                           05                  |         .      |        n: 5 0x19-0x19.7 (1)
    |                                               |                |        items[0:5]: 0x1a-0x37.7 (30)
    |                                               |                |          [0]{}: export 0x1a-0x1f.7 (6)
    |                                               |                |            name{}: 0x1a-0x1d.7 (4)
0x10|                              03               |          .     |              len: 3 0x1a-0x1a.7 (1)
0x10|                                 65 66 30      |           ef0  |              utf8bytes: "ef0" 0x1b-0x1d.7 (3)
    |                                               |                |            expr{}: 0x1e-0x1f.7 (2)
0x10|                                          00   |              . |              tag: "funcidx" (0x0) 0x1e-0x1e.7 (1)
0x10|                                             00|               .|              x: 0 0x1f-0x1f.7 (1)
    |                                               |                |          [1]{}: export 0x20-0x25.7 (6)
    |                                               |                |            name{}: 0x20-0x23.7 (4)
0x20|03                                             |.               |              len: 3 0x20-0x20.7 (1)
0x20|   65 66 31                                    | ef1            |              utf8bytes: "ef1" 0x21-0x23.7 (3)
    |                                               |                |            expr{}: 0x24-0x25.7 (2)
0x20|            00                                 |    .           |              tag: "funcidx" (0x0) 0x24-0x24.7 (1)
0x20|               01                              |     .          |              x: 1 0x25-0x25.7 (1)
    |                                               |                |          [2]{}: export 0x26-0x2b.7 (6)
    |                                               |                |            name{}: 0x26-0x29.7 (4)
0x20|                  03                           |      .         |              len: 3 0x26-0x26.7 (1)
0x20|                     65 66 32                  |       ef2      |              utf8bytes: "ef2" 0x27-0x29.7 (3)
    |                                               |                |            expr{}: 0x2a-0x2b.7 (2)
0x20|                              00               |          .     |              tag: "funcidx" (0x0) 0x2a-0x2a.7 (1)
0x20|                                 02            |           .    |              x: 2 0x2b-0x2b.7 (1)
    |                                               |                |          [3]{}: export 0x2c-0x31.7 (6)
    |                                               |                |            name{}: 0x2c-0x2f.7 (4)
0x20|                                    03         |            .   |              len: 3 0x2c-0x2c.7 (1)
0x20|                                       65 66 33|             ef3|              utf8bytes: "ef3" 0x2d-0x2f.7 (3)
    |                                               |                |            expr{}: 0x30-0x31.7 (2)
0x30|00                                             |.               |              tag: "funcidx" (0x0) 0x30-0x30.7 (1)
0x30|   03                                          | .              |              x: 3 0x31-0x31.7 (1)
    |                                               |                |          [4]{}: export 0x32-0x37.7 (6)
    |                                               |                |            name{}: 0x32-0x35.7 (4)
0x30|      03                                       |  .             |              len: 3 0x32-0x32.7 (1)
0x30|         65 66 34                              |   ef4          |              utf8bytes: "ef4" 0x33-0x35.7 (3)
    |                                               |                |            expr{}: 0x36-0x37.7 (2)
0x30|                  00                           |      .         |              tag: "funcidx" (0x0) 0x36-0x36.7 (1)
0x30|                     04                        |       .        |              x: 4 0x37-0x37.7 (1)
    |                                               |                |    [3]{}: section 0x38-0x53.7 (28)
0x30|                        0a                     |        .       |      id: "code section" (10) 0x38-0x38.7 (1)
0x30|                           1a                  |         .      |      size: 26 0x39-0x39.7 (1)
    |                                               |                |      content{}: 0x3a-0x53.7 (26)
0x30|                              05               |          .     |        n: 5 0x3a-0x3a.7 (1)
    |                                               |                |        items[0:5]: 0x3b-0x53.7 (25)
    |                                               |                |          [0]{}: code 0x3b-0x3f.7 (5)
0x30|                                 04            |           .    |            size: 4 0x3b-0x3b.7 (1)
    |                                               |                |            code{}: 0x3c-0x3f.7 (4)
    |                                               |                |              locals{}: 0x3c-0x3c.7 (1)
0x30|                                    00         |            .   |                n: 0 0x3c-0x3c.7 (1)
    |                                               |                |                items[0:0]: 0x3d-NA (0)
    |                                               |                |              expr{}: 0x3d-0x3f.7 (3)
    |                                               |                |                instructions[0:2]: 0x3d-0x3f.7 (3)
    |                                               |                |                  [0]{}: instr 0x3d-0x3e.7 (2)
0x30|                                       41      |             A  |                    i32.const: 0x41 (valid) 0x3d-0x3d.7 (1)
0x30|                                          00   |              . |                    n: 0 0x3e-0x3e.7 (1)
    |                                               |                |                  [1]{}: instr 0x3f-0x3f.7 (1)
0x30|                                             0b|               .|                    end: 0xb (valid) 0x3f-0x3f.7 (1)
    |                                               |                |          [1]{}: code 0x40-0x44.7 (5)
0x40|04                                             |.               |            size: 4 0x40-0x40.7 (1)
    |                                               |                |            code{}: 0x41-0x44.7 (4)
    |                                               |                |              locals{}: 0x41-0x41.7 (1)
0x40|   00                                          | .              |                n: 0 0x41-0x41.7 (1)
    |                                               |                |                items[0:0]: 0x42-NA (0)
    |                                               |                |              expr{}: 0x42-0x44.7 (3)
    |                                               |                |                instructions[0:2]: 0x42-0x44.7 (3)
    |                                               |                |                  [0]{}: instr 0x42-0x43.7 (2)
0x40|      41                                       |  A             |                    i32.const: 0x41 (valid) 0x42-0x42.7 (1)
0x40|         01                                    |   .            |                    n: 1 0x43-0x43.7 (1)
    |                                               |                |                  [1]{}: instr 0x44-0x44.7 (1)
0x40|            0b                                 |    .           |                    end: 0xb (valid) 0x44-0x44.7 (1)
    |                                               |                |          [2]{}: code 0x45-0x49.7 (5)
0x40|               04                              |     .          |            size: 4 0x45-0x45.7 (1)
    |                                               |                |            code{}: 0x46-0x49.7 (4)
    |                                               |                |              locals{}: 0x46-0x46.7 (1)
0x40|                  00                           |      .         |                n: 0 0x46-0x46.7 (1)
    |                                               |                |                items[0:0]: 0x47-NA (0)
    |                                               |                |              expr{}: 0x47-0x49.7 (3)
    |                                               |                |                instructions[0:2]: 0x47-0x49.7 (3)
    |                                               |                |                  [0]{}: instr 0x47-0x48.7 (2)
0x40|                     41                        |       A        |                    i32.const: 0x41 (valid) 0x47-0x47.7 (1)
0x40|                        02                     |        .       |                    n: 2 0x48-0x48.7 (1)
    |                                               |                |                  [1]{}: instr 0x49-0x49.7 (1)
0x40|                           0b                  |         .      |                    end: 0xb (valid) 0x49-0x49.7 (1)
    |                                               |                |          [3]{}: code 0x4a-0x4e.7 (5)
0x40|                              04               |          .     |            size: 4 0x4a-0x4a.7 (1)
    |                                               |                |            code{}: 0x4b-0x4e.7 (4)
    |                                               |                |              locals{}: 0x4b-0x4b.7 (1)
0x40|                                 00            |           .    |                n: 0 0x4b-0x4b.7 (1)
    |                                               |                |                items[0:0]: 0x4c-NA (0)
    |                                               |                |              expr{}: 0x4c-0x4e.7 (3)
    |                                               |                |                instructions[0:2]: 0x4c-0x4e.7 (3)
    |                                               |                |                  [0]{}: instr 0x4c-0x4d.7 (2)
0x40|                                    41         |            A   |                    i32.const: 0x41 (valid) 0x4c-0x4c.7 (1)
0x40|                                       03      |             .  |                    n: 3 0x4d-0x4d.7 (1)
    |                                               |                |                  [1]{}: instr 0x4e-0x4e.7 (1)
0x40|                                          0b   |              . |                    end: 0xb (valid) 0x4e-0x4e.7 (1)
    |                                               |                |          [4]{}: code 0x4f-0x53.7 (5)
0x40|                                             04|               .|            size: 4 0x4f-0x4f.7 (1)
    |                                               |                |            code{}: 0x50-0x53.7 (4)
    |                                               |                |              locals{}: 0x50-0x50.7 (1)
0x50|00                                             |.               |                n: 0 0x50-0x50.7 (1)
    |                                               |                |                items[0:0]: 0x51-NA (0)
    |                                               |                |              expr{}: 0x51-0x53.7 (3)
    |                                               |                |                instructions[0:2]: 0x51-0x53.7 (3)
    |                                               |                |                  [0]{}: instr 0x51-0x52.7 (2)
0x50|   41                                          | A              |                    i32.const: 0x41 (valid) 0x51-0x51.7 (1)
0x50|      04                                       |  .             |                    n: 4 0x52-0x52.7 (1)
    |                                               |                |                  [1]{}: instr 0x53-0x53.7 (1)
0x50|         0b|                                   |   .|           |                    end: 0xb (valid) 0x53-0x53.7 (1)
