$ fq -d wasm dv table-2.wasm
   |00 01 02 03 04 05 06 07 08 09 0a 0b 0c 0d 0e 0f|0123456789abcdef|.{}: table-2.wasm (wasm) 0x0-0xe.7 (15)
0x0|00 61 73 6d                                    |.asm            |  magic: raw bits (valid) 0x0-0x3.7 (4)
0x0|            01 00 00 00                        |    ....        |  version: 1 0x4-0x7.7 (4)
   |                                               |                |  sections[0:1]: 0x8-0xe.7 (7)
   |                                               |                |    [0]{}: section 0x8-0xe.7 (7)
0x0|                        04                     |        .       |      id: "table section" (4) 0x8-0x8.7 (1)
0x0|                           05                  |         .      |      size: 5 0x9-0x9.7 (1)
   |                                               |                |      content{}: 0xa-0xe.7 (5)
0x0|                              01               |          .     |        n: 1 0xa-0xa.7 (1)
   |                                               |                |        items[0:1]: 0xb-0xe.7 (4)
   |                                               |                |          [0]{}: table 0xb-0xe.7 (4)
0x0|                                 70            |           p    |            reftype: "funcref" (112) 0xb-0xb.7 (1)
   |                                               |                |            limits{}: 0xc-0xe.7 (3)
0x0|                                    01         |            .   |              tag: 0x1 0xc-0xc.7 (1)
0x0|                                       00      |             .  |              min: 0 0xd-0xd.7 (1)
0x0|                                          00|  |              .||              max: 0 0xe-0xe.7 (1)
