$ fq -d wasm dv table-5.wasm
    |00 01 02 03 04 05 06 07 08 09 0a 0b 0c 0d 0e 0f|0123456789abcdef|.{}: table-5.wasm (wasm) 0x0-0x10.7 (17)
0x00|00 61 73 6d                                    |.asm            |  magic: raw bits (valid) 0x0-0x3.7 (4)
0x00|            01 00 00 00                        |    ....        |  version: 1 0x4-0x7.7 (4)
    |                                               |                |  sections[0:1]: 0x8-0x10.7 (9)
    |                                               |                |    [0]{}: section 0x8-0x10.7 (9)
0x00|                        04                     |        .       |      id: "table section" (4) 0x8-0x8.7 (1)
0x00|                           07                  |         .      |      size: 7 0x9-0x9.7 (1)
    |                                               |                |      content{}: 0xa-0x10.7 (7)
0x00|                              01               |          .     |        n: 1 0xa-0xa.7 (1)
    |                                               |                |        items[0:1]: 0xb-0x10.7 (6)
    |                                               |                |          [0]{}: table 0xb-0x10.7 (6)
0x00|                                 70            |           p    |            reftype: "funcref" (112) 0xb-0xb.7 (1)
    |                                               |                |            limits{}: 0xc-0x10.7 (5)
0x00|                                    01         |            .   |              tag: 0x1 0xc-0xc.7 (1)
0x00|                                       00      |             .  |              min: 0 0xd-0xd.7 (1)
0x00|                                          80 80|              ..|              max: 65536 0xe-0x10.7 (3)
0x10|04|                                            |.|              |
