$ fq -d wasm dv table-1.wasm
   |00 01 02 03 04 05 06 07 08 09 0a 0b 0c 0d 0e 0f|0123456789abcdef|.{}: table-1.wasm (wasm) 0x0-0xd.7 (14)
0x0|00 61 73 6d                                    |.asm            |  magic: raw bits (valid) 0x0-0x3.7 (4)
0x0|            01 00 00 00                        |    ....        |  version: 1 0x4-0x7.7 (4)
   |                                               |                |  sections[0:1]: 0x8-0xd.7 (6)
   |                                               |                |    [0]{}: section 0x8-0xd.7 (6)
0x0|                        04                     |        .       |      id: "table section" (4) 0x8-0x8.7 (1)
0x0|                           04                  |         .      |      size: 4 0x9-0x9.7 (1)
   |                                               |                |      content{}: 0xa-0xd.7 (4)
0x0|                              01               |          .     |        n: 1 0xa-0xa.7 (1)
   |                                               |                |        items[0:1]: 0xb-0xd.7 (3)
   |                                               |                |          [0]{}: table 0xb-0xd.7 (3)
0x0|                                 70            |           p    |            reftype: "funcref" (112) 0xb-0xb.7 (1)
   |                                               |                |            limits{}: 0xc-0xd.7 (2)
0x0|                                    00         |            .   |              tag: 0x0 0xc-0xc.7 (1)
0x0|                                       01|     |             .| |              min: 1 0xd-0xd.7 (1)
