$ fq -d wasm dv table_init-4.wasm
    |00 01 02 03 04 05 06 07 08 09 0a 0b 0c 0d 0e 0f|0123456789abcdef|.{}: table_init-4.wasm (wasm) 0x0-0xc2.7 (195)
0x00|00 61 73 6d                                    |.asm            |  magic: raw bits (valid) 0x0-0x3.7 (4)
0x00|            01 00 00 00                        |    ....        |  version: 1 0x4-0x7.7 (4)
    |                                               |                |  sections[0:7]: 0x8-0xc2.7 (187)
    |                                               |                |    [0]{}: section 0x8-0x16.7 (15)
0x00|                        01                     |        .       |      id: "type section" (1) 0x8-0x8.7 (1)
0x00|                           0d                  |         .      |      size: 13 0x9-0x9.7 (1)
    |                                               |                |      content{}: 0xa-0x16.7 (13)
0x00|                              03               |          .     |        n: 3 0xa-0xa.7 (1)
    |                                               |                |        items[0:3]: 0xb-0x16.7 (12)
    |                                               |                |          [0]{}: functype 0xb-0xe.7 (4)
0x00|                                 60            |           `    |            tag: 0x60 (valid) 0xb-0xb.7 (1)
    |                                               |                |            rt1{}: 0xc-0xc.7 (1)
0x00|                                    00         |            .   |              n: 0 0xc-0xc.7 (1)
    |                                               |                |              items[0:0]: 0xd-NA (0)
    |                                               |                |            rt2{}: 0xd-0xe.7 (2)
0x00|                                       01      |             .  |              n: 1 0xd-0xd.7 (1)
    |                                               |                |              items[0:1]: 0xe-0xe.7 (1)
0x00|                                          7f   |              . |                [0]: "i32" (127) valtype 0xe-0xe.7 (1)
    |                                               |                |          [1]{}: functype 0xf-0x11.7 (3)
0x00|                                             60|               `|            tag: 0x60 (valid) 0xf-0xf.7 (1)
    |                                               |                |            rt1{}: 0x10-0x10.7 (1)
0x10|00                                             |.               |              n: 0 0x10-0x10.7 (1)
    |                                               |                |              items[0:0]: 0x11-NA (0)
    |                                               |                |            rt2{}: 0x11-0x11.7 (1)
0x10|   00                                          | .              |              n: 0 0x11-0x11.7 (1)
    |                                               |                |              items[0:0]: 0x12-NA (0)
    |                                               |                |          [2]{}: functype 0x12-0x16.7 (5)
0x10|      60                                       |  `             |            tag: 0x60 (valid) 0x12-0x12.7 (1)
    |                                               |                |            rt1{}: 0x13-0x14.7 (2)
0x10|         01                                    |   .            |              n: 1 0x13-0x13.7 (1)
    |                                               |                |              items[0:1]: 0x14-0x14.7 (1)
0x10|            7f                                 |    .           |                [0]: "i32" (127) valtype 0x14-0x14.7 (1)
    |                                               |                |            rt2{}: 0x15-0x16.7 (2)
0x10|               01                              |     .          |              n: 1 0x15-0x15.7 (1)
    |                                               |                |              items[0:1]: 0x16-0x16.7 (1)
0x10|                  7f                           |      .         |                [0]: "i32" (127) valtype 0x16-0x16.7 (1)
    |                                               |                |    [1]{}: section 0x17-0x41.7 (43)
0x10|                     02                        |       .        |      id: "import section" (2) 0x17-0x17.7 (1)
0x10|                        29                     |        )       |      size: 41 0x18-0x18.7 (1)
    |                                               |                |      content{}: 0x19-0x41.7 (41)
0x10|                           05                  |         .      |        n: 5 0x19-0x19.7 (1)
    |                                               |                |        items[0:5]: 0x1a-0x41.7 (40)
    |                                               |                |          [0]{}: import 0x1a-0x21.7 (8)
    |                                               |                |            mod{}: 0x1a-0x1b.7 (2)
0x10|                              01               |          .     |              len: 1 0x1a-0x1a.7 (1)
0x10|                                 61            |           a    |              utf8bytes: "a" 0x1b-0x1b.7 (1)
    |                                               |                |            nm{}: 0x1c-0x1f.7 (4)
0x10|                                    03         |            .   |              len: 3 0x1c-0x1c.7 (1)
0x10|                                       65 66 30|             ef0|              utf8bytes: "ef0" 0x1d-0x1f.7 (3)
    |                                               |                |            importdesc{}: 0x20-0x21.7 (2)
0x20|00                                             |.               |              tag: "func" (0x0) 0x20-0x20.7 (1)
0x20|   00                                          | .              |              x: 0 0x21-0x21.7 (1)
    |                                               |                |          [1]{}: import 0x22-0x29.7 (8)
    |                                               |                |            mod{}: 0x22-0x23.7 (2)
0x20|      01                                       |  .             |              len: 1 0x22-0x22.7 (1)
0x20|         61                                    |   a            |              utf8bytes: "a" 0x23-0x23.7 (1)
    |                                               |                |            nm{}: 0x24-0x27.7 (4)
0x20|            03                                 |    .           |              len: 3 0x24-0x24.7 (1)
0x20|               65 66 31                        |     ef1        |              utf8bytes: "ef1" 0x25-0x27.7 (3)
    |                                               |                |            importdesc{}: 0x28-0x29.7 (2)
0x20|                        00                     |        .       |              tag: "func" (0x0) 0x28-0x28.7 (1)
0x20|                           00                  |         .      |              x: 0 0x29-0x29.7 (1)
    |                                               |                |          [2]{}: import 0x2a-0x31.7 (8)
    |                                               |                |            mod{}: 0x2a-0x2b.7 (2)
0x20|                              01               |          .     |              len: 1 0x2a-0x2a.7 (1)
0x20|                                 61            |           a    |              utf8bytes: "a" 0x2b-0x2b.7 (1)
    |                                               |                |            nm{}: 0x2c-0x2f.7 (4)
0x20|                                    03         |            .   |              len: 3 0x2c-0x2c.7 (1)
0x20|                                       65 66 32|             ef2|              utf8bytes: "ef2" 0x2d-0x2f.7 (3)
    |                                               |                |            importdesc{}: 0x30-0x31.7 (2)
0x30|00                                             |.               |              tag: "func" (0x0) 0x30-0x30.7 (1)
0x30|   00                                          | .              |              x: 0 0x31-0x31.7 (1)
    |                                               |                |          [3]{}: import 0x32-0x39.7 (8)
    |                                               |                |            mod{}: 0x32-0x33.7 (2)
0x30|      01                                       |  .             |              len: 1 0x32-0x32.7 (1)
0x30|         61                                    |   a            |              utf8bytes: "a" 0x33-0x33.7 (1)
    |                                               |                |            nm{}: 0x34-0x37.7 (4)
0x30|            03                                 |    .           |              len: 3 0x34-0x34.7 (1)
0x30|               65 66 33                        |     ef3        |              utf8bytes: "ef3" 0x35-0x37.7 (3)
    |                                               |                |            importdesc{}: 0x38-0x39.7 (2)
0x30|                        00                     |        .       |              tag: "func" (0x0) 0x38-0x38.7 (1)
0x30|                           00                  |         .      |              x: 0 0x39-0x39.7 (1)
    |                                               |                |          [4]{}: import 0x3a-0x41.7 (8)
    |                                               |                |            mod{}: 0x3a-0x3b.7 (2)
0x30|                              01               |          .     |              len: 1 0x3a-0x3a.7 (1)
0x30|                                 61            |           a    |              utf8bytes: "a" 0x3b-0x3b.7 (1)
    |                                               |                |            nm{}: 0x3c-0x3f.7 (4)
0x30|                                    03         |            .   |              len: 3 0x3c-0x3c.7 (1)
0x30|                                       65 66 34|             ef4|              utf8bytes: "ef4" 0x3d-0x3f.7 (3)
    |                                               |                |            importdesc{}: 0x40-0x41.7 (2)
0x40|00                                             |.               |              tag: "func" (0x0) 0x40-0x40.7 (1)
0x40|   00                                          | .              |              x: 0 0x41-0x41.7 (1)
    |                                               |                |    [2]{}: section 0x42-0x4b.7 (10)
0x40|      03                                       |  .             |      id: "function section" (3) 0x42-0x42.7 (1)
0x40|         08                                    |   .            |      size: 8 0x43-0x43.7 (1)
    |                                               |                |      content{}: 0x44-0x4b.7 (8)
0x40|            07                                 |    .           |        n: 7 0x44-0x44.7 (1)
    |                                               |                |        items[0:7]: 0x45-0x4b.7 (7)
0x40|               00                              |     .          |          [0]: 0 x 0x45-0x45.7 (1)
0x40|                  00                           |      .         |          [1]: 0 x 0x46-0x46.7 (1)
0x40|                     00                        |       .        |          [2]: 0 x 0x47-0x47.7 (1)
0x40|                        00                     |        .       |          [3]: 0 x 0x48-0x48.7 (1)
0x40|                           00                  |         .      |          [4]: 0 x 0x49-0x49.7 (1)
0x40|                              01               |          .     |          [5]: 1 x 0x4a-0x4a.7 (1)
0x40|                                 02            |           .    |          [6]: 2 x 0x4b-0x4b.7 (1)
    |                                               |                |    [3]{}: section 0x4c-0x56.7 (11)
0x40|                                    04         |            .   |      id: "table section" (4) 0x4c-0x4c.7 (1)
0x40|                                       09      |             .  |      size: 9 0x4d-0x4d.7 (1)
    |                                               |                |      content{}: 0x4e-0x56.7 (9)
0x40|                                          02   |              . |        n: 2 0x4e-0x4e.7 (1)
    |                                               |                |        items[0:2]: 0x4f-0x56.7 (8)
    |                                               |                |          [0]{}: table 0x4f-0x52.7 (4)
0x40|                                             70|               p|            reftype: "funcref" (112) 0x4f-0x4f.7 (1)
    |                                               |                |            limits{}: 0x50-0x52.7 (3)
0x50|01                                             |.               |              tag: 0x1 0x50-0x50.7 (1)
0x50|   1e                                          | .              |              min: 30 0x51-0x51.7 (1)
0x50|      1e                                       |  .             |              max: 30 0x52-0x52.7 (1)
    |                                               |                |          [1]{}: table 0x53-0x56.7 (4)
0x50|         70                                    |   p            |            reftype: "funcref" (112) 0x53-0x53.7 (1)
    |                                               |                |            limits{}: 0x54-0x56.7 (3)
0x50|            01                                 |    .           |              tag: 0x1 0x54-0x54.7 (1)
0x50|               1e                              |     .          |              min: 30 0x55-0x55.7 (1)
0x50|                  1e                           |      .         |              max: 30 0x56-0x56.7 (1)
    |                                               |                |    [4]{}: section 0x57-0x68.7 (18)
0x50|                     07                        |       .        |      id: "export section" (7) 0x57-0x57.7 (1)
0x50|                        10                     |        .       |      size: 16 0x58-0x58.7 (1)
    |                                               |                |      content{}: 0x59-0x68.7 (16)
0x50|                           02                  |         .      |        n: 2 0x59-0x59.7 (1)
    |                                               |                |        items[0:2]: 0x5a-0x68.7 (15)
    |                                               |                |          [0]{}: export 0x5a-0x60.7 (7)
    |                                               |                |            name{}: 0x5a-0x5e.7 (5)
0x50|                              04               |          .     |              len: 4 0x5a-0x5a.7 (1)
0x50|                                 74 65 73 74   |           test |              utf8bytes: "test" 0x5b-0x5e.7 (4)
    |                                               |                |            expr{}: 0x5f-0x60.7 (2)
0x50|                                             00|               .|              tag: "funcidx" (0x0) 0x5f-0x5f.7 (1)
0x60|0a                                             |.               |              x: 10 0x60-0x60.7 (1)
    |                                               |                |          [1]{}: export 0x61-0x68.7 (8)
    |                                               |                |            name{}: 0x61-0x66.7 (6)
0x60|   05                                          | .              |              len: 5 0x61-0x61.7 (1)
0x60|      63 68 65 63 6b                           |  check         |              utf8bytes: "check" 0x62-0x66.7 (5)
    |                                               |                |            expr{}: 0x67-0x68.7 (2)
0x60|                     00                        |       .        |              tag: "funcidx" (0x0) 0x67-0x67.7 (1)
0x60|                        0b                     |        .       |              x: 11 0x68-0x68.7 (1)
    |                                               |                |    [5]{}: section 0x69-0x91.7 (41)
0x60|                           09                  |         .      |      id: "element section" (9) 0x69-0x69.7 (1)
0x60|                              27               |          '     |      size: 39 0x6a-0x6a.7 (1)
    |                                               |                |      element{}: 0x6b-0x91.7 (39)
0x60|                                 04            |           .    |        n: 4 0x6b-0x6b.7 (1)
    |                                               |                |        items[0:4]: 0x6c-0x91.7 (38)
    |                                               |                |          [0]{}: elem 0x6c-0x76.7 (11)
0x60|                                    02         |            .   |            tag: 2 0x6c-0x6c.7 (1)
0x60|                                       01      |             .  |            x: 1 0x6d-0x6d.7 (1)
    |                                               |                |            instructions[0:2]: 0x6e-0x70.7 (3)
    |                                               |                |              [0]{}: instr 0x6e-0x6f.7 (2)
0x60|                                          41   |              A |                i32.const: 0x41 (valid) 0x6e-0x6e.7 (1)
0x60|                                             02|               .|                n: 2 0x6f-0x6f.7 (1)
    |                                               |                |              [1]{}: instr 0x70-0x70.7 (1)
0x70|0b                                             |.               |                end: 0xb (valid) 0x70-0x70.7 (1)
0x70|   00                                          | .              |            elemkind: "funcref" (0) (valid) 0x71-0x71.7 (1)
0x70|      04                                       |  .             |            n: 4 0x72-0x72.7 (1)
    |                                               |                |            items[0:4]: 0x73-0x76.7 (4)
0x70|         03                                    |   .            |              [0]: 3 y 0x73-0x73.7 (1)
0x70|            01                                 |    .           |              [1]: 1 y 0x74-0x74.7 (1)
0x70|               04                              |     .          |              [2]: 4 y 0x75-0x75.7 (1)
0x70|                  01                           |      .         |              [3]: 1 y 0x76-0x76.7 (1)
    |                                               |                |          [1]{}: elem 0x77-0x7d.7 (7)
0x70|                     01                        |       .        |            tag: 1 0x77-0x77.7 (1)
0x70|                        00                     |        .       |            elemkind: "funcref" (0) (valid) 0x78-0x78.7 (1)
0x70|                           04                  |         .      |            n: 4 0x79-0x79.7 (1)
    |                                               |                |            items[0:4]: 0x7a-0x7d.7 (4)
0x70|                              02               |          .     |              [0]: 2 y 0x7a-0x7a.7 (1)
0x70|                                 07            |           .    |              [1]: 7 y 0x7b-0x7b.7 (1)
0x70|                                    01         |            .   |              [2]: 1 y 0x7c-0x7c.7 (1)
0x70|                                       08      |             .  |              [3]: 8 y 0x7d-0x7d.7 (1)
    |                                               |                |          [2]{}: elem 0x7e-0x89.7 (12)
0x70|                                          02   |              . |            tag: 2 0x7e-0x7e.7 (1)
0x70|                                             01|               .|            x: 1 0x7f-0x7f.7 (1)
    |                                               |                |            instructions[0:2]: 0x80-0x82.7 (3)
    |                                               |                |              [0]{}: instr 0x80-0x81.7 (2)
0x80|41                                             |A               |                i32.const: 0x41 (valid) 0x80-0x80.7 (1)
0x80|   0c                                          | .              |                n: 12 0x81-0x81.7 (1)
    |                                               |                |              [1]{}: instr 0x82-0x82.7 (1)
0x80|      0b                                       |  .             |                end: 0xb (valid) 0x82-0x82.7 (1)
0x80|         00                                    |   .            |            elemkind: "funcref" (0) (valid) 0x83-0x83.7 (1)
0x80|            05                                 |    .           |            n: 5 0x84-0x84.7 (1)
    |                                               |                |            items[0:5]: 0x85-0x89.7 (5)
0x80|               07                              |     .          |              [0]: 7 y 0x85-0x85.7 (1)
0x80|                  05                           |      .         |              [1]: 5 y 0x86-0x86.7 (1)
0x80|                     02                        |       .        |              [2]: 2 y 0x87-0x87.7 (1)
0x80|                        03                     |        .       |              [3]: 3 y 0x88-0x88.7 (1)
0x80|                           06                  |         .      |              [4]: 6 y 0x89-0x89.7 (1)
    |                                               |                |          [3]{}: elem 0x8a-0x91.7 (8)
0x80|                              01               |          .     |            tag: 1 0x8a-0x8a.7 (1)
0x80|                                 00            |           .    |            elemkind: "funcref" (0) (valid) 0x8b-0x8b.7 (1)
0x80|                                    05         |            .   |            n: 5 0x8c-0x8c.7 (1)
    |                                               |                |            items[0:5]: 0x8d-0x91.7 (5)
0x80|                                       05      |             .  |              [0]: 5 y 0x8d-0x8d.7 (1)
0x80|                                          09   |              . |              [1]: 9 y 0x8e-0x8e.7 (1)
0x80|                                             02|               .|              [2]: 2 y 0x8f-0x8f.7 (1)
0x90|07                                             |.               |              [3]: 7 y 0x90-0x90.7 (1)
0x90|   06                                          | .              |              [4]: 6 y 0x91-0x91.7 (1)
    |                                               |                |    [6]{}: section 0x92-0xc2.7 (49)
0x90|      0a                                       |  .             |      id: "code section" (10) 0x92-0x92.7 (1)
0x90|         2f                                    |   /            |      size: 47 0x93-0x93.7 (1)
    |                                               |                |      content{}: 0x94-0xc2.7 (47)
0x90|            07                                 |    .           |        n: 7 0x94-0x94.7 (1)
    |                                               |                |        items[0:7]: 0x95-0xc2.7 (46)
    |                                               |                |          [0]{}: code 0x95-0x99.7 (5)
0x90|               04                              |     .          |            size: 4 0x95-0x95.7 (1)
    |                                               |                |            code{}: 0x96-0x99.7 (4)
    |                                               |                |              locals{}: 0x96-0x96.7 (1)
0x90|                  00                           |      .         |                n: 0 0x96-0x96.7 (1)
    |                                               |                |                items[0:0]: 0x97-NA (0)
    |                                               |                |              expr{}: 0x97-0x99.7 (3)
    |                                               |                |                instructions[0:2]: 0x97-0x99.7 (3)
    |                                               |                |                  [0]{}: instr 0x97-0x98.7 (2)
0x90|                     41                        |       A        |                    i32.const: 0x41 (valid) 0x97-0x97.7 (1)
0x90|                        05                     |        .       |                    n: 5 0x98-0x98.7 (1)
    |                                               |                |                  [1]{}: instr 0x99-0x99.7 (1)
0x90|                           0b                  |         .      |                    end: 0xb (valid) 0x99-0x99.7 (1)
    |                                               |                |          [1]{}: code 0x9a-0x9e.7 (5)
0x90|                              04               |          .     |            size: 4 0x9a-0x9a.7 (1)
    |                                               |                |            code{}: 0x9b-0x9e.7 (4)
    |                                               |                |              locals{}: 0x9b-0x9b.7 (1)
0x90|                                 00            |           .    |                n: 0 0x9b-0x9b.7 (1)
    |                                               |                |                items[0:0]: 0x9c-NA (0)
    |                                               |                |              expr{}: 0x9c-0x9e.7 (3)
    |                                               |                |                instructions[0:2]: 0x9c-0x9e.7 (3)
    |                                               |                |                  [0]{}: instr 0x9c-0x9d.7 (2)
0x90|                                    41         |            A   |                    i32.const: 0x41 (valid) 0x9c-0x9c.7 (1)
0x90|                                       06      |             .  |                    n: 6 0x9d-0x9d.7 (1)
    |                                               |                |                  [1]{}: instr 0x9e-0x9e.7 (1)
0x90|                                          0b   |              . |                    end: 0xb (valid) 0x9e-0x9e.7 (1)
    |                                               |                |          [2]{}: code 0x9f-0xa3.7 (5)
0x90|                                             04|               .|            size: 4 0x9f-0x9f.7 (1)
    |                                               |                |            code{}: 0xa0-0xa3.7 (4)
    |                                               |                |              locals{}: 0xa0-0xa0.7 (1)
0xa0|00                                             |.               |                n: 0 0xa0-0xa0.7 (1)
    |                                               |                |                items[0:0]: 0xa1-NA (0)
    |                                               |                |              expr{}: 0xa1-0xa3.7 (3)
    |                                               |                |                instructions[0:2]: 0xa1-0xa3.7 (3)
    |                                               |                |                  [0]{}: instr 0xa1-0xa2.7 (2)
0xa0|   41                                          | A              |                    i32.const: 0x41 (valid) 0xa1-0xa1.7 (1)
0xa0|      07                                       |  .             |                    n: 7 0xa2-0xa2.7 (1)
    |                                               |                |                  [1]{}: instr 0xa3-0xa3.7 (1)
0xa0|         0b                                    |   .            |                    end: 0xb (valid) 0xa3-0xa3.7 (1)
    |                                               |                |          [3]{}: code 0xa4-0xa8.7 (5)
0xa0|            04                                 |    .           |            size: 4 0xa4-0xa4.7 (1)
    |                                               |                |            code{}: 0xa5-0xa8.7 (4)
    |                                               |                |              locals{}: 0xa5-0xa5.7 (1)
0xa0|               00                              |     .          |                n: 0 0xa5-0xa5.7 (1)
    |                                               |                |                items[0:0]: 0xa6-NA (0)
    |                                               |                |              expr{}: 0xa6-0xa8.7 (3)
    |                                               |                |                instructions[0:2]: 0xa6-0xa8.7 (3)
    |                                               |                |                  [0]{}: instr 0xa6-0xa7.7 (2)
0xa0|                  41                           |      A         |                    i32.const: 0x41 (valid) 0xa6-0xa6.7 (1)
0xa0|                     08                        |       .        |                    n: 8 0xa7-0xa7.7 (1)
    |                                               |                |                  [1]{}: instr 0xa8-0xa8.7 (1)
0xa0|                        0b                     |        .       |                    end: 0xb (valid) 0xa8-0xa8.7 (1)
    |                                               |                |          [4]{}: code 0xa9-0xad.7 (5)
0xa0|                           04                  |         .      |            size: 4 0xa9-0xa9.7 (1)
    |                                               |                |            code{}: 0xaa-0xad.7 (4)
    |                                               |                |              locals{}: 0xaa-0xaa.7 (1)
0xa0|                              00               |          .     |                n: 0 0xaa-0xaa.7 (1)
    |                                               |                |                items[0:0]: 0xab-NA (0)
    |                                               |                |              expr{}: 0xab-0xad.7 (3)
    |                                               |                |                instructions[0:2]: 0xab-0xad.7 (3)
    |                                               |                |                  [0]{}: instr 0xab-0xac.7 (2)
0xa0|                                 41            |           A    |                    i32.const: 0x41 (valid) 0xab-0xab.7 (1)
0xa0|                                    09         |            .   |                    n: 9 0xac-0xac.7 (1)
    |                                               |                |                  [1]{}: instr 0xad-0xad.7 (1)
0xa0|                                       0b      |             .  |                    end: 0xb (valid) 0xad-0xad.7 (1)
    |                                               |                |          [5]{}: code 0xae-0xba.7 (13)
0xa0|                                          0c   |              . |            size: 12 0xae-0xae.7 (1)
    |                                               |                |            code{}: 0xaf-0xba.7 (12)
    |                                               |                |              locals{}: 0xaf-0xaf.7 (1)
0xa0|                                             00|               .|                n: 0 0xaf-0xaf.7 (1)
    |                                               |                |                items[0:0]: 0xb0-NA (0)
    |                                               |                |              expr{}: 0xb0-0xba.7 (11)
    |                                               |                |                instructions[0:5]: 0xb0-0xba.7 (11)
    |                                               |                |                  [0]{}: instr 0xb0-0xb1.7 (2)
0xb0|41                                             |A               |                    i32.const: 0x41 (valid) 0xb0-0xb0.7 (1)
0xb0|   07                                          | .              |                    n: 7 0xb1-0xb1.7 (1)
    |                                               |                |                  [1]{}: instr 0xb2-0xb3.7 (2)
0xb0|      41                                       |  A             |                    i32.const: 0x41 (valid) 0xb2-0xb2.7 (1)
0xb0|         00                                    |   .            |                    n: 0 0xb3-0xb3.7 (1)
    |                                               |                |                  [2]{}: instr 0xb4-0xb5.7 (2)
0xb0|            41                                 |    A           |                    i32.const: 0x41 (valid) 0xb4-0xb4.7 (1)
0xb0|               04                              |     .          |                    n: 4 0xb5-0xb5.7 (1)
    |                                               |                |                  [3]{}: instr 0xb6-0xb9.7 (4)
0xb0|                  fc                           |      .         |                    prefix: 0xfc (valid) 0xb6-0xb6.7 (1)
0xb0|                     0c                        |       .        |                    table.init: 12 (valid) 0xb7-0xb7.7 (1)
0xb0|                        01                     |        .       |                    y: 1 0xb8-0xb8.7 (1)
0xb0|                           01                  |         .      |                    x: 1 0xb9-0xb9.7 (1)
    |                                               |                |                  [4]{}: instr 0xba-0xba.7 (1)
0xb0|                              0b               |          .     |                    end: 0xb (valid) 0xba-0xba.7 (1)
    |                                               |                |          [6]{}: code 0xbb-0xc2.7 (8)
0xb0|                                 07            |           .    |            size: 7 0xbb-0xbb.7 (1)
    |                                               |                |            code{}: 0xbc-0xc2.7 (7)
    |                                               |                |              locals{}: 0xbc-0xbc.7 (1)
0xb0|                                    00         |            .   |                n: 0 0xbc-0xbc.7 (1)
    |                                               |                |                items[0:0]: 0xbd-NA (0)
    |                                               |                |              expr{}: 0xbd-0xc2.7 (6)
    |                                               |                |                instructions[0:3]: 0xbd-0xc2.7 (6)
    |                                               |                |                  [0]{}: instr 0xbd-0xbe.7 (2)
0xb0|                                       20      |                |                    local.get: 0x20 (valid) 0xbd-0xbd.7 (1)
0xb0|                                          00   |              . |                    x: 0 0xbe-0xbe.7 (1)
    |                                               |                |                  [1]{}: instr 0xbf-0xc1.7 (3)
0xb0|                                             11|               .|                    call: 0x11 (valid) 0xbf-0xbf.7 (1)
0xc0|00                                             |.               |                    y: 0 0xc0-0xc0.7 (1)
0xc0|   01                                          | .              |                    x: 1 0xc1-0xc1.7 (1)
    |                                               |                |                  [2]{}: instr 0xc2-0xc2.7 (1)
0xc0|      0b|                                      |  .|            |                    end: 0xb (valid) 0xc2-0xc2.7 (1)
