$ fq -d wasm dv table_size-0.wasm
    |00 01 02 03 04 05 06 07 08 09 0a 0b 0c 0d 0e 0f|0123456789abcdef|.{}: table_size-0.wasm (wasm) 0x0-0xc8.7 (201)
0x00|00 61 73 6d                                    |.asm            |  magic: raw bits (valid) 0x0-0x3.7 (4)
0x00|            01 00 00 00                        |    ....        |  version: 1 0x4-0x7.7 (4)
    |                                               |                |  sections[0:5]: 0x8-0xc8.7 (193)
    |                                               |                |    [0]{}: section 0x8-0x12.7 (11)
0x00|                        01                     |        .       |      id: "type section" (1) 0x8-0x8.7 (1)
0x00|                           09                  |         .      |      size: 9 0x9-0x9.7 (1)
    |                                               |                |      content{}: 0xa-0x12.7 (9)
0x00|                              02               |          .     |        n: 2 0xa-0xa.7 (1)
    |                                               |                |        items[0:2]: 0xb-0x12.7 (8)
    |                                               |                |          [0]{}: functype 0xb-0xe.7 (4)
0x00|                                 60            |           `    |            tag: 0x60 (valid) 0xb-0xb.7 (1)
    |                                               |                |            rt1{}: 0xc-0xc.7 (1)
0x00|                                    00         |            .   |              n: 0 0xc-0xc.7 (1)
    |                                               |                |              items[0:0]: 0xd-NA (0)
    |                                               |                |            rt2{}: 0xd-0xe.7 (2)
0x00|                                       01      |             .  |              n: 1 0xd-0xd.7 (1)
    |                                               |                |              items[0:1]: 0xe-0xe.7 (1)
0x00|                                          7f   |              . |                [0]: "i32" (127) valtype 0xe-0xe.7 (1)
    |                                               |                |          [1]{}: functype 0xf-0x12.7 (4)
0x00|                                             60|               `|            tag: 0x60 (valid) 0xf-0xf.7 (1)
    |                                               |                |            rt1{}: 0x10-0x11.7 (2)
0x10|01                                             |.               |              n: 1 0x10-0x10.7 (1)
    |                                               |                |              items[0:1]: 0x11-0x11.7 (1)
0x10|   7f                                          | .              |                [0]: "i32" (127) valtype 0x11-0x11.7 (1)
    |                                               |                |            rt2{}: 0x12-0x12.7 (1)
0x10|      00                                       |  .             |              n: 0 0x12-0x12.7 (1)
    |                                               |                |              items[0:0]: 0x13-NA (0)
    |                                               |                |    [1]{}: section 0x13-0x1d.7 (11)
0x10|         03                                    |   .            |      id: "function section" (3) 0x13-0x13.7 (1)
0x10|            09                                 |    .           |      size: 9 0x14-0x14.7 (1)
    |                                               |                |      content{}: 0x15-0x1d.7 (9)
0x10|               08                              |     .          |        n: 8 0x15-0x15.7 (1)
    |                                               |                |        items[0:8]: 0x16-0x1d.7 (8)
0x10|                  00                           |      .         |          [0]: 0 x 0x16-0x16.7 (1)
0x10|                     00                        |       .        |          [1]: 0 x 0x17-0x17.7 (1)
0x10|                        00                     |        .       |          [2]: 0 x 0x18-0x18.7 (1)
0x10|                           00                  |         .      |          [3]: 0 x 0x19-0x19.7 (1)
0x10|                              01               |          .     |          [4]: 1 x 0x1a-0x1a.7 (1)
0x10|                                 01            |           .    |          [5]: 1 x 0x1b-0x1b.7 (1)
0x10|                                    01         |            .   |          [6]: 1 x 0x1c-0x1c.7 (1)
0x10|                                       01      |             .  |          [7]: 1 x 0x1d-0x1d.7 (1)
    |                                               |                |    [2]{}: section 0x1e-0x2e.7 (17)
0x10|                                          04   |              . |      id: "table section" (4) 0x1e-0x1e.7 (1)
0x10|                                             0f|               .|      size: 15 0x1f-0x1f.7 (1)
    |                                               |                |      content{}: 0x20-0x2e.7 (15)
0x20|04                                             |.               |        n: 4 0x20-0x20.7 (1)
    |                                               |                |        items[0:4]: 0x21-0x2e.7 (14)
    |                                               |                |          [0]{}: table 0x21-0x23.7 (3)
0x20|   6f                                          | o              |            reftype: "externref" (111) 0x21-0x21.7 (1)
    |                                               |                |            limits{}: 0x22-0x23.7 (2)
0x20|      00                                       |  .             |              tag: 0x0 0x22-0x22.7 (1)
0x20|         00                                    |   .            |              min: 0 0x23-0x23.7 (1)
    |                                               |                |          [1]{}: table 0x24-0x26.7 (3)
0x20|            6f                                 |    o           |            reftype: "externref" (111) 0x24-0x24.7 (1)
    |                                               |                |            limits{}: 0x25-0x26.7 (2)
0x20|               00                              |     .          |              tag: 0x0 0x25-0x25.7 (1)
0x20|                  01                           |      .         |              min: 1 0x26-0x26.7 (1)
    |                                               |                |          [2]{}: table 0x27-0x2a.7 (4)
0x20|                     6f                        |       o        |            reftype: "externref" (111) 0x27-0x27.7 (1)
    |                                               |                |            limits{}: 0x28-0x2a.7 (3)
0x20|                        01                     |        .       |              tag: 0x1 0x28-0x28.7 (1)
0x20|                           00                  |         .      |              min: 0 0x29-0x29.7 (1)
0x20|                              02               |          .     |              max: 2 0x2a-0x2a.7 (1)
    |                                               |                |          [3]{}: table 0x2b-0x2e.7 (4)
0x20|                                 6f            |           o    |            reftype: "externref" (111) 0x2b-0x2b.7 (1)
    |                                               |                |            limits{}: 0x2c-0x2e.7 (3)
0x20|                                    01         |            .   |              tag: 0x1 0x2c-0x2c.7 (1)
0x20|                                       03      |             .  |              min: 3 0x2d-0x2d.7 (1)
0x20|                                          08   |              . |              max: 8 0x2e-0x2e.7 (1)
    |                                               |                |    [3]{}: section 0x2f-0x81.7 (83)
0x20|                                             07|               .|      id: "export section" (7) 0x2f-0x2f.7 (1)
0x30|51                                             |Q               |      size: 81 0x30-0x30.7 (1)
    |                                               |                |      content{}: 0x31-0x81.7 (81)
0x30|   08                                          | .              |        n: 8 0x31-0x31.7 (1)
    |                                               |                |        items[0:8]: 0x32-0x81.7 (80)
    |                                               |                |          [0]{}: export 0x32-0x3b.7 (10)
    |                                               |                |            name{}: 0x32-0x39.7 (8)
0x30|      07                                       |  .             |              len: 7 0x32-0x32.7 (1)
0x30|         73 69 7a 65 2d 74 30                  |   size-t0      |              utf8bytes: "size-t0" 0x33-0x39.7 (7)
    |                                               |                |            expr{}: 0x3a-0x3b.7 (2)
0x30|                              00               |          .     |              tag: "funcidx" (0x0) 0x3a-0x3a.7 (1)
0x30|                                 00            |           .    |              x: 0 0x3b-0x3b.7 (1)
    |                                               |                |          [1]{}: export 0x3c-0x45.7 (10)
    |                                               |                |            name{}: 0x3c-0x43.7 (8)
0x30|                                    07         |            .   |              len: 7 0x3c-0x3c.7 (1)
0x30|                                       73 69 7a|             siz|              utf8bytes: "size-t1" 0x3d-0x43.7 (7)
0x40|65 2d 74 31                                    |e-t1            |
    |                                               |                |            expr{}: 0x44-0x45.7 (2)
0x40|            00                                 |    .           |              tag: "funcidx" (0x0) 0x44-0x44.7 (1)
0x40|               01                              |     .          |              x: 1 0x45-0x45.7 (1)
    |                                               |                |          [2]{}: export 0x46-0x4f.7 (10)
    |                                               |                |            name{}: 0x46-0x4d.7 (8)
0x40|                  07                           |      .         |              len: 7 0x46-0x46.7 (1)
0x40|                     73 69 7a 65 2d 74 32      |       size-t2  |              utf8bytes: "size-t2" 0x47-0x4d.7 (7)
    |                                               |                |            expr{}: 0x4e-0x4f.7 (2)
0x40|                                          00   |              . |              tag: "funcidx" (0x0) 0x4e-0x4e.7 (1)
0x40|                                             02|               .|              x: 2 0x4f-0x4f.7 (1)
    |                                               |                |          [3]{}: export 0x50-0x59.7 (10)
    |                                               |                |            name{}: 0x50-0x57.7 (8)
0x50|07                                             |.               |              len: 7 0x50-0x50.7 (1)
0x50|   73 69 7a 65 2d 74 33                        | size-t3        |              utf8bytes: "size-t3" 0x51-0x57.7 (7)
    |                                               |                |            expr{}: 0x58-0x59.7 (2)
0x50|                        00                     |        .       |              tag: "funcidx" (0x0) 0x58-0x58.7 (1)
0x50|                           03                  |         .      |              x: 3 0x59-0x59.7 (1)
    |                                               |                |          [4]{}: export 0x5a-0x63.7 (10)
    |                                               |                |            name{}: 0x5a-0x61.7 (8)
0x50|                              07               |          .     |              len: 7 0x5a-0x5a.7 (1)
0x50|                                 67 72 6f 77 2d|           grow-|              utf8bytes: "grow-t0" 0x5b-0x61.7 (7)
0x60|74 30                                          |t0              |
    |                                               |                |            expr{}: 0x62-0x63.7 (2)
0x60|      00                                       |  .             |              tag: "funcidx" (0x0) 0x62-0x62.7 (1)
0x60|         04                                    |   .            |              x: 4 0x63-0x63.7 (1)
    |                                               |                |          [5]{}: export 0x64-0x6d.7 (10)
    |                                               |                |            name{}: 0x64-0x6b.7 (8)
0x60|            07                                 |    .           |              len: 7 0x64-0x64.7 (1)
0x60|               67 72 6f 77 2d 74 31            |     grow-t1    |              utf8bytes: "grow-t1" 0x65-0x6b.7 (7)
    |                                               |                |            expr{}: 0x6c-0x6d.7 (2)
0x60|                                    00         |            .   |              tag: "funcidx" (0x0) 0x6c-0x6c.7 (1)
0x60|                                       05      |             .  |              x: 5 0x6d-0x6d.7 (1)
    |                                               |                |          [6]{}: export 0x6e-0x77.7 (10)
    |                                               |                |            name{}: 0x6e-0x75.7 (8)
0x60|                                          07   |              . |              len: 7 0x6e-0x6e.7 (1)
0x60|                                             67|               g|              utf8bytes: "grow-t2" 0x6f-0x75.7 (7)
0x70|72 6f 77 2d 74 32                              |row-t2          |
    |                                               |                |            expr{}: 0x76-0x77.7 (2)
0x70|                  00                           |      .         |              tag: "funcidx" (0x0) 0x76-0x76.7 (1)
0x70|                     06                        |       .        |              x: 6 0x77-0x77.7 (1)
    |                                               |                |          [7]{}: export 0x78-0x81.7 (10)
    |                                               |                |            name{}: 0x78-0x7f.7 (8)
0x70|                        07                     |        .       |              len: 7 0x78-0x78.7 (1)
0x70|                           67 72 6f 77 2d 74 33|         grow-t3|              utf8bytes: "grow-t3" 0x79-0x7f.7 (7)
    |                                               |                |            expr{}: 0x80-0x81.7 (2)
0x80|00                                             |.               |              tag: "funcidx" (0x0) 0x80-0x80.7 (1)
0x80|   07                                          | .              |              x: 7 0x81-0x81.7 (1)
    |                                               |                |    [4]{}: section 0x82-0xc8.7 (71)
0x80|      0a                                       |  .             |      id: "code section" (10) 0x82-0x82.7 (1)
0x80|         45                                    |   E            |      size: 69 0x83-0x83.7 (1)
    |                                               |                |      content{}: 0x84-0xc8.7 (69)
0x80|            08                                 |    .           |        n: 8 0x84-0x84.7 (1)
    |                                               |                |        items[0:8]: 0x85-0xc8.7 (68)
    |                                               |                |          [0]{}: code 0x85-0x8a.7 (6)
0x80|               05                              |     .          |            size: 5 0x85-0x85.7 (1)
    |                                               |                |            code{}: 0x86-0x8a.7 (5)
    |                                               |                |              locals{}: 0x86-0x86.7 (1)
0x80|                  00                           |      .         |                n: 0 0x86-0x86.7 (1)
    |                                               |                |                items[0:0]: 0x87-NA (0)
    |                                               |                |              expr{}: 0x87-0x8a.7 (4)
    |                                               |                |                instructions[0:2]: 0x87-0x8a.7 (4)
    |                                               |                |                  [0]{}: instr 0x87-0x89.7 (3)
0x80|                     fc                        |       .        |                    prefix: 0xfc (valid) 0x87-0x87.7 (1)
0x80|                        10                     |        .       |                    table.size: 16 (valid) 0x88-0x88.7 (1)
0x80|                           00                  |         .      |                    x: 0 0x89-0x89.7 (1)
    |                                               |                |                  [1]{}: instr 0x8a-0x8a.7 (1)
0x80|                              0b               |          .     |                    end: 0xb (valid) 0x8a-0x8a.7 (1)
    |                                               |                |          [1]{}: code 0x8b-0x90.7 (6)
0x80|                                 05            |           .    |            size: 5 0x8b-0x8b.7 (1)
    |                                               |                |            code{}: 0x8c-0x90.7 (5)
    |                                               |                |              locals{}: 0x8c-0x8c.7 (1)
0x80|                                    00         |            .   |                n: 0 0x8c-0x8c.7 (1)
    |                                               |                |                items[0:0]: 0x8d-NA (0)
    |                                               |                |              expr{}: 0x8d-0x90.7 (4)
    |                                               |                |                instructions[0:2]: 0x8d-0x90.7 (4)
    |                                               |                |                  [0]{}: instr 0x8d-0x8f.7 (3)
0x80|                                       fc      |             .  |                    prefix: 0xfc (valid) 0x8d-0x8d.7 (1)
0x80|                                          10   |              . |                    table.size: 16 (valid) 0x8e-0x8e.7 (1)
0x80|                                             01|               .|                    x: 1 0x8f-0x8f.7 (1)
    |                                               |                |                  [1]{}: instr 0x90-0x90.7 (1)
0x90|0b                                             |.               |                    end: 0xb (valid) 0x90-0x90.7 (1)
    |                                               |                |          [2]{}: code 0x91-0x96.7 (6)
0x90|   05                                          | .              |            size: 5 0x91-0x91.7 (1)
    |                                               |                |            code{}: 0x92-0x96.7 (5)
    |                                               |                |              locals{}: 0x92-0x92.7 (1)
0x90|      00                                       |  .             |                n: 0 0x92-0x92.7 (1)
    |                                               |                |                items[0:0]: 0x93-NA (0)
    |                                               |                |              expr{}: 0x93-0x96.7 (4)
    |                                               |                |                instructions[0:2]: 0x93-0x96.7 (4)
    |                                               |                |                  [0]{}: instr 0x93-0x95.7 (3)
0x90|         fc                                    |   .            |                    prefix: 0xfc (valid) 0x93-0x93.7 (1)
0x90|            10                                 |    .           |                    table.size: 16 (valid) 0x94-0x94.7 (1)
0x90|               02                              |     .          |                    x: 2 0x95-0x95.7 (1)
    |                                               |                |                  [1]{}: instr 0x96-0x96.7 (1)
0x90|                  0b                           |      .         |                    end: 0xb (valid) 0x96-0x96.7 (1)
    |                                               |                |          [3]{}: code 0x97-0x9c.7 (6)
0x90|                     05                        |       .        |            size: 5 0x97-0x97.7 (1)
    |                                               |                |            code{}: 0x98-0x9c.7 (5)
    |                                               |                |              locals{}: 0x98-0x98.7 (1)
0x90|                        00                     |        .       |                n: 0 0x98-0x98.7 (1)
    |                                               |                |                items[0:0]: 0x99-NA (0)
    |                                               |                |              expr{}: 0x99-0x9c.7 (4)
    |                                               |                |                instructions[0:2]: 0x99-0x9c.7 (4)
    |                                               |                |                  [0]{}: instr 0x99-0x9b.7 (3)
0x90|                           fc                  |         .      |                    prefix: 0xfc (valid) 0x99-0x99.7 (1)
0x90|                              10               |          .     |                    table.size: 16 (valid) 0x9a-0x9a.7 (1)
0x90|                                 03            |           .    |                    x: 3 0x9b-0x9b.7 (1)
    |                                               |                |                  [1]{}: instr 0x9c-0x9c.7 (1)
0x90|                                    0b         |            .   |                    end: 0xb (valid) 0x9c-0x9c.7 (1)
    |                                               |                |          [4]{}: code 0x9d-0xa7.7 (11)
0x90|                                       0a      |             .  |            size: 10 0x9d-0x9d.7 (1)
    |                                               |                |            code{}: 0x9e-0xa7.7 (10)
    |                                               |                |              locals{}: 0x9e-0x9e.7 (1)
0x90|                                          00   |              . |                n: 0 0x9e-0x9e.7 (1)
    |                                               |                |                items[0:0]: 0x9f-NA (0)
    |                                               |                |              expr{}: 0x9f-0xa7.7 (9)
    |                                               |                |                instructions[0:5]: 0x9f-0xa7.7 (9)
    |                                               |                |                  [0]{}: instr 0x9f-0xa0.7 (2)
0x90|                                             d0|               .|                    ref.null: 0xd0 (valid) 0x9f-0x9f.7 (1)
0xa0|6f                                             |o               |                    reftype: "externref" (111) 0xa0-0xa0.7 (1)
    |                                               |                |                  [1]{}: instr 0xa1-0xa2.7 (2)
0xa0|   20                                          |                |                    local.get: 0x20 (valid) 0xa1-0xa1.7 (1)
0xa0|      00                                       |  .             |                    x: 0 0xa2-0xa2.7 (1)
    |                                               |                |                  [2]{}: instr 0xa3-0xa5.7 (3)
0xa0|         fc                                    |   .            |                    prefix: 0xfc (valid) 0xa3-0xa3.7 (1)
0xa0|            0f                                 |    .           |                    table.grow: 15 (valid) 0xa4-0xa4.7 (1)
0xa0|               00                              |     .          |                    x: 0 0xa5-0xa5.7 (1)
    |                                               |                |                  [3]{}: instr 0xa6-0xa6.7 (1)
0xa0|                  1a                           |      .         |                    drop: 0x1a (valid) 0xa6-0xa6.7 (1)
    |                                               |                |                  [4]{}: instr 0xa7-0xa7.7 (1)
0xa0|                     0b                        |       .        |                    end: 0xb (valid) 0xa7-0xa7.7 (1)
    |                                               |                |          [5]{}: code 0xa8-0xb2.7 (11)
0xa0|                        0a                     |        .       |            size: 10 0xa8-0xa8.7 (1)
    |                                               |                |            code{}: 0xa9-0xb2.7 (10)
    |                                               |                |              locals{}: 0xa9-0xa9.7 (1)
0xa0|                           00                  |         .      |                n: 0 0xa9-0xa9.7 (1)
    |                                               |                |                items[0:0]: 0xaa-NA (0)
    |                                               |                |              expr{}: 0xaa-0xb2.7 (9)
    |                                               |                |                instructions[0:5]: 0xaa-0xb2.7 (9)
    |                                               |                |                  [0]{}: instr 0xaa-0xab.7 (2)
0xa0|                              d0               |          .     |                    ref.null: 0xd0 (valid) 0xaa-0xaa.7 (1)
0xa0|                                 6f            |           o    |                    reftype: "externref" (111) 0xab-0xab.7 (1)
    |                                               |                |                  [1]{}: instr 0xac-0xad.7 (2)
0xa0|                                    20         |                |                    local.get: 0x20 (valid) 0xac-0xac.7 (1)
0xa0|                                       00      |             .  |                    x: 0 0xad-0xad.7 (1)
    |                                               |                |                  [2]{}: instr 0xae-0xb0.7 (3)
0xa0|                                          fc   |              . |                    prefix: 0xfc (valid) 0xae-0xae.7 (1)
0xa0|                                             0f|               .|                    table.grow: 15 (valid) 0xaf-0xaf.7 (1)
0xb0|01                                             |.               |                    x: 1 0xb0-0xb0.7 (1)
    |                                               |                |                  [3]{}: instr 0xb1-0xb1.7 (1)
0xb0|   1a                                          | .              |                    drop: 0x1a (valid) 0xb1-0xb1.7 (1)
    |                                               |                |                  [4]{}: instr 0xb2-0xb2.7 (1)
0xb0|      0b                                       |  .             |                    end: 0xb (valid) 0xb2-0xb2.7 (1)
    |                                               |                |          [6]{}: code 0xb3-0xbd.7 (11)
0xb0|         0a                                    |   .            |            size: 10 0xb3-0xb3.7 (1)
    |                                               |                |            code{}: 0xb4-0xbd.7 (10)
    |                                               |                |              locals{}: 0xb4-0xb4.7 (1)
0xb0|            00                                 |    .           |                n: 0 0xb4-0xb4.7 (1)
    |                                               |                |                items[0:0]: 0xb5-NA (0)
    |                                               |                |              expr{}: 0xb5-0xbd.7 (9)
    |                                               |                |                instructions[0:5]: 0xb5-0xbd.7 (9)
    |                                               |                |                  [0]{}: instr 0xb5-0xb6.7 (2)
0xb0|               d0                              |     .          |                    ref.null: 0xd0 (valid) 0xb5-0xb5.7 (1)
0xb0|                  6f                           |      o         |                    reftype: "externref" (111) 0xb6-0xb6.7 (1)
    |                                               |                |                  [1]{}: instr 0xb7-0xb8.7 (2)
0xb0|                     20                        |                |                    local.get: 0x20 (valid) 0xb7-0xb7.7 (1)
0xb0|                        00                     |        .       |                    x: 0 0xb8-0xb8.7 (1)
    |                                               |                |                  [2]{}: instr 0xb9-0xbb.7 (3)
0xb0|                           fc                  |         .      |                    prefix: 0xfc (valid) 0xb9-0xb9.7 (1)
0xb0|                              0f               |          .     |                    table.grow: 15 (valid) 0xba-0xba.7 (1)
0xb0|                                 02            |           .    |                    x: 2 0xbb-0xbb.7 (1)
    |                                               |                |                  [3]{}: instr 0xbc-0xbc.7 (1)
0xb0|                                    1a         |            .   |                    drop: 0x1a (valid) 0xbc-0xbc.7 (1)
    |                                               |                |                  [4]{}: instr 0xbd-0xbd.7 (1)
0xb0|                                       0b      |             .  |                    end: 0xb (valid) 0xbd-0xbd.7 (1)
    |                                               |                |          [7]{}: code 0xbe-0xc8.7 (11)
0xb0|                                          0a   |              . |            size: 10 0xbe-0xbe.7 (1)
    |                                               |                |            code{}: 0xbf-0xc8.7 (10)
    |                                               |                |              locals{}: 0xbf-0xbf.7 (1)
0xb0|                                             00|               .|                n: 0 0xbf-0xbf.7 (1)
    |                                               |                |                items[0:0]: 0xc0-NA (0)
    |                                               |                |              expr{}: 0xc0-0xc8.7 (9)
    |                                               |                |                instructions[0:5]: 0xc0-0xc8.7 (9)
    |                                               |                |                  [0]{}: instr 0xc0-0xc1.7 (2)
0xc0|d0                                             |.               |                    ref.null: 0xd0 (valid) 0xc0-0xc0.7 (1)
0xc0|   6f                                          | o              |                    reftype: "externref" (111) 0xc1-0xc1.7 (1)
    |                                               |                |                  [1]{}: instr 0xc2-0xc3.7 (2)
0xc0|      20                                       |                |                    local.get: 0x20 (valid) 0xc2-0xc2.7 (1)
0xc0|         00                                    |   .            |                    x: 0 0xc3-0xc3.7 (1)
    |                                               |                |                  [2]{}: instr 0xc4-0xc6.7 (3)
0xc0|            fc                                 |    .           |                    prefix: 0xfc (valid) 0xc4-0xc4.7 (1)
0xc0|               0f                              |     .          |                    table.grow: 15 (valid) 0xc5-0xc5.7 (1)
0xc0|                  03                           |      .         |                    x: 3 0xc6-0xc6.7 (1)
    |                                               |                |                  [3]{}: instr 0xc7-0xc7.7 (1)
0xc0|                     1a                        |       .        |                    drop: 0x1a (valid) 0xc7-0xc7.7 (1)
    |                                               |                |                  [4]{}: instr 0xc8-0xc8.7 (1)
0xc0|                        0b|                    |        .|      |                    end: 0xb (valid) 0xc8-0xc8.7 (1)
