$ fq -d wasm dv type-0.wasm
    |00 01 02 03 04 05 06 07 08 09 0a 0b 0c 0d 0e 0f|0123456789abcdef|.{}: type-0.wasm (wasm) 0x0-0x93.7 (148)
0x00|00 61 73 6d                                    |.asm            |  magic: raw bits (valid) 0x0-0x3.7 (4)
0x00|            01 00 00 00                        |    ....        |  version: 1 0x4-0x7.7 (4)
    |                                               |                |  sections[0:1]: 0x8-0x93.7 (140)
    |                                               |                |    [0]{}: section 0x8-0x93.7 (140)
0x00|                        01                     |        .       |      id: "type section" (1) 0x8-0x8.7 (1)
0x00|                           89 01               |         ..     |      size: 137 0x9-0xa.7 (2)
    |                                               |                |      content{}: 0xb-0x93.7 (137)
0x00|                                 17            |           .    |        n: 23 0xb-0xb.7 (1)
    |                                               |                |        items[0:23]: 0xc-0x93.7 (136)
    |                                               |                |          [0]{}: functype 0xc-0xe.7 (3)
0x00|                                    60         |            `   |            tag: 0x60 (valid) 0xc-0xc.7 (1)
    |                                               |                |            rt1{}: 0xd-0xd.7 (1)
0x00|                                       00      |             .  |              n: 0 0xd-0xd.7 (1)
    |                                               |                |              items[0:0]: 0xe-NA (0)
    |                                               |                |            rt2{}: 0xe-0xe.7 (1)
0x00|                                          00   |              . |              n: 0 0xe-0xe.7 (1)
    |                                               |                |              items[0:0]: 0xf-NA (0)
    |                                               |                |          [1]{}: functype 0xf-0x11.7 (3)
0x00|                                             60|               `|            tag: 0x60 (valid) 0xf-0xf.7 (1)
    |                                               |                |            rt1{}: 0x10-0x10.7 (1)
0x10|00                                             |.               |              n: 0 0x10-0x10.7 (1)
    |                                               |                |              items[0:0]: 0x11-NA (0)
    |                                               |                |            rt2{}: 0x11-0x11.7 (1)
0x10|   00                                          | .              |              n: 0 0x11-0x11.7 (1)
    |                                               |                |              items[0:0]: 0x12-NA (0)
    |                                               |                |          [2]{}: functype 0x12-0x15.7 (4)
0x10|      60                                       |  `             |            tag: 0x60 (valid) 0x12-0x12.7 (1)
    |                                               |                |            rt1{}: 0x13-0x14.7 (2)
0x10|         01                                    |   .            |              n: 1 0x13-0x13.7 (1)
    |                                               |                |              items[0:1]: 0x14-0x14.7 (1)
0x10|            7f                                 |    .           |                [0]: "i32" (127) valtype 0x14-0x14.7 (1)
    |                                               |                |            rt2{}: 0x15-0x15.7 (1)
0x10|               00                              |     .          |              n: 0 0x15-0x15.7 (1)
    |                                               |                |              items[0:0]: 0x16-NA (0)
    |                                               |                |          [3]{}: functype 0x16-0x19.7 (4)
0x10|                  60                           |      `         |            tag: 0x60 (valid) 0x16-0x16.7 (1)
    |                                               |                |            rt1{}: 0x17-0x18.7 (2)
0x10|                     01                        |       .        |              n: 1 0x17-0x17.7 (1)
    |                                               |                |              items[0:1]: 0x18-0x18.7 (1)
0x10|                        7f                     |        .       |                [0]: "i32" (127) valtype 0x18-0x18.7 (1)
    |                                               |                |            rt2{}: 0x19-0x19.7 (1)
0x10|                           00                  |         .      |              n: 0 0x19-0x19.7 (1)
    |                                               |                |              items[0:0]: 0x1a-NA (0)
    |                                               |                |          [4]{}: functype 0x1a-0x1d.7 (4)
0x10|                              60               |          `     |            tag: 0x60 (valid) 0x1a-0x1a.7 (1)
    |                                               |                |            rt1{}: 0x1b-0x1b.7 (1)
0x10|                                 00            |           .    |              n: 0 0x1b-0x1b.7 (1)
    |                                               |                |              items[0:0]: 0x1c-NA (0)
    |                                               |                |            rt2{}: 0x1c-0x1d.7 (2)
0x10|                                    01         |            .   |              n: 1 0x1c-0x1c.7 (1)
    |                                               |                |              items[0:1]: 0x1d-0x1d.7 (1)
0x10|                                       7f      |             .  |                [0]: "i32" (127) valtype 0x1d-0x1d.7 (1)
    |                                               |                |          [5]{}: functype 0x1e-0x22.7 (5)
0x10|                                          60   |              ` |            tag: 0x60 (valid) 0x1e-0x1e.7 (1)
    |                                               |                |            rt1{}: 0x1f-0x20.7 (2)
0x10|                                             01|               .|              n: 1 0x1f-0x1f.7 (1)
    |                                               |                |              items[0:1]: 0x20-0x20.7 (1)
0x20|7f                                             |.               |                [0]: "i32" (127) valtype 0x20-0x20.7 (1)
    |                                               |                |            rt2{}: 0x21-0x22.7 (2)
0x20|   01                                          | .              |              n: 1 0x21-0x21.7 (1)
    |                                               |                |              items[0:1]: 0x22-0x22.7 (1)
0x20|      7f                                       |  .             |                [0]: "i32" (127) valtype 0x22-0x22.7 (1)
    |                                               |                |          [6]{}: functype 0x23-0x27.7 (5)
0x20|         60                                    |   `            |            tag: 0x60 (valid) 0x23-0x23.7 (1)
    |                                               |                |            rt1{}: 0x24-0x25.7 (2)
0x20|            01                                 |    .           |              n: 1 0x24-0x24.7 (1)
    |                                               |                |              items[0:1]: 0x25-0x25.7 (1)
0x20|               7f                              |     .          |                [0]: "i32" (127) valtype 0x25-0x25.7 (1)
    |                                               |                |            rt2{}: 0x26-0x27.7 (2)
0x20|                  01                           |      .         |              n: 1 0x26-0x26.7 (1)
    |                                               |                |              items[0:1]: 0x27-0x27.7 (1)
0x20|                     7f                        |       .        |                [0]: "i32" (127) valtype 0x27-0x27.7 (1)
    |                                               |                |          [7]{}: functype 0x28-0x2c.7 (5)
0x20|                        60                     |        `       |            tag: 0x60 (valid) 0x28-0x28.7 (1)
    |                                               |                |            rt1{}: 0x29-0x2b.7 (3)
0x20|                           02                  |         .      |              n: 2 0x29-0x29.7 (1)
    |                                               |                |              items[0:2]: 0x2a-0x2b.7 (2)
0x20|                              7d               |          }     |                [0]: "f32" (125) valtype 0x2a-0x2a.7 (1)
0x20|                                 7c            |           |    |                [1]: "f64" (124) valtype 0x2b-0x2b.7 (1)
    |                                               |                |            rt2{}: 0x2c-0x2c.7 (1)
0x20|                                    00         |            .   |              n: 0 0x2c-0x2c.7 (1)
    |                                               |                |              items[0:0]: 0x2d-NA (0)
    |                                               |                |          [8]{}: functype 0x2d-0x31.7 (5)
0x20|                                       60      |             `  |            tag: 0x60 (valid) 0x2d-0x2d.7 (1)
    |                                               |                |            rt1{}: 0x2e-0x2e.7 (1)
0x20|                                          00   |              . |              n: 0 0x2e-0x2e.7 (1)
    |                                               |                |              items[0:0]: 0x2f-NA (0)
    |                                               |                |            rt2{}: 0x2f-0x31.7 (3)
0x20|                                             02|               .|              n: 2 0x2f-0x2f.7 (1)
    |                                               |                |              items[0:2]: 0x30-0x31.7 (2)
0x30|7e                                             |~               |                [0]: "i64" (126) valtype 0x30-0x30.7 (1)
0x30|   7d                                          | }              |                [1]: "f32" (125) valtype 0x31-0x31.7 (1)
    |                                               |                |          [9]{}: functype 0x32-0x38.7 (7)
0x30|      60                                       |  `             |            tag: 0x60 (valid) 0x32-0x32.7 (1)
    |                                               |                |            rt1{}: 0x33-0x35.7 (3)
0x30|         02                                    |   .            |              n: 2 0x33-0x33.7 (1)
    |                                               |                |              items[0:2]: 0x34-0x35.7 (2)
0x30|            7f                                 |    .           |                [0]: "i32" (127) valtype 0x34-0x34.7 (1)
0x30|               7e                              |     ~          |                [1]: "i64" (126) valtype 0x35-0x35.7 (1)
    |                                               |                |            rt2{}: 0x36-0x38.7 (3)
0x30|                  02                           |      .         |              n: 2 0x36-0x36.7 (1)
    |                                               |                |              items[0:2]: 0x37-0x38.7 (2)
0x30|                     7d                        |       }        |                [0]: "f32" (125) valtype 0x37-0x37.7 (1)
0x30|                        7c                     |        |       |                [1]: "f64" (124) valtype 0x38-0x38.7 (1)
    |                                               |                |          [10]{}: functype 0x39-0x3d.7 (5)
0x30|                           60                  |         `      |            tag: 0x60 (valid) 0x39-0x39.7 (1)
    |                                               |                |            rt1{}: 0x3a-0x3c.7 (3)
0x30|                              02               |          .     |              n: 2 0x3a-0x3a.7 (1)
    |                                               |                |              items[0:2]: 0x3b-0x3c.7 (2)
0x30|                                 7d            |           }    |                [0]: "f32" (125) valtype 0x3b-0x3b.7 (1)
0x30|                                    7c         |            |   |                [1]: "f64" (124) valtype 0x3c-0x3c.7 (1)
    |                                               |                |            rt2{}: 0x3d-0x3d.7 (1)
0x30|                                       00      |             .  |              n: 0 0x3d-0x3d.7 (1)
    |                                               |                |              items[0:0]: 0x3e-NA (0)
    |                                               |                |          [11]{}: functype 0x3e-0x42.7 (5)
0x30|                                          60   |              ` |            tag: 0x60 (valid) 0x3e-0x3e.7 (1)
    |                                               |                |            rt1{}: 0x3f-0x41.7 (3)
0x30|                                             02|               .|              n: 2 0x3f-0x3f.7 (1)
    |                                               |                |              items[0:2]: 0x40-0x41.7 (2)
0x40|7d                                             |}               |                [0]: "f32" (125) valtype 0x40-0x40.7 (1)
0x40|   7c                                          | |              |                [1]: "f64" (124) valtype 0x41-0x41.7 (1)
    |                                               |                |            rt2{}: 0x42-0x42.7 (1)
0x40|      00                                       |  .             |              n: 0 0x42-0x42.7 (1)
    |                                               |                |              items[0:0]: 0x43-NA (0)
    |                                               |                |          [12]{}: functype 0x43-0x47.7 (5)
0x40|         60                                    |   `            |            tag: 0x60 (valid) 0x43-0x43.7 (1)
    |                                               |                |            rt1{}: 0x44-0x46.7 (3)
0x40|            02                                 |    .           |              n: 2 0x44-0x44.7 (1)
    |                                               |                |              items[0:2]: 0x45-0x46.7 (2)
0x40|               7d                              |     }          |                [0]: "f32" (125) valtype 0x45-0x45.7 (1)
0x40|                  7c                           |      |         |                [1]: "f64" (124) valtype 0x46-0x46.7 (1)
    |                                               |                |            rt2{}: 0x47-0x47.7 (1)
0x40|                     00                        |       .        |              n: 0 0x47-0x47.7 (1)
    |                                               |                |              items[0:0]: 0x48-NA (0)
    |                                               |                |          [13]{}: functype 0x48-0x4c.7 (5)
0x40|                        60                     |        `       |            tag: 0x60 (valid) 0x48-0x48.7 (1)
    |                                               |                |            rt1{}: 0x49-0x4b.7 (3)
0x40|                           02                  |         .      |              n: 2 0x49-0x49.7 (1)
    |                                               |                |              items[0:2]: 0x4a-0x4b.7 (2)
0x40|                              7d               |          }     |                [0]: "f32" (125) valtype 0x4a-0x4a.7 (1)
0x40|                                 7c            |           |    |                [1]: "f64" (124) valtype 0x4b-0x4b.7 (1)
    |                                               |                |            rt2{}: 0x4c-0x4c.7 (1)
0x40|                                    00         |            .   |              n: 0 0x4c-0x4c.7 (1)
    |                                               |                |              items[0:0]: 0x4d-NA (0)
    |                                               |                |          [14]{}: functype 0x4d-0x51.7 (5)
0x40|                                       60      |             `  |            tag: 0x60 (valid) 0x4d-0x4d.7 (1)
    |                                               |                |            rt1{}: 0x4e-0x4e.7 (1)
0x40|                                          00   |              . |              n: 0 0x4e-0x4e.7 (1)
    |                                               |                |              items[0:0]: 0x4f-NA (0)
    |                                               |                |            rt2{}: 0x4f-0x51.7 (3)
0x40|                                             02|               .|              n: 2 0x4f-0x4f.7 (1)
    |                                               |                |              items[0:2]: 0x50-0x51.7 (2)
0x50|7e                                             |~               |                [0]: "i64" (126) valtype 0x50-0x50.7 (1)
0x50|   7d                                          | }              |                [1]: "f32" (125) valtype 0x51-0x51.7 (1)
    |                                               |                |          [15]{}: functype 0x52-0x58.7 (7)
0x50|      60                                       |  `             |            tag: 0x60 (valid) 0x52-0x52.7 (1)
    |                                               |                |            rt1{}: 0x53-0x55.7 (3)
0x50|         02                                    |   .            |              n: 2 0x53-0x53.7 (1)
    |                                               |                |              items[0:2]: 0x54-0x55.7 (2)
0x50|            7f                                 |    .           |                [0]: "i32" (127) valtype 0x54-0x54.7 (1)
0x50|               7e                              |     ~          |                [1]: "i64" (126) valtype 0x55-0x55.7 (1)
    |                                               |                |            rt2{}: 0x56-0x58.7 (3)
0x50|                  02                           |      .         |              n: 2 0x56-0x56.7 (1)
    |                                               |                |              items[0:2]: 0x57-0x58.7 (2)
0x50|                     7d                        |       }        |                [0]: "f32" (125) valtype 0x57-0x57.7 (1)
0x50|                        7c                     |        |       |                [1]: "f64" (124) valtype 0x58-0x58.7 (1)
    |                                               |                |          [16]{}: functype 0x59-0x5f.7 (7)
0x50|                           60                  |         `      |            tag: 0x60 (valid) 0x59-0x59.7 (1)
    |                                               |                |            rt1{}: 0x5a-0x5c.7 (3)
0x50|                              02               |          .     |              n: 2 0x5a-0x5a.7 (1)
    |                                               |                |              items[0:2]: 0x5b-0x5c.7 (2)
0x50|                                 7f            |           .    |                [0]: "i32" (127) valtype 0x5b-0x5b.7 (1)
0x50|                                    7e         |            ~   |                [1]: "i64" (126) valtype 0x5c-0x5c.7 (1)
    |                                               |                |            rt2{}: 0x5d-0x5f.7 (3)
0x50|                                       02      |             .  |              n: 2 0x5d-0x5d.7 (1)
    |                                               |                |              items[0:2]: 0x5e-0x5f.7 (2)
0x50|                                          7d   |              } |                [0]: "f32" (125) valtype 0x5e-0x5e.7 (1)
0x50|                                             7c|               ||                [1]: "f64" (124) valtype 0x5f-0x5f.7 (1)
    |                                               |                |          [17]{}: functype 0x60-0x68.7 (9)
0x60|60                                             |`               |            tag: 0x60 (valid) 0x60-0x60.7 (1)
    |                                               |                |            rt1{}: 0x61-0x67.7 (7)
0x60|   06                                          | .              |              n: 6 0x61-0x61.7 (1)
    |                                               |                |              items[0:6]: 0x62-0x67.7 (6)
0x60|      7d                                       |  }             |                [0]: "f32" (125) valtype 0x62-0x62.7 (1)
0x60|         7c                                    |   |            |                [1]: "f64" (124) valtype 0x63-0x63.7 (1)
0x60|            7f                                 |    .           |                [2]: "i32" (127) valtype 0x64-0x64.7 (1)
0x60|               7c                              |     |          |                [3]: "f64" (124) valtype 0x65-0x65.7 (1)
0x60|                  7f                           |      .         |                [4]: "i32" (127) valtype 0x66-0x66.7 (1)
0x60|                     7f                        |       .        |                [5]: "i32" (127) valtype 0x67-0x67.7 (1)
    |                                               |                |            rt2{}: 0x68-0x68.7 (1)
0x60|                        00                     |        .       |              n: 0 0x68-0x68.7 (1)
    |                                               |                |              items[0:0]: 0x69-NA (0)
    |                                               |                |          [18]{}: functype 0x69-0x70.7 (8)
0x60|                           60                  |         `      |            tag: 0x60 (valid) 0x69-0x69.7 (1)
    |                                               |                |            rt1{}: 0x6a-0x6a.7 (1)
0x60|                              00               |          .     |              n: 0 0x6a-0x6a.7 (1)
    |                                               |                |              items[0:0]: 0x6b-NA (0)
    |                                               |                |            rt2{}: 0x6b-0x70.7 (6)
0x60|                                 05            |           .    |              n: 5 0x6b-0x6b.7 (1)
    |                                               |                |              items[0:5]: 0x6c-0x70.7 (5)
0x60|                                    7e         |            ~   |                [0]: "i64" (126) valtype 0x6c-0x6c.7 (1)
0x60|                                       7e      |             ~  |                [1]: "i64" (126) valtype 0x6d-0x6d.7 (1)
0x60|                                          7d   |              } |                [2]: "f32" (125) valtype 0x6e-0x6e.7 (1)
0x60|                                             7d|               }|                [3]: "f32" (125) valtype 0x6f-0x6f.7 (1)
0x70|7f                                             |.               |                [4]: "i32" (127) valtype 0x70-0x70.7 (1)
    |                                               |                |          [19]{}: functype 0x71-0x7b.7 (11)
0x70|   60                                          | `              |            tag: 0x60 (valid) 0x71-0x71.7 (1)
    |                                               |                |            rt1{}: 0x72-0x76.7 (5)
0x70|      04                                       |  .             |              n: 4 0x72-0x72.7 (1)
    |                                               |                |              items[0:4]: 0x73-0x76.7 (4)
0x70|         7f                                    |   .            |                [0]: "i32" (127) valtype 0x73-0x73.7 (1)
0x70|            7f                                 |    .           |                [1]: "i32" (127) valtype 0x74-0x74.7 (1)
0x70|               7e                              |     ~          |                [2]: "i64" (126) valtype 0x75-0x75.7 (1)
0x70|                  7f                           |      .         |                [3]: "i32" (127) valtype 0x76-0x76.7 (1)
    |                                               |                |            rt2{}: 0x77-0x7b.7 (5)
0x70|                     04                        |       .        |              n: 4 0x77-0x77.7 (1)
    |                                               |                |              items[0:4]: 0x78-0x7b.7 (4)
0x70|                        7d                     |        }       |                [0]: "f32" (125) valtype 0x78-0x78.7 (1)
0x70|                           7c                  |         |      |                [1]: "f64" (124) valtype 0x79-0x79.7 (1)
0x70|                              7c               |          |     |                [2]: "f64" (124) valtype 0x7a-0x7a.7 (1)
0x70|                                 7f            |           .    |                [3]: "i32" (127) valtype 0x7b-0x7b.7 (1)
    |                                               |                |          [20]{}: functype 0x7c-0x81.7 (6)
0x70|                                    60         |            `   |            tag: 0x60 (valid) 0x7c-0x7c.7 (1)
    |                                               |                |            rt1{}: 0x7d-0x80.7 (4)
0x70|                                       03      |             .  |              n: 3 0x7d-0x7d.7 (1)
    |                                               |                |              items[0:3]: 0x7e-0x80.7 (3)
0x70|                                          7d   |              } |                [0]: "f32" (125) valtype 0x7e-0x7e.7 (1)
0x70|                                             7c|               ||                [1]: "f64" (124) valtype 0x7f-0x7f.7 (1)
0x80|7f                                             |.               |                [2]: "i32" (127) valtype 0x80-0x80.7 (1)
    |                                               |                |            rt2{}: 0x81-0x81.7 (1)
0x80|   00                                          | .              |              n: 0 0x81-0x81.7 (1)
    |                                               |                |              items[0:0]: 0x82-NA (0)
    |                                               |                |          [21]{}: functype 0x82-0x87.7 (6)
0x80|      60                                       |  `             |            tag: 0x60 (valid) 0x82-0x82.7 (1)
    |                                               |                |            rt1{}: 0x83-0x83.7 (1)
0x80|         00                                    |   .            |              n: 0 0x83-0x83.7 (1)
    |                                               |                |              items[0:0]: 0x84-NA (0)
    |                                               |                |            rt2{}: 0x84-0x87.7 (4)
0x80|            03                                 |    .           |              n: 3 0x84-0x84.7 (1)
    |                                               |                |              items[0:3]: 0x85-0x87.7 (3)
0x80|               7e                              |     ~          |                [0]: "i64" (126) valtype 0x85-0x85.7 (1)
0x80|                  7e                           |      ~         |                [1]: "i64" (126) valtype 0x86-0x86.7 (1)
0x80|                     7d                        |       }        |                [2]: "f32" (125) valtype 0x87-0x87.7 (1)
    |                                               |                |          [22]{}: functype 0x88-0x93.7 (12)
0x80|                        60                     |        `       |            tag: 0x60 (valid) 0x88-0x88.7 (1)
    |                                               |                |            rt1{}: 0x89-0x8e.7 (6)
0x80|                           05                  |         .      |              n: 5 0x89-0x89.7 (1)
    |                                               |                |              items[0:5]: 0x8a-0x8e.7 (5)
0x80|                              7f               |          .     |                [0]: "i32" (127) valtype 0x8a-0x8a.7 (1)
0x80|                                 7f            |           .    |                [1]: "i32" (127) valtype 0x8b-0x8b.7 (1)
0x80|                                    7e         |            ~   |                [2]: "i64" (126) valtype 0x8c-0x8c.7 (1)
0x80|                                       7f      |             .  |                [3]: "i32" (127) valtype 0x8d-0x8d.7 (1)
0x80|                                          7f   |              . |                [4]: "i32" (127) valtype 0x8e-0x8e.7 (1)
    |                                               |                |            rt2{}: 0x8f-0x93.7 (5)
0x80|                                             04|               .|              n: 4 0x8f-0x8f.7 (1)
    |                                               |                |              items[0:4]: 0x90-0x93.7 (4)
0x90|7d                                             |}               |                [0]: "f32" (125) valtype 0x90-0x90.7 (1)
0x90|   7c                                          | |              |                [1]: "f64" (124) valtype 0x91-0x91.7 (1)
0x90|      7c                                       |  |             |                [2]: "f64" (124) valtype 0x92-0x92.7 (1)
0x90|         7f|                                   |   .|           |                [3]: "i32" (127) valtype 0x93-0x93.7 (1)
