$ fq -d wasm dv unreached-valid-0.wasm
     |00 01 02 03 04 05 06 07 08 09 0a 0b 0c 0d 0e 0f|0123456789abcdef|.{}: unreached-valid-0.wasm (wasm) 0x0-0x112.7 (275)
0x000|00 61 73 6d                                    |.asm            |  magic: raw bits (valid) 0x0-0x3.7 (4)
0x000|            01 00 00 00                        |    ....        |  version: 1 0x4-0x7.7 (4)
     |                                               |                |  sections[0:4]: 0x8-0x112.7 (267)
     |                                               |                |    [0]{}: section 0x8-0x1a.7 (19)
0x000|                        01                     |        .       |      id: "type section" (1) 0x8-0x8.7 (1)
0x000|                           11                  |         .      |      size: 17 0x9-0x9.7 (1)
     |                                               |                |      content{}: 0xa-0x1a.7 (17)
0x000|                              04               |          .     |        n: 4 0xa-0xa.7 (1)
     |                                               |                |        items[0:4]: 0xb-0x1a.7 (16)
     |                                               |                |          [0]{}: functype 0xb-0xf.7 (5)
0x000|                                 60            |           `    |            tag: 0x60 (valid) 0xb-0xb.7 (1)
     |                                               |                |            rt1{}: 0xc-0xd.7 (2)
0x000|                                    01         |            .   |              n: 1 0xc-0xc.7 (1)
     |                                               |                |              items[0:1]: 0xd-0xd.7 (1)
0x000|                                       7f      |             .  |                [0]: "i32" (127) valtype 0xd-0xd.7 (1)
     |                                               |                |            rt2{}: 0xe-0xf.7 (2)
0x000|                                          01   |              . |              n: 1 0xe-0xe.7 (1)
     |                                               |                |              items[0:1]: 0xf-0xf.7 (1)
0x000|                                             7f|               .|                [0]: "i32" (127) valtype 0xf-0xf.7 (1)
     |                                               |                |          [1]{}: functype 0x10-0x12.7 (3)
0x010|60                                             |`               |            tag: 0x60 (valid) 0x10-0x10.7 (1)
     |                                               |                |            rt1{}: 0x11-0x11.7 (1)
0x010|   00                                          | .              |              n: 0 0x11-0x11.7 (1)
     |                                               |                |              items[0:0]: 0x12-NA (0)
     |                                               |                |            rt2{}: 0x12-0x12.7 (1)
0x010|      00                                       |  .             |              n: 0 0x12-0x12.7 (1)
     |                                               |                |              items[0:0]: 0x13-NA (0)
     |                                               |                |          [2]{}: functype 0x13-0x16.7 (4)
0x010|         60                                    |   `            |            tag: 0x60 (valid) 0x13-0x13.7 (1)
     |                                               |                |            rt1{}: 0x14-0x14.7 (1)
0x010|            00                                 |    .           |              n: 0 0x14-0x14.7 (1)
     |                                               |                |              items[0:0]: 0x15-NA (0)
     |                                               |                |            rt2{}: 0x15-0x16.7 (2)
0x010|               01                              |     .          |              n: 1 0x15-0x15.7 (1)
     |                                               |                |              items[0:1]: 0x16-0x16.7 (1)
0x010|                  7f                           |      .         |                [0]: "i32" (127) valtype 0x16-0x16.7 (1)
     |                                               |                |          [3]{}: functype 0x17-0x1a.7 (4)
0x010|                     60                        |       `        |            tag: 0x60 (valid) 0x17-0x17.7 (1)
     |                                               |                |            rt1{}: 0x18-0x18.7 (1)
0x010|                        00                     |        .       |              n: 0 0x18-0x18.7 (1)
     |                                               |                |              items[0:0]: 0x19-NA (0)
     |                                               |                |            rt2{}: 0x19-0x1a.7 (2)
0x010|                           01                  |         .      |              n: 1 0x19-0x19.7 (1)
     |                                               |                |              items[0:1]: 0x1a-0x1a.7 (1)
0x010|                              7e               |          ~     |                [0]: "i64" (126) valtype 0x1a-0x1a.7 (1)
     |                                               |                |    [1]{}: section 0x1b-0x24.7 (10)
0x010|                                 03            |           .    |      id: "function section" (3) 0x1b-0x1b.7 (1)
0x010|                                    08         |            .   |      size: 8 0x1c-0x1c.7 (1)
     |                                               |                |      content{}: 0x1d-0x24.7 (8)
0x010|                                       07      |             .  |        n: 7 0x1d-0x1d.7 (1)
     |                                               |                |        items[0:7]: 0x1e-0x24.7 (7)
0x010|                                          00   |              . |          [0]: 0 x 0x1e-0x1e.7 (1)
0x010|                                             00|               .|          [1]: 0 x 0x1f-0x1f.7 (1)
0x020|01                                             |.               |          [2]: 1 x 0x20-0x20.7 (1)
0x020|   02                                          | .              |          [3]: 2 x 0x21-0x21.7 (1)
0x020|      03                                       |  .             |          [4]: 3 x 0x22-0x22.7 (1)
0x020|         01                                    |   .            |          [5]: 1 x 0x23-0x23.7 (1)
0x020|            01                                 |    .           |          [6]: 1 x 0x24-0x24.7 (1)
     |                                               |                |    [2]{}: section 0x25-0xbe.7 (154)
0x020|               07                              |     .          |      id: "export section" (7) 0x25-0x25.7 (1)
0x020|                  97 01                        |      ..        |      size: 151 0x26-0x27.7 (2)
     |                                               |                |      content{}: 0x28-0xbe.7 (151)
0x020|                        07                     |        .       |        n: 7 0x28-0x28.7 (1)
     |                                               |                |        items[0:7]: 0x29-0xbe.7 (150)
     |                                               |                |          [0]{}: export 0x29-0x3b.7 (19)
     |                                               |                |            name{}: 0x29-0x39.7 (17)
0x020|                           10                  |         .      |              len: 16 0x29-0x29.7 (1)
0x020|                              73 65 6c 65 63 74|          select|              utf8bytes: "select-trap-left" 0x2a-0x39.7 (16)
0x030|2d 74 72 61 70 2d 6c 65 66 74                  |-trap-left      |
     |                                               |                |            expr{}: 0x3a-0x3b.7 (2)
0x030|                              00               |          .     |              tag: "funcidx" (0x0) 0x3a-0x3a.7 (1)
0x030|                                 00            |           .    |              x: 0 0x3b-0x3b.7 (1)
     |                                               |                |          [1]{}: export 0x3c-0x4f.7 (20)
     |                                               |                |            name{}: 0x3c-0x4d.7 (18)
0x030|                                    11         |            .   |              len: 17 0x3c-0x3c.7 (1)
0x030|                                       73 65 6c|             sel|              utf8bytes: "select-trap-right" 0x3d-0x4d.7 (17)
0x040|65 63 74 2d 74 72 61 70 2d 72 69 67 68 74      |ect-trap-right  |
     |                                               |                |            expr{}: 0x4e-0x4f.7 (2)
0x040|                                          00   |              . |              tag: "funcidx" (0x0) 0x4e-0x4e.7 (1)
0x040|                                             01|               .|              x: 1 0x4f-0x4f.7 (1)
     |                                               |                |          [2]{}: export 0x50-0x62.7 (19)
     |                                               |                |            name{}: 0x50-0x60.7 (17)
0x050|10                                             |.               |              len: 16 0x50-0x50.7 (1)
0x050|   73 65 6c 65 63 74 2d 75 6e 72 65 61 63 68 65| select-unreache|              utf8bytes: "select-unreached" 0x51-0x60.7 (16)
0x060|64                                             |d               |
     |                                               |                |            expr{}: 0x61-0x62.7 (2)
0x060|   00                                          | .              |              tag: "funcidx" (0x0) 0x61-0x61.7 (1)
0x060|      02                                       |  .             |              x: 2 0x62-0x62.7 (1)
     |                                               |                |          [3]{}: export 0x63-0x7e.7 (28)
     |                                               |                |            name{}: 0x63-0x7c.7 (26)
0x060|         19                                    |   .            |              len: 25 0x63-0x63.7 (1)
0x060|            73 65 6c 65 63 74 5f 75 6e 72 65 61|    select_unrea|              utf8bytes: "select_unreached_result_1" 0x64-0x7c.7 (25)
0x070|63 68 65 64 5f 72 65 73 75 6c 74 5f 31         |ched_result_1   |
     |                                               |                |            expr{}: 0x7d-0x7e.7 (2)
0x070|                                       00      |             .  |              tag: "funcidx" (0x0) 0x7d-0x7d.7 (1)
0x070|                                          03   |              . |              x: 3 0x7e-0x7e.7 (1)
     |                                               |                |          [4]{}: export 0x7f-0x9a.7 (28)
     |                                               |                |            name{}: 0x7f-0x98.7 (26)
0x070|                                             19|               .|              len: 25 0x7f-0x7f.7 (1)
0x080|73 65 6c 65 63 74 5f 75 6e 72 65 61 63 68 65 64|select_unreached|              utf8bytes: "select_unreached_result_2" 0x80-0x98.7 (25)
0x090|5f 72 65 73 75 6c 74 5f 32                     |_result_2       |
     |                                               |                |            expr{}: 0x99-0x9a.7 (2)
0x090|                           00                  |         .      |              tag: "funcidx" (0x0) 0x99-0x99.7 (1)
0x090|                              04               |          .     |              x: 4 0x9a-0x9a.7 (1)
     |                                               |                |          [5]{}: export 0x9b-0xac.7 (18)
     |                                               |                |            name{}: 0x9b-0xaa.7 (16)
0x090|                                 0f            |           .    |              len: 15 0x9b-0x9b.7 (1)
0x090|                                    75 6e 72 65|            unre|              utf8bytes: "unreachable-num" 0x9c-0xaa.7 (15)
0x0a0|61 63 68 61 62 6c 65 2d 6e 75 6d               |achable-num     |
     |                                               |                |            expr{}: 0xab-0xac.7 (2)
0x0a0|                                 00            |           .    |              tag: "funcidx" (0x0) 0xab-0xab.7 (1)
0x0a0|                                    05         |            .   |              x: 5 0xac-0xac.7 (1)
     |                                               |                |          [6]{}: export 0xad-0xbe.7 (18)
     |                                               |                |            name{}: 0xad-0xbc.7 (16)
0x0a0|                                       0f      |             .  |              len: 15 0xad-0xad.7 (1)
0x0a0|                                          75 6e|              un|              utf8bytes: "unreachable-ref" 0xae-0xbc.7 (15)
0x0b0|72 65 61 63 68 61 62 6c 65 2d 72 65 66         |reachable-ref   |
     |                                               |                |            expr{}: 0xbd-0xbe.7 (2)
0x0b0|                                       00      |             .  |              tag: "funcidx" (0x0) 0xbd-0xbd.7 (1)
0x0b0|                                          06   |              . |              x: 6 0xbe-0xbe.7 (1)
     |                                               |                |    [3]{}: section 0xbf-0x112.7 (84)
0x0b0|                                             0a|               .|      id: "code section" (10) 0xbf-0xbf.7 (1)
0x0c0|52                                             |R               |      size: 82 0xc0-0xc0.7 (1)
     |                                               |                |      content{}: 0xc1-0x112.7 (82)
0x0c0|   07                                          | .              |        n: 7 0xc1-0xc1.7 (1)
     |                                               |                |        items[0:7]: 0xc2-0x112.7 (81)
     |                                               |                |          [0]{}: code 0xc2-0xca.7 (9)
0x0c0|      08                                       |  .             |            size: 8 0xc2-0xc2.7 (1)
     |                                               |                |            code{}: 0xc3-0xca.7 (8)
     |                                               |                |              locals{}: 0xc3-0xc3.7 (1)
0x0c0|         00                                    |   .            |                n: 0 0xc3-0xc3.7 (1)
     |                                               |                |                items[0:0]: 0xc4-NA (0)
     |                                               |                |              expr{}: 0xc4-0xca.7 (7)
     |                                               |                |                instructions[0:5]: 0xc4-0xca.7 (7)
     |                                               |                |                  [0]{}: instr 0xc4-0xc4.7 (1)
0x0c0|            00                                 |    .           |                    unreachable: 0x0 (valid) 0xc4-0xc4.7 (1)
     |                                               |                |                  [1]{}: instr 0xc5-0xc6.7 (2)
0x0c0|               41                              |     A          |                    i32.const: 0x41 (valid) 0xc5-0xc5.7 (1)
0x0c0|                  00                           |      .         |                    n: 0 0xc6-0xc6.7 (1)
     |                                               |                |                  [2]{}: instr 0xc7-0xc8.7 (2)
0x0c0|                     20                        |                |                    local.get: 0x20 (valid) 0xc7-0xc7.7 (1)
0x0c0|                        00                     |        .       |                    x: 0 0xc8-0xc8.7 (1)
     |                                               |                |                  [3]{}: instr 0xc9-0xc9.7 (1)
0x0c0|                           1b                  |         .      |                    select: 0x1b (valid) 0xc9-0xc9.7 (1)
     |                                               |                |                  [4]{}: instr 0xca-0xca.7 (1)
0x0c0|                              0b               |          .     |                    end: 0xb (valid) 0xca-0xca.7 (1)
     |                                               |                |          [1]{}: code 0xcb-0xd3.7 (9)
0x0c0|                                 08            |           .    |            size: 8 0xcb-0xcb.7 (1)
     |                                               |                |            code{}: 0xcc-0xd3.7 (8)
     |                                               |                |              locals{}: 0xcc-0xcc.7 (1)
0x0c0|                                    00         |            .   |                n: 0 0xcc-0xcc.7 (1)
     |                                               |                |                items[0:0]: 0xcd-NA (0)
     |                                               |                |              expr{}: 0xcd-0xd3.7 (7)
     |                                               |                |                instructions[0:5]: 0xcd-0xd3.7 (7)
     |                                               |                |                  [0]{}: instr 0xcd-0xce.7 (2)
0x0c0|                                       41      |             A  |                    i32.const: 0x41 (valid) 0xcd-0xcd.7 (1)
0x0c0|                                          00   |              . |                    n: 0 0xce-0xce.7 (1)
     |                                               |                |                  [1]{}: instr 0xcf-0xcf.7 (1)
0x0c0|                                             00|               .|                    unreachable: 0x0 (valid) 0xcf-0xcf.7 (1)
     |                                               |                |                  [2]{}: instr 0xd0-0xd1.7 (2)
0x0d0|20                                             |                |                    local.get: 0x20 (valid) 0xd0-0xd0.7 (1)
0x0d0|   00                                          | .              |                    x: 0 0xd1-0xd1.7 (1)
     |                                               |                |                  [3]{}: instr 0xd2-0xd2.7 (1)
0x0d0|      1b                                       |  .             |                    select: 0x1b (valid) 0xd2-0xd2.7 (1)
     |                                               |                |                  [4]{}: instr 0xd3-0xd3.7 (1)
0x0d0|         0b                                    |   .            |                    end: 0xb (valid) 0xd3-0xd3.7 (1)
     |                                               |                |          [2]{}: code 0xd4-0xf4.7 (33)
0x0d0|            20                                 |                |            size: 32 0xd4-0xd4.7 (1)
     |                                               |                |            code{}: 0xd5-0xf4.7 (32)
     |                                               |                |              locals{}: 0xd5-0xd5.7 (1)
0x0d0|               00                              |     .          |                n: 0 0xd5-0xd5.7 (1)
     |                                               |                |                items[0:0]: 0xd6-NA (0)
     |                                               |                |              expr{}: 0xd6-0xf4.7 (31)
     |                                               |                |                instructions[0:20]: 0xd6-0xf4.7 (31)
     |                                               |                |                  [0]{}: instr 0xd6-0xd6.7 (1)
0x0d0|                  00                           |      .         |                    unreachable: 0x0 (valid) 0xd6-0xd6.7 (1)
     |                                               |                |                  [1]{}: instr 0xd7-0xd7.7 (1)
0x0d0|                     1b                        |       .        |                    select: 0x1b (valid) 0xd7-0xd7.7 (1)
     |                                               |                |                  [2]{}: instr 0xd8-0xd8.7 (1)
0x0d0|                        00                     |        .       |                    unreachable: 0x0 (valid) 0xd8-0xd8.7 (1)
     |                                               |                |                  [3]{}: instr 0xd9-0xda.7 (2)
0x0d0|                           41                  |         A      |                    i32.const: 0x41 (valid) 0xd9-0xd9.7 (1)
0x0d0|                              00               |          .     |                    n: 0 0xda-0xda.7 (1)
     |                                               |                |                  [4]{}: instr 0xdb-0xdb.7 (1)
0x0d0|                                 1b            |           .    |                    select: 0x1b (valid) 0xdb-0xdb.7 (1)
     |                                               |                |                  [5]{}: instr 0xdc-0xdc.7 (1)
0x0d0|                                    00         |            .   |                    unreachable: 0x0 (valid) 0xdc-0xdc.7 (1)
     |                                               |                |                  [6]{}: instr 0xdd-0xde.7 (2)
0x0d0|                                       41      |             A  |                    i32.const: 0x41 (valid) 0xdd-0xdd.7 (1)
0x0d0|                                          00   |              . |                    n: 0 0xde-0xde.7 (1)
     |                                               |                |                  [7]{}: instr 0xdf-0xe0.7 (2)
0x0d0|                                             41|               A|                    i32.const: 0x41 (valid) 0xdf-0xdf.7 (1)
0x0e0|00                                             |.               |                    n: 0 0xe0-0xe0.7 (1)
     |                                               |                |                  [8]{}: instr 0xe1-0xe1.7 (1)
0x0e0|   1b                                          | .              |                    select: 0x1b (valid) 0xe1-0xe1.7 (1)
     |                                               |                |                  [9]{}: instr 0xe2-0xe2.7 (1)
0x0e0|      00                                       |  .             |                    unreachable: 0x0 (valid) 0xe2-0xe2.7 (1)
     |                                               |                |                  [10]{}: instr 0xe3-0xe4.7 (2)
0x0e0|         41                                    |   A            |                    i32.const: 0x41 (valid) 0xe3-0xe3.7 (1)
0x0e0|            00                                 |    .           |                    n: 0 0xe4-0xe4.7 (1)
     |                                               |                |                  [11]{}: instr 0xe5-0xe6.7 (2)
0x0e0|               41                              |     A          |                    i32.const: 0x41 (valid) 0xe5-0xe5.7 (1)
0x0e0|                  00                           |      .         |                    n: 0 0xe6-0xe6.7 (1)
     |                                               |                |                  [12]{}: instr 0xe7-0xe8.7 (2)
0x0e0|                     41                        |       A        |                    i32.const: 0x41 (valid) 0xe7-0xe7.7 (1)
0x0e0|                        00                     |        .       |                    n: 0 0xe8-0xe8.7 (1)
     |                                               |                |                  [13]{}: instr 0xe9-0xe9.7 (1)
0x0e0|                           1b                  |         .      |                    select: 0x1b (valid) 0xe9-0xe9.7 (1)
     |                                               |                |                  [14]{}: instr 0xea-0xea.7 (1)
0x0e0|                              00               |          .     |                    unreachable: 0x0 (valid) 0xea-0xea.7 (1)
     |                                               |                |                  [15]{}: instr 0xeb-0xef.7 (5)
0x0e0|                                 43            |           C    |                    f32.const: 0x43 (valid) 0xeb-0xeb.7 (1)
0x0e0|                                    00 00 00 00|            ....|                    z: 0 0xec-0xef.7 (4)
     |                                               |                |                  [16]{}: instr 0xf0-0xf1.7 (2)
0x0f0|41                                             |A               |                    i32.const: 0x41 (valid) 0xf0-0xf0.7 (1)
0x0f0|   00                                          | .              |                    n: 0 0xf1-0xf1.7 (1)
     |                                               |                |                  [17]{}: instr 0xf2-0xf2.7 (1)
0x0f0|      1b                                       |  .             |                    select: 0x1b (valid) 0xf2-0xf2.7 (1)
     |                                               |                |                  [18]{}: instr 0xf3-0xf3.7 (1)
0x0f0|         00                                    |   .            |                    unreachable: 0x0 (valid) 0xf3-0xf3.7 (1)
     |                                               |                |                  [19]{}: instr 0xf4-0xf4.7 (1)
0x0f0|            0b                                 |    .           |                    end: 0xb (valid) 0xf4-0xf4.7 (1)
     |                                               |                |          [3]{}: code 0xf5-0xfa.7 (6)
0x0f0|               05                              |     .          |            size: 5 0xf5-0xf5.7 (1)
     |                                               |                |            code{}: 0xf6-0xfa.7 (5)
     |                                               |                |              locals{}: 0xf6-0xf6.7 (1)
0x0f0|                  00                           |      .         |                n: 0 0xf6-0xf6.7 (1)
     |                                               |                |                items[0:0]: 0xf7-NA (0)
     |                                               |                |              expr{}: 0xf7-0xfa.7 (4)
     |                                               |                |                instructions[0:4]: 0xf7-0xfa.7 (4)
     |                                               |                |                  [0]{}: instr 0xf7-0xf7.7 (1)
0x0f0|                     00                        |       .        |                    unreachable: 0x0 (valid) 0xf7-0xf7.7 (1)
     |                                               |                |                  [1]{}: instr 0xf8-0xf8.7 (1)
0x0f0|                        1b                     |        .       |                    select: 0x1b (valid) 0xf8-0xf8.7 (1)
     |                                               |                |                  [2]{}: instr 0xf9-0xf9.7 (1)
0x0f0|                           6a                  |         j      |                    i32.add: 0x6a (valid) 0xf9-0xf9.7 (1)
     |                                               |                |                  [3]{}: instr 0xfa-0xfa.7 (1)
0x0f0|                              0b               |          .     |                    end: 0xb (valid) 0xfa-0xfa.7 (1)
     |                                               |                |          [4]{}: code 0xfb-0x104.7 (10)
0x0f0|                                 09            |           .    |            size: 9 0xfb-0xfb.7 (1)
     |                                               |                |            code{}: 0xfc-0x104.7 (9)
     |                                               |                |              locals{}: 0xfc-0xfc.7 (1)
0x0f0|                                    00         |            .   |                n: 0 0xfc-0xfc.7 (1)
     |                                               |                |                items[0:0]: 0xfd-NA (0)
     |                                               |                |              expr{}: 0xfd-0x104.7 (8)
     |                                               |                |                instructions[0:6]: 0xfd-0x104.7 (8)
     |                                               |                |                  [0]{}: instr 0xfd-0xfd.7 (1)
0x0f0|                                       00      |             .  |                    unreachable: 0x0 (valid) 0xfd-0xfd.7 (1)
     |                                               |                |                  [1]{}: instr 0xfe-0xff.7 (2)
0x0f0|                                          42   |              B |                    i64.const: 0x42 (valid) 0xfe-0xfe.7 (1)
0x0f0|                                             00|               .|                    n: 0 0xff-0xff.7 (1)
     |                                               |                |                  [2]{}: instr 0x100-0x101.7 (2)
0x100|41                                             |A               |                    i32.const: 0x41 (valid) 0x100-0x100.7 (1)
0x100|   00                                          | .              |                    n: 0 0x101-0x101.7 (1)
     |                                               |                |                  [3]{}: instr 0x102-0x102.7 (1)
0x100|      1b                                       |  .             |                    select: 0x1b (valid) 0x102-0x102.7 (1)
     |                                               |                |                  [4]{}: instr 0x103-0x103.7 (1)
0x100|         7c                                    |   |            |                    i64.add: 0x7c (valid) 0x103-0x103.7 (1)
     |                                               |                |                  [5]{}: instr 0x104-0x104.7 (1)
0x100|            0b                                 |    .           |                    end: 0xb (valid) 0x104-0x104.7 (1)
     |                                               |                |          [5]{}: code 0x105-0x10b.7 (7)
0x100|               06                              |     .          |            size: 6 0x105-0x105.7 (1)
     |                                               |                |            code{}: 0x106-0x10b.7 (6)
     |                                               |                |              locals{}: 0x106-0x106.7 (1)
0x100|                  00                           |      .         |                n: 0 0x106-0x106.7 (1)
     |                                               |                |                items[0:0]: 0x107-NA (0)
     |                                               |                |              expr{}: 0x107-0x10b.7 (5)
     |                                               |                |                instructions[0:5]: 0x107-0x10b.7 (5)
     |                                               |                |                  [0]{}: instr 0x107-0x107.7 (1)
0x100|                     00                        |       .        |                    unreachable: 0x0 (valid) 0x107-0x107.7 (1)
     |                                               |                |                  [1]{}: instr 0x108-0x108.7 (1)
0x100|                        1b                     |        .       |                    select: 0x1b (valid) 0x108-0x108.7 (1)
     |                                               |                |                  [2]{}: instr 0x109-0x109.7 (1)
0x100|                           45                  |         E      |                    i32.eqz: 0x45 (valid) 0x109-0x109.7 (1)
     |                                               |                |                  [3]{}: instr 0x10a-0x10a.7 (1)
0x100|                              1a               |          .     |                    drop: 0x1a (valid) 0x10a-0x10a.7 (1)
     |                                               |                |                  [4]{}: instr 0x10b-0x10b.7 (1)
0x100|                                 0b            |           .    |                    end: 0xb (valid) 0x10b-0x10b.7 (1)
     |                                               |                |          [6]{}: code 0x10c-0x112.7 (7)
0x100|                                    06         |            .   |            size: 6 0x10c-0x10c.7 (1)
     |                                               |                |            code{}: 0x10d-0x112.7 (6)
     |                                               |                |              locals{}: 0x10d-0x10d.7 (1)
0x100|                                       00      |             .  |                n: 0 0x10d-0x10d.7 (1)
     |                                               |                |                items[0:0]: 0x10e-NA (0)
     |                                               |                |              expr{}: 0x10e-0x112.7 (5)
     |                                               |                |                instructions[0:5]: 0x10e-0x112.7 (5)
     |                                               |                |                  [0]{}: instr 0x10e-0x10e.7 (1)
0x100|                                          00   |              . |                    unreachable: 0x0 (valid) 0x10e-0x10e.7 (1)
     |                                               |                |                  [1]{}: instr 0x10f-0x10f.7 (1)
0x100|                                             1b|               .|                    select: 0x1b (valid) 0x10f-0x10f.7 (1)
     |                                               |                |                  [2]{}: instr 0x110-0x110.7 (1)
0x110|d1                                             |.               |                    ref.is_null: 0xd1 (valid) 0x110-0x110.7 (1)
     |                                               |                |                  [3]{}: instr 0x111-0x111.7 (1)
0x110|   1a                                          | .              |                    drop: 0x1a (valid) 0x111-0x111.7 (1)
     |                                               |                |                  [4]{}: instr 0x112-0x112.7 (1)
0x110|      0b|                                      |  .|            |                    end: 0xb (valid) 0x112-0x112.7 (1)
