$ fq -d wasm dv add.wasm
      |00 01 02 03 04 05 06 07 08 09 0a 0b 0c 0d 0e 0f|0123456789abcdef|.{}: add.wasm (wasm) 0x0-0x10fd.7 (4350)
0x0000|00 61 73 6d                                    |.asm            |  magic: raw bits (valid) 0x0-0x3.7 (4)
0x0000|            01 00 00 00                        |    ....        |  version: 1 0x4-0x7.7 (4)
      |                                               |                |  sections[0:20]: 0x8-0x10fd.7 (4342)
      |                                               |                |    [0]{}: section 0x8-0x27.7 (32)
0x0000|                        01                     |        .       |      id: "type section" (1) 0x8-0x8.7 (1)
0x0000|                           1e                  |         .      |      size: 30 0x9-0x9.7 (1)
      |                                               |                |      content{}: 0xa-0x27.7 (30)
0x0000|                              06               |          .     |        n: 6 0xa-0xa.7 (1)
      |                                               |                |        items[0:6]: 0xb-0x27.7 (29)
      |                                               |                |          [0]{}: functype 0xb-0xe.7 (4)
0x0000|                                 60            |           `    |            tag: 0x60 (valid) 0xb-0xb.7 (1)
      |                                               |                |            rt1{}: 0xc-0xc.7 (1)
0x0000|                                    00         |            .   |              n: 0 0xc-0xc.7 (1)
      |                                               |                |              items[0:0]: 0xd-NA (0)
      |                                               |                |            rt2{}: 0xd-0xe.7 (2)
0x0000|                                       01      |             .  |              n: 1 0xd-0xd.7 (1)
      |                                               |                |              items[0:1]: 0xe-0xe.7 (1)
0x0000|                                          7f   |              . |                [0]: "i32" (127) valtype 0xe-0xe.7 (1)
      |                                               |                |          [1]{}: functype 0xf-0x15.7 (7)
0x0000|                                             60|               `|            tag: 0x60 (valid) 0xf-0xf.7 (1)
      |                                               |                |            rt1{}: 0x10-0x13.7 (4)
0x0010|03                                             |.               |              n: 3 0x10-0x10.7 (1)
      |                                               |                |              items[0:3]: 0x11-0x13.7 (3)
0x0010|   7f                                          | .              |                [0]: "i32" (127) valtype 0x11-0x11.7 (1)
0x0010|      7f                                       |  .             |                [1]: "i32" (127) valtype 0x12-0x12.7 (1)
0x0010|         7f                                    |   .            |                [2]: "i32" (127) valtype 0x13-0x13.7 (1)
      |                                               |                |            rt2{}: 0x14-0x15.7 (2)
0x0010|            01                                 |    .           |              n: 1 0x14-0x14.7 (1)
      |                                               |                |              items[0:1]: 0x15-0x15.7 (1)
0x0010|               7f                              |     .          |                [0]: "i32" (127) valtype 0x15-0x15.7 (1)
      |                                               |                |          [2]{}: functype 0x16-0x18.7 (3)
0x0010|                  60                           |      `         |            tag: 0x60 (valid) 0x16-0x16.7 (1)
      |                                               |                |            rt1{}: 0x17-0x17.7 (1)
0x0010|                     00                        |       .        |              n: 0 0x17-0x17.7 (1)
      |                                               |                |              items[0:0]: 0x18-NA (0)
      |                                               |                |            rt2{}: 0x18-0x18.7 (1)
0x0010|                        00                     |        .       |              n: 0 0x18-0x18.7 (1)
      |                                               |                |              items[0:0]: 0x19-NA (0)
      |                                               |                |          [3]{}: functype 0x19-0x1c.7 (4)
0x0010|                           60                  |         `      |            tag: 0x60 (valid) 0x19-0x19.7 (1)
      |                                               |                |            rt1{}: 0x1a-0x1b.7 (2)
0x0010|                              01               |          .     |              n: 1 0x1a-0x1a.7 (1)
      |                                               |                |              items[0:1]: 0x1b-0x1b.7 (1)
0x0010|                                 7f            |           .    |                [0]: "i32" (127) valtype 0x1b-0x1b.7 (1)
      |                                               |                |            rt2{}: 0x1c-0x1c.7 (1)
0x0010|                                    00         |            .   |              n: 0 0x1c-0x1c.7 (1)
      |                                               |                |              items[0:0]: 0x1d-NA (0)
      |                                               |                |          [4]{}: functype 0x1d-0x21.7 (5)
0x0010|                                       60      |             `  |            tag: 0x60 (valid) 0x1d-0x1d.7 (1)
      |                                               |                |            rt1{}: 0x1e-0x20.7 (3)
0x0010|                                          02   |              . |              n: 2 0x1e-0x1e.7 (1)
      |                                               |                |              items[0:2]: 0x1f-0x20.7 (2)
0x0010|                                             7f|               .|                [0]: "i32" (127) valtype 0x1f-0x1f.7 (1)
0x0020|7f                                             |.               |                [1]: "i32" (127) valtype 0x20-0x20.7 (1)
      |                                               |                |            rt2{}: 0x21-0x21.7 (1)
0x0020|   00                                          | .              |              n: 0 0x21-0x21.7 (1)
      |                                               |                |              items[0:0]: 0x22-NA (0)
      |                                               |                |          [5]{}: functype 0x22-0x27.7 (6)
0x0020|      60                                       |  `             |            tag: 0x60 (valid) 0x22-0x22.7 (1)
      |                                               |                |            rt1{}: 0x23-0x25.7 (3)
0x0020|         02                                    |   .            |              n: 2 0x23-0x23.7 (1)
      |                                               |                |              items[0:2]: 0x24-0x25.7 (2)
0x0020|            7f                                 |    .           |                [0]: "i32" (127) valtype 0x24-0x24.7 (1)
0x0020|               7f                              |     .          |                [1]: "i32" (127) valtype 0x25-0x25.7 (1)
      |                                               |                |            rt2{}: 0x26-0x27.7 (2)
0x0020|                  01                           |      .         |              n: 1 0x26-0x26.7 (1)
      |                                               |                |              items[0:1]: 0x27-0x27.7 (1)
0x0020|                     7f                        |       .        |                [0]: "i32" (127) valtype 0x27-0x27.7 (1)
      |                                               |                |    [1]{}: section 0x28-0x53.7 (44)
0x0020|                        02                     |        .       |      id: "import section" (2) 0x28-0x28.7 (1)
0x0020|                           2a                  |         *      |      size: 42 0x29-0x29.7 (1)
      |                                               |                |      content{}: 0x2a-0x53.7 (42)
0x0020|                              02               |          .     |        n: 2 0x2a-0x2a.7 (1)
      |                                               |                |        items[0:2]: 0x2b-0x53.7 (41)
      |                                               |                |          [0]{}: import 0x2b-0x3e.7 (20)
      |                                               |                |            mod{}: 0x2b-0x2e.7 (4)
0x0020|                                 03            |           .    |              len: 3 0x2b-0x2b.7 (1)
0x0020|                                    65 6e 76   |            env |              utf8bytes: "env" 0x2c-0x2e.7 (3)
      |                                               |                |            nm{}: 0x2f-0x3c.7 (14)
0x0020|                                             0d|               .|              len: 13 0x2f-0x2f.7 (1)
0x0030|69 6f 5f 67 65 74 5f 73 74 64 6f 75 74         |io_get_stdout   |              utf8bytes: "io_get_stdout" 0x30-0x3c.7 (13)
      |                                               |                |            importdesc{}: 0x3d-0x3e.7 (2)
0x0030|                                       00      |             .  |              tag: "func" (0x0) 0x3d-0x3d.7 (1)
0x0030|                                          00   |              . |              typeidx: 0 0x3e-0x3e.7 (1)
      |                                               |                |          [1]{}: import 0x3f-0x53.7 (21)
      |                                               |                |            mod{}: 0x3f-0x42.7 (4)
0x0030|                                             03|               .|              len: 3 0x3f-0x3f.7 (1)
0x0040|65 6e 76                                       |env             |              utf8bytes: "env" 0x40-0x42.7 (3)
      |                                               |                |            nm{}: 0x43-0x51.7 (15)
0x0040|         0e                                    |   .            |              len: 14 0x43-0x43.7 (1)
0x0040|            72 65 73 6f 75 72 63 65 5f 77 72 69|    resource_wri|              utf8bytes: "resource_write" 0x44-0x51.7 (14)
0x0050|74 65                                          |te              |
      |                                               |                |            importdesc{}: 0x52-0x53.7 (2)
0x0050|      00                                       |  .             |              tag: "func" (0x0) 0x52-0x52.7 (1)
0x0050|         01                                    |   .            |              typeidx: 1 0x53-0x53.7 (1)
      |                                               |                |    [2]{}: section 0x54-0x66.7 (19)
0x0050|            03                                 |    .           |      id: "function section" (3) 0x54-0x54.7 (1)
0x0050|               11                              |     .          |      size: 17 0x55-0x55.7 (1)
      |                                               |                |      content{}: 0x56-0x66.7 (17)
0x0050|                  10                           |      .         |        n: 16 0x56-0x56.7 (1)
      |                                               |                |        items[0:16]: 0x57-0x66.7 (16)
0x0050|                     02                        |       .        |          [0]: 2 typeidx 0x57-0x57.7 (1)
0x0050|                        02                     |        .       |          [1]: 2 typeidx 0x58-0x58.7 (1)
0x0050|                           02                  |         .      |          [2]: 2 typeidx 0x59-0x59.7 (1)
0x0050|                              02               |          .     |          [3]: 2 typeidx 0x5a-0x5a.7 (1)
0x0050|                                 02            |           .    |          [4]: 2 typeidx 0x5b-0x5b.7 (1)
0x0050|                                    02         |            .   |          [5]: 2 typeidx 0x5c-0x5c.7 (1)
0x0050|                                       01      |             .  |          [6]: 1 typeidx 0x5d-0x5d.7 (1)
0x0050|                                          02   |              . |          [7]: 2 typeidx 0x5e-0x5e.7 (1)
0x0050|                                             02|               .|          [8]: 2 typeidx 0x5f-0x5f.7 (1)
0x0060|03                                             |.               |          [9]: 3 typeidx 0x60-0x60.7 (1)
0x0060|   04                                          | .              |          [10]: 4 typeidx 0x61-0x61.7 (1)
0x0060|      02                                       |  .             |          [11]: 2 typeidx 0x62-0x62.7 (1)
0x0060|         05                                    |   .            |          [12]: 5 typeidx 0x63-0x63.7 (1)
0x0060|            05                                 |    .           |          [13]: 5 typeidx 0x64-0x64.7 (1)
0x0060|               05                              |     .          |          [14]: 5 typeidx 0x65-0x65.7 (1)
0x0060|                  05                           |      .         |          [15]: 5 typeidx 0x66-0x66.7 (1)
      |                                               |                |    [3]{}: section 0x67-0x6d.7 (7)
0x0060|                     04                        |       .        |      id: "table section" (4) 0x67-0x67.7 (1)
0x0060|                        05                     |        .       |      size: 5 0x68-0x68.7 (1)
      |                                               |                |      content{}: 0x69-0x6d.7 (5)
0x0060|                           01                  |         .      |        n: 1 0x69-0x69.7 (1)
      |                                               |                |        items[0:1]: 0x6a-0x6d.7 (4)
      |                                               |                |          [0]{}: table 0x6a-0x6d.7 (4)
0x0060|                              70               |          p     |            reftype: "funcref" (112) 0x6a-0x6a.7 (1)
      |                                               |                |            limits{}: 0x6b-0x6d.7 (3)
0x0060|                                 01            |           .    |              tag: 0x1 0x6b-0x6b.7 (1)
0x0060|                                    01         |            .   |              min: 1 0x6c-0x6c.7 (1)
0x0060|                                       01      |             .  |              max: 1 0x6d-0x6d.7 (1)
      |                                               |                |    [4]{}: section 0x6e-0x72.7 (5)
0x0060|                                          05   |              . |      id: "memory section" (5) 0x6e-0x6e.7 (1)
0x0060|                                             03|               .|      size: 3 0x6f-0x6f.7 (1)
      |                                               |                |      content{}: 0x70-0x72.7 (3)
0x0070|01                                             |.               |        n: 1 0x70-0x70.7 (1)
      |                                               |                |        items[0:1]: 0x71-0x72.7 (2)
      |                                               |                |          [0]{}: mem 0x71-0x72.7 (2)
      |                                               |                |            limits{}: 0x71-0x72.7 (2)
0x0070|   00                                          | .              |              tag: 0x0 0x71-0x71.7 (1)
0x0070|      10                                       |  .             |              min: 16 0x72-0x72.7 (1)
      |                                               |                |    [5]{}: section 0x73-0x97.7 (37)
0x0070|         06                                    |   .            |      id: "global section" (6) 0x73-0x73.7 (1)
0x0070|            23                                 |    #           |      size: 35 0x74-0x74.7 (1)
      |                                               |                |      content{}: 0x75-0x97.7 (35)
0x0070|               05                              |     .          |        n: 5 0x75-0x75.7 (1)
      |                                               |                |        items[0:5]: 0x76-0x97.7 (34)
      |                                               |                |          [0]{}: global 0x76-0x7c.7 (7)
      |                                               |                |            globaltype{}: 0x76-0x77.7 (2)
0x0070|                  7f                           |      .         |              valtype: "i32" (127) 0x76-0x76.7 (1)
0x0070|                     01                        |       .        |              mut: "var" (1) 0x77-0x77.7 (1)
      |                                               |                |            expr{}: 0x78-0x7c.7 (5)
      |                                               |                |              instructions[0:2]: 0x78-0x7c.7 (5)
      |                                               |                |                [0]{}: instr 0x78-0x7b.7 (4)
0x0070|                        41                     |        A       |                  i32.const: 0x41 (valid) 0x78-0x78.7 (1)
0x0070|                           80 80 04            |         ...    |                  n: 65536 0x79-0x7b.7 (3)
      |                                               |                |                [1]{}: instr 0x7c-0x7c.7 (1)
0x0070|                                    0b         |            .   |                  end: 0xb (valid) 0x7c-0x7c.7 (1)
      |                                               |                |          [1]{}: global 0x7d-0x83.7 (7)
      |                                               |                |            globaltype{}: 0x7d-0x7e.7 (2)
0x0070|                                       7f      |             .  |              valtype: "i32" (127) 0x7d-0x7d.7 (1)
0x0070|                                          00   |              . |              mut: "const" (0) 0x7e-0x7e.7 (1)
      |                                               |                |            expr{}: 0x7f-0x83.7 (5)
      |                                               |                |              instructions[0:2]: 0x7f-0x83.7 (5)
      |                                               |                |                [0]{}: instr 0x7f-0x82.7 (4)
0x0070|                                             41|               A|                  i32.const: 0x41 (valid) 0x7f-0x7f.7 (1)
0x0080|c6 80 04                                       |...             |                  n: 65606 0x80-0x82.7 (3)
      |                                               |                |                [1]{}: instr 0x83-0x83.7 (1)
0x0080|         0b                                    |   .            |                  end: 0xb (valid) 0x83-0x83.7 (1)
      |                                               |                |          [2]{}: global 0x84-0x89.7 (6)
      |                                               |                |            globaltype{}: 0x84-0x85.7 (2)
0x0080|            7f                                 |    .           |              valtype: "i32" (127) 0x84-0x84.7 (1)
0x0080|               00                              |     .          |              mut: "const" (0) 0x85-0x85.7 (1)
      |                                               |                |            expr{}: 0x86-0x89.7 (4)
      |                                               |                |              instructions[0:2]: 0x86-0x89.7 (4)
      |                                               |                |                [0]{}: instr 0x86-0x88.7 (3)
0x0080|                  41                           |      A         |                  i32.const: 0x41 (valid) 0x86-0x86.7 (1)
0x0080|                     80 08                     |       ..       |                  n: 1024 0x87-0x88.7 (2)
      |                                               |                |                [1]{}: instr 0x89-0x89.7 (1)
0x0080|                           0b                  |         .      |                  end: 0xb (valid) 0x89-0x89.7 (1)
      |                                               |                |          [3]{}: global 0x8a-0x90.7 (7)
      |                                               |                |            globaltype{}: 0x8a-0x8b.7 (2)
0x0080|                              7f               |          .     |              valtype: "i32" (127) 0x8a-0x8a.7 (1)
0x0080|                                 00            |           .    |              mut: "const" (0) 0x8b-0x8b.7 (1)
      |                                               |                |            expr{}: 0x8c-0x90.7 (5)
      |                                               |                |              instructions[0:2]: 0x8c-0x90.7 (5)
      |                                               |                |                [0]{}: instr 0x8c-0x8f.7 (4)
0x0080|                                    41         |            A   |                  i32.const: 0x41 (valid) 0x8c-0x8c.7 (1)
0x0080|                                       c6 80 04|             ...|                  n: 65606 0x8d-0x8f.7 (3)
      |                                               |                |                [1]{}: instr 0x90-0x90.7 (1)
0x0090|0b                                             |.               |                  end: 0xb (valid) 0x90-0x90.7 (1)
      |                                               |                |          [4]{}: global 0x91-0x97.7 (7)
      |                                               |                |            globaltype{}: 0x91-0x92.7 (2)
0x0090|   7f                                          | .              |              valtype: "i32" (127) 0x91-0x91.7 (1)
0x0090|      00                                       |  .             |              mut: "const" (0) 0x92-0x92.7 (1)
      |                                               |                |            expr{}: 0x93-0x97.7 (5)
      |                                               |                |              instructions[0:2]: 0x93-0x97.7 (5)
      |                                               |                |                [0]{}: instr 0x93-0x96.7 (4)
0x0090|         41                                    |   A            |                  i32.const: 0x41 (valid) 0x93-0x93.7 (1)
0x0090|            80 80 04                           |    ...         |                  n: 65536 0x94-0x96.7 (3)
      |                                               |                |                [1]{}: instr 0x97-0x97.7 (1)
0x0090|                     0b                        |       .        |                  end: 0xb (valid) 0x97-0x97.7 (1)
      |                                               |                |    [6]{}: section 0x98-0x130.7 (153)
0x0090|                        07                     |        .       |      id: "export section" (7) 0x98-0x98.7 (1)
0x0090|                           96 01               |         ..     |      size: 150 0x99-0x9a.7 (2)
      |                                               |                |      content{}: 0x9b-0x130.7 (150)
0x0090|                                 0e            |           .    |        n: 14 0x9b-0x9b.7 (1)
      |                                               |                |        items[0:14]: 0x9c-0x130.7 (149)
      |                                               |                |          [0]{}: export 0x9c-0xa4.7 (9)
      |                                               |                |            name{}: 0x9c-0xa2.7 (7)
0x0090|                                    06         |            .   |              len: 6 0x9c-0x9c.7 (1)
0x0090|                                       6d 65 6d|             mem|              utf8bytes: "memory" 0x9d-0xa2.7 (6)
0x00a0|6f 72 79                                       |ory             |
      |                                               |                |            expr{}: 0xa3-0xa4.7 (2)
0x00a0|         02                                    |   .            |              tag: "memidx" (0x2) 0xa3-0xa3.7 (1)
0x00a0|            00                                 |    .           |              memidx: 0 0xa4-0xa4.7 (1)
      |                                               |                |          [1]{}: export 0xa5-0xb8.7 (20)
      |                                               |                |            name{}: 0xa5-0xb6.7 (18)
0x00a0|               11                              |     .          |              len: 17 0xa5-0xa5.7 (1)
0x00a0|                  5f 5f 77 61 73 6d 5f 63 61 6c|      __wasm_cal|              utf8bytes: "__wasm_call_ctors" 0xa6-0xb6.7 (17)
0x00b0|6c 5f 63 74 6f 72 73                           |l_ctors         |
      |                                               |                |            expr{}: 0xb7-0xb8.7 (2)
0x00b0|                     00                        |       .        |              tag: "funcidx" (0x0) 0xb7-0xb7.7 (1)
0x00b0|                        02                     |        .       |              funcidx: 2 0xb8-0xb8.7 (1)
      |                                               |                |          [2]{}: export 0xb9-0xc5.7 (13)
      |                                               |                |            name{}: 0xb9-0xc3.7 (11)
0x00b0|                           0a                  |         .      |              len: 10 0xb9-0xb9.7 (1)
0x00b0|                              5f 5f 64 61 74 61|          __data|              utf8bytes: "__data_end" 0xba-0xc3.7 (10)
0x00c0|5f 65 6e 64                                    |_end            |
      |                                               |                |            expr{}: 0xc4-0xc5.7 (2)
0x00c0|            03                                 |    .           |              tag: "globalidx" (0x3) 0xc4-0xc4.7 (1)
0x00c0|               01                              |     .          |              globalidx: 1 0xc5-0xc5.7 (1)
      |                                               |                |          [3]{}: export 0xc6-0xd5.7 (16)
      |                                               |                |            name{}: 0xc6-0xd3.7 (14)
0x00c0|                  0d                           |      .         |              len: 13 0xc6-0xc6.7 (1)
0x00c0|                     5f 5f 67 6c 6f 62 61 6c 5f|       __global_|              utf8bytes: "__global_base" 0xc7-0xd3.7 (13)
0x00d0|62 61 73 65                                    |base            |
      |                                               |                |            expr{}: 0xd4-0xd5.7 (2)
0x00d0|            03                                 |    .           |              tag: "globalidx" (0x3) 0xd4-0xd4.7 (1)
0x00d0|               02                              |     .          |              globalidx: 2 0xd5-0xd5.7 (1)
      |                                               |                |          [4]{}: export 0xd6-0xe3.7 (14)
      |                                               |                |            name{}: 0xd6-0xe1.7 (12)
0x00d0|                  0b                           |      .         |              len: 11 0xd6-0xd6.7 (1)
0x00d0|                     5f 5f 68 65 61 70 5f 62 61|       __heap_ba|              utf8bytes: "__heap_base" 0xd7-0xe1.7 (11)
0x00e0|73 65                                          |se              |
      |                                               |                |            expr{}: 0xe2-0xe3.7 (2)
0x00e0|      03                                       |  .             |              tag: "globalidx" (0x3) 0xe2-0xe2.7 (1)
0x00e0|         03                                    |   .            |              globalidx: 3 0xe3-0xe3.7 (1)
      |                                               |                |          [5]{}: export 0xe4-0xf2.7 (15)
      |                                               |                |            name{}: 0xe4-0xf0.7 (13)
0x00e0|            0c                                 |    .           |              len: 12 0xe4-0xe4.7 (1)
0x00e0|               5f 5f 64 73 6f 5f 68 61 6e 64 6c|     __dso_handl|              utf8bytes: "__dso_handle" 0xe5-0xf0.7 (12)
0x00f0|65                                             |e               |
      |                                               |                |            expr{}: 0xf1-0xf2.7 (2)
0x00f0|   03                                          | .              |              tag: "globalidx" (0x3) 0xf1-0xf1.7 (1)
0x00f0|      04                                       |  .             |              globalidx: 4 0xf2-0xf2.7 (1)
      |                                               |                |          [6]{}: export 0xf3-0xfb.7 (9)
      |                                               |                |            name{}: 0xf3-0xf9.7 (7)
0x00f0|         06                                    |   .            |              len: 6 0xf3-0xf3.7 (1)
0x00f0|            5f 73 74 61 72 74                  |    _start      |              utf8bytes: "_start" 0xf4-0xf9.7 (6)
      |                                               |                |            expr{}: 0xfa-0xfb.7 (2)
0x00f0|                              00               |          .     |              tag: "funcidx" (0x0) 0xfa-0xfa.7 (1)
0x00f0|                                 03            |           .    |              funcidx: 3 0xfb-0xfb.7 (1)
      |                                               |                |          [7]{}: export 0xfc-0x106.7 (11)
      |                                               |                |            name{}: 0xfc-0x104.7 (9)
0x00f0|                                    08         |            .   |              len: 8 0xfc-0xfc.7 (1)
0x00f0|                                       63 77 61|             cwa|              utf8bytes: "cwa_main" 0xfd-0x104.7 (8)
0x0100|5f 6d 61 69 6e                                 |_main           |
      |                                               |                |            expr{}: 0x105-0x106.7 (2)
0x0100|               00                              |     .          |              tag: "funcidx" (0x0) 0x105-0x105.7 (1)
0x0100|                  05                           |      .         |              funcidx: 5 0x106-0x106.7 (1)
      |                                               |                |          [8]{}: export 0x107-0x10f.7 (9)
      |                                               |                |            name{}: 0x107-0x10d.7 (7)
0x0100|                     06                        |       .        |              len: 6 0x107-0x107.7 (1)
0x0100|                        6d 65 6d 73 65 74      |        memset  |              utf8bytes: "memset" 0x108-0x10d.7 (6)
      |                                               |                |            expr{}: 0x10e-0x10f.7 (2)
0x0100|                                          00   |              . |              tag: "funcidx" (0x0) 0x10e-0x10e.7 (1)
0x0100|                                             08|               .|              funcidx: 8 0x10f-0x10f.7 (1)
      |                                               |                |          [9]{}: export 0x110-0x118.7 (9)
      |                                               |                |            name{}: 0x110-0x116.7 (7)
0x0110|06                                             |.               |              len: 6 0x110-0x110.7 (1)
0x0110|   72 65 73 75 6d 65                           | resume         |              utf8bytes: "resume" 0x111-0x116.7 (6)
      |                                               |                |            expr{}: 0x117-0x118.7 (2)
0x0110|                     00                        |       .        |              tag: "funcidx" (0x0) 0x117-0x117.7 (1)
0x0110|                        0d                     |        .       |              funcidx: 13 0x118-0x118.7 (1)
      |                                               |                |          [10]{}: export 0x119-0x11e.7 (6)
      |                                               |                |            name{}: 0x119-0x11c.7 (4)
0x0110|                           03                  |         .      |              len: 3 0x119-0x119.7 (1)
0x0110|                              61 64 64         |          add   |              utf8bytes: "add" 0x11a-0x11c.7 (3)
      |                                               |                |            expr{}: 0x11d-0x11e.7 (2)
0x0110|                                       00      |             .  |              tag: "funcidx" (0x0) 0x11d-0x11d.7 (1)
0x0110|                                          0e   |              . |              funcidx: 14 0x11e-0x11e.7 (1)
      |                                               |                |          [11]{}: export 0x11f-0x124.7 (6)
      |                                               |                |            name{}: 0x11f-0x122.7 (4)
0x0110|                                             03|               .|              len: 3 0x11f-0x11f.7 (1)
0x0120|64 69 76                                       |div             |              utf8bytes: "div" 0x120-0x122.7 (3)
      |                                               |                |            expr{}: 0x123-0x124.7 (2)
0x0120|         00                                    |   .            |              tag: "funcidx" (0x0) 0x123-0x123.7 (1)
0x0120|            0f                                 |    .           |              funcidx: 15 0x124-0x124.7 (1)
      |                                               |                |          [12]{}: export 0x125-0x12a.7 (6)
      |                                               |                |            name{}: 0x125-0x128.7 (4)
0x0120|               03                              |     .          |              len: 3 0x125-0x125.7 (1)
0x0120|                  6d 75 6c                     |      mul       |              utf8bytes: "mul" 0x126-0x128.7 (3)
      |                                               |                |            expr{}: 0x129-0x12a.7 (2)
0x0120|                           00                  |         .      |              tag: "funcidx" (0x0) 0x129-0x129.7 (1)
0x0120|                              10               |          .     |              funcidx: 16 0x12a-0x12a.7 (1)
      |                                               |                |          [13]{}: export 0x12b-0x130.7 (6)
      |                                               |                |            name{}: 0x12b-0x12e.7 (4)
0x0120|                                 03            |           .    |              len: 3 0x12b-0x12b.7 (1)
0x0120|                                    73 75 62   |            sub |              utf8bytes: "sub" 0x12c-0x12e.7 (3)
      |                                               |                |            expr{}: 0x12f-0x130.7 (2)
0x0120|                                             00|               .|              tag: "funcidx" (0x0) 0x12f-0x12f.7 (1)
0x0130|11                                             |.               |              funcidx: 17 0x130-0x130.7 (1)
      |                                               |                |    [7]{}: section 0x131-0x2f8.7 (456)
0x0130|   0a                                          | .              |      id: "code section" (10) 0x131-0x131.7 (1)
0x0130|      c5 03                                    |  ..            |      size: 453 0x132-0x133.7 (2)
      |                                               |                |      content{}: 0x134-0x2f8.7 (453)
0x0130|            10                                 |    .           |        n: 16 0x134-0x134.7 (1)
      |                                               |                |        items[0:16]: 0x135-0x2f8.7 (452)
      |                                               |                |          [0]{}: code 0x135-0x137.7 (3)
0x0130|               02                              |     .          |            size: 2 0x135-0x135.7 (1)
      |                                               |                |            code{}: 0x136-0x137.7 (2)
      |                                               |                |              locals{}: 0x136-0x136.7 (1)
0x0130|                  00                           |      .         |                n: 0 0x136-0x136.7 (1)
      |                                               |                |                items[0:0]: 0x137-NA (0)
      |                                               |                |              expr{}: 0x137-0x137.7 (1)
      |                                               |                |                instructions[0:1]: 0x137-0x137.7 (1)
      |                                               |                |                  [0]{}: instr 0x137-0x137.7 (1)
0x0130|                     0b                        |       .        |                    end: 0xb (valid) 0x137-0x137.7 (1)
      |                                               |                |          [1]{}: code 0x138-0x140.7 (9)
0x0130|                        08                     |        .       |            size: 8 0x138-0x138.7 (1)
      |                                               |                |            code{}: 0x139-0x140.7 (8)
      |                                               |                |              locals{}: 0x139-0x139.7 (1)
0x0130|                           00                  |         .      |                n: 0 0x139-0x139.7 (1)
      |                                               |                |                items[0:0]: 0x13a-NA (0)
      |                                               |                |              expr{}: 0x13a-0x140.7 (7)
      |                                               |                |                instructions[0:2]: 0x13a-0x140.7 (7)
      |                                               |                |                  [0]{}: instr 0x13a-0x13f.7 (6)
0x0130|                              10               |          .     |                    call: 0x10 (valid) 0x13a-0x13a.7 (1)
0x0130|                                 84 80 80 80 00|           .....|                    funcidx: 4 0x13b-0x13f.7 (5)
      |                                               |                |                  [1]{}: instr 0x140-0x140.7 (1)
0x0140|0b                                             |.               |                    end: 0xb (valid) 0x140-0x140.7 (1)
      |                                               |                |          [2]{}: code 0x141-0x1a6.7 (102)
0x0140|   65                                          | e              |            size: 101 0x141-0x141.7 (1)
      |                                               |                |            code{}: 0x142-0x1a6.7 (101)
      |                                               |                |              locals{}: 0x142-0x144.7 (3)
0x0140|      01                                       |  .             |                n: 1 0x142-0x142.7 (1)
      |                                               |                |                items[0:1]: 0x143-0x144.7 (2)
      |                                               |                |                  [0]{}: locals 0x143-0x144.7 (2)
0x0140|         02                                    |   .            |                    n: 2 0x143-0x143.7 (1)
0x0140|            7f                                 |    .           |                    valtype: "i32" (127) 0x144-0x144.7 (1)
      |                                               |                |              expr{}: 0x145-0x1a6.7 (98)
      |                                               |                |                instructions[0:14]: 0x145-0x1a6.7 (98)
      |                                               |                |                  [0]{}: instr 0x145-0x146.7 (2)
0x0140|               3f                              |     ?          |                    memory.size: 0x3f (valid) 0x145-0x145.7 (1)
0x0140|                  00                           |      .         |                    reserved: 0x0 (valid) 0x146-0x146.7 (1)
      |                                               |                |                  [1]{}: instr 0x147-0x148.7 (2)
0x0140|                     41                        |       A        |                    i32.const: 0x41 (valid) 0x147-0x147.7 (1)
0x0140|                        10                     |        .       |                    n: 16 0x148-0x148.7 (1)
      |                                               |                |                  [2]{}: instr 0x149-0x149.7 (1)
0x0140|                           74                  |         t      |                    i32.shl: 0x74 (valid) 0x149-0x149.7 (1)
      |                                               |                |                  [3]{}: instr 0x14a-0x14f.7 (6)
0x0140|                              41               |          A     |                    i32.const: 0x41 (valid) 0x14a-0x14a.7 (1)
0x0140|                                 c6 80 84 80 00|           .....|                    n: 65606 0x14b-0x14f.7 (5)
      |                                               |                |                  [4]{}: instr 0x150-0x150.7 (1)
0x0150|6b                                             |k               |                    i32.sub: 0x6b (valid) 0x150-0x150.7 (1)
      |                                               |                |                  [5]{}: instr 0x151-0x152.7 (2)
0x0150|   41                                          | A              |                    i32.const: 0x41 (valid) 0x151-0x151.7 (1)
0x0150|      06                                       |  .             |                    n: 6 0x152-0x152.7 (1)
      |                                               |                |                  [6]{}: instr 0x153-0x153.7 (1)
0x0150|         76                                    |   v            |                    i32.shr_u: 0x76 (valid) 0x153-0x153.7 (1)
      |                                               |                |                  [7]{}: instr 0x154-0x155.7 (2)
0x0150|            21                                 |    !           |                    local.set: 0x21 (valid) 0x154-0x154.7 (1)
0x0150|               00                              |     .          |                    localidx: 0 0x155-0x155.7 (1)
      |                                               |                |                  [8]{}: instr 0x156-0x157.7 (2)
0x0150|                  41                           |      A         |                    i32.const: 0x41 (valid) 0x156-0x156.7 (1)
0x0150|                     00                        |       .        |                    n: 0 0x157-0x157.7 (1)
      |                                               |                |                  [9]{}: instr 0x158-0x159.7 (2)
0x0150|                        21                     |        !       |                    local.set: 0x21 (valid) 0x158-0x158.7 (1)
0x0150|                           01                  |         .      |                    localidx: 1 0x159-0x159.7 (1)
      |                                               |                |                  [10]{}: instr 0x15a-0x19e.7 (69)
0x0150|                              02               |          .     |                    block: 0x2 (valid) 0x15a-0x15a.7 (1)
0x0150|                                 40            |           @    |                    blocktype: "empty" (64) 0x15b-0x15b.7 (1)
      |                                               |                |                    instructions[0:5]: 0x15c-0x19d.7 (66)
      |                                               |                |                      [0]{}: instr 0x15c-0x18d.7 (50)
0x0150|                                    02         |            .   |                        block: 0x2 (valid) 0x15c-0x15c.7 (1)
0x0150|                                       40      |             @  |                        blocktype: "empty" (64) 0x15d-0x15d.7 (1)
      |                                               |                |                        instructions[0:1]: 0x15e-0x18c.7 (47)
      |                                               |                |                          [0]{}: instr 0x15e-0x18c.7 (47)
0x0150|                                          03   |              . |                            loop: 0x3 (valid) 0x15e-0x15e.7 (1)
0x0150|                                             40|               @|                            blocktype: "empty" (64) 0x15f-0x15f.7 (1)
      |                                               |                |                            instructions[0:20]: 0x160-0x18b.7 (44)
      |                                               |                |                              [0]{}: instr 0x160-0x161.7 (2)
0x0160|20                                             |                |                                local.get: 0x20 (valid) 0x160-0x160.7 (1)
0x0160|   00                                          | .              |                                localidx: 0 0x161-0x161.7 (1)
      |                                               |                |                              [1]{}: instr 0x162-0x163.7 (2)
0x0160|      20                                       |                |                                local.get: 0x20 (valid) 0x162-0x162.7 (1)
0x0160|         01                                    |   .            |                                localidx: 1 0x163-0x163.7 (1)
      |                                               |                |                              [2]{}: instr 0x164-0x164.7 (1)
0x0160|            46                                 |    F           |                                i32.eq: 0x46 (valid) 0x164-0x164.7 (1)
      |                                               |                |                              [3]{}: instr 0x165-0x166.7 (2)
0x0160|               0d                              |     .          |                                br_if: 0xd (valid) 0x165-0x165.7 (1)
0x0160|                  01                           |      .         |                                labelidx: 1 0x166-0x166.7 (1)
      |                                               |                |                              [4]{}: instr 0x167-0x168.7 (2)
0x0160|                     41                        |       A        |                                i32.const: 0x41 (valid) 0x167-0x167.7 (1)
0x0160|                        00                     |        .       |                                n: 0 0x168-0x168.7 (1)
      |                                               |                |                              [5]{}: instr 0x169-0x16e.7 (6)
0x0160|                           41                  |         A      |                                i32.const: 0x41 (valid) 0x169-0x169.7 (1)
0x0160|                              c6 80 84 80 00   |          ..... |                                n: 65606 0x16a-0x16e.7 (5)
      |                                               |                |                              [6]{}: instr 0x16f-0x16f.7 (1)
0x0160|                                             6b|               k|                                i32.sub: 0x6b (valid) 0x16f-0x16f.7 (1)
      |                                               |                |                              [7]{}: instr 0x170-0x171.7 (2)
0x0170|20                                             |                |                                local.get: 0x20 (valid) 0x170-0x170.7 (1)
0x0170|   01                                          | .              |                                localidx: 1 0x171-0x171.7 (1)
      |                                               |                |                              [8]{}: instr 0x172-0x172.7 (1)
0x0170|      46                                       |  F             |                                i32.eq: 0x46 (valid) 0x172-0x172.7 (1)
      |                                               |                |                              [9]{}: instr 0x173-0x174.7 (2)
0x0170|         0d                                    |   .            |                                br_if: 0xd (valid) 0x173-0x173.7 (1)
0x0170|            02                                 |    .           |                                labelidx: 2 0x174-0x174.7 (1)
      |                                               |                |                              [10]{}: instr 0x175-0x176.7 (2)
0x0170|               20                              |                |                                local.get: 0x20 (valid) 0x175-0x175.7 (1)
0x0170|                  01                           |      .         |                                localidx: 1 0x176-0x176.7 (1)
      |                                               |                |                              [11]{}: instr 0x177-0x17c.7 (6)
0x0170|                     41                        |       A        |                                i32.const: 0x41 (valid) 0x177-0x177.7 (1)
0x0170|                        c6 80 84 80 00         |        .....   |                                n: 65606 0x178-0x17c.7 (5)
      |                                               |                |                              [12]{}: instr 0x17d-0x17d.7 (1)
0x0170|                                       6a      |             j  |                                i32.add: 0x6a (valid) 0x17d-0x17d.7 (1)
      |                                               |                |                              [13]{}: instr 0x17e-0x17f.7 (2)
0x0170|                                          41   |              A |                                i32.const: 0x41 (valid) 0x17e-0x17e.7 (1)
0x0170|                                             00|               .|                                n: 0 0x17f-0x17f.7 (1)
      |                                               |                |                              [14]{}: instr 0x180-0x182.7 (3)
0x0180|3a                                             |:               |                                i32.store8: 0x3a (valid) 0x180-0x180.7 (1)
0x0180|   00                                          | .              |                                align: 0 0x181-0x181.7 (1)
0x0180|      00                                       |  .             |                                offset: 0 0x182-0x182.7 (1)
      |                                               |                |                              [15]{}: instr 0x183-0x184.7 (2)
0x0180|         20                                    |                |                                local.get: 0x20 (valid) 0x183-0x183.7 (1)
0x0180|            01                                 |    .           |                                localidx: 1 0x184-0x184.7 (1)
      |                                               |                |                              [16]{}: instr 0x185-0x186.7 (2)
0x0180|               41                              |     A          |                                i32.const: 0x41 (valid) 0x185-0x185.7 (1)
0x0180|                  01                           |      .         |                                n: 1 0x186-0x186.7 (1)
      |                                               |                |                              [17]{}: instr 0x187-0x187.7 (1)
0x0180|                     6a                        |       j        |                                i32.add: 0x6a (valid) 0x187-0x187.7 (1)
      |                                               |                |                              [18]{}: instr 0x188-0x189.7 (2)
0x0180|                        21                     |        !       |                                local.set: 0x21 (valid) 0x188-0x188.7 (1)
0x0180|                           01                  |         .      |                                localidx: 1 0x189-0x189.7 (1)
      |                                               |                |                              [19]{}: instr 0x18a-0x18b.7 (2)
0x0180|                              0c               |          .     |                                br: 0xc (valid) 0x18a-0x18a.7 (1)
0x0180|                                 00            |           .    |                                labelidx: 0 0x18b-0x18b.7 (1)
0x0180|                                    0b         |            .   |                            end: 11 (valid) 0x18c-0x18c.7 (1)
0x0180|                                       0b      |             .  |                        end: 11 (valid) 0x18d-0x18d.7 (1)
      |                                               |                |                      [1]{}: instr 0x18e-0x18f.7 (2)
0x0180|                                          41   |              A |                        i32.const: 0x41 (valid) 0x18e-0x18e.7 (1)
0x0180|                                             00|               .|                        n: 0 0x18f-0x18f.7 (1)
      |                                               |                |                      [2]{}: instr 0x190-0x195.7 (6)
0x0190|10                                             |.               |                        call: 0x10 (valid) 0x190-0x190.7 (1)
0x0190|   80 80 80 80 00                              | .....          |                        funcidx: 0 0x191-0x195.7 (5)
      |                                               |                |                      [3]{}: instr 0x196-0x19c.7 (7)
0x0190|                  36                           |      6         |                        i32.store: 0x36 (valid) 0x196-0x196.7 (1)
0x0190|                     02                        |       .        |                        align: 2 0x197-0x197.7 (1)
0x0190|                        80 80 84 80 00         |        .....   |                        offset: 65536 0x198-0x19c.7 (5)
      |                                               |                |                      [4]{}: instr 0x19d-0x19d.7 (1)
0x0190|                                       0f      |             .  |                        return: 0xf (valid) 0x19d-0x19d.7 (1)
0x0190|                                          0b   |              . |                    end: 11 (valid) 0x19e-0x19e.7 (1)
      |                                               |                |                  [11]{}: instr 0x19f-0x1a4.7 (6)
0x0190|                                             10|               .|                    call: 0x10 (valid) 0x19f-0x19f.7 (1)
0x01a0|87 80 80 80 00                                 |.....           |                    funcidx: 7 0x1a0-0x1a4.7 (5)
      |                                               |                |                  [12]{}: instr 0x1a5-0x1a5.7 (1)
0x01a0|               00                              |     .          |                    unreachable: 0x0 (valid) 0x1a5-0x1a5.7 (1)
      |                                               |                |                  [13]{}: instr 0x1a6-0x1a6.7 (1)
0x01a0|                  0b                           |      .         |                    end: 0xb (valid) 0x1a6-0x1a6.7 (1)
      |                                               |                |          [3]{}: code 0x1a7-0x1af.7 (9)
0x01a0|                     08                        |       .        |            size: 8 0x1a7-0x1a7.7 (1)
      |                                               |                |            code{}: 0x1a8-0x1af.7 (8)
      |                                               |                |              locals{}: 0x1a8-0x1a8.7 (1)
0x01a0|                        00                     |        .       |                n: 0 0x1a8-0x1a8.7 (1)
      |                                               |                |                items[0:0]: 0x1a9-NA (0)
      |                                               |                |              expr{}: 0x1a9-0x1af.7 (7)
      |                                               |                |                instructions[0:2]: 0x1a9-0x1af.7 (7)
      |                                               |                |                  [0]{}: instr 0x1a9-0x1ae.7 (6)
0x01a0|                           10                  |         .      |                    call: 0x10 (valid) 0x1a9-0x1a9.7 (1)
0x01a0|                              84 80 80 80 00   |          ..... |                    funcidx: 4 0x1aa-0x1ae.7 (5)
      |                                               |                |                  [1]{}: instr 0x1af-0x1af.7 (1)
0x01a0|                                             0b|               .|                    end: 0xb (valid) 0x1af-0x1af.7 (1)
      |                                               |                |          [4]{}: code 0x1b0-0x1d3.7 (36)
0x01b0|23                                             |#               |            size: 35 0x1b0-0x1b0.7 (1)
      |                                               |                |            code{}: 0x1b1-0x1d3.7 (35)
      |                                               |                |              locals{}: 0x1b1-0x1b3.7 (3)
0x01b0|   01                                          | .              |                n: 1 0x1b1-0x1b1.7 (1)
      |                                               |                |                items[0:1]: 0x1b2-0x1b3.7 (2)
      |                                               |                |                  [0]{}: locals 0x1b2-0x1b3.7 (2)
0x01b0|      01                                       |  .             |                    n: 1 0x1b2-0x1b2.7 (1)
0x01b0|         7f                                    |   .            |                    valtype: "i32" (127) 0x1b3-0x1b3.7 (1)
      |                                               |                |              expr{}: 0x1b4-0x1d3.7 (32)
      |                                               |                |                instructions[0:11]: 0x1b4-0x1d3.7 (32)
      |                                               |                |                  [0]{}: instr 0x1b4-0x1b9.7 (6)
0x01b0|            23                                 |    #           |                    global.get: 0x23 (valid) 0x1b4-0x1b4.7 (1)
0x01b0|               80 80 80 80 00                  |     .....      |                    globalidx: 0 0x1b5-0x1b9.7 (5)
      |                                               |                |                  [1]{}: instr 0x1ba-0x1bb.7 (2)
0x01b0|                              41               |          A     |                    i32.const: 0x41 (valid) 0x1ba-0x1ba.7 (1)
0x01b0|                                 10            |           .    |                    n: 16 0x1bb-0x1bb.7 (1)
      |                                               |                |                  [2]{}: instr 0x1bc-0x1bc.7 (1)
0x01b0|                                    6b         |            k   |                    i32.sub: 0x6b (valid) 0x1bc-0x1bc.7 (1)
      |                                               |                |                  [3]{}: instr 0x1bd-0x1be.7 (2)
0x01b0|                                       22      |             "  |                    local.tee: 0x22 (valid) 0x1bd-0x1bd.7 (1)
0x01b0|                                          00   |              . |                    localidx: 0 0x1be-0x1be.7 (1)
      |                                               |                |                  [4]{}: instr 0x1bf-0x1c4.7 (6)
0x01b0|                                             24|               $|                    global.set: 0x24 (valid) 0x1bf-0x1bf.7 (1)
0x01c0|80 80 80 80 00                                 |.....           |                    globalidx: 0 0x1c0-0x1c4.7 (5)
      |                                               |                |                  [5]{}: instr 0x1c5-0x1c6.7 (2)
0x01c0|               20                              |                |                    local.get: 0x20 (valid) 0x1c5-0x1c5.7 (1)
0x01c0|                  00                           |      .         |                    localidx: 0 0x1c6-0x1c6.7 (1)
      |                                               |                |                  [6]{}: instr 0x1c7-0x1c8.7 (2)
0x01c0|                     42                        |       B        |                    i64.const: 0x42 (valid) 0x1c7-0x1c7.7 (1)
0x01c0|                        00                     |        .       |                    n: 0 0x1c8-0x1c8.7 (1)
      |                                               |                |                  [7]{}: instr 0x1c9-0x1cb.7 (3)
0x01c0|                           37                  |         7      |                    i64.store: 0x37 (valid) 0x1c9-0x1c9.7 (1)
0x01c0|                              03               |          .     |                    align: 3 0x1ca-0x1ca.7 (1)
0x01c0|                                 08            |           .    |                    offset: 8 0x1cb-0x1cb.7 (1)
      |                                               |                |                  [8]{}: instr 0x1cc-0x1d1.7 (6)
0x01c0|                                    10         |            .   |                    call: 0x10 (valid) 0x1cc-0x1cc.7 (1)
0x01c0|                                       87 80 80|             ...|                    funcidx: 7 0x1cd-0x1d1.7 (5)
0x01d0|80 00                                          |..              |
      |                                               |                |                  [9]{}: instr 0x1d2-0x1d2.7 (1)
0x01d0|      00                                       |  .             |                    unreachable: 0x0 (valid) 0x1d2-0x1d2.7 (1)
      |                                               |                |                  [10]{}: instr 0x1d3-0x1d3.7 (1)
0x01d0|         0b                                    |   .            |                    end: 0xb (valid) 0x1d3-0x1d3.7 (1)
      |                                               |                |          [5]{}: code 0x1d4-0x1dd.7 (10)
0x01d0|            09                                 |    .           |            size: 9 0x1d4-0x1d4.7 (1)
      |                                               |                |            code{}: 0x1d5-0x1dd.7 (9)
      |                                               |                |              locals{}: 0x1d5-0x1d5.7 (1)
0x01d0|               00                              |     .          |                n: 0 0x1d5-0x1d5.7 (1)
      |                                               |                |                items[0:0]: 0x1d6-NA (0)
      |                                               |                |              expr{}: 0x1d6-0x1dd.7 (8)
      |                                               |                |                instructions[0:3]: 0x1d6-0x1dd.7 (8)
      |                                               |                |                  [0]{}: instr 0x1d6-0x1db.7 (6)
0x01d0|                  10                           |      .         |                    call: 0x10 (valid) 0x1d6-0x1d6.7 (1)
0x01d0|                     89 80 80 80 00            |       .....    |                    funcidx: 9 0x1d7-0x1db.7 (5)
      |                                               |                |                  [1]{}: instr 0x1dc-0x1dc.7 (1)
0x01d0|                                    00         |            .   |                    unreachable: 0x0 (valid) 0x1dc-0x1dc.7 (1)
      |                                               |                |                  [2]{}: instr 0x1dd-0x1dd.7 (1)
0x01d0|                                       0b      |             .  |                    end: 0xb (valid) 0x1dd-0x1dd.7 (1)
      |                                               |                |          [6]{}: code 0x1de-0x221.7 (68)
0x01d0|                                          43   |              C |            size: 67 0x1de-0x1de.7 (1)
      |                                               |                |            code{}: 0x1df-0x221.7 (67)
      |                                               |                |              locals{}: 0x1df-0x1e1.7 (3)
0x01d0|                                             01|               .|                n: 1 0x1df-0x1df.7 (1)
      |                                               |                |                items[0:1]: 0x1e0-0x1e1.7 (2)
      |                                               |                |                  [0]{}: locals 0x1e0-0x1e1.7 (2)
0x01e0|02                                             |.               |                    n: 2 0x1e0-0x1e0.7 (1)
0x01e0|   7f                                          | .              |                    valtype: "i32" (127) 0x1e1-0x1e1.7 (1)
      |                                               |                |              expr{}: 0x1e2-0x221.7 (64)
      |                                               |                |                instructions[0:10]: 0x1e2-0x221.7 (64)
      |                                               |                |                  [0]{}: instr 0x1e2-0x1e3.7 (2)
0x01e0|      41                                       |  A             |                    i32.const: 0x41 (valid) 0x1e2-0x1e2.7 (1)
0x01e0|         00                                    |   .            |                    n: 0 0x1e3-0x1e3.7 (1)
      |                                               |                |                  [1]{}: instr 0x1e4-0x1e5.7 (2)
0x01e0|            21                                 |    !           |                    local.set: 0x21 (valid) 0x1e4-0x1e4.7 (1)
0x01e0|               03                              |     .          |                    localidx: 3 0x1e5-0x1e5.7 (1)
      |                                               |                |                  [2]{}: instr 0x1e6-0x1e7.7 (2)
0x01e0|                  41                           |      A         |                    i32.const: 0x41 (valid) 0x1e6-0x1e6.7 (1)
0x01e0|                     00                        |       .        |                    n: 0 0x1e7-0x1e7.7 (1)
      |                                               |                |                  [3]{}: instr 0x1e8-0x1e9.7 (2)
0x01e0|                        20                     |                |                    local.get: 0x20 (valid) 0x1e8-0x1e8.7 (1)
0x01e0|                           00                  |         .      |                    localidx: 0 0x1e9-0x1e9.7 (1)
      |                                               |                |                  [4]{}: instr 0x1ea-0x1ea.7 (1)
0x01e0|                              6b               |          k     |                    i32.sub: 0x6b (valid) 0x1ea-0x1ea.7 (1)
      |                                               |                |                  [5]{}: instr 0x1eb-0x1ec.7 (2)
0x01e0|                                 21            |           !    |                    local.set: 0x21 (valid) 0x1eb-0x1eb.7 (1)
0x01e0|                                    04         |            .   |                    localidx: 4 0x1ec-0x1ec.7 (1)
      |                                               |                |                  [6]{}: instr 0x1ed-0x219.7 (45)
0x01e0|                                       02      |             .  |                    block: 0x2 (valid) 0x1ed-0x1ed.7 (1)
0x01e0|                                          40   |              @ |                    blocktype: "empty" (64) 0x1ee-0x1ee.7 (1)
      |                                               |                |                    instructions[0:3]: 0x1ef-0x218.7 (42)
      |                                               |                |                      [0]{}: instr 0x1ef-0x215.7 (39)
0x01e0|                                             02|               .|                        block: 0x2 (valid) 0x1ef-0x1ef.7 (1)
0x01f0|40                                             |@               |                        blocktype: "empty" (64) 0x1f0-0x1f0.7 (1)
      |                                               |                |                        instructions[0:1]: 0x1f1-0x214.7 (36)
      |                                               |                |                          [0]{}: instr 0x1f1-0x214.7 (36)
0x01f0|   03                                          | .              |                            loop: 0x3 (valid) 0x1f1-0x1f1.7 (1)
0x01f0|      40                                       |  @             |                            blocktype: "empty" (64) 0x1f2-0x1f2.7 (1)
      |                                               |                |                            instructions[0:18]: 0x1f3-0x213.7 (33)
      |                                               |                |                              [0]{}: instr 0x1f3-0x1f4.7 (2)
0x01f0|         20                                    |                |                                local.get: 0x20 (valid) 0x1f3-0x1f3.7 (1)
0x01f0|            02                                 |    .           |                                localidx: 2 0x1f4-0x1f4.7 (1)
      |                                               |                |                              [1]{}: instr 0x1f5-0x1f6.7 (2)
0x01f0|               20                              |                |                                local.get: 0x20 (valid) 0x1f5-0x1f5.7 (1)
0x01f0|                  03                           |      .         |                                localidx: 3 0x1f6-0x1f6.7 (1)
      |                                               |                |                              [2]{}: instr 0x1f7-0x1f7.7 (1)
0x01f0|                     46                        |       F        |                                i32.eq: 0x46 (valid) 0x1f7-0x1f7.7 (1)
      |                                               |                |                              [3]{}: instr 0x1f8-0x1f9.7 (2)
0x01f0|                        0d                     |        .       |                                br_if: 0xd (valid) 0x1f8-0x1f8.7 (1)
0x01f0|                           01                  |         .      |                                labelidx: 1 0x1f9-0x1f9.7 (1)
      |                                               |                |                              [4]{}: instr 0x1fa-0x1fb.7 (2)
0x01f0|                              20               |                |                                local.get: 0x20 (valid) 0x1fa-0x1fa.7 (1)
0x01f0|                                 04            |           .    |                                localidx: 4 0x1fb-0x1fb.7 (1)
      |                                               |                |                              [5]{}: instr 0x1fc-0x1fd.7 (2)
0x01f0|                                    20         |                |                                local.get: 0x20 (valid) 0x1fc-0x1fc.7 (1)
0x01f0|                                       03      |             .  |                                localidx: 3 0x1fd-0x1fd.7 (1)
      |                                               |                |                              [6]{}: instr 0x1fe-0x1fe.7 (1)
0x01f0|                                          46   |              F |                                i32.eq: 0x46 (valid) 0x1fe-0x1fe.7 (1)
      |                                               |                |                              [7]{}: instr 0x1ff-0x200.7 (2)
0x01f0|                                             0d|               .|                                br_if: 0xd (valid) 0x1ff-0x1ff.7 (1)
0x0200|02                                             |.               |                                labelidx: 2 0x200-0x200.7 (1)
      |                                               |                |                              [8]{}: instr 0x201-0x202.7 (2)
0x0200|   20                                          |                |                                local.get: 0x20 (valid) 0x201-0x201.7 (1)
0x0200|      00                                       |  .             |                                localidx: 0 0x202-0x202.7 (1)
      |                                               |                |                              [9]{}: instr 0x203-0x204.7 (2)
0x0200|         20                                    |                |                                local.get: 0x20 (valid) 0x203-0x203.7 (1)
0x0200|            03                                 |    .           |                                localidx: 3 0x204-0x204.7 (1)
      |                                               |                |                              [10]{}: instr 0x205-0x205.7 (1)
0x0200|               6a                              |     j          |                                i32.add: 0x6a (valid) 0x205-0x205.7 (1)
      |                                               |                |                              [11]{}: instr 0x206-0x207.7 (2)
0x0200|                  20                           |                |                                local.get: 0x20 (valid) 0x206-0x206.7 (1)
0x0200|                     01                        |       .        |                                localidx: 1 0x207-0x207.7 (1)
      |                                               |                |                              [12]{}: instr 0x208-0x20a.7 (3)
0x0200|                        3a                     |        :       |                                i32.store8: 0x3a (valid) 0x208-0x208.7 (1)
0x0200|                           00                  |         .      |                                align: 0 0x209-0x209.7 (1)
0x0200|                              00               |          .     |                                offset: 0 0x20a-0x20a.7 (1)
      |                                               |                |                              [13]{}: instr 0x20b-0x20c.7 (2)
0x0200|                                 20            |                |                                local.get: 0x20 (valid) 0x20b-0x20b.7 (1)
0x0200|                                    03         |            .   |                                localidx: 3 0x20c-0x20c.7 (1)
      |                                               |                |                              [14]{}: instr 0x20d-0x20e.7 (2)
0x0200|                                       41      |             A  |                                i32.const: 0x41 (valid) 0x20d-0x20d.7 (1)
0x0200|                                          01   |              . |                                n: 1 0x20e-0x20e.7 (1)
      |                                               |                |                              [15]{}: instr 0x20f-0x20f.7 (1)
0x0200|                                             6a|               j|                                i32.add: 0x6a (valid) 0x20f-0x20f.7 (1)
      |                                               |                |                              [16]{}: instr 0x210-0x211.7 (2)
0x0210|21                                             |!               |                                local.set: 0x21 (valid) 0x210-0x210.7 (1)
0x0210|   03                                          | .              |                                localidx: 3 0x211-0x211.7 (1)
      |                                               |                |                              [17]{}: instr 0x212-0x213.7 (2)
0x0210|      0c                                       |  .             |                                br: 0xc (valid) 0x212-0x212.7 (1)
0x0210|         00                                    |   .            |                                labelidx: 0 0x213-0x213.7 (1)
0x0210|            0b                                 |    .           |                            end: 11 (valid) 0x214-0x214.7 (1)
0x0210|               0b                              |     .          |                        end: 11 (valid) 0x215-0x215.7 (1)
      |                                               |                |                      [1]{}: instr 0x216-0x217.7 (2)
0x0210|                  20                           |                |                        local.get: 0x20 (valid) 0x216-0x216.7 (1)
0x0210|                     00                        |       .        |                        localidx: 0 0x217-0x217.7 (1)
      |                                               |                |                      [2]{}: instr 0x218-0x218.7 (1)
0x0210|                        0f                     |        .       |                        return: 0xf (valid) 0x218-0x218.7 (1)
0x0210|                           0b                  |         .      |                    end: 11 (valid) 0x219-0x219.7 (1)
      |                                               |                |                  [7]{}: instr 0x21a-0x21f.7 (6)
0x0210|                              10               |          .     |                    call: 0x10 (valid) 0x21a-0x21a.7 (1)
0x0210|                                 87 80 80 80 00|           .....|                    funcidx: 7 0x21b-0x21f.7 (5)
      |                                               |                |                  [8]{}: instr 0x220-0x220.7 (1)
0x0220|00                                             |.               |                    unreachable: 0x0 (valid) 0x220-0x220.7 (1)
      |                                               |                |                  [9]{}: instr 0x221-0x221.7 (1)
0x0220|   0b                                          | .              |                    end: 0xb (valid) 0x221-0x221.7 (1)
      |                                               |                |          [7]{}: code 0x222-0x248.7 (39)
0x0220|      26                                       |  &             |            size: 38 0x222-0x222.7 (1)
      |                                               |                |            code{}: 0x223-0x248.7 (38)
      |                                               |                |              locals{}: 0x223-0x223.7 (1)
0x0220|         00                                    |   .            |                n: 0 0x223-0x223.7 (1)
      |                                               |                |                items[0:0]: 0x224-NA (0)
      |                                               |                |              expr{}: 0x224-0x248.7 (37)
      |                                               |                |                instructions[0:10]: 0x224-0x248.7 (37)
      |                                               |                |                  [0]{}: instr 0x224-0x229.7 (6)
0x0220|            41                                 |    A           |                    i32.const: 0x41 (valid) 0x224-0x224.7 (1)
0x0220|               b0 80 84 80 00                  |     .....      |                    n: 65584 0x225-0x229.7 (5)
      |                                               |                |                  [1]{}: instr 0x22a-0x22b.7 (2)
0x0220|                              41               |          A     |                    i32.const: 0x41 (valid) 0x22a-0x22a.7 (1)
0x0220|                                 16            |           .    |                    n: 22 0x22b-0x22b.7 (1)
      |                                               |                |                  [2]{}: instr 0x22c-0x231.7 (6)
0x0220|                                    10         |            .   |                    call: 0x10 (valid) 0x22c-0x22c.7 (1)
0x0220|                                       8c 80 80|             ...|                    funcidx: 12 0x22d-0x231.7 (5)
0x0230|80 00                                          |..              |
      |                                               |                |                  [3]{}: instr 0x232-0x237.7 (6)
0x0230|      41                                       |  A             |                    i32.const: 0x41 (valid) 0x232-0x232.7 (1)
0x0230|         90 80 84 80 00                        |   .....        |                    n: 65552 0x233-0x237.7 (5)
      |                                               |                |                  [4]{}: instr 0x238-0x239.7 (2)
0x0230|                        41                     |        A       |                    i32.const: 0x41 (valid) 0x238-0x238.7 (1)
0x0230|                           17                  |         .      |                    n: 23 0x239-0x239.7 (1)
      |                                               |                |                  [5]{}: instr 0x23a-0x23f.7 (6)
0x0230|                              10               |          .     |                    call: 0x10 (valid) 0x23a-0x23a.7 (1)
0x0230|                                 8c 80 80 80 00|           .....|                    funcidx: 12 0x23b-0x23f.7 (5)
      |                                               |                |                  [6]{}: instr 0x240-0x245.7 (6)
0x0240|10                                             |.               |                    call: 0x10 (valid) 0x240-0x240.7 (1)
0x0240|   8a 80 80 80 00                              | .....          |                    funcidx: 10 0x241-0x245.7 (5)
      |                                               |                |                  [7]{}: instr 0x246-0x246.7 (1)
0x0240|                  00                           |      .         |                    unreachable: 0x0 (valid) 0x246-0x246.7 (1)
      |                                               |                |                  [8]{}: instr 0x247-0x247.7 (1)
0x0240|                     00                        |       .        |                    unreachable: 0x0 (valid) 0x247-0x247.7 (1)
      |                                               |                |                  [9]{}: instr 0x248-0x248.7 (1)
0x0240|                        0b                     |        .       |                    end: 0xb (valid) 0x248-0x248.7 (1)
      |                                               |                |          [8]{}: code 0x249-0x25b.7 (19)
0x0240|                           12                  |         .      |            size: 18 0x249-0x249.7 (1)
      |                                               |                |            code{}: 0x24a-0x25b.7 (18)
      |                                               |                |              locals{}: 0x24a-0x24a.7 (1)
0x0240|                              00               |          .     |                n: 0 0x24a-0x24a.7 (1)
      |                                               |                |                items[0:0]: 0x24b-NA (0)
      |                                               |                |              expr{}: 0x24b-0x25b.7 (17)
      |                                               |                |                instructions[0:5]: 0x24b-0x25b.7 (17)
      |                                               |                |                  [0]{}: instr 0x24b-0x24c.7 (2)
0x0240|                                 41            |           A    |                    i32.const: 0x41 (valid) 0x24b-0x24b.7 (1)
0x0240|                                    0d         |            .   |                    n: 13 0x24c-0x24c.7 (1)
      |                                               |                |                  [1]{}: instr 0x24d-0x252.7 (6)
0x0240|                                       10      |             .  |                    call: 0x10 (valid) 0x24d-0x24d.7 (1)
0x0240|                                          8b 80|              ..|                    funcidx: 11 0x24e-0x252.7 (5)
0x0250|80 80 00                                       |...             |
      |                                               |                |                  [2]{}: instr 0x253-0x254.7 (2)
0x0250|         41                                    |   A            |                    i32.const: 0x41 (valid) 0x253-0x253.7 (1)
0x0250|            0a                                 |    .           |                    n: 10 0x254-0x254.7 (1)
      |                                               |                |                  [3]{}: instr 0x255-0x25a.7 (6)
0x0250|               10                              |     .          |                    call: 0x10 (valid) 0x255-0x255.7 (1)
0x0250|                  8b 80 80 80 00               |      .....     |                    funcidx: 11 0x256-0x25a.7 (5)
      |                                               |                |                  [4]{}: instr 0x25b-0x25b.7 (1)
0x0250|                                 0b            |           .    |                    end: 0xb (valid) 0x25b-0x25b.7 (1)
      |                                               |                |          [9]{}: code 0x25c-0x2a1.7 (70)
0x0250|                                    45         |            E   |            size: 69 0x25c-0x25c.7 (1)
      |                                               |                |            code{}: 0x25d-0x2a1.7 (69)
      |                                               |                |              locals{}: 0x25d-0x25f.7 (3)
0x0250|                                       01      |             .  |                n: 1 0x25d-0x25d.7 (1)
      |                                               |                |                items[0:1]: 0x25e-0x25f.7 (2)
      |                                               |                |                  [0]{}: locals 0x25e-0x25f.7 (2)
0x0250|                                          01   |              . |                    n: 1 0x25e-0x25e.7 (1)
0x0250|                                             7f|               .|                    valtype: "i32" (127) 0x25f-0x25f.7 (1)
      |                                               |                |              expr{}: 0x260-0x2a1.7 (66)
      |                                               |                |                instructions[0:24]: 0x260-0x2a1.7 (66)
      |                                               |                |                  [0]{}: instr 0x260-0x265.7 (6)
0x0260|23                                             |#               |                    global.get: 0x23 (valid) 0x260-0x260.7 (1)
0x0260|   80 80 80 80 00                              | .....          |                    globalidx: 0 0x261-0x265.7 (5)
      |                                               |                |                  [1]{}: instr 0x266-0x267.7 (2)
0x0260|                  41                           |      A         |                    i32.const: 0x41 (valid) 0x266-0x266.7 (1)
0x0260|                     10                        |       .        |                    n: 16 0x267-0x267.7 (1)
      |                                               |                |                  [2]{}: instr 0x268-0x268.7 (1)
0x0260|                        6b                     |        k       |                    i32.sub: 0x6b (valid) 0x268-0x268.7 (1)
      |                                               |                |                  [3]{}: instr 0x269-0x26a.7 (2)
0x0260|                           22                  |         "      |                    local.tee: 0x22 (valid) 0x269-0x269.7 (1)
0x0260|                              01               |          .     |                    localidx: 1 0x26a-0x26a.7 (1)
      |                                               |                |                  [4]{}: instr 0x26b-0x270.7 (6)
0x0260|                                 24            |           $    |                    global.set: 0x24 (valid) 0x26b-0x26b.7 (1)
0x0260|                                    80 80 80 80|            ....|                    globalidx: 0 0x26c-0x270.7 (5)
0x0270|00                                             |.               |
      |                                               |                |                  [5]{}: instr 0x271-0x272.7 (2)
0x0270|   20                                          |                |                    local.get: 0x20 (valid) 0x271-0x271.7 (1)
0x0270|      01                                       |  .             |                    localidx: 1 0x272-0x272.7 (1)
      |                                               |                |                  [6]{}: instr 0x273-0x274.7 (2)
0x0270|         41                                    |   A            |                    i32.const: 0x41 (valid) 0x273-0x273.7 (1)
0x0270|            00                                 |    .           |                    n: 0 0x274-0x274.7 (1)
      |                                               |                |                  [7]{}: instr 0x275-0x277.7 (3)
0x0270|               36                              |     6          |                    i32.store: 0x36 (valid) 0x275-0x275.7 (1)
0x0270|                  02                           |      .         |                    align: 2 0x276-0x276.7 (1)
0x0270|                     0c                        |       .        |                    offset: 12 0x277-0x277.7 (1)
      |                                               |                |                  [8]{}: instr 0x278-0x279.7 (2)
0x0270|                        20                     |                |                    local.get: 0x20 (valid) 0x278-0x278.7 (1)
0x0270|                           01                  |         .      |                    localidx: 1 0x279-0x279.7 (1)
      |                                               |                |                  [9]{}: instr 0x27a-0x27b.7 (2)
0x0270|                              20               |                |                    local.get: 0x20 (valid) 0x27a-0x27a.7 (1)
0x0270|                                 00            |           .    |                    localidx: 0 0x27b-0x27b.7 (1)
      |                                               |                |                  [10]{}: instr 0x27c-0x27e.7 (3)
0x0270|                                    3a         |            :   |                    i32.store8: 0x3a (valid) 0x27c-0x27c.7 (1)
0x0270|                                       00      |             .  |                    align: 0 0x27d-0x27d.7 (1)
0x0270|                                          0c   |              . |                    offset: 12 0x27e-0x27e.7 (1)
      |                                               |                |                  [11]{}: instr 0x27f-0x280.7 (2)
0x0270|                                             41|               A|                    i32.const: 0x41 (valid) 0x27f-0x27f.7 (1)
0x0280|00                                             |.               |                    n: 0 0x280-0x280.7 (1)
      |                                               |                |                  [12]{}: instr 0x281-0x287.7 (7)
0x0280|   28                                          | (              |                    i32.load: 0x28 (valid) 0x281-0x281.7 (1)
0x0280|      02                                       |  .             |                    align: 2 0x282-0x282.7 (1)
0x0280|         80 80 84 80 00                        |   .....        |                    offset: 65536 0x283-0x287.7 (5)
      |                                               |                |                  [13]{}: instr 0x288-0x289.7 (2)
0x0280|                        20                     |                |                    local.get: 0x20 (valid) 0x288-0x288.7 (1)
0x0280|                           01                  |         .      |                    localidx: 1 0x289-0x289.7 (1)
      |                                               |                |                  [14]{}: instr 0x28a-0x28b.7 (2)
0x0280|                              41               |          A     |                    i32.const: 0x41 (valid) 0x28a-0x28a.7 (1)
0x0280|                                 0c            |           .    |                    n: 12 0x28b-0x28b.7 (1)
      |                                               |                |                  [15]{}: instr 0x28c-0x28c.7 (1)
0x0280|                                    6a         |            j   |                    i32.add: 0x6a (valid) 0x28c-0x28c.7 (1)
      |                                               |                |                  [16]{}: instr 0x28d-0x28e.7 (2)
0x0280|                                       41      |             A  |                    i32.const: 0x41 (valid) 0x28d-0x28d.7 (1)
0x0280|                                          01   |              . |                    n: 1 0x28e-0x28e.7 (1)
      |                                               |                |                  [17]{}: instr 0x28f-0x294.7 (6)
0x0280|                                             10|               .|                    call: 0x10 (valid) 0x28f-0x28f.7 (1)
0x0290|81 80 80 80 00                                 |.....           |                    funcidx: 1 0x290-0x294.7 (5)
      |                                               |                |                  [18]{}: instr 0x295-0x295.7 (1)
0x0290|               1a                              |     .          |                    drop: 0x1a (valid) 0x295-0x295.7 (1)
      |                                               |                |                  [19]{}: instr 0x296-0x297.7 (2)
0x0290|                  20                           |                |                    local.get: 0x20 (valid) 0x296-0x296.7 (1)
0x0290|                     01                        |       .        |                    localidx: 1 0x297-0x297.7 (1)
      |                                               |                |                  [20]{}: instr 0x298-0x299.7 (2)
0x0290|                        41                     |        A       |                    i32.const: 0x41 (valid) 0x298-0x298.7 (1)
0x0290|                           10                  |         .      |                    n: 16 0x299-0x299.7 (1)
      |                                               |                |                  [21]{}: instr 0x29a-0x29a.7 (1)
0x0290|                              6a               |          j     |                    i32.add: 0x6a (valid) 0x29a-0x29a.7 (1)
      |                                               |                |                  [22]{}: instr 0x29b-0x2a0.7 (6)
0x0290|                                 24            |           $    |                    global.set: 0x24 (valid) 0x29b-0x29b.7 (1)
0x0290|                                    80 80 80 80|            ....|                    globalidx: 0 0x29c-0x2a0.7 (5)
0x02a0|00                                             |.               |
      |                                               |                |                  [23]{}: instr 0x2a1-0x2a1.7 (1)
0x02a0|   0b                                          | .              |                    end: 0xb (valid) 0x2a1-0x2a1.7 (1)
      |                                               |                |          [10]{}: code 0x2a2-0x2ce.7 (45)
0x02a0|      2c                                       |  ,             |            size: 44 0x2a2-0x2a2.7 (1)
      |                                               |                |            code{}: 0x2a3-0x2ce.7 (44)
      |                                               |                |              locals{}: 0x2a3-0x2a5.7 (3)
0x02a0|         01                                    |   .            |                n: 1 0x2a3-0x2a3.7 (1)
      |                                               |                |                items[0:1]: 0x2a4-0x2a5.7 (2)
      |                                               |                |                  [0]{}: locals 0x2a4-0x2a5.7 (2)
0x02a0|            01                                 |    .           |                    n: 1 0x2a4-0x2a4.7 (1)
0x02a0|               7f                              |     .          |                    valtype: "i32" (127) 0x2a5-0x2a5.7 (1)
      |                                               |                |              expr{}: 0x2a6-0x2ce.7 (41)
      |                                               |                |                instructions[0:4]: 0x2a6-0x2ce.7 (41)
      |                                               |                |                  [0]{}: instr 0x2a6-0x2a7.7 (2)
0x02a0|                  41                           |      A         |                    i32.const: 0x41 (valid) 0x2a6-0x2a6.7 (1)
0x02a0|                     00                        |       .        |                    n: 0 0x2a7-0x2a7.7 (1)
      |                                               |                |                  [1]{}: instr 0x2a8-0x2a9.7 (2)
0x02a0|                        21                     |        !       |                    local.set: 0x21 (valid) 0x2a8-0x2a8.7 (1)
0x02a0|                           02                  |         .      |                    localidx: 2 0x2a9-0x2a9.7 (1)
      |                                               |                |                  [2]{}: instr 0x2aa-0x2cd.7 (36)
0x02a0|                              02               |          .     |                    block: 0x2 (valid) 0x2aa-0x2aa.7 (1)
0x02a0|                                 40            |           @    |                    blocktype: "empty" (64) 0x2ab-0x2ab.7 (1)
      |                                               |                |                    instructions[0:1]: 0x2ac-0x2cc.7 (33)
      |                                               |                |                      [0]{}: instr 0x2ac-0x2cc.7 (33)
0x02a0|                                    03         |            .   |                        loop: 0x3 (valid) 0x2ac-0x2ac.7 (1)
0x02a0|                                       40      |             @  |                        blocktype: "empty" (64) 0x2ad-0x2ad.7 (1)
      |                                               |                |                        instructions[0:14]: 0x2ae-0x2cb.7 (30)
      |                                               |                |                          [0]{}: instr 0x2ae-0x2af.7 (2)
0x02a0|                                          20   |                |                            local.get: 0x20 (valid) 0x2ae-0x2ae.7 (1)
0x02a0|                                             02|               .|                            localidx: 2 0x2af-0x2af.7 (1)
      |                                               |                |                          [1]{}: instr 0x2b0-0x2b1.7 (2)
0x02b0|20                                             |                |                            local.get: 0x20 (valid) 0x2b0-0x2b0.7 (1)
0x02b0|   01                                          | .              |                            localidx: 1 0x2b1-0x2b1.7 (1)
      |                                               |                |                          [2]{}: instr 0x2b2-0x2b2.7 (1)
0x02b0|      4e                                       |  N             |                            i32.ge_s: 0x4e (valid) 0x2b2-0x2b2.7 (1)
      |                                               |                |                          [3]{}: instr 0x2b3-0x2b4.7 (2)
0x02b0|         0d                                    |   .            |                            br_if: 0xd (valid) 0x2b3-0x2b3.7 (1)
0x02b0|            01                                 |    .           |                            labelidx: 1 0x2b4-0x2b4.7 (1)
      |                                               |                |                          [4]{}: instr 0x2b5-0x2b6.7 (2)
0x02b0|               20                              |                |                            local.get: 0x20 (valid) 0x2b5-0x2b5.7 (1)
0x02b0|                  00                           |      .         |                            localidx: 0 0x2b6-0x2b6.7 (1)
      |                                               |                |                          [5]{}: instr 0x2b7-0x2b8.7 (2)
0x02b0|                     20                        |                |                            local.get: 0x20 (valid) 0x2b7-0x2b7.7 (1)
0x02b0|                        02                     |        .       |                            localidx: 2 0x2b8-0x2b8.7 (1)
      |                                               |                |                          [6]{}: instr 0x2b9-0x2b9.7 (1)
0x02b0|                           6a                  |         j      |                            i32.add: 0x6a (valid) 0x2b9-0x2b9.7 (1)
      |                                               |                |                          [7]{}: instr 0x2ba-0x2bc.7 (3)
0x02b0|                              2d               |          -     |                            i32.load8_u: 0x2d (valid) 0x2ba-0x2ba.7 (1)
0x02b0|                                 00            |           .    |                            align: 0 0x2bb-0x2bb.7 (1)
0x02b0|                                    00         |            .   |                            offset: 0 0x2bc-0x2bc.7 (1)
      |                                               |                |                          [8]{}: instr 0x2bd-0x2c2.7 (6)
0x02b0|                                       10      |             .  |                            call: 0x10 (valid) 0x2bd-0x2bd.7 (1)
0x02b0|                                          8b 80|              ..|                            funcidx: 11 0x2be-0x2c2.7 (5)
0x02c0|80 80 00                                       |...             |
      |                                               |                |                          [9]{}: instr 0x2c3-0x2c4.7 (2)
0x02c0|         20                                    |                |                            local.get: 0x20 (valid) 0x2c3-0x2c3.7 (1)
0x02c0|            02                                 |    .           |                            localidx: 2 0x2c4-0x2c4.7 (1)
      |                                               |                |                          [10]{}: instr 0x2c5-0x2c6.7 (2)
0x02c0|               41                              |     A          |                            i32.const: 0x41 (valid) 0x2c5-0x2c5.7 (1)
0x02c0|                  01                           |      .         |                            n: 1 0x2c6-0x2c6.7 (1)
      |                                               |                |                          [11]{}: instr 0x2c7-0x2c7.7 (1)
0x02c0|                     6a                        |       j        |                            i32.add: 0x6a (valid) 0x2c7-0x2c7.7 (1)
      |                                               |                |                          [12]{}: instr 0x2c8-0x2c9.7 (2)
0x02c0|                        21                     |        !       |                            local.set: 0x21 (valid) 0x2c8-0x2c8.7 (1)
0x02c0|                           02                  |         .      |                            localidx: 2 0x2c9-0x2c9.7 (1)
      |                                               |                |                          [13]{}: instr 0x2ca-0x2cb.7 (2)
0x02c0|                              0c               |          .     |                            br: 0xc (valid) 0x2ca-0x2ca.7 (1)
0x02c0|                                 00            |           .    |                            labelidx: 0 0x2cb-0x2cb.7 (1)
0x02c0|                                    0b         |            .   |                        end: 11 (valid) 0x2cc-0x2cc.7 (1)
0x02c0|                                       0b      |             .  |                    end: 11 (valid) 0x2cd-0x2cd.7 (1)
      |                                               |                |                  [3]{}: instr 0x2ce-0x2ce.7 (1)
0x02c0|                                          0b   |              . |                    end: 0xb (valid) 0x2ce-0x2ce.7 (1)
      |                                               |                |          [11]{}: code 0x2cf-0x2d8.7 (10)
0x02c0|                                             09|               .|            size: 9 0x2cf-0x2cf.7 (1)
      |                                               |                |            code{}: 0x2d0-0x2d8.7 (9)
      |                                               |                |              locals{}: 0x2d0-0x2d0.7 (1)
0x02d0|00                                             |.               |                n: 0 0x2d0-0x2d0.7 (1)
      |                                               |                |                items[0:0]: 0x2d1-NA (0)
      |                                               |                |              expr{}: 0x2d1-0x2d8.7 (8)
      |                                               |                |                instructions[0:3]: 0x2d1-0x2d8.7 (8)
      |                                               |                |                  [0]{}: instr 0x2d1-0x2d6.7 (6)
0x02d0|   10                                          | .              |                    call: 0x10 (valid) 0x2d1-0x2d1.7 (1)
0x02d0|      86 80 80 80 00                           |  .....         |                    funcidx: 6 0x2d2-0x2d6.7 (5)
      |                                               |                |                  [1]{}: instr 0x2d7-0x2d7.7 (1)
0x02d0|                     00                        |       .        |                    unreachable: 0x0 (valid) 0x2d7-0x2d7.7 (1)
      |                                               |                |                  [2]{}: instr 0x2d8-0x2d8.7 (1)
0x02d0|                        0b                     |        .       |                    end: 0xb (valid) 0x2d8-0x2d8.7 (1)
      |                                               |                |          [12]{}: code 0x2d9-0x2e0.7 (8)
0x02d0|                           07                  |         .      |            size: 7 0x2d9-0x2d9.7 (1)
      |                                               |                |            code{}: 0x2da-0x2e0.7 (7)
      |                                               |                |              locals{}: 0x2da-0x2da.7 (1)
0x02d0|                              00               |          .     |                n: 0 0x2da-0x2da.7 (1)
      |                                               |                |                items[0:0]: 0x2db-NA (0)
      |                                               |                |              expr{}: 0x2db-0x2e0.7 (6)
      |                                               |                |                instructions[0:4]: 0x2db-0x2e0.7 (6)
      |                                               |                |                  [0]{}: instr 0x2db-0x2dc.7 (2)
0x02d0|                                 20            |                |                    local.get: 0x20 (valid) 0x2db-0x2db.7 (1)
0x02d0|                                    01         |            .   |                    localidx: 1 0x2dc-0x2dc.7 (1)
      |                                               |                |                  [1]{}: instr 0x2dd-0x2de.7 (2)
0x02d0|                                       20      |                |                    local.get: 0x20 (valid) 0x2dd-0x2dd.7 (1)
0x02d0|                                          00   |              . |                    localidx: 0 0x2de-0x2de.7 (1)
      |                                               |                |                  [2]{}: instr 0x2df-0x2df.7 (1)
0x02d0|                                             6a|               j|                    i32.add: 0x6a (valid) 0x2df-0x2df.7 (1)
      |                                               |                |                  [3]{}: instr 0x2e0-0x2e0.7 (1)
0x02e0|0b                                             |.               |                    end: 0xb (valid) 0x2e0-0x2e0.7 (1)
      |                                               |                |          [13]{}: code 0x2e1-0x2e8.7 (8)
0x02e0|   07                                          | .              |            size: 7 0x2e1-0x2e1.7 (1)
      |                                               |                |            code{}: 0x2e2-0x2e8.7 (7)
      |                                               |                |              locals{}: 0x2e2-0x2e2.7 (1)
0x02e0|      00                                       |  .             |                n: 0 0x2e2-0x2e2.7 (1)
      |                                               |                |                items[0:0]: 0x2e3-NA (0)
      |                                               |                |              expr{}: 0x2e3-0x2e8.7 (6)
      |                                               |                |                instructions[0:4]: 0x2e3-0x2e8.7 (6)
      |                                               |                |                  [0]{}: instr 0x2e3-0x2e4.7 (2)
0x02e0|         20                                    |                |                    local.get: 0x20 (valid) 0x2e3-0x2e3.7 (1)
0x02e0|            00                                 |    .           |                    localidx: 0 0x2e4-0x2e4.7 (1)
      |                                               |                |                  [1]{}: instr 0x2e5-0x2e6.7 (2)
0x02e0|               20                              |                |                    local.get: 0x20 (valid) 0x2e5-0x2e5.7 (1)
0x02e0|                  01                           |      .         |                    localidx: 1 0x2e6-0x2e6.7 (1)
      |                                               |                |                  [2]{}: instr 0x2e7-0x2e7.7 (1)
0x02e0|                     6d                        |       m        |                    i32.div_s: 0x6d (valid) 0x2e7-0x2e7.7 (1)
      |                                               |                |                  [3]{}: instr 0x2e8-0x2e8.7 (1)
0x02e0|                        0b                     |        .       |                    end: 0xb (valid) 0x2e8-0x2e8.7 (1)
      |                                               |                |          [14]{}: code 0x2e9-0x2f0.7 (8)
0x02e0|                           07                  |         .      |            size: 7 0x2e9-0x2e9.7 (1)
      |                                               |                |            code{}: 0x2ea-0x2f0.7 (7)
      |                                               |                |              locals{}: 0x2ea-0x2ea.7 (1)
0x02e0|                              00               |          .     |                n: 0 0x2ea-0x2ea.7 (1)
      |                                               |                |                items[0:0]: 0x2eb-NA (0)
      |                                               |                |              expr{}: 0x2eb-0x2f0.7 (6)
      |                                               |                |                instructions[0:4]: 0x2eb-0x2f0.7 (6)
      |                                               |                |                  [0]{}: instr 0x2eb-0x2ec.7 (2)
0x02e0|                                 20            |                |                    local.get: 0x20 (valid) 0x2eb-0x2eb.7 (1)
0x02e0|                                    01         |            .   |                    localidx: 1 0x2ec-0x2ec.7 (1)
      |                                               |                |                  [1]{}: instr 0x2ed-0x2ee.7 (2)
0x02e0|                                       20      |                |                    local.get: 0x20 (valid) 0x2ed-0x2ed.7 (1)
0x02e0|                                          00   |              . |                    localidx: 0 0x2ee-0x2ee.7 (1)
      |                                               |                |                  [2]{}: instr 0x2ef-0x2ef.7 (1)
0x02e0|                                             6c|               l|                    i32.mul: 0x6c (valid) 0x2ef-0x2ef.7 (1)
      |                                               |                |                  [3]{}: instr 0x2f0-0x2f0.7 (1)
0x02f0|0b                                             |.               |                    end: 0xb (valid) 0x2f0-0x2f0.7 (1)
      |                                               |                |          [15]{}: code 0x2f1-0x2f8.7 (8)
0x02f0|   07                                          | .              |            size: 7 0x2f1-0x2f1.7 (1)
      |                                               |                |            code{}: 0x2f2-0x2f8.7 (7)
      |                                               |                |              locals{}: 0x2f2-0x2f2.7 (1)
0x02f0|      00                                       |  .             |                n: 0 0x2f2-0x2f2.7 (1)
      |                                               |                |                items[0:0]: 0x2f3-NA (0)
      |                                               |                |              expr{}: 0x2f3-0x2f8.7 (6)
      |                                               |                |                instructions[0:4]: 0x2f3-0x2f8.7 (6)
      |                                               |                |                  [0]{}: instr 0x2f3-0x2f4.7 (2)
0x02f0|         20                                    |                |                    local.get: 0x20 (valid) 0x2f3-0x2f3.7 (1)
0x02f0|            00                                 |    .           |                    localidx: 0 0x2f4-0x2f4.7 (1)
      |                                               |                |                  [1]{}: instr 0x2f5-0x2f6.7 (2)
0x02f0|               20                              |                |                    local.get: 0x20 (valid) 0x2f5-0x2f5.7 (1)
0x02f0|                  01                           |      .         |                    localidx: 1 0x2f6-0x2f6.7 (1)
      |                                               |                |                  [2]{}: instr 0x2f7-0x2f7.7 (1)
0x02f0|                     6b                        |       k        |                    i32.sub: 0x6b (valid) 0x2f7-0x2f7.7 (1)
      |                                               |                |                  [3]{}: instr 0x2f8-0x2f8.7 (1)
0x02f0|                        0b                     |        .       |                    end: 0xb (valid) 0x2f8-0x2f8.7 (1)
      |                                               |                |    [8]{}: section 0x2f9-0x343.7 (75)
0x02f0|                           0b                  |         .      |      id: "data section" (11) 0x2f9-0x2f9.7 (1)
0x02f0|                              49               |          I     |      size: 73 0x2fa-0x2fa.7 (1)
      |                                               |                |      content{}: 0x2fb-0x343.7 (73)
0x02f0|                                 02            |           .    |        n: 2 0x2fb-0x2fb.7 (1)
      |                                               |                |        items[0:2]: 0x2fc-0x343.7 (72)
      |                                               |                |          [0]{}: data 0x2fc-0x306.7 (11)
0x02f0|                                    00         |            .   |            tag: 0 0x2fc-0x2fc.7 (1)
      |                                               |                |            instructions[0:2]: 0x2fd-0x301.7 (5)
      |                                               |                |              [0]{}: instr 0x2fd-0x300.7 (4)
0x02f0|                                       41      |             A  |                i32.const: 0x41 (valid) 0x2fd-0x2fd.7 (1)
0x02f0|                                          80 80|              ..|                n: 65536 0x2fe-0x300.7 (3)
0x0300|04                                             |.               |
      |                                               |                |              [1]{}: instr 0x301-0x301.7 (1)
0x0300|   0b                                          | .              |                end: 0xb (valid) 0x301-0x301.7 (1)
0x0300|      04                                       |  .             |            n: 4 0x302-0x302.7 (1)
0x0300|         00 00 00 00                           |   ....         |            bytes: raw bits 0x303-0x306.7 (4)
      |                                               |                |          [1]{}: data 0x307-0x343.7 (61)
0x0300|                     00                        |       .        |            tag: 0 0x307-0x307.7 (1)
      |                                               |                |            instructions[0:2]: 0x308-0x30c.7 (5)
      |                                               |                |              [0]{}: instr 0x308-0x30b.7 (4)
0x0300|                        41                     |        A       |                i32.const: 0x41 (valid) 0x308-0x308.7 (1)
0x0300|                           90 80 04            |         ...    |                n: 65552 0x309-0x30b.7 (3)
      |                                               |                |              [1]{}: instr 0x30c-0x30c.7 (1)
0x0300|                                    0b         |            .   |                end: 0xb (valid) 0x30c-0x30c.7 (1)
0x0300|                                       36      |             6  |            n: 54 0x30d-0x30d.7 (1)
0x0300|                                          6e 69|              ni|            bytes: raw bits 0x30e-0x343.7 (54)
0x0310|6c 20 70 6f 69 6e 74 65 72 20 64 65 72 65 66 65|l pointer derefe|
*     |until 0x343.7 (54)                             |                |
      |                                               |                |    [9]{}: section 0x344-0x686.7 (835)
0x0340|            00                                 |    .           |      id: "custom section" (0) 0x344-0x344.7 (1)
0x0340|               c0 06                           |     ..         |      size: 832 0x345-0x346.7 (2)
      |                                               |                |      content{}: 0x347-0x686.7 (832)
      |                                               |                |        name{}: 0x347-0x352.7 (12)
0x0340|                     0b                        |       .        |          len: 11 0x347-0x347.7 (1)
0x0340|                        2e 64 65 62 75 67 5f 69|        .debug_i|          utf8bytes: ".debug_info" 0x348-0x352.7 (11)
0x0350|6e 66 6f                                       |nfo             |
0x0350|         30 03 00 00 04 00 00 00 00 00 04 01 00|   0............|        bytes: raw bits 0x353-0x686.7 (820)
0x0360|00 00 00 0c 00 07 00 00 00 00 00 00 00 00 00 00|................|
*     |until 0x686.7 (820)                            |                |
      |                                               |                |    [10]{}: section 0x687-0x698.7 (18)
0x0680|                     00                        |       .        |      id: "custom section" (0) 0x687-0x687.7 (1)
0x0680|                        10                     |        .       |      size: 16 0x688-0x688.7 (1)
      |                                               |                |      content{}: 0x689-0x698.7 (16)
      |                                               |                |        name{}: 0x689-0x697.7 (15)
0x0680|                           0e                  |         .      |          len: 14 0x689-0x689.7 (1)
0x0680|                              2e 64 65 62 75 67|          .debug|          utf8bytes: ".debug_macinfo" 0x68a-0x697.7 (14)
0x0690|5f 6d 61 63 69 6e 66 6f                        |_macinfo        |
0x0690|                        00                     |        .       |        bytes: raw bits 0x698-0x698.7 (1)
      |                                               |                |    [11]{}: section 0x699-0x6e7.7 (79)
0x0690|                           00                  |         .      |      id: "custom section" (0) 0x699-0x699.7 (1)
0x0690|                              4d               |          M     |      size: 77 0x69a-0x69a.7 (1)
      |                                               |                |      content{}: 0x69b-0x6e7.7 (77)
      |                                               |                |        name{}: 0x69b-0x6a5.7 (11)
0x0690|                                 0a            |           .    |          len: 10 0x69b-0x69b.7 (1)
0x0690|                                    2e 64 65 62|            .deb|          utf8bytes: ".debug_loc" 0x69c-0x6a5.7 (10)
0x06a0|75 67 5f 6c 6f 63                              |ug_loc          |
0x06a0|                  7d 00 00 00 a0 00 00 00 08 00|      }.........|        bytes: raw bits 0x6a6-0x6e7.7 (66)
0x06b0|30 9f 93 04 30 9f 93 04 00 00 00 00 00 00 00 00|0...0...........|
*     |until 0x6e7.7 (66)                             |                |
      |                                               |                |    [12]{}: section 0x6e8-0x77e.7 (151)
0x06e0|                        00                     |        .       |      id: "custom section" (0) 0x6e8-0x6e8.7 (1)
0x06e0|                           94 01               |         ..     |      size: 148 0x6e9-0x6ea.7 (2)
      |                                               |                |      content{}: 0x6eb-0x77e.7 (148)
      |                                               |                |        name{}: 0x6eb-0x6fa.7 (16)
0x06e0|                                 0f            |           .    |          len: 15 0x6eb-0x6eb.7 (1)
0x06e0|                                    2e 64 65 62|            .deb|          utf8bytes: ".debug_pubtypes" 0x6ec-0x6fa.7 (15)
0x06f0|75 67 5f 70 75 62 74 79 70 65 73               |ug_pubtypes     |
0x06f0|                                 80 00 00 00 02|           .....|        bytes: raw bits 0x6fb-0x77e.7 (132)
0x0700|00 00 00 00 00 34 03 00 00 ad 00 00 00 75 6e 73|.....4.......uns|
*     |until 0x77e.7 (132)                            |                |
      |                                               |                |    [13]{}: section 0x77f-0x84f.7 (209)
0x0770|                                             00|               .|      id: "custom section" (0) 0x77f-0x77f.7 (1)
0x0780|ce 01                                          |..              |      size: 206 0x780-0x781.7 (2)
      |                                               |                |      content{}: 0x782-0x84f.7 (206)
      |                                               |                |        name{}: 0x782-0x78f.7 (14)
0x0780|      0d                                       |  .             |          len: 13 0x782-0x782.7 (1)
0x0780|         2e 64 65 62 75 67 5f 72 61 6e 67 65 73|   .debug_ranges|          utf8bytes: ".debug_ranges" 0x783-0x78f.7 (13)
0x0790|16 00 00 00 5a 00 00 00 6b 00 00 00 73 00 00 00|....Z...k...s...|        bytes: raw bits 0x790-0x84f.7 (192)
*     |until 0x84f.7 (192)                            |                |
      |                                               |                |    [14]{}: section 0x850-0x961.7 (274)
0x0850|00                                             |.               |      id: "custom section" (0) 0x850-0x850.7 (1)
0x0850|   8f 02                                       | ..             |      size: 271 0x851-0x852.7 (2)
      |                                               |                |      content{}: 0x853-0x961.7 (271)
      |                                               |                |        name{}: 0x853-0x860.7 (14)
0x0850|         0d                                    |   .            |          len: 13 0x853-0x853.7 (1)
0x0850|            2e 64 65 62 75 67 5f 61 62 62 72 65|    .debug_abbre|          utf8bytes: ".debug_abbrev" 0x854-0x860.7 (13)
0x0860|76                                             |v               |
0x0860|   01 11 01 25 0e 13 05 03 0e 10 17 b4 42 19 11| ...%........B..|        bytes: raw bits 0x861-0x961.7 (257)
0x0870|01 55 17 00 00 02 2e 00 11 01 12 06 6e 0e 03 0e|.U..........n...|
*     |until 0x961.7 (257)                            |                |
      |                                               |                |    [15]{}: section 0x962-0xc3e.7 (733)
0x0960|      00                                       |  .             |      id: "custom section" (0) 0x962-0x962.7 (1)
0x0960|         da 05                                 |   ..           |      size: 730 0x963-0x964.7 (2)
      |                                               |                |      content{}: 0x965-0xc3e.7 (730)
      |                                               |                |        name{}: 0x965-0x970.7 (12)
0x0960|               0b                              |     .          |          len: 11 0x965-0x965.7 (1)
0x0960|                  2e 64 65 62 75 67 5f 6c 69 6e|      .debug_lin|          utf8bytes: ".debug_line" 0x966-0x970.7 (11)
0x0970|65                                             |e               |
0x0970|   ca 02 00 00 04 00 9a 00 00 00 01 01 01 fb 0e| ...............|        bytes: raw bits 0x971-0xc3e.7 (718)
0x0980|0d 00 01 01 01 01 00 00 00 01 00 00 01 75 73 72|.............usr|
*     |until 0xc3e.7 (718)                            |                |
      |                                               |                |    [16]{}: section 0xc3f-0xe50.7 (530)
0x0c30|                                             00|               .|      id: "custom section" (0) 0xc3f-0xc3f.7 (1)
0x0c40|8f 04                                          |..              |      size: 527 0xc40-0xc41.7 (2)
      |                                               |                |      content{}: 0xc42-0xe50.7 (527)
      |                                               |                |        name{}: 0xc42-0xc4c.7 (11)
0x0c40|      0a                                       |  .             |          len: 10 0xc42-0xc42.7 (1)
0x0c40|         2e 64 65 62 75 67 5f 73 74 72         |   .debug_str   |          utf8bytes: ".debug_str" 0xc43-0xc4c.7 (10)
0x0c40|                                       54 69 6e|             Tin|        bytes: raw bits 0xc4d-0xe50.7 (516)
0x0c50|79 47 6f 00 2f 73 72 63 2f 6d 61 69 6e 2e 67 6f|yGo./src/main.go|
*     |until 0xe50.7 (516)                            |                |
      |                                               |                |    [17]{}: section 0xe51-0xfe9.7 (409)
0x0e50|   00                                          | .              |      id: "custom section" (0) 0xe51-0xe51.7 (1)
0x0e50|      96 03                                    |  ..            |      size: 406 0xe52-0xe53.7 (2)
      |                                               |                |      content{}: 0xe54-0xfe9.7 (406)
      |                                               |                |        name{}: 0xe54-0xe63.7 (16)
0x0e50|            0f                                 |    .           |          len: 15 0xe54-0xe54.7 (1)
0x0e50|               2e 64 65 62 75 67 5f 70 75 62 6e|     .debug_pubn|          utf8bytes: ".debug_pubnames" 0xe55-0xe63.7 (15)
0x0e60|61 6d 65 73                                    |ames            |
0x0e60|            82 01 00 00 02 00 00 00 00 00 34 03|    ..........4.|        bytes: raw bits 0xe64-0xfe9.7 (390)
0x0e70|00 00 2e 01 00 00 72 75 6e 74 69 6d 65 2e 6e 69|......runtime.ni|
*     |until 0xfe9.7 (390)                            |                |
      |                                               |                |    [18]{}: section 0xfea-0x10e1.7 (248)
0x0fe0|                              00               |          .     |      id: "custom section" (0) 0xfea-0xfea.7 (1)
0x0fe0|                                 f5 01         |           ..   |      size: 245 0xfeb-0xfec.7 (2)
      |                                               |                |      content{}: 0xfed-0x10e1.7 (245)
      |                                               |                |        name{}: 0xfed-0xff1.7 (5)
0x0fe0|                                       04      |             .  |          len: 4 0xfed-0xfed.7 (1)
0x0fe0|                                          6e 61|              na|          utf8bytes: "name" 0xfee-0xff1.7 (4)
0x0ff0|6d 65                                          |me              |
0x0ff0|      01 ed 01 12 00 0d 69 6f 5f 67 65 74 5f 73|  ......io_get_s|        bytes: raw bits 0xff2-0x10e1.7 (240)
0x1000|74 64 6f 75 74 01 0e 72 65 73 6f 75 72 63 65 5f|tdout..resource_|
*     |until 0x10e1.7 (240)                           |                |
      |                                               |                |    [19]{}: section 0x10e2-0x10fd.7 (28)
0x10e0|      00                                       |  .             |      id: "custom section" (0) 0x10e2-0x10e2.7 (1)
0x10e0|         1a                                    |   .            |      size: 26 0x10e3-0x10e3.7 (1)
      |                                               |                |      content{}: 0x10e4-0x10fd.7 (26)
      |                                               |                |        name{}: 0x10e4-0x10ed.7 (10)
0x10e0|            09                                 |    .           |          len: 9 0x10e4-0x10e4.7 (1)
0x10e0|               70 72 6f 64 75 63 65 72 73      |     producers  |          utf8bytes: "producers" 0x10e5-0x10ed.7 (9)
0x10e0|                                          01 08|              ..|        bytes: raw bits 0x10ee-0x10fd.7 (16)
0x10f0|6c 61 6e 67 75 61 67 65 01 03 43 39 39 00|     |language..C99.| |
